; Listing generated by Microsoft (R) Optimizing Compiler Version 19.16.27045.0 

	TITLE	C:\Users\USER\Downloads\xash_build4529_src\engine\client\gl_rpart.c
	.686P
	.XMM
	include listing.inc
	.model	flat

INCLUDELIB MSVCRTD
INCLUDELIB OLDNAMES

PUBLIC	_cl_particles
_DATA	SEGMENT
COMM	_pglColor4f:DWORD
COMM	_pglColor4fv:DWORD
COMM	_pglColor4i:DWORD
COMM	_pglColor4iv:DWORD
COMM	_pglColor4s:DWORD
COMM	_pglColor4sv:DWORD
COMM	_pglColor4ub:DWORD
COMM	_pglColor4ubv:DWORD
COMM	_pglColor4ui:DWORD
COMM	_pglColor4uiv:DWORD
COMM	_pglColor4us:DWORD
COMM	_pglColor4usv:DWORD
COMM	_pglColorMask:DWORD
COMM	_pglColorMaterial:DWORD
COMM	_pglColorPointer:DWORD
COMM	_pglCopyPixels:DWORD
COMM	_pglCopyTexImage1D:DWORD
COMM	_pglCopyTexImage2D:DWORD
COMM	_pglCopyTexSubImage1D:DWORD
COMM	_pglCopyTexSubImage2D:DWORD
COMM	_pglCullFace:DWORD
COMM	_pglDeleteLists:DWORD
COMM	_pglDeleteTextures:DWORD
COMM	_pglDepthFunc:DWORD
COMM	_pglDepthMask:DWORD
COMM	_pglDepthRange:DWORD
COMM	_pglDisable:DWORD
COMM	_pglDisableClientState:DWORD
COMM	_pglDrawArrays:DWORD
COMM	_pglDrawBuffer:DWORD
COMM	_pglDrawElements:DWORD
COMM	_pglDrawPixels:DWORD
COMM	_pglEdgeFlag:DWORD
COMM	_pglEdgeFlagPointer:DWORD
COMM	_pglEdgeFlagv:DWORD
COMM	_pglEnable:DWORD
COMM	_pglEnableClientState:DWORD
COMM	_pglEnd:DWORD
COMM	_pglEndList:DWORD
COMM	_pglEvalCoord1d:DWORD
COMM	_pglEvalCoord1dv:DWORD
COMM	_pglEvalCoord1f:DWORD
COMM	_pglEvalCoord1fv:DWORD
COMM	_pglEvalCoord2d:DWORD
COMM	_pglEvalCoord2dv:DWORD
COMM	_pglEvalCoord2f:DWORD
COMM	_pglEvalCoord2fv:DWORD
COMM	_pglEvalMesh1:DWORD
COMM	_pglEvalMesh2:DWORD
COMM	_pglEvalPoint1:DWORD
COMM	_pglEvalPoint2:DWORD
COMM	_pglFeedbackBuffer:DWORD
COMM	_pglFinish:DWORD
COMM	_pglFlush:DWORD
COMM	_pglFogf:DWORD
COMM	_pglFogfv:DWORD
COMM	_pglFogi:DWORD
COMM	_pglFogiv:DWORD
COMM	_pglFrontFace:DWORD
COMM	_pglFrustum:DWORD
COMM	_pglGenTextures:DWORD
COMM	_pglGetBooleanv:DWORD
COMM	_pglGetClipPlane:DWORD
COMM	_pglGetDoublev:DWORD
COMM	_pglGetFloatv:DWORD
COMM	_pglGetIntegerv:DWORD
COMM	_pglGetLightfv:DWORD
COMM	_pglGetLightiv:DWORD
COMM	_pglGetMapdv:DWORD
COMM	_pglGetMapfv:DWORD
COMM	_pglGetMapiv:DWORD
COMM	_pglGetMaterialfv:DWORD
COMM	_pglGetMaterialiv:DWORD
COMM	_pglGetPixelMapfv:DWORD
COMM	_pglGetPixelMapuiv:DWORD
COMM	_pglGetPixelMapusv:DWORD
COMM	_pglGetPointerv:DWORD
COMM	_pglGetPolygonStipple:DWORD
COMM	_pglGetTexEnvfv:DWORD
COMM	_pglGetTexEnviv:DWORD
COMM	_pglGetTexGendv:DWORD
COMM	_pglGetTexGenfv:DWORD
COMM	_pglGetTexGeniv:DWORD
COMM	_pglGetTexImage:DWORD
COMM	_pglGetTexLevelParameterfv:DWORD
COMM	_pglGetTexLevelParameteriv:DWORD
COMM	_pglGetTexParameterfv:DWORD
COMM	_pglGetTexParameteriv:DWORD
COMM	_pglHint:DWORD
COMM	_pglIndexMask:DWORD
COMM	_pglIndexPointer:DWORD
COMM	_pglIndexd:DWORD
COMM	_pglIndexdv:DWORD
COMM	_pglIndexf:DWORD
COMM	_pglIndexfv:DWORD
COMM	_pglIndexi:DWORD
COMM	_pglIndexiv:DWORD
COMM	_pglIndexs:DWORD
COMM	_pglIndexsv:DWORD
COMM	_pglIndexub:DWORD
COMM	_pglIndexubv:DWORD
COMM	_pglInitNames:DWORD
COMM	_pglInterleavedArrays:DWORD
COMM	_pglLightModelf:DWORD
COMM	_pglLightModelfv:DWORD
COMM	_pglLightModeli:DWORD
COMM	_pglLightModeliv:DWORD
COMM	_pglLightf:DWORD
COMM	_pglLightfv:DWORD
COMM	_pglLighti:DWORD
COMM	_pglLightiv:DWORD
COMM	_pglLineStipple:DWORD
COMM	_pglLineWidth:DWORD
COMM	_pglListBase:DWORD
COMM	_pglLoadIdentity:DWORD
COMM	_pglLoadMatrixd:DWORD
COMM	_pglLoadMatrixf:DWORD
COMM	_pglLoadName:DWORD
COMM	_pglLogicOp:DWORD
COMM	_pglMap1d:DWORD
COMM	_pglMap1f:DWORD
COMM	_pglMap2d:DWORD
COMM	_pglMap2f:DWORD
COMM	_pglMapGrid1d:DWORD
COMM	_pglMapGrid1f:DWORD
COMM	_pglMapGrid2d:DWORD
COMM	_pglMapGrid2f:DWORD
COMM	_pglMaterialf:DWORD
COMM	_pglMaterialfv:DWORD
COMM	_pglMateriali:DWORD
COMM	_pglMaterialiv:DWORD
COMM	_pglMatrixMode:DWORD
COMM	_pglMultMatrixd:DWORD
COMM	_pglMultMatrixf:DWORD
COMM	_pglNewList:DWORD
COMM	_pglNormal3b:DWORD
COMM	_pglNormal3bv:DWORD
COMM	_pglNormal3d:DWORD
COMM	_pglNormal3dv:DWORD
COMM	_pglNormal3f:DWORD
COMM	_pglNormal3fv:DWORD
COMM	_pglNormal3i:DWORD
COMM	_pglNormal3iv:DWORD
COMM	_pglNormal3s:DWORD
COMM	_pglNormal3sv:DWORD
COMM	_pglNormalPointer:DWORD
COMM	_pglOrtho:DWORD
COMM	_pglPassThrough:DWORD
COMM	_pglPixelMapfv:DWORD
COMM	_pglPixelMapuiv:DWORD
COMM	_pglPixelMapusv:DWORD
COMM	_pglPixelStoref:DWORD
COMM	_pglPixelStorei:DWORD
COMM	_pglPixelTransferf:DWORD
COMM	_pglPixelTransferi:DWORD
COMM	_pglPixelZoom:DWORD
COMM	_pglPointSize:DWORD
COMM	_pglPolygonMode:DWORD
COMM	_pglPolygonOffset:DWORD
COMM	_pglPolygonStipple:DWORD
COMM	_pglPopAttrib:DWORD
COMM	_pglPopClientAttrib:DWORD
COMM	_pglPopMatrix:DWORD
COMM	_pglPopName:DWORD
COMM	_pglPushAttrib:DWORD
COMM	_pglPushClientAttrib:DWORD
COMM	_pglPushMatrix:DWORD
COMM	_pglPushName:DWORD
COMM	_pglRasterPos2d:DWORD
COMM	_pglRasterPos2dv:DWORD
COMM	_pglRasterPos2f:DWORD
COMM	_pglRasterPos2fv:DWORD
COMM	_pglRasterPos2i:DWORD
COMM	_pglRasterPos2iv:DWORD
COMM	_pglRasterPos2s:DWORD
COMM	_pglRasterPos2sv:DWORD
COMM	_pglRasterPos3d:DWORD
COMM	_pglRasterPos3dv:DWORD
COMM	_pglRasterPos3f:DWORD
COMM	_pglRasterPos3fv:DWORD
COMM	_pglRasterPos3i:DWORD
COMM	_pglRasterPos3iv:DWORD
COMM	_pglRasterPos3s:DWORD
COMM	_pglRasterPos3sv:DWORD
COMM	_pglRasterPos4d:DWORD
COMM	_pglRasterPos4dv:DWORD
COMM	_pglRasterPos4f:DWORD
COMM	_pglRasterPos4fv:DWORD
COMM	_pglRasterPos4i:DWORD
COMM	_pglRasterPos4iv:DWORD
COMM	_pglRasterPos4s:DWORD
COMM	_pglRasterPos4sv:DWORD
COMM	_pglReadBuffer:DWORD
COMM	_pglReadPixels:DWORD
COMM	_pglRectd:DWORD
COMM	_pglRectdv:DWORD
COMM	_pglRectf:DWORD
COMM	_pglRectfv:DWORD
COMM	_pglRecti:DWORD
COMM	_pglRectiv:DWORD
COMM	_pglRects:DWORD
COMM	_pglRectsv:DWORD
COMM	_pglRotated:DWORD
COMM	_pglRotatef:DWORD
COMM	_pglScaled:DWORD
COMM	_pglScalef:DWORD
COMM	_pglScissor:DWORD
COMM	_pglSelectBuffer:DWORD
COMM	_pglShadeModel:DWORD
COMM	_pglStencilFunc:DWORD
COMM	_pglStencilMask:DWORD
COMM	_pglStencilOp:DWORD
COMM	_pglTexCoord1d:DWORD
COMM	_pglTexCoord1dv:DWORD
COMM	_pglTexCoord1f:DWORD
COMM	_pglTexCoord1fv:DWORD
COMM	_pglTexCoord1i:DWORD
COMM	_pglTexCoord1iv:DWORD
COMM	_pglTexCoord1s:DWORD
COMM	_pglTexCoord1sv:DWORD
COMM	_pglTexCoord2d:DWORD
COMM	_pglTexCoord2dv:DWORD
COMM	_pglTexCoord2f:DWORD
COMM	_pglTexCoord2fv:DWORD
COMM	_pglTexCoord2i:DWORD
COMM	_pglTexCoord2iv:DWORD
COMM	_pglTexCoord2s:DWORD
COMM	_pglTexCoord2sv:DWORD
COMM	_pglTexCoord3d:DWORD
COMM	_pglTexCoord3dv:DWORD
COMM	_pglTexCoord3f:DWORD
COMM	_pglTexCoord3fv:DWORD
COMM	_pglTexCoord3i:DWORD
COMM	_pglTexCoord3iv:DWORD
COMM	_pglTexCoord3s:DWORD
COMM	_pglTexCoord3sv:DWORD
COMM	_pglTexCoord4d:DWORD
COMM	_pglTexCoord4dv:DWORD
COMM	_pglTexCoord4f:DWORD
COMM	_pglTexCoord4fv:DWORD
COMM	_pglTexCoord4i:DWORD
COMM	_pglTexCoord4iv:DWORD
COMM	_pglTexCoord4s:DWORD
COMM	_pglTexCoord4sv:DWORD
COMM	_pglTexCoordPointer:DWORD
COMM	_pglTexEnvf:DWORD
COMM	_pglTexEnvfv:DWORD
COMM	_pglTexEnvi:DWORD
COMM	_pglTexEnviv:DWORD
COMM	_pglTexGend:DWORD
COMM	_pglTexGendv:DWORD
COMM	_pglTexGenf:DWORD
COMM	_pglTexGenfv:DWORD
COMM	_pglTexGeni:DWORD
COMM	_pglTexGeniv:DWORD
COMM	_pglTexImage1D:DWORD
COMM	_pglTexImage2D:DWORD
COMM	_pglTexParameterf:DWORD
COMM	_pglTexParameterfv:DWORD
COMM	_pglTexParameteri:DWORD
COMM	_pglTexParameteriv:DWORD
COMM	_pglTexSubImage1D:DWORD
COMM	_pglTexSubImage2D:DWORD
COMM	_pglTranslated:DWORD
COMM	_pglTranslatef:DWORD
COMM	_pglVertex2d:DWORD
COMM	_pglVertex2dv:DWORD
COMM	_pglVertex2f:DWORD
COMM	_pglVertex2fv:DWORD
COMM	_pglVertex2i:DWORD
COMM	_pglVertex2iv:DWORD
COMM	_pglVertex2s:DWORD
COMM	_pglVertex2sv:DWORD
COMM	_pglVertex3d:DWORD
COMM	_pglVertex3dv:DWORD
COMM	_pglVertex3f:DWORD
COMM	_pglVertex3fv:DWORD
COMM	_pglVertex3i:DWORD
COMM	_pglVertex3iv:DWORD
COMM	_pglVertex3s:DWORD
COMM	_pglVertex3sv:DWORD
COMM	_pglVertex4d:DWORD
COMM	_pglVertex4dv:DWORD
COMM	_pglVertex4f:DWORD
COMM	_pglVertex4fv:DWORD
COMM	_pglVertex4i:DWORD
COMM	_pglVertex4iv:DWORD
COMM	_pglVertex4s:DWORD
COMM	_pglVertex4sv:DWORD
COMM	_pglVertexPointer:DWORD
COMM	_pglViewport:DWORD
COMM	_pglPointParameterfEXT:DWORD
COMM	_pglPointParameterfvEXT:DWORD
COMM	_pglLockArraysEXT:DWORD
COMM	_pglUnlockArraysEXT:DWORD
COMM	_pglActiveTextureARB:DWORD
COMM	_pglClientActiveTextureARB:DWORD
COMM	_pglGetCompressedTexImage:DWORD
COMM	_pglDrawRangeElements:DWORD
COMM	_pglDrawRangeElementsEXT:DWORD
COMM	_pglMultiTexCoord1f:DWORD
COMM	_pglMultiTexCoord2f:DWORD
COMM	_pglMultiTexCoord3f:DWORD
COMM	_pglMultiTexCoord4f:DWORD
COMM	_pglActiveTexture:DWORD
COMM	_pglClientActiveTexture:DWORD
COMM	_pglCompressedTexImage3DARB:DWORD
COMM	_pglCompressedTexImage2DARB:DWORD
COMM	_pglCompressedTexImage1DARB:DWORD
COMM	_pglCompressedTexSubImage3DARB:DWORD
COMM	_pglCompressedTexSubImage2DARB:DWORD
COMM	_pglCompressedTexSubImage1DARB:DWORD
COMM	_pglDeleteObjectARB:DWORD
COMM	_pglGetHandleARB:DWORD
COMM	_pglDetachObjectARB:DWORD
COMM	_pglCreateShaderObjectARB:DWORD
COMM	_pglShaderSourceARB:DWORD
COMM	_pglCompileShaderARB:DWORD
COMM	_pglCreateProgramObjectARB:DWORD
COMM	_pglAttachObjectARB:DWORD
COMM	_pglLinkProgramARB:DWORD
COMM	_pglUseProgramObjectARB:DWORD
COMM	_pglValidateProgramARB:DWORD
COMM	_pglBindProgramARB:DWORD
COMM	_pglDeleteProgramsARB:DWORD
COMM	_pglGenProgramsARB:DWORD
COMM	_pglProgramStringARB:DWORD
COMM	_pglProgramEnvParameter4fARB:DWORD
COMM	_pglProgramLocalParameter4fARB:DWORD
COMM	_pglUniform1fARB:DWORD
COMM	_pglUniform2fARB:DWORD
COMM	_pglUniform3fARB:DWORD
COMM	_pglUniform4fARB:DWORD
COMM	_pglUniform1iARB:DWORD
COMM	_pglUniform2iARB:DWORD
COMM	_pglUniform3iARB:DWORD
COMM	_pglUniform4iARB:DWORD
COMM	_pglUniform1fvARB:DWORD
COMM	_pglUniform2fvARB:DWORD
COMM	_pglUniform3fvARB:DWORD
COMM	_pglUniform4fvARB:DWORD
COMM	_pglUniform1ivARB:DWORD
COMM	_pglUniform2ivARB:DWORD
COMM	_pglUniform3ivARB:DWORD
COMM	_pglUniform4ivARB:DWORD
COMM	_pglUniformMatrix2fvARB:DWORD
COMM	_pglUniformMatrix3fvARB:DWORD
COMM	_pglUniformMatrix4fvARB:DWORD
COMM	_pglGetObjectParameterfvARB:DWORD
COMM	_pglGetObjectParameterivARB:DWORD
COMM	_pglGetInfoLogARB:DWORD
COMM	_pglGetAttachedObjectsARB:DWORD
COMM	_pglGetUniformLocationARB:DWORD
COMM	_pglGetActiveUniformARB:DWORD
COMM	_pglGetUniformfvARB:DWORD
COMM	_pglGetUniformivARB:DWORD
COMM	_pglGetShaderSourceARB:DWORD
COMM	_pglTexImage3D:DWORD
COMM	_pglTexSubImage3D:DWORD
COMM	_pglCopyTexSubImage3D:DWORD
COMM	_pglBlendEquationEXT:DWORD
COMM	_pglStencilOpSeparate:DWORD
COMM	_pglStencilFuncSeparate:DWORD
COMM	_pglActiveStencilFaceEXT:DWORD
COMM	_pglVertexAttribPointerARB:DWORD
COMM	_pglEnableVertexAttribArrayARB:DWORD
COMM	_pglDisableVertexAttribArrayARB:DWORD
COMM	_pglBindAttribLocationARB:DWORD
COMM	_pglGetActiveAttribARB:DWORD
COMM	_pglGetAttribLocationARB:DWORD
COMM	_pglBindFragDataLocation:DWORD
COMM	_pglVertexAttrib2fARB:DWORD
COMM	_pglVertexAttrib2fvARB:DWORD
COMM	_pglVertexAttrib3fvARB:DWORD
COMM	_pglBindBufferARB:DWORD
COMM	_pglDeleteBuffersARB:DWORD
COMM	_pglGenBuffersARB:DWORD
COMM	_pglIsBufferARB:DWORD
COMM	_pglMapBufferARB:DWORD
COMM	_pglUnmapBufferARB:DWORD
COMM	_pglBufferDataARB:DWORD
COMM	_pglBufferSubDataARB:DWORD
COMM	_pglGenQueriesARB:DWORD
COMM	_pglDeleteQueriesARB:DWORD
COMM	_pglIsQueryARB:DWORD
COMM	_pglBeginQueryARB:DWORD
COMM	_pglEndQueryARB:DWORD
COMM	_pglGetQueryivARB:DWORD
COMM	_pglGetQueryObjectivARB:DWORD
COMM	_pglGetQueryObjectuivARB:DWORD
COMM	_pglDebugMessageControlARB:DWORD
COMM	_pglDebugMessageInsertARB:DWORD
COMM	_pglDebugMessageCallbackARB:DWORD
COMM	_pglGetDebugMessageLogARB:DWORD
COMM	_pglIsRenderbuffer:DWORD
COMM	_pglBindRenderbuffer:DWORD
COMM	_pglDeleteRenderbuffers:DWORD
COMM	_pglGenRenderbuffers:DWORD
COMM	_pglRenderbufferStorage:DWORD
COMM	_pglRenderbufferStorageMultisample:DWORD
COMM	_pglGetRenderbufferParameteriv:DWORD
COMM	_pglIsFramebuffer:DWORD
COMM	_pglBindFramebuffer:DWORD
COMM	_pglDeleteFramebuffers:DWORD
COMM	_pglGenFramebuffers:DWORD
COMM	_pglCheckFramebufferStatus:DWORD
COMM	_pglFramebufferTexture1D:DWORD
COMM	_pglFramebufferTexture2D:DWORD
COMM	_pglFramebufferTexture3D:DWORD
COMM	_pglFramebufferTextureLayer:DWORD
COMM	_pglFramebufferRenderbuffer:DWORD
COMM	_pglGetFramebufferAttachmentParameteriv:DWORD
COMM	_pglBlitFramebuffer:DWORD
COMM	_pglDrawBuffersARB:DWORD
COMM	_pglGenerateMipmap:DWORD
COMM	_pglBindVertexArray:DWORD
COMM	_pglDeleteVertexArrays:DWORD
COMM	_pglGenVertexArrays:DWORD
COMM	_pglIsVertexArray:DWORD
COMM	_pglSwapInterval:DWORD
COMM	_pwglSwapBuffers:DWORD
COMM	_pwglCopyContext:DWORD
COMM	_pwglCreateContext:DWORD
COMM	_pwglCreateLayerContext:DWORD
COMM	_pwglDeleteContext:DWORD
COMM	_pwglGetCurrentContext:DWORD
COMM	_pwglGetProcAddress:DWORD
COMM	_pwglMakeCurrent:DWORD
COMM	_pwglShareLists:DWORD
COMM	_pwglUseFontBitmaps:DWORD
COMM	_pwglUseFontOutlines:DWORD
COMM	_pwglDescribeLayerPlane:DWORD
COMM	_pwglSetLayerPaletteEntries:DWORD
COMM	_pwglGetLayerPaletteEntries:DWORD
COMM	_pwglRealizeLayerPalette:DWORD
COMM	_pwglSwapLayerBuffers:DWORD
COMM	_pwglSwapIntervalEXT:DWORD
COMM	_pwglCreateContextAttribsARB:DWORD
COMM	_pwglGetPixelFormatAttribiv:DWORD
COMM	_pwglChoosePixelFormat:DWORD
COMM	_pwglGetExtensionsStringEXT:DWORD
COMM	_cl_free_particles:DWORD
COMM	_tracerred:DWORD
COMM	_tracergreen:DWORD
COMM	_tracerblue:DWORD
COMM	_traceralpha:DWORD
COMM	_tracerspeed:DWORD
COMM	_tracerlength:DWORD
COMM	_traceroffset:DWORD
COMM	_cl_active_particles:DWORD
COMM	_cl_active_tracers:DWORD
_DATA	ENDS
_BSS	SEGMENT
_cl_particles DD 01H DUP (?)
_BSS	ENDS
_DATA	SEGMENT
COMM	_pglGetError:DWORD
COMM	_pglGetString:DWORD
COMM	_pglAccum:DWORD
COMM	_pglAlphaFunc:DWORD
COMM	_pglArrayElement:DWORD
COMM	_pglBegin:DWORD
COMM	_pglBindTexture:DWORD
COMM	_pglBitmap:DWORD
COMM	_pglBlendFunc:DWORD
COMM	_pglCallList:DWORD
COMM	_pglCallLists:DWORD
COMM	_pglClear:DWORD
COMM	_pglClearAccum:DWORD
COMM	_pglClearColor:DWORD
COMM	_pglClearDepth:DWORD
COMM	_pglClearIndex:DWORD
COMM	_pglClearStencil:DWORD
COMM	_pglIsEnabled:DWORD
COMM	_pglIsList:DWORD
COMM	_pglIsTexture:DWORD
COMM	_pglClipPlane:DWORD
COMM	_pglColor3b:DWORD
COMM	_pglColor3bv:DWORD
COMM	_pglColor3d:DWORD
COMM	_pglColor3dv:DWORD
COMM	_pglColor3f:DWORD
COMM	_pglColor3fv:DWORD
COMM	_pglColor3i:DWORD
COMM	_pglColor3iv:DWORD
COMM	_pglColor3s:DWORD
COMM	_pglColor3sv:DWORD
COMM	_pglColor3ub:DWORD
COMM	_pglColor3ubv:DWORD
COMM	_pglColor3ui:DWORD
COMM	_pglColor3uiv:DWORD
COMM	_pglColor3us:DWORD
COMM	_pglColor3usv:DWORD
COMM	_pglColor4b:DWORD
COMM	_pglColor4bv:DWORD
COMM	_pglColor4d:DWORD
COMM	_pglColor4dv:DWORD
_DATA	ENDS
PUBLIC	_CL_Particle
PUBLIC	_CL_DrawParticlesExternal
PUBLIC	_R_FreeDeadParticles
PUBLIC	_CL_InitParticles
PUBLIC	_CL_ClearParticles
PUBLIC	_CL_FreeParticles
PUBLIC	_CL_DrawParticles
PUBLIC	_CL_DrawTracers
PUBLIC	_CL_ReadPointFile_f
PUBLIC	_R_AllocParticle
PUBLIC	_R_ParticleExplosion
PUBLIC	_R_ParticleExplosion2
PUBLIC	_R_Implosion
PUBLIC	_R_Blood
PUBLIC	_R_BloodStream
PUBLIC	_R_BlobExplosion
PUBLIC	_R_EntityParticles
PUBLIC	_R_FlickerParticles
PUBLIC	_R_RunParticleEffect
PUBLIC	_R_ParticleBurst
PUBLIC	_R_LavaSplash
PUBLIC	_R_TeleportSplash
PUBLIC	_R_RocketTrail
PUBLIC	_R_LookupColor
PUBLIC	_R_GetPackedColor
PUBLIC	_R_TracerEffect
PUBLIC	_R_UserTracerParticle
PUBLIC	_R_TracerParticles
PUBLIC	_R_ParticleLine
PUBLIC	_R_ParticleBox
PUBLIC	_R_ShowLine
PUBLIC	_R_BulletImpactParticles
PUBLIC	_R_LargeFunnel
PUBLIC	_R_StreakSplash
PUBLIC	_R_SparkStreaks
PUBLIC	_R_DebugParticle
PUBLIC	_CL_FreeParticle
PUBLIC	_R_AllocTracer
PUBLIC	__real@00000000
PUBLIC	__real@0000000000000000
PUBLIC	__real@3727c5ac
PUBLIC	__real@3b03126f
PUBLIC	__real@3ba3d70a
PUBLIC	__real@3d4ccccd
PUBLIC	__real@3d75c28f
PUBLIC	__real@3d99999a
PUBLIC	__real@3dcccccd
PUBLIC	__real@3e4ccccd
PUBLIC	__real@3e99999a
PUBLIC	__real@3eae147b
PUBLIC	__real@3ecccccd
PUBLIC	__real@3f000000
PUBLIC	__real@3f4ccccd
PUBLIC	__real@3f50624de0000000
PUBLIC	__real@3f800000
PUBLIC	__real@3f847ae140000000
PUBLIC	__real@3fa999999999999a
PUBLIC	__real@3fa99999a0000000
PUBLIC	__real@3fc999999999999a
PUBLIC	__real@3fd3333333333333
PUBLIC	__real@3fd3333340000000
PUBLIC	__real@3fd9999a
PUBLIC	__real@3fe0000000000000
PUBLIC	__real@3feccccccccccccd
PUBLIC	__real@3ff0000000000000
PUBLIC	__real@3ff8000000000000
PUBLIC	__real@40000000
PUBLIC	__real@4000000000000000
PUBLIC	__real@4008000000000000
PUBLIC	__real@4010000000000000
PUBLIC	__real@4014000000000000
PUBLIC	__real@4019999a
PUBLIC	__real@40233333
PUBLIC	__real@4024000000000000
PUBLIC	__real@4027ae14
PUBLIC	__real@402e000000000000
PUBLIC	__real@4030000000000000
PUBLIC	__real@403e000000000000
PUBLIC	__real@40400000
PUBLIC	__real@406fe00000000000
PUBLIC	__real@40800000
PUBLIC	__real@40a00000
PUBLIC	__real@40c00000
PUBLIC	__real@40e00000
PUBLIC	__real@40f869f000000000
PUBLIC	__real@41000000
PUBLIC	__real@41100000
PUBLIC	__real@41700000
PUBLIC	__real@41800000
PUBLIC	__real@41a00000
PUBLIC	__real@41f00000
PUBLIC	__real@42000000
PUBLIC	__real@42480000
PUBLIC	__real@427c0000
PUBLIC	__real@42800000
PUBLIC	__real@42a00000
PUBLIC	__real@42c00000
PUBLIC	__real@42c80000
PUBLIC	__real@42de0000
PUBLIC	__real@42e20000
PUBLIC	__real@43000000
PUBLIC	__real@430f0000
PUBLIC	__real@437f0000
PUBLIC	__real@43800000
PUBLIC	__real@44480000
PUBLIC	__real@447a0000
PUBLIC	__real@46040000
PUBLIC	__real@497423f0
PUBLIC	__real@bd75c28f
PUBLIC	__real@bf000000
PUBLIC	__real@bf800000
PUBLIC	__real@bff0000000000000
PUBLIC	__real@c0400000
PUBLIC	__real@c1000000
PUBLIC	__real@c1200000
PUBLIC	__real@c1800000
PUBLIC	__real@c2000000
PUBLIC	__real@c2c80000
PUBLIC	__real@c3800000
PUBLIC	__xmm@80000000000000008000000000000000
PUBLIC	__xmm@80000000800000008000000080000000
EXTRN	_memcpy:PROC
EXTRN	_Q_atof:PROC
EXTRN	_Q_snprintf:PROC
EXTRN	__Mem_Alloc:PROC
EXTRN	__Mem_Free:PROC
EXTRN	_Cvar_Get:PROC
EXTRN	_FS_LoadFile:PROC
EXTRN	_Con_DPrintf:PROC
EXTRN	_Con_Printf:PROC
EXTRN	_COM_ParseFile:PROC
EXTRN	_COM_RandomLong:PROC
EXTRN	_COM_RandomFloat:PROC
EXTRN	_LightToTexGamma:PROC
EXTRN	_sqrt:PROC
EXTRN	_SinCos:PROC
EXTRN	_VectorNormalizeLength2:PROC
EXTRN	_VectorVectors:PROC
EXTRN	_CL_DrawBeams:PROC
EXTRN	_GL_Bind:PROC
EXTRN	_R_CullBox:PROC
EXTRN	_R_SetupRefParams:PROC
EXTRN	_R_SetupGL:PROC
EXTRN	_R_SetupFrustum:PROC
EXTRN	_PM_ParticleLine:PROC
EXTRN	_PM_DrawBBox:PROC
EXTRN	_TriSpriteTexture:PROC
EXTRN	_TriWorldToScreen:PROC
EXTRN	@__security_check_cookie@4:PROC
EXTRN	__chkstk:PROC
EXTRN	_memcpy:PROC
EXTRN	_host:BYTE
EXTRN	_SI:BYTE
EXTRN	_m_bytenormals:BYTE
EXTRN	_cl:BYTE
EXTRN	_cls:BYTE
EXTRN	_clgame:BYTE
EXTRN	_cl_draw_particles:DWORD
EXTRN	_cl_draw_tracers:DWORD
EXTRN	_r_stats:BYTE
EXTRN	_RI:BYTE
EXTRN	_tr:BYTE
EXTRN	_cl_sprite_dot:DWORD
EXTRN	___security_cookie:DWORD
EXTRN	__fltused:DWORD
_BSS	SEGMENT
_cl_avelocities DD 01e6H DUP (?)
_cl_lasttimewarn DD 01H DUP (?)
?tracercount@?1??R_RocketTrail@@9@9 DD 01H DUP (?)	; `R_RocketTrail'::`2'::tracercount
_BSS	ENDS
;	COMDAT __xmm@80000000800000008000000080000000
CONST	SEGMENT
__xmm@80000000800000008000000080000000 DB 00H, 00H, 00H, 080H, 00H, 00H, 00H
	DB	080H, 00H, 00H, 00H, 080H, 00H, 00H, 00H, 080H
CONST	ENDS
;	COMDAT __xmm@80000000000000008000000000000000
CONST	SEGMENT
__xmm@80000000000000008000000000000000 DB 00H, 00H, 00H, 00H, 00H, 00H, 00H
	DB	080H, 00H, 00H, 00H, 00H, 00H, 00H, 00H, 080H
CONST	ENDS
;	COMDAT __real@c3800000
CONST	SEGMENT
__real@c3800000 DD 0c3800000r			; -256
CONST	ENDS
;	COMDAT __real@c2c80000
CONST	SEGMENT
__real@c2c80000 DD 0c2c80000r			; -100
CONST	ENDS
;	COMDAT __real@c2000000
CONST	SEGMENT
__real@c2000000 DD 0c2000000r			; -32
CONST	ENDS
;	COMDAT __real@c1800000
CONST	SEGMENT
__real@c1800000 DD 0c1800000r			; -16
CONST	ENDS
;	COMDAT __real@c1200000
CONST	SEGMENT
__real@c1200000 DD 0c1200000r			; -10
CONST	ENDS
;	COMDAT __real@c1000000
CONST	SEGMENT
__real@c1000000 DD 0c1000000r			; -8
CONST	ENDS
;	COMDAT __real@c0400000
CONST	SEGMENT
__real@c0400000 DD 0c0400000r			; -3
CONST	ENDS
;	COMDAT __real@bff0000000000000
CONST	SEGMENT
__real@bff0000000000000 DQ 0bff0000000000000r	; -1
CONST	ENDS
;	COMDAT __real@bf800000
CONST	SEGMENT
__real@bf800000 DD 0bf800000r			; -1
CONST	ENDS
;	COMDAT __real@bf000000
CONST	SEGMENT
__real@bf000000 DD 0bf000000r			; -0.5
CONST	ENDS
;	COMDAT __real@bd75c28f
CONST	SEGMENT
__real@bd75c28f DD 0bd75c28fr			; -0.06
CONST	ENDS
;	COMDAT __real@497423f0
CONST	SEGMENT
__real@497423f0 DD 0497423f0r			; 999999
CONST	ENDS
;	COMDAT __real@46040000
CONST	SEGMENT
__real@46040000 DD 046040000r			; 8448
CONST	ENDS
;	COMDAT __real@447a0000
CONST	SEGMENT
__real@447a0000 DD 0447a0000r			; 1000
CONST	ENDS
;	COMDAT __real@44480000
CONST	SEGMENT
__real@44480000 DD 044480000r			; 800
CONST	ENDS
;	COMDAT __real@43800000
CONST	SEGMENT
__real@43800000 DD 043800000r			; 256
CONST	ENDS
;	COMDAT __real@437f0000
CONST	SEGMENT
__real@437f0000 DD 0437f0000r			; 255
CONST	ENDS
;	COMDAT __real@430f0000
CONST	SEGMENT
__real@430f0000 DD 0430f0000r			; 143
CONST	ENDS
;	COMDAT __real@43000000
CONST	SEGMENT
__real@43000000 DD 043000000r			; 128
CONST	ENDS
;	COMDAT __real@42e20000
CONST	SEGMENT
__real@42e20000 DD 042e20000r			; 113
CONST	ENDS
;	COMDAT __real@42de0000
CONST	SEGMENT
__real@42de0000 DD 042de0000r			; 111
CONST	ENDS
;	COMDAT __real@42c80000
CONST	SEGMENT
__real@42c80000 DD 042c80000r			; 100
CONST	ENDS
;	COMDAT __real@42c00000
CONST	SEGMENT
__real@42c00000 DD 042c00000r			; 96
CONST	ENDS
;	COMDAT __real@42a00000
CONST	SEGMENT
__real@42a00000 DD 042a00000r			; 80
CONST	ENDS
;	COMDAT __real@42800000
CONST	SEGMENT
__real@42800000 DD 042800000r			; 64
CONST	ENDS
;	COMDAT __real@427c0000
CONST	SEGMENT
__real@427c0000 DD 0427c0000r			; 63
CONST	ENDS
;	COMDAT __real@42480000
CONST	SEGMENT
__real@42480000 DD 042480000r			; 50
CONST	ENDS
;	COMDAT __real@42000000
CONST	SEGMENT
__real@42000000 DD 042000000r			; 32
CONST	ENDS
;	COMDAT __real@41f00000
CONST	SEGMENT
__real@41f00000 DD 041f00000r			; 30
CONST	ENDS
;	COMDAT __real@41a00000
CONST	SEGMENT
__real@41a00000 DD 041a00000r			; 20
CONST	ENDS
;	COMDAT __real@41800000
CONST	SEGMENT
__real@41800000 DD 041800000r			; 16
CONST	ENDS
;	COMDAT __real@41700000
CONST	SEGMENT
__real@41700000 DD 041700000r			; 15
CONST	ENDS
;	COMDAT __real@41100000
CONST	SEGMENT
__real@41100000 DD 041100000r			; 9
CONST	ENDS
;	COMDAT __real@41000000
CONST	SEGMENT
__real@41000000 DD 041000000r			; 8
CONST	ENDS
;	COMDAT __real@40f869f000000000
CONST	SEGMENT
__real@40f869f000000000 DQ 040f869f000000000r	; 99999
CONST	ENDS
;	COMDAT __real@40e00000
CONST	SEGMENT
__real@40e00000 DD 040e00000r			; 7
CONST	ENDS
;	COMDAT __real@40c00000
CONST	SEGMENT
__real@40c00000 DD 040c00000r			; 6
CONST	ENDS
;	COMDAT __real@40a00000
CONST	SEGMENT
__real@40a00000 DD 040a00000r			; 5
CONST	ENDS
;	COMDAT __real@40800000
CONST	SEGMENT
__real@40800000 DD 040800000r			; 4
CONST	ENDS
;	COMDAT __real@406fe00000000000
CONST	SEGMENT
__real@406fe00000000000 DQ 0406fe00000000000r	; 255
CONST	ENDS
;	COMDAT __real@40400000
CONST	SEGMENT
__real@40400000 DD 040400000r			; 3
CONST	ENDS
;	COMDAT __real@403e000000000000
CONST	SEGMENT
__real@403e000000000000 DQ 0403e000000000000r	; 30
CONST	ENDS
;	COMDAT __real@4030000000000000
CONST	SEGMENT
__real@4030000000000000 DQ 04030000000000000r	; 16
CONST	ENDS
;	COMDAT __real@402e000000000000
CONST	SEGMENT
__real@402e000000000000 DQ 0402e000000000000r	; 15
CONST	ENDS
;	COMDAT __real@4027ae14
CONST	SEGMENT
__real@4027ae14 DD 04027ae14r			; 2.62
CONST	ENDS
;	COMDAT __real@4024000000000000
CONST	SEGMENT
__real@4024000000000000 DQ 04024000000000000r	; 10
CONST	ENDS
;	COMDAT __real@40233333
CONST	SEGMENT
__real@40233333 DD 040233333r			; 2.55
CONST	ENDS
;	COMDAT __real@4019999a
CONST	SEGMENT
__real@4019999a DD 04019999ar			; 2.4
CONST	ENDS
;	COMDAT __real@4014000000000000
CONST	SEGMENT
__real@4014000000000000 DQ 04014000000000000r	; 5
CONST	ENDS
;	COMDAT __real@4010000000000000
CONST	SEGMENT
__real@4010000000000000 DQ 04010000000000000r	; 4
CONST	ENDS
;	COMDAT __real@4008000000000000
CONST	SEGMENT
__real@4008000000000000 DQ 04008000000000000r	; 3
CONST	ENDS
;	COMDAT __real@4000000000000000
CONST	SEGMENT
__real@4000000000000000 DQ 04000000000000000r	; 2
CONST	ENDS
;	COMDAT __real@40000000
CONST	SEGMENT
__real@40000000 DD 040000000r			; 2
CONST	ENDS
;	COMDAT __real@3ff8000000000000
CONST	SEGMENT
__real@3ff8000000000000 DQ 03ff8000000000000r	; 1.5
CONST	ENDS
;	COMDAT __real@3ff0000000000000
CONST	SEGMENT
__real@3ff0000000000000 DQ 03ff0000000000000r	; 1
CONST	ENDS
;	COMDAT __real@3feccccccccccccd
CONST	SEGMENT
__real@3feccccccccccccd DQ 03feccccccccccccdr	; 0.9
CONST	ENDS
;	COMDAT __real@3fe0000000000000
CONST	SEGMENT
__real@3fe0000000000000 DQ 03fe0000000000000r	; 0.5
CONST	ENDS
;	COMDAT __real@3fd9999a
CONST	SEGMENT
__real@3fd9999a DD 03fd9999ar			; 1.7
CONST	ENDS
;	COMDAT __real@3fd3333340000000
CONST	SEGMENT
__real@3fd3333340000000 DQ 03fd3333340000000r	; 0.3
CONST	ENDS
;	COMDAT __real@3fd3333333333333
CONST	SEGMENT
__real@3fd3333333333333 DQ 03fd3333333333333r	; 0.3
CONST	ENDS
;	COMDAT __real@3fc999999999999a
CONST	SEGMENT
__real@3fc999999999999a DQ 03fc999999999999ar	; 0.2
CONST	ENDS
;	COMDAT __real@3fa99999a0000000
CONST	SEGMENT
__real@3fa99999a0000000 DQ 03fa99999a0000000r	; 0.05
CONST	ENDS
;	COMDAT __real@3fa999999999999a
CONST	SEGMENT
__real@3fa999999999999a DQ 03fa999999999999ar	; 0.05
CONST	ENDS
;	COMDAT __real@3f847ae140000000
CONST	SEGMENT
__real@3f847ae140000000 DQ 03f847ae140000000r	; 0.01
CONST	ENDS
;	COMDAT __real@3f800000
CONST	SEGMENT
__real@3f800000 DD 03f800000r			; 1
CONST	ENDS
;	COMDAT __real@3f50624de0000000
CONST	SEGMENT
__real@3f50624de0000000 DQ 03f50624de0000000r	; 0.001
CONST	ENDS
;	COMDAT __real@3f4ccccd
CONST	SEGMENT
__real@3f4ccccd DD 03f4ccccdr			; 0.8
CONST	ENDS
;	COMDAT __real@3f000000
CONST	SEGMENT
__real@3f000000 DD 03f000000r			; 0.5
CONST	ENDS
;	COMDAT __real@3ecccccd
CONST	SEGMENT
__real@3ecccccd DD 03ecccccdr			; 0.4
CONST	ENDS
;	COMDAT __real@3eae147b
CONST	SEGMENT
__real@3eae147b DD 03eae147br			; 0.34
CONST	ENDS
;	COMDAT __real@3e99999a
CONST	SEGMENT
__real@3e99999a DD 03e99999ar			; 0.3
CONST	ENDS
;	COMDAT __real@3e4ccccd
CONST	SEGMENT
__real@3e4ccccd DD 03e4ccccdr			; 0.2
CONST	ENDS
;	COMDAT __real@3dcccccd
CONST	SEGMENT
__real@3dcccccd DD 03dcccccdr			; 0.1
CONST	ENDS
;	COMDAT __real@3d99999a
CONST	SEGMENT
__real@3d99999a DD 03d99999ar			; 0.075
CONST	ENDS
;	COMDAT __real@3d75c28f
CONST	SEGMENT
__real@3d75c28f DD 03d75c28fr			; 0.06
CONST	ENDS
;	COMDAT __real@3d4ccccd
CONST	SEGMENT
__real@3d4ccccd DD 03d4ccccdr			; 0.05
CONST	ENDS
;	COMDAT __real@3ba3d70a
CONST	SEGMENT
__real@3ba3d70a DD 03ba3d70ar			; 0.005
CONST	ENDS
;	COMDAT __real@3b03126f
CONST	SEGMENT
__real@3b03126f DD 03b03126fr			; 0.002
CONST	ENDS
;	COMDAT __real@3727c5ac
CONST	SEGMENT
__real@3727c5ac DD 03727c5acr			; 1e-05
CONST	ENDS
;	COMDAT __real@0000000000000000
CONST	SEGMENT
__real@0000000000000000 DQ 00000000000000000r	; 0
CONST	ENDS
;	COMDAT __real@00000000
CONST	SEGMENT
__real@00000000 DD 000000000r			; 0
CONST	ENDS
_DATA	SEGMENT
_ramp1	DD	06fH
	DD	06dH
	DD	06bH
	DD	069H
	DD	067H
	DD	065H
	DD	063H
	DD	061H
_ramp2	DD	06fH
	DD	06eH
	DD	06dH
	DD	06cH
	DD	06bH
	DD	06aH
	DD	068H
	DD	066H
_ramp3	DD	06dH
	DD	06bH
	DD	06H
	DD	05H
	DD	04H
	DD	03H
_gTracerSize DD	03fc00000r			; 1.5
	DD	03f000000r			; 0.5
	DD	03f800000r			; 1
	DD	03f800000r			; 1
	DD	03f800000r			; 1
	DD	03f800000r			; 1
	DD	03f800000r			; 1
	DD	03f800000r			; 1
	DD	03f800000r			; 1
	DD	03f800000r			; 1
	DD	03f800000r			; 1
_gSparkRamp DD	0feH
	DD	0fdH
	DD	0fcH
	DD	06fH
	DD	06eH
	DD	06dH
	DD	06cH
	DD	067H
	DD	060H
_gTracerColors DB 0ffH
	DB	0ffH
	DB	0ffH
	DB	0ffH
	DB	00H
	DB	00H
	DB	00H
	DB	0ffH
	DB	00H
	DB	00H
	DB	00H
	DB	0ffH
	DB	00H
	DB	00H
	DB	00H
	DB	0ffH
	DB	0a7H
	DB	011H
	DB	0ffH
	DB	082H
	DB	05aH
	DB	037H
	DB	03cH
	DB	090H
	DB	0ffH
	DB	082H
	DB	05aH
	DB	0ffH
	DB	08cH
	DB	05aH
	DB	0c8H
	DB	082H
	DB	05aH
	DB	0ffH
	DB	078H
	DB	046H
$SG145534 DB	'0.8', 00H
$SG145532 DB	'c:\users\user\downloads\xash_build4529_src\engine\client'
	DB	'\gl_rpart.c', 00H
$SG145533 DB	'tracer red component weight ( 0 - 1.0 )', 00H
$SG145535 DB	'tracerred', 00H
	ORG $+2
$SG145536 DB	'tracer green component weight ( 0 - 1.0 )', 00H
	ORG $+2
$SG145537 DB	'0.8', 00H
$SG145538 DB	'tracergreen', 00H
$SG145539 DB	'tracer blue component weight ( 0 - 1.0 )', 00H
	ORG $+3
$SG145540 DB	'0.4', 00H
$SG145541 DB	'tracerblue', 00H
	ORG $+1
$SG145542 DB	'tracer alpha amount ( 0 - 1.0 )', 00H
$SG145543 DB	'0.5', 00H
$SG145544 DB	'traceralpha', 00H
$SG145545 DB	'tracer speed', 00H
	ORG $+3
$SG145546 DB	'6000', 00H
	ORG $+3
$SG145547 DB	'tracerspeed', 00H
$SG145548 DB	'tracer length factor', 00H
	ORG $+3
$SG145549 DB	'0.8', 00H
$SG145550 DB	'tracerlength', 00H
	ORG $+3
$SG145551 DB	'tracer starting offset', 00H
	ORG $+1
$SG145552 DB	'30', 00H
	ORG $+1
$SG145553 DB	'traceroffset', 00H
	ORG $+3
$SG145588 DB	'^1Error:^7 Overflow %d particles', 0aH, 00H
	ORG $+2
$SG145568 DB	'c:\users\user\downloads\xash_build4529_src\engine\client'
	DB	'\gl_rpart.c', 00H
$SG145606 DB	'^1Error:^7 Overflow %d tracers', 0aH, 00H
$SG146176 DB	'^1Error:^7 UserTracer with color > %d', 0aH, 00H
	ORG $+1
$SG146235 DB	'maps/%s.pts', 00H
$SG146237 DB	'^1Error:^7 couldn''t open %s', 0aH, 00H
	ORG $+3
$SG146238 DB	'Reading %s...', 0aH, 00H
	ORG $+1
$SG146243 DB	'^1Error:^7 not enough free particles!', 0aH, 00H
	ORG $+1
$SG146244 DB	'c:\users\user\downloads\xash_build4529_src\engine\client'
	DB	'\gl_rpart.c', 00H
$SG146247 DB	'%i points read', 0aH, 00H
$SG146248 DB	'map %s has no leaks!', 0aH, 00H
_DATA	ENDS
; Function compile flags: /Odtp
; File c:\users\user\downloads\xash_build4529_src\engine\client\gl_rpart.c
_TEXT	SEGMENT
_i$ = -32						; size = 4
_mins$ = -28						; size = 12
_maxs$ = -16						; size = 12
__$ArrayPad$ = -4					; size = 4
_p$ = 8							; size = 4
_start$ = 12						; size = 4
_end$ = 16						; size = 4
_CL_CullTracer PROC

; 514  : {

	push	ebp
	mov	ebp, esp
	sub	esp, 32					; 00000020H
	mov	eax, DWORD PTR ___security_cookie
	xor	eax, ebp
	mov	DWORD PTR __$ArrayPad$[ebp], eax
	push	esi

; 515  : 	vec3_t	mins, maxs;
; 516  : 	int	i;
; 517  : 
; 518  : 	// compute the bounding box
; 519  : 	for( i = 0; i < 3; i++ )

	mov	DWORD PTR _i$[ebp], 0
	jmp	SHORT $LN4@CL_CullTra
$LN2@CL_CullTra:
	mov	eax, DWORD PTR _i$[ebp]
	add	eax, 1
	mov	DWORD PTR _i$[ebp], eax
$LN4@CL_CullTra:
	cmp	DWORD PTR _i$[ebp], 3
	jge	$LN3@CL_CullTra

; 520  : 	{
; 521  : 		if( start[i] < end[i] )

	mov	ecx, DWORD PTR _i$[ebp]
	mov	edx, DWORD PTR _end$[ebp]
	mov	eax, DWORD PTR _i$[ebp]
	mov	esi, DWORD PTR _start$[ebp]
	movss	xmm0, DWORD PTR [edx+ecx*4]
	comiss	xmm0, DWORD PTR [esi+eax*4]
	jbe	SHORT $LN5@CL_CullTra

; 522  : 		{
; 523  : 			mins[i] = start[i];

	mov	ecx, DWORD PTR _i$[ebp]
	mov	edx, DWORD PTR _i$[ebp]
	mov	eax, DWORD PTR _start$[ebp]
	mov	edx, DWORD PTR [eax+edx*4]
	mov	DWORD PTR _mins$[ebp+ecx*4], edx

; 524  : 			maxs[i] = end[i];

	mov	eax, DWORD PTR _i$[ebp]
	mov	ecx, DWORD PTR _i$[ebp]
	mov	edx, DWORD PTR _end$[ebp]
	mov	ecx, DWORD PTR [edx+ecx*4]
	mov	DWORD PTR _maxs$[ebp+eax*4], ecx

; 525  : 		}

	jmp	SHORT $LN6@CL_CullTra
$LN5@CL_CullTra:

; 526  : 		else
; 527  : 		{
; 528  : 			mins[i] = end[i];

	mov	edx, DWORD PTR _i$[ebp]
	mov	eax, DWORD PTR _i$[ebp]
	mov	ecx, DWORD PTR _end$[ebp]
	mov	eax, DWORD PTR [ecx+eax*4]
	mov	DWORD PTR _mins$[ebp+edx*4], eax

; 529  : 			maxs[i] = start[i];

	mov	ecx, DWORD PTR _i$[ebp]
	mov	edx, DWORD PTR _i$[ebp]
	mov	eax, DWORD PTR _start$[ebp]
	mov	edx, DWORD PTR [eax+edx*4]
	mov	DWORD PTR _maxs$[ebp+ecx*4], edx
$LN6@CL_CullTra:

; 530  : 		}
; 531  : 		
; 532  : 		// don't let it be zero sized
; 533  : 		if( mins[i] == maxs[i] )

	mov	eax, DWORD PTR _i$[ebp]
	mov	ecx, DWORD PTR _i$[ebp]
	movss	xmm0, DWORD PTR _mins$[ebp+eax*4]
	ucomiss	xmm0, DWORD PTR _maxs$[ebp+ecx*4]
	lahf
	test	ah, 68					; 00000044H
	jp	SHORT $LN7@CL_CullTra

; 534  : 		{
; 535  : 			maxs[i] += gTracerSize[p->type] * 2.0f;

	mov	edx, DWORD PTR _p$[ebp]
	mov	eax, DWORD PTR [edx+40]
	movss	xmm0, DWORD PTR _gTracerSize[eax*4]
	mulss	xmm0, DWORD PTR __real@40000000
	mov	ecx, DWORD PTR _i$[ebp]
	addss	xmm0, DWORD PTR _maxs$[ebp+ecx*4]
	mov	edx, DWORD PTR _i$[ebp]
	movss	DWORD PTR _maxs$[ebp+edx*4], xmm0
$LN7@CL_CullTra:

; 536  : 		}
; 537  : 	}

	jmp	$LN2@CL_CullTra
$LN3@CL_CullTra:

; 538  : 
; 539  : 	// check bbox
; 540  : 	return R_CullBox( mins, maxs );

	lea	eax, DWORD PTR _maxs$[ebp]
	push	eax
	lea	ecx, DWORD PTR _mins$[ebp]
	push	ecx
	call	_R_CullBox
	add	esp, 8

; 541  : }

	pop	esi
	mov	ecx, DWORD PTR __$ArrayPad$[ebp]
	xor	ecx, ebp
	call	@__security_check_cookie@4
	mov	esp, ebp
	pop	ebp
	ret	0
_CL_CullTracer ENDP
_TEXT	ENDS
; Function compile flags: /Odtp
; File c:\users\user\downloads\xash_build4529_src\engine\client\gl_rpart.c
_TEXT	SEGMENT
_p$ = -4						; size = 4
_org$ = 8						; size = 4
_vel$ = 12						; size = 4
_life$ = 16						; size = 4
_R_AllocTracer PROC

; 265  : {

	push	ebp
	mov	ebp, esp
	push	ecx
	push	esi

; 266  : 	particle_t	*p;
; 267  : 
; 268  : 	if( !cl_draw_tracers->value )

	mov	eax, DWORD PTR _cl_draw_tracers
	movss	xmm0, DWORD PTR [eax+12]
	ucomiss	xmm0, DWORD PTR __real@00000000
	lahf
	test	ah, 68					; 00000044H
	jp	SHORT $LN2@R_AllocTra

; 269  : 		return NULL;

	xor	eax, eax
	jmp	$LN1@R_AllocTra
$LN2@R_AllocTra:

; 270  : 
; 271  : 	// never alloc particles when we not in game
; 272  : 	if( tr.frametime == 0.0 ) return NULL;

	movsd	xmm0, QWORD PTR _tr+66968
	ucomisd	xmm0, QWORD PTR __real@0000000000000000
	lahf
	test	ah, 68					; 00000044H
	jp	SHORT $LN3@R_AllocTra
	xor	eax, eax
	jmp	$LN1@R_AllocTra
$LN3@R_AllocTra:

; 273  : 
; 274  : 	if( !cl_free_particles )

	cmp	DWORD PTR _cl_free_particles, 0
	jne	SHORT $LN4@R_AllocTra

; 275  : 	{
; 276  : 		if( cl_lasttimewarn < host.realtime )

	cvtss2sd xmm0, DWORD PTR _cl_lasttimewarn
	movsd	xmm1, QWORD PTR _host+1440
	comisd	xmm1, xmm0
	jbe	SHORT $LN5@R_AllocTra

; 277  : 		{
; 278  : 			// don't spam about overflow
; 279  : 			Con_DPrintf( S_ERROR "Overflow %d tracers\n", GI->max_particles );

	mov	ecx, DWORD PTR _SI+768
	mov	edx, DWORD PTR [ecx+1668]
	push	edx
	push	OFFSET $SG145606
	call	_Con_DPrintf
	add	esp, 8

; 280  : 			cl_lasttimewarn = host.realtime + 1.0f;

	movsd	xmm0, QWORD PTR _host+1440
	addsd	xmm0, QWORD PTR __real@3ff0000000000000
	cvtsd2ss xmm0, xmm0
	movss	DWORD PTR _cl_lasttimewarn, xmm0
$LN5@R_AllocTra:

; 281  : 		}
; 282  : 		return NULL;

	xor	eax, eax
	jmp	$LN1@R_AllocTra
$LN4@R_AllocTra:

; 283  : 	}
; 284  : 
; 285  : 	p = cl_free_particles;

	mov	eax, DWORD PTR _cl_free_particles
	mov	DWORD PTR _p$[ebp], eax

; 286  : 	cl_free_particles = p->next;

	mov	ecx, DWORD PTR _p$[ebp]
	mov	edx, DWORD PTR [ecx+16]
	mov	DWORD PTR _cl_free_particles, edx

; 287  : 	p->next = cl_active_tracers;

	mov	eax, DWORD PTR _p$[ebp]
	mov	ecx, DWORD PTR _cl_active_tracers
	mov	DWORD PTR [eax+16], ecx

; 288  : 	cl_active_tracers = p;

	mov	edx, DWORD PTR _p$[ebp]
	mov	DWORD PTR _cl_active_tracers, edx

; 289  : 
; 290  : 	// clear old particle
; 291  : 	p->type = pt_static;

	mov	eax, DWORD PTR _p$[ebp]
	mov	DWORD PTR [eax+40], 0

; 292  : 	VectorCopy( org, p->org );

	mov	ecx, 4
	imul	edx, ecx, 0
	mov	eax, 4
	imul	ecx, eax, 0
	mov	eax, DWORD PTR _p$[ebp]
	mov	esi, DWORD PTR _org$[ebp]
	mov	edx, DWORD PTR [esi+edx]
	mov	DWORD PTR [eax+ecx], edx
	mov	eax, 4
	shl	eax, 0
	mov	ecx, 4
	shl	ecx, 0
	mov	edx, DWORD PTR _p$[ebp]
	mov	esi, DWORD PTR _org$[ebp]
	mov	eax, DWORD PTR [esi+eax]
	mov	DWORD PTR [edx+ecx], eax
	mov	ecx, 4
	shl	ecx, 1
	mov	edx, 4
	shl	edx, 1
	mov	eax, DWORD PTR _p$[ebp]
	mov	esi, DWORD PTR _org$[ebp]
	mov	ecx, DWORD PTR [esi+ecx]
	mov	DWORD PTR [eax+edx], ecx

; 293  : 	VectorCopy( vel, p->vel );

	mov	edx, 4
	imul	eax, edx, 0
	mov	ecx, 4
	imul	edx, ecx, 0
	mov	ecx, DWORD PTR _p$[ebp]
	mov	esi, DWORD PTR _vel$[ebp]
	mov	eax, DWORD PTR [esi+eax]
	mov	DWORD PTR [ecx+edx+20], eax
	mov	ecx, 4
	shl	ecx, 0
	mov	edx, 4
	shl	edx, 0
	mov	eax, DWORD PTR _p$[ebp]
	mov	esi, DWORD PTR _vel$[ebp]
	mov	ecx, DWORD PTR [esi+ecx]
	mov	DWORD PTR [eax+edx+20], ecx
	mov	edx, 4
	shl	edx, 1
	mov	eax, 4
	shl	eax, 1
	mov	ecx, DWORD PTR _p$[ebp]
	mov	esi, DWORD PTR _vel$[ebp]
	mov	edx, DWORD PTR [esi+edx]
	mov	DWORD PTR [ecx+eax+20], edx

; 294  : 	p->die = cl.time + life;

	cvtss2sd xmm0, DWORD PTR _life$[ebp]
	addsd	xmm0, QWORD PTR _cl+1525848
	cvtsd2ss xmm0, xmm0
	mov	eax, DWORD PTR _p$[ebp]
	movss	DWORD PTR [eax+36], xmm0

; 295  : 	p->ramp = tracerlength->value;

	mov	ecx, DWORD PTR _p$[ebp]
	mov	edx, DWORD PTR _tracerlength
	mov	eax, DWORD PTR [edx+12]
	mov	DWORD PTR [ecx+32], eax

; 296  : 	p->color = 4; // select custom color

	mov	ecx, 4
	mov	edx, DWORD PTR _p$[ebp]
	mov	WORD PTR [edx+12], cx

; 297  : 	p->packedColor = 255; // alpha

	mov	eax, 255				; 000000ffH
	mov	ecx, DWORD PTR _p$[ebp]
	mov	WORD PTR [ecx+14], ax

; 298  : 
; 299  : 	return p;

	mov	eax, DWORD PTR _p$[ebp]
$LN1@R_AllocTra:

; 300  : }

	pop	esi
	mov	esp, ebp
	pop	ebp
	ret	0
_R_AllocTracer ENDP
_TEXT	ENDS
; Function compile flags: /Odtp
; File c:\users\user\downloads\xash_build4529_src\engine\client\gl_rpart.c
_TEXT	SEGMENT
_p$ = 8							; size = 4
_CL_FreeParticle PROC

; 194  : {

	push	ebp
	mov	ebp, esp

; 195  : 	if( p->deathfunc )

	mov	eax, DWORD PTR _p$[ebp]
	cmp	DWORD PTR [eax+44], 0
	je	SHORT $LN2@CL_FreePar

; 196  : 	{
; 197  : 		// call right the deathfunc before die
; 198  : 		p->deathfunc( p );

	mov	ecx, DWORD PTR _p$[ebp]
	push	ecx
	mov	edx, DWORD PTR _p$[ebp]
	mov	eax, DWORD PTR [edx+44]
	call	eax
	add	esp, 4

; 199  : 		p->deathfunc = NULL;

	mov	ecx, DWORD PTR _p$[ebp]
	mov	DWORD PTR [ecx+44], 0
$LN2@CL_FreePar:

; 200  : 	}
; 201  : 
; 202  : 	p->next = cl_free_particles;

	mov	edx, DWORD PTR _p$[ebp]
	mov	eax, DWORD PTR _cl_free_particles
	mov	DWORD PTR [edx+16], eax

; 203  : 	cl_free_particles = p;

	mov	ecx, DWORD PTR _p$[ebp]
	mov	DWORD PTR _cl_free_particles, ecx

; 204  : }

	pop	ebp
	ret	0
_CL_FreeParticle ENDP
_TEXT	ENDS
; Function compile flags: /Odtp
; File c:\users\user\downloads\xash_build4529_src\engine\client\gl_rpart.c
_TEXT	SEGMENT
_p$ = -4						; size = 4
_pos$ = 8						; size = 4
_r$ = 12						; size = 1
_g$ = 16						; size = 1
_b$ = 20						; size = 1
_R_DebugParticle PROC

; 1432 : {

	push	ebp
	mov	ebp, esp
	push	ecx
	push	esi

; 1433 : 	particle_t	*p;
; 1434 : 
; 1435 : 	p = R_AllocParticle( NULL );

	push	0
	call	_R_AllocParticle
	add	esp, 4
	mov	DWORD PTR _p$[ebp], eax

; 1436 : 	if( !p ) return;

	cmp	DWORD PTR _p$[ebp], 0
	jne	SHORT $LN2@R_DebugPar
	jmp	$LN1@R_DebugPar
$LN2@R_DebugPar:

; 1437 : 
; 1438 : 	VectorCopy( pos, p->org );

	mov	eax, 4
	imul	ecx, eax, 0
	mov	edx, 4
	imul	eax, edx, 0
	mov	edx, DWORD PTR _p$[ebp]
	mov	esi, DWORD PTR _pos$[ebp]
	mov	ecx, DWORD PTR [esi+ecx]
	mov	DWORD PTR [edx+eax], ecx
	mov	edx, 4
	shl	edx, 0
	mov	eax, 4
	shl	eax, 0
	mov	ecx, DWORD PTR _p$[ebp]
	mov	esi, DWORD PTR _pos$[ebp]
	mov	edx, DWORD PTR [esi+edx]
	mov	DWORD PTR [ecx+eax], edx
	mov	eax, 4
	shl	eax, 1
	mov	ecx, 4
	shl	ecx, 1
	mov	edx, DWORD PTR _p$[ebp]
	mov	esi, DWORD PTR _pos$[ebp]
	mov	eax, DWORD PTR [esi+eax]
	mov	DWORD PTR [edx+ecx], eax

; 1439 : 	p->color = R_LookupColor( r, g, b );

	movzx	ecx, BYTE PTR _b$[ebp]
	push	ecx
	movzx	edx, BYTE PTR _g$[ebp]
	push	edx
	movzx	eax, BYTE PTR _r$[ebp]
	push	eax
	call	_R_LookupColor
	add	esp, 12					; 0000000cH
	mov	ecx, DWORD PTR _p$[ebp]
	mov	WORD PTR [ecx+12], ax

; 1440 : 	p->die = cl.time + 0.01f;

	movsd	xmm0, QWORD PTR _cl+1525848
	addsd	xmm0, QWORD PTR __real@3f847ae140000000
	cvtsd2ss xmm0, xmm0
	mov	edx, DWORD PTR _p$[ebp]
	movss	DWORD PTR [edx+36], xmm0
$LN1@R_DebugPar:

; 1441 : }

	pop	esi
	mov	esp, ebp
	pop	ebp
	ret	0
_R_DebugParticle ENDP
_TEXT	ENDS
; Function compile flags: /Odtp
; File c:\users\user\downloads\xash_build4529_src\engine\client\gl_rpart.c
_TEXT	SEGMENT
_i$ = -24						; size = 4
_p$ = -20						; size = 4
_vel$ = -16						; size = 12
__$ArrayPad$ = -4					; size = 4
_pos$ = 8						; size = 4
_count$ = 12						; size = 4
_velocityMin$ = 16					; size = 4
_velocityMax$ = 20					; size = 4
_R_SparkStreaks PROC

; 1538 : {

	push	ebp
	mov	ebp, esp
	sub	esp, 24					; 00000018H
	mov	eax, DWORD PTR ___security_cookie
	xor	eax, ebp
	mov	DWORD PTR __$ArrayPad$[ebp], eax

; 1539 : 	particle_t	*p;
; 1540 : 	vec3_t		vel;
; 1541 : 	int		i;
; 1542 : 	
; 1543 : 	for( i = 0; i<count; i++ )

	mov	DWORD PTR _i$[ebp], 0
	jmp	SHORT $LN4@R_SparkStr
$LN2@R_SparkStr:
	mov	eax, DWORD PTR _i$[ebp]
	add	eax, 1
	mov	DWORD PTR _i$[ebp], eax
$LN4@R_SparkStr:
	mov	ecx, DWORD PTR _i$[ebp]
	cmp	ecx, DWORD PTR _count$[ebp]
	jge	$LN3@R_SparkStr

; 1544 : 	{
; 1545 : 		vel[0] = COM_RandomFloat( velocityMin, velocityMax );

	cvtsi2ss xmm0, DWORD PTR _velocityMax$[ebp]
	push	ecx
	movss	DWORD PTR [esp], xmm0
	cvtsi2ss xmm0, DWORD PTR _velocityMin$[ebp]
	push	ecx
	movss	DWORD PTR [esp], xmm0
	call	_COM_RandomFloat
	add	esp, 8
	mov	edx, 4
	imul	eax, edx, 0
	fstp	DWORD PTR _vel$[ebp+eax]

; 1546 : 		vel[1] = COM_RandomFloat( velocityMin, velocityMax );

	cvtsi2ss xmm0, DWORD PTR _velocityMax$[ebp]
	push	ecx
	movss	DWORD PTR [esp], xmm0
	cvtsi2ss xmm0, DWORD PTR _velocityMin$[ebp]
	push	ecx
	movss	DWORD PTR [esp], xmm0
	call	_COM_RandomFloat
	add	esp, 8
	mov	ecx, 4
	shl	ecx, 0
	fstp	DWORD PTR _vel$[ebp+ecx]

; 1547 : 		vel[2] = COM_RandomFloat( velocityMin, velocityMax );

	cvtsi2ss xmm0, DWORD PTR _velocityMax$[ebp]
	push	ecx
	movss	DWORD PTR [esp], xmm0
	cvtsi2ss xmm0, DWORD PTR _velocityMin$[ebp]
	push	ecx
	movss	DWORD PTR [esp], xmm0
	call	_COM_RandomFloat
	add	esp, 8
	mov	edx, 4
	shl	edx, 1
	fstp	DWORD PTR _vel$[ebp+edx]

; 1548 : 
; 1549 : 		p = R_AllocTracer( pos, vel, COM_RandomFloat( 0.1f, 0.5f ));

	push	ecx
	movss	xmm0, DWORD PTR __real@3f000000
	movss	DWORD PTR [esp], xmm0
	push	ecx
	movss	xmm0, DWORD PTR __real@3dcccccd
	movss	DWORD PTR [esp], xmm0
	call	_COM_RandomFloat
	add	esp, 4
	fstp	DWORD PTR [esp]
	lea	eax, DWORD PTR _vel$[ebp]
	push	eax
	mov	ecx, DWORD PTR _pos$[ebp]
	push	ecx
	call	_R_AllocTracer
	add	esp, 12					; 0000000cH
	mov	DWORD PTR _p$[ebp], eax

; 1550 : 		if( !p ) return;

	cmp	DWORD PTR _p$[ebp], 0
	jne	SHORT $LN5@R_SparkStr
	jmp	SHORT $LN3@R_SparkStr
$LN5@R_SparkStr:

; 1551 : 
; 1552 : 		p->color = 5;

	mov	edx, 5
	mov	eax, DWORD PTR _p$[ebp]
	mov	WORD PTR [eax+12], dx

; 1553 : 		p->type = pt_grav;

	mov	ecx, DWORD PTR _p$[ebp]
	mov	DWORD PTR [ecx+40], 1

; 1554 : 		p->ramp = 0.5f;

	mov	edx, DWORD PTR _p$[ebp]
	movss	xmm0, DWORD PTR __real@3f000000
	movss	DWORD PTR [edx+32], xmm0

; 1555 : 	}

	jmp	$LN2@R_SparkStr
$LN3@R_SparkStr:

; 1556 : }

	mov	ecx, DWORD PTR __$ArrayPad$[ebp]
	xor	ecx, ebp
	call	@__security_check_cookie@4
	mov	esp, ebp
	pop	ebp
	ret	0
_R_SparkStreaks ENDP
_TEXT	ENDS
; Function compile flags: /Odtp
; File c:\users\user\downloads\xash_build4529_src\engine\client\gl_rpart.c
_TEXT	SEGMENT
tv145 = -56						; size = 4
tv205 = -52						; size = 4
tv195 = -48						; size = 4
tv185 = -44						; size = 4
tv78 = -40						; size = 4
_i$ = -36						; size = 4
_p$ = -32						; size = 4
_vel2$ = -28						; size = 12
_vel$ = -16						; size = 12
__$ArrayPad$ = -4					; size = 4
_pos$ = 8						; size = 4
_dir$ = 12						; size = 4
_color$ = 16						; size = 4
_count$ = 20						; size = 4
_speed$ = 24						; size = 4
_velocityMin$ = 28					; size = 4
_velocityMax$ = 32					; size = 4
_R_StreakSplash PROC

; 1405 : {

	push	ebp
	mov	ebp, esp
	sub	esp, 56					; 00000038H
	mov	eax, DWORD PTR ___security_cookie
	xor	eax, ebp
	mov	DWORD PTR __$ArrayPad$[ebp], eax
	push	esi

; 1406 : 	vec3_t		vel, vel2;
; 1407 : 	particle_t	*p;	
; 1408 : 	int		i;
; 1409 : 
; 1410 : 	VectorScale( dir, speed, vel );

	mov	eax, 4
	imul	ecx, eax, 0
	mov	edx, DWORD PTR _dir$[ebp]
	movss	xmm0, DWORD PTR [edx+ecx]
	mulss	xmm0, DWORD PTR _speed$[ebp]
	mov	eax, 4
	imul	ecx, eax, 0
	movss	DWORD PTR _vel$[ebp+ecx], xmm0
	mov	edx, 4
	shl	edx, 0
	mov	eax, DWORD PTR _dir$[ebp]
	movss	xmm0, DWORD PTR [eax+edx]
	mulss	xmm0, DWORD PTR _speed$[ebp]
	mov	ecx, 4
	shl	ecx, 0
	movss	DWORD PTR _vel$[ebp+ecx], xmm0
	mov	edx, 4
	shl	edx, 1
	mov	eax, DWORD PTR _dir$[ebp]
	movss	xmm0, DWORD PTR [eax+edx]
	mulss	xmm0, DWORD PTR _speed$[ebp]
	movss	DWORD PTR tv78[ebp], xmm0
	mov	ecx, 4
	shl	ecx, 1
	movss	xmm0, DWORD PTR tv78[ebp]
	movss	DWORD PTR _vel$[ebp+ecx], xmm0

; 1411 : 
; 1412 : 	for( i = 0; i < count; i++ )

	mov	DWORD PTR _i$[ebp], 0
	jmp	SHORT $LN4@R_StreakSp
$LN2@R_StreakSp:
	mov	edx, DWORD PTR _i$[ebp]
	add	edx, 1
	mov	DWORD PTR _i$[ebp], edx
$LN4@R_StreakSp:
	mov	eax, DWORD PTR _i$[ebp]
	cmp	eax, DWORD PTR _count$[ebp]
	jge	$LN3@R_StreakSp

; 1413 : 	{
; 1414 : 		VectorAddScalar( vel, COM_RandomFloat( velocityMin, velocityMax ), vel2 );

	mov	ecx, 4
	imul	esi, ecx, 0
	cvtsi2ss xmm0, DWORD PTR _velocityMax$[ebp]
	push	ecx
	movss	DWORD PTR [esp], xmm0
	cvtsi2ss xmm0, DWORD PTR _velocityMin$[ebp]
	push	ecx
	movss	DWORD PTR [esp], xmm0
	call	_COM_RandomFloat
	add	esp, 8
	fstp	DWORD PTR tv185[ebp]
	movss	xmm0, DWORD PTR tv185[ebp]
	addss	xmm0, DWORD PTR _vel$[ebp+esi]
	mov	edx, 4
	imul	eax, edx, 0
	movss	DWORD PTR _vel2$[ebp+eax], xmm0
	mov	esi, 4
	shl	esi, 0
	cvtsi2ss xmm0, DWORD PTR _velocityMax$[ebp]
	push	ecx
	movss	DWORD PTR [esp], xmm0
	cvtsi2ss xmm0, DWORD PTR _velocityMin$[ebp]
	push	ecx
	movss	DWORD PTR [esp], xmm0
	call	_COM_RandomFloat
	add	esp, 8
	fstp	DWORD PTR tv195[ebp]
	movss	xmm0, DWORD PTR tv195[ebp]
	addss	xmm0, DWORD PTR _vel$[ebp+esi]
	mov	ecx, 4
	shl	ecx, 0
	movss	DWORD PTR _vel2$[ebp+ecx], xmm0
	mov	esi, 4
	shl	esi, 1
	cvtsi2ss xmm0, DWORD PTR _velocityMax$[ebp]
	push	ecx
	movss	DWORD PTR [esp], xmm0
	cvtsi2ss xmm0, DWORD PTR _velocityMin$[ebp]
	push	ecx
	movss	DWORD PTR [esp], xmm0
	call	_COM_RandomFloat
	add	esp, 8
	fstp	DWORD PTR tv205[ebp]
	movss	xmm0, DWORD PTR _vel$[ebp+esi]
	addss	xmm0, DWORD PTR tv205[ebp]
	movss	DWORD PTR tv145[ebp], xmm0
	mov	edx, 4
	shl	edx, 1
	movss	xmm0, DWORD PTR tv145[ebp]
	movss	DWORD PTR _vel2$[ebp+edx], xmm0

; 1415 : 		p = R_AllocTracer( pos, vel2, COM_RandomFloat( 0.1f, 0.5f ));

	push	ecx
	movss	xmm0, DWORD PTR __real@3f000000
	movss	DWORD PTR [esp], xmm0
	push	ecx
	movss	xmm0, DWORD PTR __real@3dcccccd
	movss	DWORD PTR [esp], xmm0
	call	_COM_RandomFloat
	add	esp, 4
	fstp	DWORD PTR [esp]
	lea	eax, DWORD PTR _vel2$[ebp]
	push	eax
	mov	ecx, DWORD PTR _pos$[ebp]
	push	ecx
	call	_R_AllocTracer
	add	esp, 12					; 0000000cH
	mov	DWORD PTR _p$[ebp], eax

; 1416 : 		if( !p ) return;

	cmp	DWORD PTR _p$[ebp], 0
	jne	SHORT $LN5@R_StreakSp
	jmp	SHORT $LN3@R_StreakSp
$LN5@R_StreakSp:

; 1417 : 
; 1418 : 		p->type = pt_grav;

	mov	edx, DWORD PTR _p$[ebp]
	mov	DWORD PTR [edx+40], 1

; 1419 : 		p->color = color;

	mov	eax, DWORD PTR _p$[ebp]
	mov	cx, WORD PTR _color$[ebp]
	mov	WORD PTR [eax+12], cx

; 1420 : 		p->ramp = 1.0f;

	mov	edx, DWORD PTR _p$[ebp]
	movss	xmm0, DWORD PTR __real@3f800000
	movss	DWORD PTR [edx+32], xmm0

; 1421 : 	}

	jmp	$LN2@R_StreakSp
$LN3@R_StreakSp:

; 1422 : }

	pop	esi
	mov	ecx, DWORD PTR __$ArrayPad$[ebp]
	xor	ecx, ebp
	call	@__security_check_cookie@4
	mov	esp, ebp
	pop	ebp
	ret	0
_R_StreakSplash ENDP
_TEXT	ENDS
; Function compile flags: /Odtp
; File c:\users\user\downloads\xash_build4529_src\engine\client\gl_rpart.c
_TEXT	SEGMENT
_dist$ = -68						; size = 4
tv234 = -64						; size = 4
tv348 = -60						; size = 4
tv205 = -56						; size = 4
tv166 = -52						; size = 4
tv263 = -48						; size = 4
_j$ = -44						; size = 4
_i$ = -40						; size = 4
_vel$ = -36						; size = 4
_p$ = -32						; size = 4
_dest$ = -28						; size = 12
_dir$ = -16						; size = 12
__$ArrayPad$ = -4					; size = 4
_org$ = 8						; size = 4
_reverse$ = 12						; size = 4
_R_LargeFunnel PROC

; 1060 : {

	push	ebp
	mov	ebp, esp
	sub	esp, 68					; 00000044H
	mov	eax, DWORD PTR ___security_cookie
	xor	eax, ebp
	mov	DWORD PTR __$ArrayPad$[ebp], eax
	push	esi

; 1061 : 	particle_t	*p;
; 1062 : 	float		vel, dist;
; 1063 : 	vec3_t		dir, dest;
; 1064 : 	int		i, j;
; 1065 : 
; 1066 : 	for( i = -8; i < 8; i++ )

	mov	DWORD PTR _i$[ebp], -8			; fffffff8H
	jmp	SHORT $LN4@R_LargeFun
$LN2@R_LargeFun:
	mov	eax, DWORD PTR _i$[ebp]
	add	eax, 1
	mov	DWORD PTR _i$[ebp], eax
$LN4@R_LargeFun:
	cmp	DWORD PTR _i$[ebp], 8
	jge	$LN3@R_LargeFun

; 1067 : 	{
; 1068 : 		for( j = -8; j < 8; j++ )

	mov	DWORD PTR _j$[ebp], -8			; fffffff8H
	jmp	SHORT $LN7@R_LargeFun
$LN5@R_LargeFun:
	mov	ecx, DWORD PTR _j$[ebp]
	add	ecx, 1
	mov	DWORD PTR _j$[ebp], ecx
$LN7@R_LargeFun:
	cmp	DWORD PTR _j$[ebp], 8
	jge	$LN6@R_LargeFun

; 1069 : 		{
; 1070 : 			p = R_AllocParticle( NULL );

	push	0
	call	_R_AllocParticle
	add	esp, 4
	mov	DWORD PTR _p$[ebp], eax

; 1071 : 			if( !p ) return;

	cmp	DWORD PTR _p$[ebp], 0
	jne	SHORT $LN8@R_LargeFun
	jmp	$LN3@R_LargeFun
$LN8@R_LargeFun:

; 1072 : 
; 1073 : 			dest[0] = (i * 32.0f) + org[0];

	cvtsi2ss xmm0, DWORD PTR _i$[ebp]
	mulss	xmm0, DWORD PTR __real@42000000
	mov	edx, 4
	imul	eax, edx, 0
	mov	ecx, DWORD PTR _org$[ebp]
	addss	xmm0, DWORD PTR [ecx+eax]
	mov	edx, 4
	imul	eax, edx, 0
	movss	DWORD PTR _dest$[ebp+eax], xmm0

; 1074 : 			dest[1] = (j * 32.0f) + org[1];

	cvtsi2ss xmm0, DWORD PTR _j$[ebp]
	mulss	xmm0, DWORD PTR __real@42000000
	mov	ecx, 4
	shl	ecx, 0
	mov	edx, DWORD PTR _org$[ebp]
	addss	xmm0, DWORD PTR [edx+ecx]
	mov	eax, 4
	shl	eax, 0
	movss	DWORD PTR _dest$[ebp+eax], xmm0

; 1075 : 			dest[2] = org[2] + COM_RandomFloat( 100.0f, 800.0f );

	mov	esi, 4
	shl	esi, 1
	push	ecx
	movss	xmm0, DWORD PTR __real@44480000
	movss	DWORD PTR [esp], xmm0
	push	ecx
	movss	xmm0, DWORD PTR __real@42c80000
	movss	DWORD PTR [esp], xmm0
	call	_COM_RandomFloat
	add	esp, 8
	fstp	DWORD PTR tv263[ebp]
	mov	ecx, DWORD PTR _org$[ebp]
	movss	xmm0, DWORD PTR tv263[ebp]
	addss	xmm0, DWORD PTR [ecx+esi]
	mov	edx, 4
	shl	edx, 1
	movss	DWORD PTR _dest$[ebp+edx], xmm0

; 1076 : 
; 1077 : 			if( reverse )

	cmp	DWORD PTR _reverse$[ebp], 0
	je	$LN9@R_LargeFun

; 1078 : 			{
; 1079 : 				VectorCopy( org, p->org );

	mov	eax, 4
	imul	ecx, eax, 0
	mov	edx, 4
	imul	eax, edx, 0
	mov	edx, DWORD PTR _p$[ebp]
	mov	esi, DWORD PTR _org$[ebp]
	mov	ecx, DWORD PTR [esi+ecx]
	mov	DWORD PTR [edx+eax], ecx
	mov	edx, 4
	shl	edx, 0
	mov	eax, 4
	shl	eax, 0
	mov	ecx, DWORD PTR _p$[ebp]
	mov	esi, DWORD PTR _org$[ebp]
	mov	edx, DWORD PTR [esi+edx]
	mov	DWORD PTR [ecx+eax], edx
	mov	eax, 4
	shl	eax, 1
	mov	ecx, 4
	shl	ecx, 1
	mov	edx, DWORD PTR _p$[ebp]
	mov	esi, DWORD PTR _org$[ebp]
	mov	eax, DWORD PTR [esi+eax]
	mov	DWORD PTR [edx+ecx], eax

; 1080 : 				VectorSubtract( dest, p->org, dir );

	mov	ecx, 4
	imul	edx, ecx, 0
	mov	eax, 4
	imul	ecx, eax, 0
	mov	eax, DWORD PTR _p$[ebp]
	movss	xmm0, DWORD PTR _dest$[ebp+edx]
	subss	xmm0, DWORD PTR [eax+ecx]
	mov	ecx, 4
	imul	edx, ecx, 0
	movss	DWORD PTR _dir$[ebp+edx], xmm0
	mov	eax, 4
	shl	eax, 0
	mov	ecx, 4
	shl	ecx, 0
	mov	edx, DWORD PTR _p$[ebp]
	movss	xmm0, DWORD PTR _dest$[ebp+eax]
	subss	xmm0, DWORD PTR [edx+ecx]
	mov	eax, 4
	shl	eax, 0
	movss	DWORD PTR _dir$[ebp+eax], xmm0
	mov	ecx, 4
	shl	ecx, 1
	mov	edx, 4
	shl	edx, 1
	mov	eax, DWORD PTR _p$[ebp]
	movss	xmm0, DWORD PTR _dest$[ebp+ecx]
	subss	xmm0, DWORD PTR [eax+edx]
	movss	DWORD PTR tv166[ebp], xmm0
	mov	ecx, 4
	shl	ecx, 1
	movss	xmm0, DWORD PTR tv166[ebp]
	movss	DWORD PTR _dir$[ebp+ecx], xmm0

; 1081 : 			}

	jmp	$LN10@R_LargeFun
$LN9@R_LargeFun:

; 1082 : 			else
; 1083 : 			{
; 1084 : 				VectorCopy( dest, p->org );

	mov	edx, 4
	imul	eax, edx, 0
	mov	ecx, 4
	imul	edx, ecx, 0
	mov	ecx, DWORD PTR _p$[ebp]
	mov	eax, DWORD PTR _dest$[ebp+eax]
	mov	DWORD PTR [ecx+edx], eax
	mov	ecx, 4
	shl	ecx, 0
	mov	edx, 4
	shl	edx, 0
	mov	eax, DWORD PTR _p$[ebp]
	mov	ecx, DWORD PTR _dest$[ebp+ecx]
	mov	DWORD PTR [eax+edx], ecx
	mov	edx, 4
	shl	edx, 1
	mov	eax, 4
	shl	eax, 1
	mov	ecx, DWORD PTR _p$[ebp]
	mov	edx, DWORD PTR _dest$[ebp+edx]
	mov	DWORD PTR [ecx+eax], edx

; 1085 : 				VectorSubtract( org, p->org, dir );

	mov	eax, 4
	imul	ecx, eax, 0
	mov	edx, 4
	imul	eax, edx, 0
	mov	edx, DWORD PTR _org$[ebp]
	mov	esi, DWORD PTR _p$[ebp]
	movss	xmm0, DWORD PTR [edx+ecx]
	subss	xmm0, DWORD PTR [esi+eax]
	mov	eax, 4
	imul	ecx, eax, 0
	movss	DWORD PTR _dir$[ebp+ecx], xmm0
	mov	edx, 4
	shl	edx, 0
	mov	eax, 4
	shl	eax, 0
	mov	ecx, DWORD PTR _org$[ebp]
	mov	esi, DWORD PTR _p$[ebp]
	movss	xmm0, DWORD PTR [ecx+edx]
	subss	xmm0, DWORD PTR [esi+eax]
	mov	edx, 4
	shl	edx, 0
	movss	DWORD PTR _dir$[ebp+edx], xmm0
	mov	eax, 4
	shl	eax, 1
	mov	ecx, 4
	shl	ecx, 1
	mov	edx, DWORD PTR _org$[ebp]
	mov	esi, DWORD PTR _p$[ebp]
	movss	xmm0, DWORD PTR [edx+eax]
	subss	xmm0, DWORD PTR [esi+ecx]
	movss	DWORD PTR tv205[ebp], xmm0
	mov	eax, 4
	shl	eax, 1
	movss	xmm0, DWORD PTR tv205[ebp]
	movss	DWORD PTR _dir$[ebp+eax], xmm0
$LN10@R_LargeFun:

; 1086 : 			}
; 1087 : 
; 1088 : 			vel = dest[2] / 8.0f;

	mov	ecx, 4
	shl	ecx, 1
	movss	xmm0, DWORD PTR _dest$[ebp+ecx]
	divss	xmm0, DWORD PTR __real@41000000
	movss	DWORD PTR _vel$[ebp], xmm0

; 1089 : 			if( vel < 64.0f ) vel = 64.0f;

	movss	xmm0, DWORD PTR __real@42800000
	comiss	xmm0, DWORD PTR _vel$[ebp]
	jbe	SHORT $LN11@R_LargeFun
	movss	xmm0, DWORD PTR __real@42800000
	movss	DWORD PTR _vel$[ebp], xmm0
$LN11@R_LargeFun:

; 1090 : 
; 1091 : 			dist = VectorNormalizeLength( dir );

	lea	edx, DWORD PTR _dir$[ebp]
	push	edx
	lea	eax, DWORD PTR _dir$[ebp]
	push	eax
	call	_VectorNormalizeLength2
	add	esp, 8
	fstp	DWORD PTR _dist$[ebp]

; 1092 : 			vel += COM_RandomFloat( 64.0f, 128.0f );

	push	ecx
	movss	xmm0, DWORD PTR __real@43000000
	movss	DWORD PTR [esp], xmm0
	push	ecx
	movss	xmm0, DWORD PTR __real@42800000
	movss	DWORD PTR [esp], xmm0
	call	_COM_RandomFloat
	add	esp, 8
	fstp	DWORD PTR tv348[ebp]
	movss	xmm0, DWORD PTR tv348[ebp]
	addss	xmm0, DWORD PTR _vel$[ebp]
	movss	DWORD PTR _vel$[ebp], xmm0

; 1093 : 			VectorScale( dir, vel, p->vel );

	mov	ecx, 4
	imul	edx, ecx, 0
	movss	xmm0, DWORD PTR _dir$[ebp+edx]
	mulss	xmm0, DWORD PTR _vel$[ebp]
	mov	eax, 4
	imul	ecx, eax, 0
	mov	edx, DWORD PTR _p$[ebp]
	movss	DWORD PTR [edx+ecx+20], xmm0
	mov	eax, 4
	shl	eax, 0
	movss	xmm0, DWORD PTR _dir$[ebp+eax]
	mulss	xmm0, DWORD PTR _vel$[ebp]
	mov	ecx, 4
	shl	ecx, 0
	mov	edx, DWORD PTR _p$[ebp]
	movss	DWORD PTR [edx+ecx+20], xmm0
	mov	eax, 4
	shl	eax, 1
	movss	xmm0, DWORD PTR _dir$[ebp+eax]
	mulss	xmm0, DWORD PTR _vel$[ebp]
	movss	DWORD PTR tv234[ebp], xmm0
	mov	ecx, 4
	shl	ecx, 1
	mov	edx, DWORD PTR _p$[ebp]
	movss	xmm0, DWORD PTR tv234[ebp]
	movss	DWORD PTR [edx+ecx+20], xmm0

; 1094 : 			p->die = cl.time + (dist / vel );

	movss	xmm0, DWORD PTR _dist$[ebp]
	divss	xmm0, DWORD PTR _vel$[ebp]
	cvtss2sd xmm0, xmm0
	addsd	xmm0, QWORD PTR _cl+1525848
	cvtsd2ss xmm0, xmm0
	mov	eax, DWORD PTR _p$[ebp]
	movss	DWORD PTR [eax+36], xmm0

; 1095 : 			p->color = 244; // green color

	mov	ecx, 244				; 000000f4H
	mov	edx, DWORD PTR _p$[ebp]
	mov	WORD PTR [edx+12], cx

; 1096 : 		}

	jmp	$LN5@R_LargeFun
$LN6@R_LargeFun:

; 1097 : 	}

	jmp	$LN2@R_LargeFun
$LN3@R_LargeFun:

; 1098 : }

	pop	esi
	mov	ecx, DWORD PTR __$ArrayPad$[ebp]
	xor	ecx, ebp
	call	@__security_check_cookie@4
	mov	esp, ebp
	pop	ebp
	ret	0
_R_LargeFunnel ENDP
_TEXT	ENDS
; Function compile flags: /Odtp
; File c:\users\user\downloads\xash_build4529_src\engine\client\gl_rpart.c
_TEXT	SEGMENT
_color$ = -56						; size = 4
tv224 = -52						; size = 4
tv357 = -48						; size = 4
tv343 = -44						; size = 4
tv329 = -40						; size = 4
tv84 = -36						; size = 4
_i$ = -32						; size = 4
_dist$ = -28						; size = 4
_quantity$ = -24					; size = 4
_p$ = -20						; size = 4
_dir$ = -16						; size = 12
__$ArrayPad$ = -4					; size = 4
_pos$ = 8						; size = 4
_R_BulletImpactParticles PROC

; 1335 : {

	push	ebp
	mov	ebp, esp
	sub	esp, 56					; 00000038H
	mov	eax, DWORD PTR ___security_cookie
	xor	eax, ebp
	mov	DWORD PTR __$ArrayPad$[ebp], eax
	push	esi

; 1336 : 	int		i, quantity;
; 1337 : 	int		color;
; 1338 : 	float		dist;
; 1339 : 	vec3_t		dir;
; 1340 : 	particle_t	*p;
; 1341 : 	
; 1342 : 	VectorSubtract( pos, RI.vieworg, dir );

	mov	eax, 4
	imul	ecx, eax, 0
	mov	edx, 4
	imul	eax, edx, 0
	mov	edx, DWORD PTR _pos$[ebp]
	movss	xmm0, DWORD PTR [edx+ecx]
	subss	xmm0, DWORD PTR _RI[eax+200]
	mov	eax, 4
	imul	ecx, eax, 0
	movss	DWORD PTR _dir$[ebp+ecx], xmm0
	mov	edx, 4
	shl	edx, 0
	mov	eax, 4
	shl	eax, 0
	mov	ecx, DWORD PTR _pos$[ebp]
	movss	xmm0, DWORD PTR [ecx+edx]
	subss	xmm0, DWORD PTR _RI[eax+200]
	mov	edx, 4
	shl	edx, 0
	movss	DWORD PTR _dir$[ebp+edx], xmm0
	mov	eax, 4
	shl	eax, 1
	mov	ecx, 4
	shl	ecx, 1
	mov	edx, DWORD PTR _pos$[ebp]
	movss	xmm0, DWORD PTR [edx+eax]
	subss	xmm0, DWORD PTR _RI[ecx+200]
	movss	DWORD PTR tv84[ebp], xmm0
	mov	eax, 4
	shl	eax, 1
	movss	xmm0, DWORD PTR tv84[ebp]
	movss	DWORD PTR _dir$[ebp+eax], xmm0

; 1343 : 	dist = VectorLength( dir );

	mov	ecx, 4
	imul	edx, ecx, 0
	mov	eax, 4
	imul	ecx, eax, 0
	movss	xmm0, DWORD PTR _dir$[ebp+edx]
	mulss	xmm0, DWORD PTR _dir$[ebp+ecx]
	mov	edx, 4
	shl	edx, 0
	mov	eax, 4
	shl	eax, 0
	movss	xmm1, DWORD PTR _dir$[ebp+edx]
	mulss	xmm1, DWORD PTR _dir$[ebp+eax]
	addss	xmm0, xmm1
	mov	ecx, 4
	shl	ecx, 1
	mov	edx, 4
	shl	edx, 1
	movss	xmm1, DWORD PTR _dir$[ebp+ecx]
	mulss	xmm1, DWORD PTR _dir$[ebp+edx]
	addss	xmm0, xmm1
	cvtss2sd xmm0, xmm0
	sub	esp, 8
	movsd	QWORD PTR [esp], xmm0
	call	_sqrt
	add	esp, 8
	fstp	DWORD PTR _dist$[ebp]

; 1344 : 	if( dist > 1000.0f ) dist = 1000.0f;

	movss	xmm0, DWORD PTR _dist$[ebp]
	comiss	xmm0, DWORD PTR __real@447a0000
	jbe	SHORT $LN5@R_BulletIm
	movss	xmm0, DWORD PTR __real@447a0000
	movss	DWORD PTR _dist$[ebp], xmm0
$LN5@R_BulletIm:

; 1345 : 
; 1346 : 	quantity = (1000.0f - dist) / 100.0f;

	movss	xmm0, DWORD PTR __real@447a0000
	subss	xmm0, DWORD PTR _dist$[ebp]
	divss	xmm0, DWORD PTR __real@42c80000
	cvttss2si eax, xmm0
	mov	DWORD PTR _quantity$[ebp], eax

; 1347 : 	if( quantity == 0 ) quantity = 1;

	cmp	DWORD PTR _quantity$[ebp], 0
	jne	SHORT $LN6@R_BulletIm
	mov	DWORD PTR _quantity$[ebp], 1
$LN6@R_BulletIm:

; 1348 : 
; 1349 : 	color = 3 - ((30 * quantity) / 100 );

	imul	eax, DWORD PTR _quantity$[ebp], 30
	cdq
	mov	ecx, 100				; 00000064H
	idiv	ecx
	mov	edx, 3
	sub	edx, eax
	mov	DWORD PTR _color$[ebp], edx

; 1350 : 	R_SparkStreaks( pos, 2, -200, 200 );

	push	200					; 000000c8H
	push	-200					; ffffff38H
	push	2
	mov	eax, DWORD PTR _pos$[ebp]
	push	eax
	call	_R_SparkStreaks
	add	esp, 16					; 00000010H

; 1351 : 
; 1352 : 	for( i = 0; i < quantity * 4; i++ )

	mov	DWORD PTR _i$[ebp], 0
	jmp	SHORT $LN4@R_BulletIm
$LN2@R_BulletIm:
	mov	ecx, DWORD PTR _i$[ebp]
	add	ecx, 1
	mov	DWORD PTR _i$[ebp], ecx
$LN4@R_BulletIm:
	mov	edx, DWORD PTR _quantity$[ebp]
	shl	edx, 2
	cmp	DWORD PTR _i$[ebp], edx
	jge	$LN3@R_BulletIm

; 1353 : 	{
; 1354 : 		p = R_AllocParticle( NULL );

	push	0
	call	_R_AllocParticle
	add	esp, 4
	mov	DWORD PTR _p$[ebp], eax

; 1355 : 		if( !p ) return;

	cmp	DWORD PTR _p$[ebp], 0
	jne	SHORT $LN7@R_BulletIm
	jmp	$LN3@R_BulletIm
$LN7@R_BulletIm:

; 1356 : 
; 1357 : 		VectorCopy( pos, p->org);

	mov	eax, 4
	imul	ecx, eax, 0
	mov	edx, 4
	imul	eax, edx, 0
	mov	edx, DWORD PTR _p$[ebp]
	mov	esi, DWORD PTR _pos$[ebp]
	mov	ecx, DWORD PTR [esi+ecx]
	mov	DWORD PTR [edx+eax], ecx
	mov	edx, 4
	shl	edx, 0
	mov	eax, 4
	shl	eax, 0
	mov	ecx, DWORD PTR _p$[ebp]
	mov	esi, DWORD PTR _pos$[ebp]
	mov	edx, DWORD PTR [esi+edx]
	mov	DWORD PTR [ecx+eax], edx
	mov	eax, 4
	shl	eax, 1
	mov	ecx, 4
	shl	ecx, 1
	mov	edx, DWORD PTR _p$[ebp]
	mov	esi, DWORD PTR _pos$[ebp]
	mov	eax, DWORD PTR [esi+eax]
	mov	DWORD PTR [edx+ecx], eax

; 1358 : 
; 1359 : 		p->vel[0] = COM_RandomFloat( -1.0f, 1.0f );

	push	ecx
	movss	xmm0, DWORD PTR __real@3f800000
	movss	DWORD PTR [esp], xmm0
	push	ecx
	movss	xmm0, DWORD PTR __real@bf800000
	movss	DWORD PTR [esp], xmm0
	call	_COM_RandomFloat
	add	esp, 8
	mov	ecx, 4
	imul	edx, ecx, 0
	mov	eax, DWORD PTR _p$[ebp]
	fstp	DWORD PTR [eax+edx+20]

; 1360 : 		p->vel[1] = COM_RandomFloat( -1.0f, 1.0f );

	push	ecx
	movss	xmm0, DWORD PTR __real@3f800000
	movss	DWORD PTR [esp], xmm0
	push	ecx
	movss	xmm0, DWORD PTR __real@bf800000
	movss	DWORD PTR [esp], xmm0
	call	_COM_RandomFloat
	add	esp, 8
	mov	ecx, 4
	shl	ecx, 0
	mov	edx, DWORD PTR _p$[ebp]
	fstp	DWORD PTR [edx+ecx+20]

; 1361 : 		p->vel[2] = COM_RandomFloat( -1.0f, 1.0f );

	push	ecx
	movss	xmm0, DWORD PTR __real@3f800000
	movss	DWORD PTR [esp], xmm0
	push	ecx
	movss	xmm0, DWORD PTR __real@bf800000
	movss	DWORD PTR [esp], xmm0
	call	_COM_RandomFloat
	add	esp, 8
	mov	eax, 4
	shl	eax, 1
	mov	ecx, DWORD PTR _p$[ebp]
	fstp	DWORD PTR [ecx+eax+20]

; 1362 : 		VectorScale( p->vel, COM_RandomFloat( 50.0f, 100.0f ), p->vel );

	mov	edx, 4
	imul	esi, edx, 0
	push	ecx
	movss	xmm0, DWORD PTR __real@42c80000
	movss	DWORD PTR [esp], xmm0
	push	ecx
	movss	xmm0, DWORD PTR __real@42480000
	movss	DWORD PTR [esp], xmm0
	call	_COM_RandomFloat
	add	esp, 8
	fstp	DWORD PTR tv329[ebp]
	mov	eax, DWORD PTR _p$[ebp]
	movss	xmm0, DWORD PTR tv329[ebp]
	mulss	xmm0, DWORD PTR [eax+esi+20]
	mov	ecx, 4
	imul	edx, ecx, 0
	mov	eax, DWORD PTR _p$[ebp]
	movss	DWORD PTR [eax+edx+20], xmm0
	mov	esi, 4
	shl	esi, 0
	push	ecx
	movss	xmm0, DWORD PTR __real@42c80000
	movss	DWORD PTR [esp], xmm0
	push	ecx
	movss	xmm0, DWORD PTR __real@42480000
	movss	DWORD PTR [esp], xmm0
	call	_COM_RandomFloat
	add	esp, 8
	fstp	DWORD PTR tv343[ebp]
	mov	ecx, DWORD PTR _p$[ebp]
	movss	xmm0, DWORD PTR tv343[ebp]
	mulss	xmm0, DWORD PTR [ecx+esi+20]
	mov	edx, 4
	shl	edx, 0
	mov	eax, DWORD PTR _p$[ebp]
	movss	DWORD PTR [eax+edx+20], xmm0
	mov	esi, 4
	shl	esi, 1
	push	ecx
	movss	xmm0, DWORD PTR __real@42c80000
	movss	DWORD PTR [esp], xmm0
	push	ecx
	movss	xmm0, DWORD PTR __real@42480000
	movss	DWORD PTR [esp], xmm0
	call	_COM_RandomFloat
	add	esp, 8
	fstp	DWORD PTR tv357[ebp]
	mov	ecx, DWORD PTR _p$[ebp]
	movss	xmm0, DWORD PTR [ecx+esi+20]
	mulss	xmm0, DWORD PTR tv357[ebp]
	movss	DWORD PTR tv224[ebp], xmm0
	mov	edx, 4
	shl	edx, 1
	mov	eax, DWORD PTR _p$[ebp]
	movss	xmm0, DWORD PTR tv224[ebp]
	movss	DWORD PTR [eax+edx+20], xmm0

; 1363 : 
; 1364 : 		p->die = cl.time + 0.5;

	movsd	xmm0, QWORD PTR _cl+1525848
	addsd	xmm0, QWORD PTR __real@3fe0000000000000
	cvtsd2ss xmm0, xmm0
	mov	ecx, DWORD PTR _p$[ebp]
	movss	DWORD PTR [ecx+36], xmm0

; 1365 : 		p->color = 3 - color;

	mov	edx, 3
	sub	edx, DWORD PTR _color$[ebp]
	mov	eax, DWORD PTR _p$[ebp]
	mov	WORD PTR [eax+12], dx

; 1366 : 		p->type = pt_grav;

	mov	ecx, DWORD PTR _p$[ebp]
	mov	DWORD PTR [ecx+40], 1

; 1367 : 	}

	jmp	$LN2@R_BulletIm
$LN3@R_BulletIm:

; 1368 : }

	pop	esi
	mov	ecx, DWORD PTR __$ArrayPad$[ebp]
	xor	ecx, ebp
	call	@__security_check_cookie@4
	mov	esp, ebp
	pop	ebp
	ret	0
_R_BulletImpactParticles ENDP
_TEXT	ENDS
; Function compile flags: /Odtp
; File c:\users\user\downloads\xash_build4529_src\engine\client\gl_rpart.c
_TEXT	SEGMENT
tv191 = -48						; size = 4
tv134 = -44						; size = 4
tv84 = -40						; size = 4
_len$ = -36						; size = 4
_p$ = -32						; size = 4
_org$ = -28						; size = 12
_dir$ = -16						; size = 12
__$ArrayPad$ = -4					; size = 4
_start$ = 8						; size = 4
_end$ = 12						; size = 4
_R_ShowLine PROC

; 1303 : {

	push	ebp
	mov	ebp, esp
	sub	esp, 48					; 00000030H
	mov	eax, DWORD PTR ___security_cookie
	xor	eax, ebp
	mov	DWORD PTR __$ArrayPad$[ebp], eax
	push	esi

; 1304 : 	vec3_t		dir, org;
; 1305 : 	float		len;
; 1306 : 	particle_t	*p;
; 1307 : 
; 1308 : 	VectorSubtract( end, start, dir );

	mov	eax, 4
	imul	ecx, eax, 0
	mov	edx, 4
	imul	eax, edx, 0
	mov	edx, DWORD PTR _end$[ebp]
	mov	esi, DWORD PTR _start$[ebp]
	movss	xmm0, DWORD PTR [edx+ecx]
	subss	xmm0, DWORD PTR [esi+eax]
	mov	eax, 4
	imul	ecx, eax, 0
	movss	DWORD PTR _dir$[ebp+ecx], xmm0
	mov	edx, 4
	shl	edx, 0
	mov	eax, 4
	shl	eax, 0
	mov	ecx, DWORD PTR _end$[ebp]
	mov	esi, DWORD PTR _start$[ebp]
	movss	xmm0, DWORD PTR [ecx+edx]
	subss	xmm0, DWORD PTR [esi+eax]
	mov	edx, 4
	shl	edx, 0
	movss	DWORD PTR _dir$[ebp+edx], xmm0
	mov	eax, 4
	shl	eax, 1
	mov	ecx, 4
	shl	ecx, 1
	mov	edx, DWORD PTR _end$[ebp]
	mov	esi, DWORD PTR _start$[ebp]
	movss	xmm0, DWORD PTR [edx+eax]
	subss	xmm0, DWORD PTR [esi+ecx]
	movss	DWORD PTR tv84[ebp], xmm0
	mov	eax, 4
	shl	eax, 1
	movss	xmm0, DWORD PTR tv84[ebp]
	movss	DWORD PTR _dir$[ebp+eax], xmm0

; 1309 : 	len = VectorNormalizeLength( dir );

	lea	ecx, DWORD PTR _dir$[ebp]
	push	ecx
	lea	edx, DWORD PTR _dir$[ebp]
	push	edx
	call	_VectorNormalizeLength2
	add	esp, 8
	fstp	DWORD PTR _len$[ebp]

; 1310 : 	VectorScale( dir, 5.0f, dir );

	mov	eax, 4
	imul	ecx, eax, 0
	movss	xmm0, DWORD PTR _dir$[ebp+ecx]
	mulss	xmm0, DWORD PTR __real@40a00000
	mov	edx, 4
	imul	eax, edx, 0
	movss	DWORD PTR _dir$[ebp+eax], xmm0
	mov	ecx, 4
	shl	ecx, 0
	movss	xmm0, DWORD PTR _dir$[ebp+ecx]
	mulss	xmm0, DWORD PTR __real@40a00000
	mov	edx, 4
	shl	edx, 0
	movss	DWORD PTR _dir$[ebp+edx], xmm0
	mov	eax, 4
	shl	eax, 1
	movss	xmm0, DWORD PTR _dir$[ebp+eax]
	mulss	xmm0, DWORD PTR __real@40a00000
	movss	DWORD PTR tv134[ebp], xmm0
	mov	ecx, 4
	shl	ecx, 1
	movss	xmm0, DWORD PTR tv134[ebp]
	movss	DWORD PTR _dir$[ebp+ecx], xmm0

; 1311 : 	VectorCopy( start, org );

	mov	edx, 4
	imul	eax, edx, 0
	mov	ecx, 4
	imul	edx, ecx, 0
	mov	ecx, DWORD PTR _start$[ebp]
	mov	eax, DWORD PTR [ecx+eax]
	mov	DWORD PTR _org$[ebp+edx], eax
	mov	ecx, 4
	shl	ecx, 0
	mov	edx, 4
	shl	edx, 0
	mov	eax, DWORD PTR _start$[ebp]
	mov	ecx, DWORD PTR [eax+ecx]
	mov	DWORD PTR _org$[ebp+edx], ecx
	mov	edx, 4
	shl	edx, 1
	mov	eax, 4
	shl	eax, 1
	mov	ecx, DWORD PTR _start$[ebp]
	mov	edx, DWORD PTR [ecx+edx]
	mov	DWORD PTR _org$[ebp+eax], edx
$LN2@R_ShowLine:

; 1312 : 	
; 1313 : 	while( len > 0 )

	movss	xmm0, DWORD PTR _len$[ebp]
	comiss	xmm0, DWORD PTR __real@00000000
	jbe	$LN3@R_ShowLine

; 1314 : 	{
; 1315 : 		len -= 5.0f;

	movss	xmm0, DWORD PTR _len$[ebp]
	subss	xmm0, DWORD PTR __real@40a00000
	movss	DWORD PTR _len$[ebp], xmm0

; 1316 : 
; 1317 : 		p = R_AllocParticle( NULL );

	push	0
	call	_R_AllocParticle
	add	esp, 4
	mov	DWORD PTR _p$[ebp], eax

; 1318 : 		if( !p ) return;

	cmp	DWORD PTR _p$[ebp], 0
	jne	SHORT $LN4@R_ShowLine
	jmp	$LN3@R_ShowLine
$LN4@R_ShowLine:

; 1319 : 
; 1320 : 		p->die = cl.time + 30;

	movsd	xmm0, QWORD PTR _cl+1525848
	addsd	xmm0, QWORD PTR __real@403e000000000000
	cvtsd2ss xmm0, xmm0
	mov	eax, DWORD PTR _p$[ebp]
	movss	DWORD PTR [eax+36], xmm0

; 1321 : 		p->color = 75;

	mov	ecx, 75					; 0000004bH
	mov	edx, DWORD PTR _p$[ebp]
	mov	WORD PTR [edx+12], cx

; 1322 : 
; 1323 : 		VectorCopy( org, p->org );

	mov	eax, 4
	imul	ecx, eax, 0
	mov	edx, 4
	imul	eax, edx, 0
	mov	edx, DWORD PTR _p$[ebp]
	mov	ecx, DWORD PTR _org$[ebp+ecx]
	mov	DWORD PTR [edx+eax], ecx
	mov	edx, 4
	shl	edx, 0
	mov	eax, 4
	shl	eax, 0
	mov	ecx, DWORD PTR _p$[ebp]
	mov	edx, DWORD PTR _org$[ebp+edx]
	mov	DWORD PTR [ecx+eax], edx
	mov	eax, 4
	shl	eax, 1
	mov	ecx, 4
	shl	ecx, 1
	mov	edx, DWORD PTR _p$[ebp]
	mov	eax, DWORD PTR _org$[ebp+eax]
	mov	DWORD PTR [edx+ecx], eax

; 1324 : 		VectorAdd( org, dir, org );

	mov	ecx, 4
	imul	edx, ecx, 0
	mov	eax, 4
	imul	ecx, eax, 0
	movss	xmm0, DWORD PTR _org$[ebp+edx]
	addss	xmm0, DWORD PTR _dir$[ebp+ecx]
	mov	edx, 4
	imul	eax, edx, 0
	movss	DWORD PTR _org$[ebp+eax], xmm0
	mov	ecx, 4
	shl	ecx, 0
	mov	edx, 4
	shl	edx, 0
	movss	xmm0, DWORD PTR _org$[ebp+ecx]
	addss	xmm0, DWORD PTR _dir$[ebp+edx]
	mov	eax, 4
	shl	eax, 0
	movss	DWORD PTR _org$[ebp+eax], xmm0
	mov	ecx, 4
	shl	ecx, 1
	mov	edx, 4
	shl	edx, 1
	movss	xmm0, DWORD PTR _org$[ebp+ecx]
	addss	xmm0, DWORD PTR _dir$[ebp+edx]
	movss	DWORD PTR tv191[ebp], xmm0
	mov	eax, 4
	shl	eax, 1
	movss	xmm0, DWORD PTR tv191[ebp]
	movss	DWORD PTR _org$[ebp+eax], xmm0

; 1325 : 	}

	jmp	$LN2@R_ShowLine
$LN3@R_ShowLine:

; 1326 : }

	pop	esi
	mov	ecx, DWORD PTR __$ArrayPad$[ebp]
	xor	ecx, ebp
	call	@__security_check_cookie@4
	mov	esp, ebp
	pop	ebp
	ret	0
_R_ShowLine ENDP
_TEXT	ENDS
; Function compile flags: /Odtp
; File c:\users\user\downloads\xash_build4529_src\engine\client\gl_rpart.c
_TEXT	SEGMENT
_pcolor$ = -56						; size = 4
tv175 = -52						; size = 4
tv154 = -48						; size = 4
tv133 = -44						; size = 4
_mins$ = -40						; size = 12
_maxs$ = -28						; size = 12
_origin$ = -16						; size = 12
__$ArrayPad$ = -4					; size = 4
_absmin$ = 8						; size = 4
_absmax$ = 12						; size = 4
_r$ = 16						; size = 1
_g$ = 20						; size = 1
_b$ = 24						; size = 1
_life$ = 28						; size = 4
_R_ParticleBox PROC

; 1282 : {

	push	ebp
	mov	ebp, esp
	sub	esp, 56					; 00000038H
	mov	eax, DWORD PTR ___security_cookie
	xor	eax, ebp
	mov	DWORD PTR __$ArrayPad$[ebp], eax
	push	esi

; 1283 : 	vec3_t	mins, maxs;
; 1284 : 	vec3_t	origin;
; 1285 : 	int	pcolor;
; 1286 : 
; 1287 : 	pcolor = R_LookupColor( r, g, b );

	movzx	eax, BYTE PTR _b$[ebp]
	push	eax
	movzx	ecx, BYTE PTR _g$[ebp]
	push	ecx
	movzx	edx, BYTE PTR _r$[ebp]
	push	edx
	call	_R_LookupColor
	add	esp, 12					; 0000000cH
	cwde
	mov	DWORD PTR _pcolor$[ebp], eax

; 1288 : 
; 1289 : 	VectorAverage( absmax, absmin, origin );

	mov	ecx, 4
	imul	edx, ecx, 0
	mov	eax, 4
	imul	ecx, eax, 0
	mov	eax, DWORD PTR _absmax$[ebp]
	mov	esi, DWORD PTR _absmin$[ebp]
	movss	xmm0, DWORD PTR [eax+edx]
	addss	xmm0, DWORD PTR [esi+ecx]
	cvtss2sd xmm0, xmm0
	mulsd	xmm0, QWORD PTR __real@3fe0000000000000
	mov	ecx, 4
	imul	edx, ecx, 0
	cvtsd2ss xmm0, xmm0
	movss	DWORD PTR _origin$[ebp+edx], xmm0
	mov	eax, 4
	shl	eax, 0
	mov	ecx, 4
	shl	ecx, 0
	mov	edx, DWORD PTR _absmax$[ebp]
	mov	esi, DWORD PTR _absmin$[ebp]
	movss	xmm0, DWORD PTR [edx+eax]
	addss	xmm0, DWORD PTR [esi+ecx]
	cvtss2sd xmm0, xmm0
	mulsd	xmm0, QWORD PTR __real@3fe0000000000000
	mov	eax, 4
	shl	eax, 0
	cvtsd2ss xmm0, xmm0
	movss	DWORD PTR _origin$[ebp+eax], xmm0
	mov	ecx, 4
	shl	ecx, 1
	mov	edx, 4
	shl	edx, 1
	mov	eax, DWORD PTR _absmax$[ebp]
	mov	esi, DWORD PTR _absmin$[ebp]
	movss	xmm0, DWORD PTR [eax+ecx]
	addss	xmm0, DWORD PTR [esi+edx]
	cvtss2sd xmm0, xmm0
	mulsd	xmm0, QWORD PTR __real@3fe0000000000000
	cvtsd2ss xmm0, xmm0
	movss	DWORD PTR tv133[ebp], xmm0
	mov	ecx, 4
	shl	ecx, 1
	movss	xmm0, DWORD PTR tv133[ebp]
	movss	DWORD PTR _origin$[ebp+ecx], xmm0

; 1290 : 	VectorSubtract( absmax, origin, maxs );

	mov	edx, 4
	imul	eax, edx, 0
	mov	ecx, 4
	imul	edx, ecx, 0
	mov	ecx, DWORD PTR _absmax$[ebp]
	movss	xmm0, DWORD PTR [ecx+eax]
	subss	xmm0, DWORD PTR _origin$[ebp+edx]
	mov	edx, 4
	imul	eax, edx, 0
	movss	DWORD PTR _maxs$[ebp+eax], xmm0
	mov	ecx, 4
	shl	ecx, 0
	mov	edx, 4
	shl	edx, 0
	mov	eax, DWORD PTR _absmax$[ebp]
	movss	xmm0, DWORD PTR [eax+ecx]
	subss	xmm0, DWORD PTR _origin$[ebp+edx]
	mov	ecx, 4
	shl	ecx, 0
	movss	DWORD PTR _maxs$[ebp+ecx], xmm0
	mov	edx, 4
	shl	edx, 1
	mov	eax, 4
	shl	eax, 1
	mov	ecx, DWORD PTR _absmax$[ebp]
	movss	xmm0, DWORD PTR [ecx+edx]
	subss	xmm0, DWORD PTR _origin$[ebp+eax]
	movss	DWORD PTR tv154[ebp], xmm0
	mov	edx, 4
	shl	edx, 1
	movss	xmm0, DWORD PTR tv154[ebp]
	movss	DWORD PTR _maxs$[ebp+edx], xmm0

; 1291 : 	VectorSubtract( absmin, origin, mins );

	mov	eax, 4
	imul	ecx, eax, 0
	mov	edx, 4
	imul	eax, edx, 0
	mov	edx, DWORD PTR _absmin$[ebp]
	movss	xmm0, DWORD PTR [edx+ecx]
	subss	xmm0, DWORD PTR _origin$[ebp+eax]
	mov	eax, 4
	imul	ecx, eax, 0
	movss	DWORD PTR _mins$[ebp+ecx], xmm0
	mov	edx, 4
	shl	edx, 0
	mov	eax, 4
	shl	eax, 0
	mov	ecx, DWORD PTR _absmin$[ebp]
	movss	xmm0, DWORD PTR [ecx+edx]
	subss	xmm0, DWORD PTR _origin$[ebp+eax]
	mov	edx, 4
	shl	edx, 0
	movss	DWORD PTR _mins$[ebp+edx], xmm0
	mov	eax, 4
	shl	eax, 1
	mov	ecx, 4
	shl	ecx, 1
	mov	edx, DWORD PTR _absmin$[ebp]
	movss	xmm0, DWORD PTR [edx+eax]
	subss	xmm0, DWORD PTR _origin$[ebp+ecx]
	movss	DWORD PTR tv175[ebp], xmm0
	mov	eax, 4
	shl	eax, 1
	movss	xmm0, DWORD PTR tv175[ebp]
	movss	DWORD PTR _mins$[ebp+eax], xmm0

; 1292 : 
; 1293 : 	PM_DrawBBox( mins, maxs, origin, pcolor, life );

	push	ecx
	movss	xmm0, DWORD PTR _life$[ebp]
	movss	DWORD PTR [esp], xmm0
	mov	ecx, DWORD PTR _pcolor$[ebp]
	push	ecx
	lea	edx, DWORD PTR _origin$[ebp]
	push	edx
	lea	eax, DWORD PTR _maxs$[ebp]
	push	eax
	lea	ecx, DWORD PTR _mins$[ebp]
	push	ecx
	call	_PM_DrawBBox
	add	esp, 20					; 00000014H

; 1294 : }

	pop	esi
	mov	ecx, DWORD PTR __$ArrayPad$[ebp]
	xor	ecx, ebp
	call	@__security_check_cookie@4
	mov	esp, ebp
	pop	ebp
	ret	0
_R_ParticleBox ENDP
_TEXT	ENDS
; Function compile flags: /Odtp
; File c:\users\user\downloads\xash_build4529_src\engine\client\gl_rpart.c
_TEXT	SEGMENT
_pcolor$ = -4						; size = 4
_start$ = 8						; size = 4
_end$ = 12						; size = 4
_r$ = 16						; size = 1
_g$ = 20						; size = 1
_b$ = 24						; size = 1
_life$ = 28						; size = 4
_R_ParticleLine PROC

; 1268 : {

	push	ebp
	mov	ebp, esp
	push	ecx

; 1269 : 	int	pcolor;
; 1270 : 
; 1271 : 	pcolor = R_LookupColor( r, g, b );

	movzx	eax, BYTE PTR _b$[ebp]
	push	eax
	movzx	ecx, BYTE PTR _g$[ebp]
	push	ecx
	movzx	edx, BYTE PTR _r$[ebp]
	push	edx
	call	_R_LookupColor
	add	esp, 12					; 0000000cH
	cwde
	mov	DWORD PTR _pcolor$[ebp], eax

; 1272 : 	PM_ParticleLine( start, end, pcolor, life, 0 );

	push	ecx
	xorps	xmm0, xmm0
	movss	DWORD PTR [esp], xmm0
	push	ecx
	movss	xmm0, DWORD PTR _life$[ebp]
	movss	DWORD PTR [esp], xmm0
	mov	ecx, DWORD PTR _pcolor$[ebp]
	push	ecx
	mov	edx, DWORD PTR _end$[ebp]
	push	edx
	mov	eax, DWORD PTR _start$[ebp]
	push	eax
	call	_PM_ParticleLine
	add	esp, 20					; 00000014H

; 1273 : }

	mov	esp, ebp
	pop	ebp
	ret	0
_R_ParticleLine ENDP
_TEXT	ENDS
; Function compile flags: /Odtp
; File c:\users\user\downloads\xash_build4529_src\engine\client\gl_rpart.c
_TEXT	SEGMENT
_org$ = 8						; size = 4
_vel$ = 12						; size = 4
_life$ = 16						; size = 4
_R_TracerParticles PROC

; 1526 : {

	push	ebp
	mov	ebp, esp

; 1527 : 	return R_AllocTracer( org, vel, life );

	push	ecx
	movss	xmm0, DWORD PTR _life$[ebp]
	movss	DWORD PTR [esp], xmm0
	mov	eax, DWORD PTR _vel$[ebp]
	push	eax
	mov	ecx, DWORD PTR _org$[ebp]
	push	ecx
	call	_R_AllocTracer
	add	esp, 12					; 0000000cH

; 1528 : }

	pop	ebp
	ret	0
_R_TracerParticles ENDP
_TEXT	ENDS
; Function compile flags: /Odtp
; File c:\users\user\downloads\xash_build4529_src\engine\client\gl_rpart.c
_TEXT	SEGMENT
_p$ = -4						; size = 4
_org$ = 8						; size = 4
_vel$ = 12						; size = 4
_life$ = 16						; size = 4
_colorIndex$ = 20					; size = 4
_length$ = 24						; size = 4
_deathcontext$ = 28					; size = 1
_deathfunc$ = 32					; size = 4
_R_UserTracerParticle PROC

; 1497 : {

	push	ebp
	mov	ebp, esp
	push	ecx

; 1498 : 	particle_t	*p;
; 1499 : 
; 1500 : 	if( colorIndex < 0 )

	cmp	DWORD PTR _colorIndex$[ebp], 0
	jge	SHORT $LN2@R_UserTrac

; 1501 : 		return;

	jmp	SHORT $LN4@R_UserTrac
$LN2@R_UserTrac:

; 1502 : 
; 1503 : 	if( colorIndex > ARRAYSIZE_XASH( gTracerColors ))

	cmp	DWORD PTR _colorIndex$[ebp], 12		; 0000000cH
	jbe	SHORT $LN3@R_UserTrac

; 1504 : 	{
; 1505 : 		Con_Printf( S_ERROR "UserTracer with color > %d\n", ARRAYSIZE_XASH( gTracerColors ));

	push	12					; 0000000cH
	push	OFFSET $SG146176
	call	_Con_Printf
	add	esp, 8

; 1506 : 		return;

	jmp	SHORT $LN4@R_UserTrac
$LN3@R_UserTrac:

; 1507 : 	}
; 1508 : 
; 1509 : 	if(( p = R_AllocTracer( org, vel, life )) != NULL )

	push	ecx
	movss	xmm0, DWORD PTR _life$[ebp]
	movss	DWORD PTR [esp], xmm0
	mov	eax, DWORD PTR _vel$[ebp]
	push	eax
	mov	ecx, DWORD PTR _org$[ebp]
	push	ecx
	call	_R_AllocTracer
	add	esp, 12					; 0000000cH
	mov	DWORD PTR _p$[ebp], eax
	cmp	DWORD PTR _p$[ebp], 0
	je	SHORT $LN4@R_UserTrac

; 1510 : 	{
; 1511 : 		p->context = deathcontext;

	mov	edx, DWORD PTR _p$[ebp]
	mov	al, BYTE PTR _deathcontext$[ebp]
	mov	BYTE PTR [edx+52], al

; 1512 : 		p->deathfunc = deathfunc;

	mov	ecx, DWORD PTR _p$[ebp]
	mov	edx, DWORD PTR _deathfunc$[ebp]
	mov	DWORD PTR [ecx+44], edx

; 1513 : 		p->color = colorIndex;

	mov	eax, DWORD PTR _p$[ebp]
	mov	cx, WORD PTR _colorIndex$[ebp]
	mov	WORD PTR [eax+12], cx

; 1514 : 		p->ramp = length;

	mov	edx, DWORD PTR _p$[ebp]
	movss	xmm0, DWORD PTR _length$[ebp]
	movss	DWORD PTR [edx+32], xmm0
$LN4@R_UserTrac:

; 1515 : 	}
; 1516 : }

	mov	esp, ebp
	pop	ebp
	ret	0
_R_UserTracerParticle ENDP
_TEXT	ENDS
; Function compile flags: /Odtp
; File c:\users\user\downloads\xash_build4529_src\engine\client\gl_rpart.c
_TEXT	SEGMENT
tv223 = -80						; size = 4
tv208 = -76						; size = 4
tv187 = -72						; size = 4
tv298 = -68						; size = 4
tv167 = -64						; size = 4
tv90 = -60						; size = 4
tv69 = -56						; size = 4
_offset$ = -52						; size = 4
_speed$ = -48						; size = 4
_len$ = -44						; size = 4
_pos$ = -40						; size = 12
_vel$ = -28						; size = 12
_dir$ = -16						; size = 12
__$ArrayPad$ = -4					; size = 4
_start$ = 8						; size = 4
_end$ = 12						; size = 4
_R_TracerEffect PROC

; 1470 : {

	push	ebp
	mov	ebp, esp
	sub	esp, 80					; 00000050H
	mov	eax, DWORD PTR ___security_cookie
	xor	eax, ebp
	mov	DWORD PTR __$ArrayPad$[ebp], eax
	push	esi

; 1471 : 	vec3_t	pos, vel, dir;
; 1472 : 	float	len, speed;
; 1473 : 	float	offset;
; 1474 : 
; 1475 : 	speed = Q_max( tracerspeed->value, 3.0f );

	mov	eax, DWORD PTR _tracerspeed
	movss	xmm0, DWORD PTR [eax+12]
	comiss	xmm0, DWORD PTR __real@40400000
	jbe	SHORT $LN4@R_TracerEf
	mov	ecx, DWORD PTR _tracerspeed
	movss	xmm0, DWORD PTR [ecx+12]
	movss	DWORD PTR tv69[ebp], xmm0
	jmp	SHORT $LN5@R_TracerEf
$LN4@R_TracerEf:
	movss	xmm0, DWORD PTR __real@40400000
	movss	DWORD PTR tv69[ebp], xmm0
$LN5@R_TracerEf:
	movss	xmm0, DWORD PTR tv69[ebp]
	movss	DWORD PTR _speed$[ebp], xmm0

; 1476 : 
; 1477 : 	VectorSubtract( end, start, dir );

	mov	edx, 4
	imul	eax, edx, 0
	mov	ecx, 4
	imul	edx, ecx, 0
	mov	ecx, DWORD PTR _end$[ebp]
	mov	esi, DWORD PTR _start$[ebp]
	movss	xmm0, DWORD PTR [ecx+eax]
	subss	xmm0, DWORD PTR [esi+edx]
	mov	edx, 4
	imul	eax, edx, 0
	movss	DWORD PTR _dir$[ebp+eax], xmm0
	mov	ecx, 4
	shl	ecx, 0
	mov	edx, 4
	shl	edx, 0
	mov	eax, DWORD PTR _end$[ebp]
	mov	esi, DWORD PTR _start$[ebp]
	movss	xmm0, DWORD PTR [eax+ecx]
	subss	xmm0, DWORD PTR [esi+edx]
	mov	ecx, 4
	shl	ecx, 0
	movss	DWORD PTR _dir$[ebp+ecx], xmm0
	mov	edx, 4
	shl	edx, 1
	mov	eax, 4
	shl	eax, 1
	mov	ecx, DWORD PTR _end$[ebp]
	mov	esi, DWORD PTR _start$[ebp]
	movss	xmm0, DWORD PTR [ecx+edx]
	subss	xmm0, DWORD PTR [esi+eax]
	movss	DWORD PTR tv90[ebp], xmm0
	mov	edx, 4
	shl	edx, 1
	movss	xmm0, DWORD PTR tv90[ebp]
	movss	DWORD PTR _dir$[ebp+edx], xmm0

; 1478 : 	len = VectorLength( dir );

	mov	eax, 4
	imul	ecx, eax, 0
	mov	edx, 4
	imul	eax, edx, 0
	movss	xmm0, DWORD PTR _dir$[ebp+ecx]
	mulss	xmm0, DWORD PTR _dir$[ebp+eax]
	mov	ecx, 4
	shl	ecx, 0
	mov	edx, 4
	shl	edx, 0
	movss	xmm1, DWORD PTR _dir$[ebp+ecx]
	mulss	xmm1, DWORD PTR _dir$[ebp+edx]
	addss	xmm0, xmm1
	mov	eax, 4
	shl	eax, 1
	mov	ecx, 4
	shl	ecx, 1
	movss	xmm1, DWORD PTR _dir$[ebp+eax]
	mulss	xmm1, DWORD PTR _dir$[ebp+ecx]
	addss	xmm0, xmm1
	cvtss2sd xmm0, xmm0
	sub	esp, 8
	movsd	QWORD PTR [esp], xmm0
	call	_sqrt
	add	esp, 8
	fstp	DWORD PTR _len$[ebp]

; 1479 : 	if( len == 0.0f ) return;

	movss	xmm0, DWORD PTR _len$[ebp]
	ucomiss	xmm0, DWORD PTR __real@00000000
	lahf
	test	ah, 68					; 00000044H
	jp	SHORT $LN2@R_TracerEf
	jmp	$LN1@R_TracerEf
$LN2@R_TracerEf:

; 1480 : 
; 1481 : 	VectorScale( dir, 1.0f / len, dir ); // normalize

	mov	edx, 4
	imul	eax, edx, 0
	movss	xmm0, DWORD PTR __real@3f800000
	divss	xmm0, DWORD PTR _len$[ebp]
	mulss	xmm0, DWORD PTR _dir$[ebp+eax]
	mov	ecx, 4
	imul	edx, ecx, 0
	movss	DWORD PTR _dir$[ebp+edx], xmm0
	mov	eax, 4
	shl	eax, 0
	movss	xmm0, DWORD PTR __real@3f800000
	divss	xmm0, DWORD PTR _len$[ebp]
	mulss	xmm0, DWORD PTR _dir$[ebp+eax]
	mov	ecx, 4
	shl	ecx, 0
	movss	DWORD PTR _dir$[ebp+ecx], xmm0
	mov	edx, 4
	shl	edx, 1
	movss	xmm0, DWORD PTR __real@3f800000
	divss	xmm0, DWORD PTR _len$[ebp]
	movss	xmm1, DWORD PTR _dir$[ebp+edx]
	mulss	xmm1, xmm0
	movss	DWORD PTR tv167[ebp], xmm1
	mov	eax, 4
	shl	eax, 1
	movss	xmm0, DWORD PTR tv167[ebp]
	movss	DWORD PTR _dir$[ebp+eax], xmm0

; 1482 : 	offset = COM_RandomFloat( -10.0f, 9.0f ) + traceroffset->value;

	push	ecx
	movss	xmm0, DWORD PTR __real@41100000
	movss	DWORD PTR [esp], xmm0
	push	ecx
	movss	xmm0, DWORD PTR __real@c1200000
	movss	DWORD PTR [esp], xmm0
	call	_COM_RandomFloat
	add	esp, 8
	fstp	DWORD PTR tv298[ebp]
	movss	xmm0, DWORD PTR tv298[ebp]
	mov	ecx, DWORD PTR _traceroffset
	addss	xmm0, DWORD PTR [ecx+12]
	movss	DWORD PTR _offset$[ebp], xmm0

; 1483 : 	VectorScale( dir, offset, vel );

	mov	edx, 4
	imul	eax, edx, 0
	movss	xmm0, DWORD PTR _dir$[ebp+eax]
	mulss	xmm0, DWORD PTR _offset$[ebp]
	mov	ecx, 4
	imul	edx, ecx, 0
	movss	DWORD PTR _vel$[ebp+edx], xmm0
	mov	eax, 4
	shl	eax, 0
	movss	xmm0, DWORD PTR _dir$[ebp+eax]
	mulss	xmm0, DWORD PTR _offset$[ebp]
	mov	ecx, 4
	shl	ecx, 0
	movss	DWORD PTR _vel$[ebp+ecx], xmm0
	mov	edx, 4
	shl	edx, 1
	movss	xmm0, DWORD PTR _dir$[ebp+edx]
	mulss	xmm0, DWORD PTR _offset$[ebp]
	movss	DWORD PTR tv187[ebp], xmm0
	mov	eax, 4
	shl	eax, 1
	movss	xmm0, DWORD PTR tv187[ebp]
	movss	DWORD PTR _vel$[ebp+eax], xmm0

; 1484 : 	VectorAdd( start, vel, pos );

	mov	ecx, 4
	imul	edx, ecx, 0
	mov	eax, 4
	imul	ecx, eax, 0
	mov	eax, DWORD PTR _start$[ebp]
	movss	xmm0, DWORD PTR [eax+edx]
	addss	xmm0, DWORD PTR _vel$[ebp+ecx]
	mov	ecx, 4
	imul	edx, ecx, 0
	movss	DWORD PTR _pos$[ebp+edx], xmm0
	mov	eax, 4
	shl	eax, 0
	mov	ecx, 4
	shl	ecx, 0
	mov	edx, DWORD PTR _start$[ebp]
	movss	xmm0, DWORD PTR [edx+eax]
	addss	xmm0, DWORD PTR _vel$[ebp+ecx]
	mov	eax, 4
	shl	eax, 0
	movss	DWORD PTR _pos$[ebp+eax], xmm0
	mov	ecx, 4
	shl	ecx, 1
	mov	edx, 4
	shl	edx, 1
	mov	eax, DWORD PTR _start$[ebp]
	movss	xmm0, DWORD PTR [eax+ecx]
	addss	xmm0, DWORD PTR _vel$[ebp+edx]
	movss	DWORD PTR tv208[ebp], xmm0
	mov	ecx, 4
	shl	ecx, 1
	movss	xmm0, DWORD PTR tv208[ebp]
	movss	DWORD PTR _pos$[ebp+ecx], xmm0

; 1485 : 	VectorScale( dir, speed, vel );

	mov	edx, 4
	imul	eax, edx, 0
	movss	xmm0, DWORD PTR _dir$[ebp+eax]
	mulss	xmm0, DWORD PTR _speed$[ebp]
	mov	ecx, 4
	imul	edx, ecx, 0
	movss	DWORD PTR _vel$[ebp+edx], xmm0
	mov	eax, 4
	shl	eax, 0
	movss	xmm0, DWORD PTR _dir$[ebp+eax]
	mulss	xmm0, DWORD PTR _speed$[ebp]
	mov	ecx, 4
	shl	ecx, 0
	movss	DWORD PTR _vel$[ebp+ecx], xmm0
	mov	edx, 4
	shl	edx, 1
	movss	xmm0, DWORD PTR _dir$[ebp+edx]
	mulss	xmm0, DWORD PTR _speed$[ebp]
	movss	DWORD PTR tv223[ebp], xmm0
	mov	eax, 4
	shl	eax, 1
	movss	xmm0, DWORD PTR tv223[ebp]
	movss	DWORD PTR _vel$[ebp+eax], xmm0

; 1486 : 
; 1487 : 	R_AllocTracer( pos, vel, len / speed );

	movss	xmm0, DWORD PTR _len$[ebp]
	divss	xmm0, DWORD PTR _speed$[ebp]
	push	ecx
	movss	DWORD PTR [esp], xmm0
	lea	ecx, DWORD PTR _vel$[ebp]
	push	ecx
	lea	edx, DWORD PTR _pos$[ebp]
	push	edx
	call	_R_AllocTracer
	add	esp, 12					; 0000000cH
$LN1@R_TracerEf:

; 1488 : }

	pop	esi
	mov	ecx, DWORD PTR __$ArrayPad$[ebp]
	xor	ecx, ebp
	call	@__security_check_cookie@4
	mov	esp, ebp
	pop	ebp
	ret	0
_R_TracerEffect ENDP
_TEXT	ENDS
; Function compile flags: /Odtp
; File c:\users\user\downloads\xash_build4529_src\engine\client\gl_rpart.c
_TEXT	SEGMENT
_packed$ = 8						; size = 4
_color$ = 12						; size = 2
_R_GetPackedColor PROC

; 117  : {

	push	ebp
	mov	ebp, esp

; 118  : 	if( packed ) *packed = 0;

	cmp	DWORD PTR _packed$[ebp], 0
	je	SHORT $LN1@R_GetPacke
	xor	eax, eax
	mov	ecx, DWORD PTR _packed$[ebp]
	mov	WORD PTR [ecx], ax
$LN1@R_GetPacke:

; 119  : }

	pop	ebp
	ret	0
_R_GetPackedColor ENDP
_TEXT	ENDS
; Function compile flags: /Odtp
; File c:\users\user\downloads\xash_build4529_src\engine\client\gl_rpart.c
_TEXT	SEGMENT
_best$ = -28						; size = 4
_bestdiff$ = -24					; size = 4
_diff$ = -20						; size = 4
_bf$ = -16						; size = 4
_gf$ = -12						; size = 4
_rf$ = -8						; size = 4
_i$ = -4						; size = 4
_r$ = 8							; size = 1
_g$ = 12						; size = 1
_b$ = 16						; size = 1
_R_LookupColor PROC

; 82   : {

	push	ebp
	mov	ebp, esp
	sub	esp, 28					; 0000001cH

; 83   : 	int	i, best;
; 84   : 	float	diff, bestdiff;
; 85   : 	float	rf, gf, bf;
; 86   : 
; 87   : 	bestdiff = 999999;

	movss	xmm0, DWORD PTR __real@497423f0
	movss	DWORD PTR _bestdiff$[ebp], xmm0

; 88   : 	best = 65535;

	mov	DWORD PTR _best$[ebp], 65535		; 0000ffffH

; 89   : 
; 90   : 	for( i = 0; i < 256; i++ )

	mov	DWORD PTR _i$[ebp], 0
	jmp	SHORT $LN4@R_LookupCo
$LN2@R_LookupCo:
	mov	eax, DWORD PTR _i$[ebp]
	add	eax, 1
	mov	DWORD PTR _i$[ebp], eax
$LN4@R_LookupCo:
	cmp	DWORD PTR _i$[ebp], 256			; 00000100H
	jge	$LN3@R_LookupCo

; 91   : 	{
; 92   : 		rf = r - clgame.palette[i].r;

	movzx	ecx, BYTE PTR _r$[ebp]
	imul	edx, DWORD PTR _i$[ebp], 3
	movzx	eax, BYTE PTR _clgame[edx+125460]
	sub	ecx, eax
	cvtsi2ss xmm0, ecx
	movss	DWORD PTR _rf$[ebp], xmm0

; 93   : 		gf = g - clgame.palette[i].g;

	movzx	ecx, BYTE PTR _g$[ebp]
	imul	edx, DWORD PTR _i$[ebp], 3
	movzx	eax, BYTE PTR _clgame[edx+125461]
	sub	ecx, eax
	cvtsi2ss xmm0, ecx
	movss	DWORD PTR _gf$[ebp], xmm0

; 94   : 		bf = b - clgame.palette[i].b;

	movzx	ecx, BYTE PTR _b$[ebp]
	imul	edx, DWORD PTR _i$[ebp], 3
	movzx	eax, BYTE PTR _clgame[edx+125462]
	sub	ecx, eax
	cvtsi2ss xmm0, ecx
	movss	DWORD PTR _bf$[ebp], xmm0

; 95   : 
; 96   : 		// convert color to monochrome
; 97   : 		diff = rf * (rf * 0.2) + gf * (gf * 0.5) + bf * (bf * 0.3);

	cvtss2sd xmm0, DWORD PTR _rf$[ebp]
	cvtss2sd xmm1, DWORD PTR _rf$[ebp]
	mulsd	xmm1, QWORD PTR __real@3fc999999999999a
	mulsd	xmm0, xmm1
	cvtss2sd xmm1, DWORD PTR _gf$[ebp]
	cvtss2sd xmm2, DWORD PTR _gf$[ebp]
	mulsd	xmm2, QWORD PTR __real@3fe0000000000000
	mulsd	xmm1, xmm2
	addsd	xmm0, xmm1
	cvtss2sd xmm1, DWORD PTR _bf$[ebp]
	cvtss2sd xmm2, DWORD PTR _bf$[ebp]
	mulsd	xmm2, QWORD PTR __real@3fd3333333333333
	mulsd	xmm1, xmm2
	addsd	xmm0, xmm1
	cvtsd2ss xmm0, xmm0
	movss	DWORD PTR _diff$[ebp], xmm0

; 98   : 
; 99   : 		if ( diff < bestdiff )

	movss	xmm0, DWORD PTR _bestdiff$[ebp]
	comiss	xmm0, DWORD PTR _diff$[ebp]
	jbe	SHORT $LN5@R_LookupCo

; 100  : 		{
; 101  : 			bestdiff = diff;

	movss	xmm0, DWORD PTR _diff$[ebp]
	movss	DWORD PTR _bestdiff$[ebp], xmm0

; 102  : 			best = i;

	mov	ecx, DWORD PTR _i$[ebp]
	mov	DWORD PTR _best$[ebp], ecx
$LN5@R_LookupCo:

; 103  : 		}
; 104  : 	}

	jmp	$LN2@R_LookupCo
$LN3@R_LookupCo:

; 105  : 
; 106  : 	return best;

	mov	ax, WORD PTR _best$[ebp]

; 107  : }

	mov	esp, ebp
	pop	ebp
	ret	0
_R_LookupColor ENDP
_TEXT	ENDS
; Function compile flags: /Odtp
; File c:\users\user\downloads\xash_build4529_src\engine\client\gl_rpart.c
_TEXT	SEGMENT
tv267 = -192						; size = 4
tv802 = -188						; size = 4
tv816 = -184						; size = 4
tv593 = -180						; size = 4
tv545 = -176						; size = 4
tv1086 = -172						; size = 4
tv1071 = -168						; size = 4
tv1056 = -164						; size = 4
tv503 = -160						; size = 4
tv482 = -156						; size = 4
tv455 = -152						; size = 4
_x$ = -148						; size = 4
tv400 = -144						; size = 4
tv958 = -140						; size = 4
tv944 = -136						; size = 4
tv930 = -132						; size = 4
tv361 = -128						; size = 4
tv906 = -124						; size = 4
tv892 = -120						; size = 4
tv878 = -116						; size = 4
tv788 = -112						; size = 4
tv231 = -108						; size = 4
tv767 = -104						; size = 4
tv753 = -100						; size = 4
tv739 = -96						; size = 4
tv190 = -92						; size = 4
tv716 = -88						; size = 4
tv702 = -84						; size = 4
tv688 = -80						; size = 4
tv140 = -76						; size = 4
tv84 = -72						; size = 4
_y$ = -68						; size = 4
tv149 = -64						; size = 4
_c$ = -60						; size = 4
_s$ = -56						; size = 4
_len$ = -52						; size = 4
_dec$ = -48						; size = 4
_p$ = -44						; size = 4
_right$ = -40						; size = 12
_up$ = -28						; size = 12
_vec$ = -16						; size = 12
__$ArrayPad$ = -4					; size = 4
_start$ = 8						; size = 4
_end$ = 12						; size = 4
_type$ = 16						; size = 4
_R_RocketTrail PROC

; 1149 : {

	push	ebp
	mov	ebp, esp
	sub	esp, 192				; 000000c0H
	mov	eax, DWORD PTR ___security_cookie
	xor	eax, ebp
	mov	DWORD PTR __$ArrayPad$[ebp], eax
	push	esi

; 1150 : 	vec3_t		vec, right, up;
; 1151 : 	static int	tracercount;
; 1152 : 	float		s, c, x, y;
; 1153 : 	float		len, dec;
; 1154 : 	particle_t	*p;
; 1155 : 
; 1156 : 	VectorSubtract( end, start, vec );

	mov	eax, 4
	imul	ecx, eax, 0
	mov	edx, 4
	imul	eax, edx, 0
	mov	edx, DWORD PTR _end$[ebp]
	mov	esi, DWORD PTR _start$[ebp]
	movss	xmm0, DWORD PTR [edx+ecx]
	subss	xmm0, DWORD PTR [esi+eax]
	mov	eax, 4
	imul	ecx, eax, 0
	movss	DWORD PTR _vec$[ebp+ecx], xmm0
	mov	edx, 4
	shl	edx, 0
	mov	eax, 4
	shl	eax, 0
	mov	ecx, DWORD PTR _end$[ebp]
	mov	esi, DWORD PTR _start$[ebp]
	movss	xmm0, DWORD PTR [ecx+edx]
	subss	xmm0, DWORD PTR [esi+eax]
	mov	edx, 4
	shl	edx, 0
	movss	DWORD PTR _vec$[ebp+edx], xmm0
	mov	eax, 4
	shl	eax, 1
	mov	ecx, 4
	shl	ecx, 1
	mov	edx, DWORD PTR _end$[ebp]
	mov	esi, DWORD PTR _start$[ebp]
	movss	xmm0, DWORD PTR [edx+eax]
	subss	xmm0, DWORD PTR [esi+ecx]
	movss	DWORD PTR tv84[ebp], xmm0
	mov	eax, 4
	shl	eax, 1
	movss	xmm0, DWORD PTR tv84[ebp]
	movss	DWORD PTR _vec$[ebp+eax], xmm0

; 1157 : 	len = VectorNormalizeLength( vec );

	lea	ecx, DWORD PTR _vec$[ebp]
	push	ecx
	lea	edx, DWORD PTR _vec$[ebp]
	push	edx
	call	_VectorNormalizeLength2
	add	esp, 8
	fstp	DWORD PTR _len$[ebp]

; 1158 : 
; 1159 : 	if( type == 7 )

	cmp	DWORD PTR _type$[ebp], 7
	jne	SHORT $LN6@R_RocketTr

; 1160 : 	{
; 1161 : 		VectorVectors( vec, right, up );

	lea	eax, DWORD PTR _up$[ebp]
	push	eax
	lea	ecx, DWORD PTR _right$[ebp]
	push	ecx
	lea	edx, DWORD PTR _vec$[ebp]
	push	edx
	call	_VectorVectors
	add	esp, 12					; 0000000cH
$LN6@R_RocketTr:

; 1162 : 	}
; 1163 : 
; 1164 : 	if( type < 128 )

	cmp	DWORD PTR _type$[ebp], 128		; 00000080H
	jge	SHORT $LN7@R_RocketTr

; 1165 : 	{
; 1166 : 		dec = 3.0f;

	movss	xmm0, DWORD PTR __real@40400000
	movss	DWORD PTR _dec$[ebp], xmm0

; 1167 : 	}

	jmp	SHORT $LN8@R_RocketTr
$LN7@R_RocketTr:

; 1168 : 	else
; 1169 : 	{
; 1170 : 		dec = 1.0f;

	movss	xmm0, DWORD PTR __real@3f800000
	movss	DWORD PTR _dec$[ebp], xmm0

; 1171 : 		type -= 128;

	mov	eax, DWORD PTR _type$[ebp]
	sub	eax, 128				; 00000080H
	mov	DWORD PTR _type$[ebp], eax
$LN8@R_RocketTr:

; 1172 : 	}
; 1173 : 
; 1174 : 	VectorScale( vec, dec, vec );

	mov	ecx, 4
	imul	edx, ecx, 0
	movss	xmm0, DWORD PTR _vec$[ebp+edx]
	mulss	xmm0, DWORD PTR _dec$[ebp]
	mov	eax, 4
	imul	ecx, eax, 0
	movss	DWORD PTR _vec$[ebp+ecx], xmm0
	mov	edx, 4
	shl	edx, 0
	movss	xmm0, DWORD PTR _vec$[ebp+edx]
	mulss	xmm0, DWORD PTR _dec$[ebp]
	mov	eax, 4
	shl	eax, 0
	movss	DWORD PTR _vec$[ebp+eax], xmm0
	mov	ecx, 4
	shl	ecx, 1
	movss	xmm0, DWORD PTR _vec$[ebp+ecx]
	mulss	xmm0, DWORD PTR _dec$[ebp]
	movss	DWORD PTR tv140[ebp], xmm0
	mov	edx, 4
	shl	edx, 1
	movss	xmm0, DWORD PTR tv140[ebp]
	movss	DWORD PTR _vec$[ebp+edx], xmm0
$LN2@R_RocketTr:

; 1175 : 
; 1176 : 	while( len > 0 )

	movss	xmm0, DWORD PTR _len$[ebp]
	comiss	xmm0, DWORD PTR __real@00000000
	jbe	$LN3@R_RocketTr

; 1177 : 	{
; 1178 : 		len -= dec;

	movss	xmm0, DWORD PTR _len$[ebp]
	subss	xmm0, DWORD PTR _dec$[ebp]
	movss	DWORD PTR _len$[ebp], xmm0

; 1179 : 
; 1180 : 		p = R_AllocParticle( NULL );

	push	0
	call	_R_AllocParticle
	add	esp, 4
	mov	DWORD PTR _p$[ebp], eax

; 1181 : 		if( !p ) return;

	cmp	DWORD PTR _p$[ebp], 0
	jne	SHORT $LN9@R_RocketTr
	jmp	$LN3@R_RocketTr
$LN9@R_RocketTr:

; 1182 : 		
; 1183 : 		p->die = cl.time + 2.0f;

	movsd	xmm0, QWORD PTR _cl+1525848
	addsd	xmm0, QWORD PTR __real@4000000000000000
	cvtsd2ss xmm0, xmm0
	mov	eax, DWORD PTR _p$[ebp]
	movss	DWORD PTR [eax+36], xmm0

; 1184 : 
; 1185 : 		switch( type )

	mov	ecx, DWORD PTR _type$[ebp]
	mov	DWORD PTR tv149[ebp], ecx
	cmp	DWORD PTR tv149[ebp], 7
	ja	$LN21@R_RocketTr
	mov	edx, DWORD PTR tv149[ebp]
	jmp	DWORD PTR $LN23@R_RocketTr[edx*4]
$LN10@R_RocketTr:

; 1186 : 		{
; 1187 : 		case 0:	// rocket trail
; 1188 : 			p->ramp = COM_RandomLong( 0, 3 );

	push	3
	push	0
	call	_COM_RandomLong
	add	esp, 8
	cvtsi2ss xmm0, eax
	mov	eax, DWORD PTR _p$[ebp]
	movss	DWORD PTR [eax+32], xmm0

; 1189 : 			p->color = ramp3[(int)p->ramp];

	mov	ecx, DWORD PTR _p$[ebp]
	cvttss2si edx, DWORD PTR [ecx+32]
	mov	eax, DWORD PTR _p$[ebp]
	mov	cx, WORD PTR _ramp3[edx*4]
	mov	WORD PTR [eax+12], cx

; 1190 : 			p->type = pt_fire;

	mov	edx, DWORD PTR _p$[ebp]
	mov	DWORD PTR [edx+40], 3

; 1191 : 			VectorAddScalar( start, COM_RandomFloat( -3.0f, 3.0f ), p->org );

	mov	eax, 4
	imul	esi, eax, 0
	push	ecx
	movss	xmm0, DWORD PTR __real@40400000
	movss	DWORD PTR [esp], xmm0
	push	ecx
	movss	xmm0, DWORD PTR __real@c0400000
	movss	DWORD PTR [esp], xmm0
	call	_COM_RandomFloat
	add	esp, 8
	fstp	DWORD PTR tv688[ebp]
	mov	ecx, DWORD PTR _start$[ebp]
	movss	xmm0, DWORD PTR tv688[ebp]
	addss	xmm0, DWORD PTR [ecx+esi]
	mov	edx, 4
	imul	eax, edx, 0
	mov	ecx, DWORD PTR _p$[ebp]
	movss	DWORD PTR [ecx+eax], xmm0
	mov	esi, 4
	shl	esi, 0
	push	ecx
	movss	xmm0, DWORD PTR __real@40400000
	movss	DWORD PTR [esp], xmm0
	push	ecx
	movss	xmm0, DWORD PTR __real@c0400000
	movss	DWORD PTR [esp], xmm0
	call	_COM_RandomFloat
	add	esp, 8
	fstp	DWORD PTR tv702[ebp]
	mov	edx, DWORD PTR _start$[ebp]
	movss	xmm0, DWORD PTR tv702[ebp]
	addss	xmm0, DWORD PTR [edx+esi]
	mov	eax, 4
	shl	eax, 0
	mov	ecx, DWORD PTR _p$[ebp]
	movss	DWORD PTR [ecx+eax], xmm0
	mov	esi, 4
	shl	esi, 1
	push	ecx
	movss	xmm0, DWORD PTR __real@40400000
	movss	DWORD PTR [esp], xmm0
	push	ecx
	movss	xmm0, DWORD PTR __real@c0400000
	movss	DWORD PTR [esp], xmm0
	call	_COM_RandomFloat
	add	esp, 8
	fstp	DWORD PTR tv716[ebp]
	mov	edx, DWORD PTR _start$[ebp]
	movss	xmm0, DWORD PTR [edx+esi]
	addss	xmm0, DWORD PTR tv716[ebp]
	movss	DWORD PTR tv190[ebp], xmm0
	mov	eax, 4
	shl	eax, 1
	mov	ecx, DWORD PTR _p$[ebp]
	movss	xmm0, DWORD PTR tv190[ebp]
	movss	DWORD PTR [ecx+eax], xmm0

; 1192 : 			break;

	jmp	$LN4@R_RocketTr
$LN11@R_RocketTr:

; 1193 : 		case 1:	// smoke smoke
; 1194 : 			p->ramp = COM_RandomLong( 2, 5 );

	push	5
	push	2
	call	_COM_RandomLong
	add	esp, 8
	cvtsi2ss xmm0, eax
	mov	edx, DWORD PTR _p$[ebp]
	movss	DWORD PTR [edx+32], xmm0

; 1195 : 			p->color = ramp3[(int)p->ramp];

	mov	eax, DWORD PTR _p$[ebp]
	cvttss2si ecx, DWORD PTR [eax+32]
	mov	edx, DWORD PTR _p$[ebp]
	mov	ax, WORD PTR _ramp3[ecx*4]
	mov	WORD PTR [edx+12], ax

; 1196 : 			p->type = pt_fire;

	mov	ecx, DWORD PTR _p$[ebp]
	mov	DWORD PTR [ecx+40], 3

; 1197 : 			VectorAddScalar( start, COM_RandomFloat( -3.0f, 3.0f ), p->org );

	mov	edx, 4
	imul	esi, edx, 0
	push	ecx
	movss	xmm0, DWORD PTR __real@40400000
	movss	DWORD PTR [esp], xmm0
	push	ecx
	movss	xmm0, DWORD PTR __real@c0400000
	movss	DWORD PTR [esp], xmm0
	call	_COM_RandomFloat
	add	esp, 8
	fstp	DWORD PTR tv739[ebp]
	mov	eax, DWORD PTR _start$[ebp]
	movss	xmm0, DWORD PTR tv739[ebp]
	addss	xmm0, DWORD PTR [eax+esi]
	mov	ecx, 4
	imul	edx, ecx, 0
	mov	eax, DWORD PTR _p$[ebp]
	movss	DWORD PTR [eax+edx], xmm0
	mov	esi, 4
	shl	esi, 0
	push	ecx
	movss	xmm0, DWORD PTR __real@40400000
	movss	DWORD PTR [esp], xmm0
	push	ecx
	movss	xmm0, DWORD PTR __real@c0400000
	movss	DWORD PTR [esp], xmm0
	call	_COM_RandomFloat
	add	esp, 8
	fstp	DWORD PTR tv753[ebp]
	mov	ecx, DWORD PTR _start$[ebp]
	movss	xmm0, DWORD PTR tv753[ebp]
	addss	xmm0, DWORD PTR [ecx+esi]
	mov	edx, 4
	shl	edx, 0
	mov	eax, DWORD PTR _p$[ebp]
	movss	DWORD PTR [eax+edx], xmm0
	mov	esi, 4
	shl	esi, 1
	push	ecx
	movss	xmm0, DWORD PTR __real@40400000
	movss	DWORD PTR [esp], xmm0
	push	ecx
	movss	xmm0, DWORD PTR __real@c0400000
	movss	DWORD PTR [esp], xmm0
	call	_COM_RandomFloat
	add	esp, 8
	fstp	DWORD PTR tv767[ebp]
	mov	ecx, DWORD PTR _start$[ebp]
	movss	xmm0, DWORD PTR [ecx+esi]
	addss	xmm0, DWORD PTR tv767[ebp]
	movss	DWORD PTR tv231[ebp], xmm0
	mov	edx, 4
	shl	edx, 1
	mov	eax, DWORD PTR _p$[ebp]
	movss	xmm0, DWORD PTR tv231[ebp]
	movss	DWORD PTR [eax+edx], xmm0

; 1198 : 			break;

	jmp	$LN4@R_RocketTr
$LN12@R_RocketTr:

; 1199 : 		case 2:	// blood
; 1200 : 			p->type = pt_grav;

	mov	ecx, DWORD PTR _p$[ebp]
	mov	DWORD PTR [ecx+40], 1

; 1201 : 			p->color = COM_RandomLong( 67, 74 );

	push	74					; 0000004aH
	push	67					; 00000043H
	call	_COM_RandomLong
	add	esp, 8
	mov	edx, DWORD PTR _p$[ebp]
	mov	WORD PTR [edx+12], ax

; 1202 : 			VectorAddScalar( start, COM_RandomFloat( -3.0f, 3.0f ), p->org );

	mov	eax, 4
	imul	esi, eax, 0
	push	ecx
	movss	xmm0, DWORD PTR __real@40400000
	movss	DWORD PTR [esp], xmm0
	push	ecx
	movss	xmm0, DWORD PTR __real@c0400000
	movss	DWORD PTR [esp], xmm0
	call	_COM_RandomFloat
	add	esp, 8
	fstp	DWORD PTR tv788[ebp]
	mov	ecx, DWORD PTR _start$[ebp]
	movss	xmm0, DWORD PTR tv788[ebp]
	addss	xmm0, DWORD PTR [ecx+esi]
	mov	edx, 4
	imul	eax, edx, 0
	mov	ecx, DWORD PTR _p$[ebp]
	movss	DWORD PTR [ecx+eax], xmm0
	mov	esi, 4
	shl	esi, 0
	push	ecx
	movss	xmm0, DWORD PTR __real@40400000
	movss	DWORD PTR [esp], xmm0
	push	ecx
	movss	xmm0, DWORD PTR __real@c0400000
	movss	DWORD PTR [esp], xmm0
	call	_COM_RandomFloat
	add	esp, 8
	fstp	DWORD PTR tv802[ebp]
	mov	edx, DWORD PTR _start$[ebp]
	movss	xmm0, DWORD PTR tv802[ebp]
	addss	xmm0, DWORD PTR [edx+esi]
	mov	eax, 4
	shl	eax, 0
	mov	ecx, DWORD PTR _p$[ebp]
	movss	DWORD PTR [ecx+eax], xmm0
	mov	esi, 4
	shl	esi, 1
	push	ecx
	movss	xmm0, DWORD PTR __real@40400000
	movss	DWORD PTR [esp], xmm0
	push	ecx
	movss	xmm0, DWORD PTR __real@c0400000
	movss	DWORD PTR [esp], xmm0
	call	_COM_RandomFloat
	add	esp, 8
	fstp	DWORD PTR tv816[ebp]
	mov	edx, DWORD PTR _start$[ebp]
	movss	xmm0, DWORD PTR [edx+esi]
	addss	xmm0, DWORD PTR tv816[ebp]
	movss	DWORD PTR tv267[ebp], xmm0
	mov	eax, 4
	shl	eax, 1
	mov	ecx, DWORD PTR _p$[ebp]
	movss	xmm0, DWORD PTR tv267[ebp]
	movss	DWORD PTR [ecx+eax], xmm0

; 1203 : 			break;

	jmp	$LN4@R_RocketTr
$LN13@R_RocketTr:

; 1204 : 		case 3:
; 1205 : 		case 5:	// tracer
; 1206 : 			p->die = cl.time + 0.5f;

	movsd	xmm0, QWORD PTR _cl+1525848
	addsd	xmm0, QWORD PTR __real@3fe0000000000000
	cvtsd2ss xmm0, xmm0
	mov	edx, DWORD PTR _p$[ebp]
	movss	DWORD PTR [edx+36], xmm0

; 1207 : 
; 1208 : 			if( type == 3 ) p->color = 52 + (( tracercount & 4 )<<1 );

	cmp	DWORD PTR _type$[ebp], 3
	jne	SHORT $LN14@R_RocketTr
	mov	eax, DWORD PTR ?tracercount@?1??R_RocketTrail@@9@9
	and	eax, 4
	lea	ecx, DWORD PTR [eax+eax+52]
	mov	edx, DWORD PTR _p$[ebp]
	mov	WORD PTR [edx+12], cx
	jmp	SHORT $LN15@R_RocketTr
$LN14@R_RocketTr:

; 1209 : 			else p->color = 230 + (( tracercount & 4 )<<1 );

	mov	eax, DWORD PTR ?tracercount@?1??R_RocketTrail@@9@9
	and	eax, 4
	lea	ecx, DWORD PTR [eax+eax+230]
	mov	edx, DWORD PTR _p$[ebp]
	mov	WORD PTR [edx+12], cx
$LN15@R_RocketTr:

; 1210 : 
; 1211 : 			VectorCopy( start, p->org );

	mov	eax, 4
	imul	ecx, eax, 0
	mov	edx, 4
	imul	eax, edx, 0
	mov	edx, DWORD PTR _p$[ebp]
	mov	esi, DWORD PTR _start$[ebp]
	mov	ecx, DWORD PTR [esi+ecx]
	mov	DWORD PTR [edx+eax], ecx
	mov	edx, 4
	shl	edx, 0
	mov	eax, 4
	shl	eax, 0
	mov	ecx, DWORD PTR _p$[ebp]
	mov	esi, DWORD PTR _start$[ebp]
	mov	edx, DWORD PTR [esi+edx]
	mov	DWORD PTR [ecx+eax], edx
	mov	eax, 4
	shl	eax, 1
	mov	ecx, 4
	shl	ecx, 1
	mov	edx, DWORD PTR _p$[ebp]
	mov	esi, DWORD PTR _start$[ebp]
	mov	eax, DWORD PTR [esi+eax]
	mov	DWORD PTR [edx+ecx], eax

; 1212 : 			tracercount++;

	mov	ecx, DWORD PTR ?tracercount@?1??R_RocketTrail@@9@9
	add	ecx, 1
	mov	DWORD PTR ?tracercount@?1??R_RocketTrail@@9@9, ecx

; 1213 : 
; 1214 : 			if( FBitSet( tracercount, 1 ))

	mov	edx, DWORD PTR ?tracercount@?1??R_RocketTrail@@9@9
	and	edx, 1
	je	SHORT $LN16@R_RocketTr

; 1215 : 			{
; 1216 : 				p->vel[0] = 30.0f *  vec[1];

	mov	eax, 4
	shl	eax, 0
	movss	xmm0, DWORD PTR __real@41f00000
	mulss	xmm0, DWORD PTR _vec$[ebp+eax]
	mov	ecx, 4
	imul	edx, ecx, 0
	mov	eax, DWORD PTR _p$[ebp]
	movss	DWORD PTR [eax+edx+20], xmm0

; 1217 : 				p->vel[1] = 30.0f * -vec[0];

	mov	ecx, 4
	imul	edx, ecx, 0
	movss	xmm0, DWORD PTR _vec$[ebp+edx]
	xorps	xmm0, DWORD PTR __xmm@80000000800000008000000080000000
	mulss	xmm0, DWORD PTR __real@41f00000
	mov	eax, 4
	shl	eax, 0
	mov	ecx, DWORD PTR _p$[ebp]
	movss	DWORD PTR [ecx+eax+20], xmm0

; 1218 : 			}

	jmp	SHORT $LN17@R_RocketTr
$LN16@R_RocketTr:

; 1219 : 			else
; 1220 : 			{
; 1221 : 				p->vel[0] = 30.0f * -vec[1];

	mov	edx, 4
	shl	edx, 0
	movss	xmm0, DWORD PTR _vec$[ebp+edx]
	xorps	xmm0, DWORD PTR __xmm@80000000800000008000000080000000
	mulss	xmm0, DWORD PTR __real@41f00000
	mov	eax, 4
	imul	ecx, eax, 0
	mov	edx, DWORD PTR _p$[ebp]
	movss	DWORD PTR [edx+ecx+20], xmm0

; 1222 : 				p->vel[1] = 30.0f *  vec[0];

	mov	eax, 4
	imul	ecx, eax, 0
	movss	xmm0, DWORD PTR __real@41f00000
	mulss	xmm0, DWORD PTR _vec$[ebp+ecx]
	mov	edx, 4
	shl	edx, 0
	mov	eax, DWORD PTR _p$[ebp]
	movss	DWORD PTR [eax+edx+20], xmm0
$LN17@R_RocketTr:

; 1223 : 			}
; 1224 : 			break;

	jmp	$LN4@R_RocketTr
$LN18@R_RocketTr:

; 1225 : 		case 4:	// slight blood
; 1226 : 			p->type = pt_grav;

	mov	ecx, DWORD PTR _p$[ebp]
	mov	DWORD PTR [ecx+40], 1

; 1227 : 			p->color = COM_RandomLong( 67, 70 );

	push	70					; 00000046H
	push	67					; 00000043H
	call	_COM_RandomLong
	add	esp, 8
	mov	edx, DWORD PTR _p$[ebp]
	mov	WORD PTR [edx+12], ax

; 1228 : 			VectorAddScalar( start, COM_RandomFloat( -3.0f, 3.0f ), p->org );

	mov	eax, 4
	imul	esi, eax, 0
	push	ecx
	movss	xmm0, DWORD PTR __real@40400000
	movss	DWORD PTR [esp], xmm0
	push	ecx
	movss	xmm0, DWORD PTR __real@c0400000
	movss	DWORD PTR [esp], xmm0
	call	_COM_RandomFloat
	add	esp, 8
	fstp	DWORD PTR tv878[ebp]
	mov	ecx, DWORD PTR _start$[ebp]
	movss	xmm0, DWORD PTR tv878[ebp]
	addss	xmm0, DWORD PTR [ecx+esi]
	mov	edx, 4
	imul	eax, edx, 0
	mov	ecx, DWORD PTR _p$[ebp]
	movss	DWORD PTR [ecx+eax], xmm0
	mov	esi, 4
	shl	esi, 0
	push	ecx
	movss	xmm0, DWORD PTR __real@40400000
	movss	DWORD PTR [esp], xmm0
	push	ecx
	movss	xmm0, DWORD PTR __real@c0400000
	movss	DWORD PTR [esp], xmm0
	call	_COM_RandomFloat
	add	esp, 8
	fstp	DWORD PTR tv892[ebp]
	mov	edx, DWORD PTR _start$[ebp]
	movss	xmm0, DWORD PTR tv892[ebp]
	addss	xmm0, DWORD PTR [edx+esi]
	mov	eax, 4
	shl	eax, 0
	mov	ecx, DWORD PTR _p$[ebp]
	movss	DWORD PTR [ecx+eax], xmm0
	mov	esi, 4
	shl	esi, 1
	push	ecx
	movss	xmm0, DWORD PTR __real@40400000
	movss	DWORD PTR [esp], xmm0
	push	ecx
	movss	xmm0, DWORD PTR __real@c0400000
	movss	DWORD PTR [esp], xmm0
	call	_COM_RandomFloat
	add	esp, 8
	fstp	DWORD PTR tv906[ebp]
	mov	edx, DWORD PTR _start$[ebp]
	movss	xmm0, DWORD PTR [edx+esi]
	addss	xmm0, DWORD PTR tv906[ebp]
	movss	DWORD PTR tv361[ebp], xmm0
	mov	eax, 4
	shl	eax, 1
	mov	ecx, DWORD PTR _p$[ebp]
	movss	xmm0, DWORD PTR tv361[ebp]
	movss	DWORD PTR [ecx+eax], xmm0

; 1229 : 			len -= 3.0f;

	movss	xmm0, DWORD PTR _len$[ebp]
	subss	xmm0, DWORD PTR __real@40400000
	movss	DWORD PTR _len$[ebp], xmm0

; 1230 : 			break;

	jmp	$LN4@R_RocketTr
$LN19@R_RocketTr:

; 1231 : 		case 6:	// voor trail
; 1232 : 			p->color = COM_RandomLong( 152, 155 );

	push	155					; 0000009bH
	push	152					; 00000098H
	call	_COM_RandomLong
	add	esp, 8
	mov	edx, DWORD PTR _p$[ebp]
	mov	WORD PTR [edx+12], ax

; 1233 : 			p->die += 0.3f;

	mov	eax, DWORD PTR _p$[ebp]
	movss	xmm0, DWORD PTR [eax+36]
	addss	xmm0, DWORD PTR __real@3e99999a
	mov	ecx, DWORD PTR _p$[ebp]
	movss	DWORD PTR [ecx+36], xmm0

; 1234 : 			VectorAddScalar( start, COM_RandomFloat( -8.0f, 8.0f ), p->org );

	mov	edx, 4
	imul	esi, edx, 0
	push	ecx
	movss	xmm0, DWORD PTR __real@41000000
	movss	DWORD PTR [esp], xmm0
	push	ecx
	movss	xmm0, DWORD PTR __real@c1000000
	movss	DWORD PTR [esp], xmm0
	call	_COM_RandomFloat
	add	esp, 8
	fstp	DWORD PTR tv930[ebp]
	mov	eax, DWORD PTR _start$[ebp]
	movss	xmm0, DWORD PTR tv930[ebp]
	addss	xmm0, DWORD PTR [eax+esi]
	mov	ecx, 4
	imul	edx, ecx, 0
	mov	eax, DWORD PTR _p$[ebp]
	movss	DWORD PTR [eax+edx], xmm0
	mov	esi, 4
	shl	esi, 0
	push	ecx
	movss	xmm0, DWORD PTR __real@41000000
	movss	DWORD PTR [esp], xmm0
	push	ecx
	movss	xmm0, DWORD PTR __real@c1000000
	movss	DWORD PTR [esp], xmm0
	call	_COM_RandomFloat
	add	esp, 8
	fstp	DWORD PTR tv944[ebp]
	mov	ecx, DWORD PTR _start$[ebp]
	movss	xmm0, DWORD PTR tv944[ebp]
	addss	xmm0, DWORD PTR [ecx+esi]
	mov	edx, 4
	shl	edx, 0
	mov	eax, DWORD PTR _p$[ebp]
	movss	DWORD PTR [eax+edx], xmm0
	mov	esi, 4
	shl	esi, 1
	push	ecx
	movss	xmm0, DWORD PTR __real@41000000
	movss	DWORD PTR [esp], xmm0
	push	ecx
	movss	xmm0, DWORD PTR __real@c1000000
	movss	DWORD PTR [esp], xmm0
	call	_COM_RandomFloat
	add	esp, 8
	fstp	DWORD PTR tv958[ebp]
	mov	ecx, DWORD PTR _start$[ebp]
	movss	xmm0, DWORD PTR [ecx+esi]
	addss	xmm0, DWORD PTR tv958[ebp]
	movss	DWORD PTR tv400[ebp], xmm0
	mov	edx, 4
	shl	edx, 1
	mov	eax, DWORD PTR _p$[ebp]
	movss	xmm0, DWORD PTR tv400[ebp]
	movss	DWORD PTR [eax+edx], xmm0

; 1235 : 			break;

	jmp	$LN4@R_RocketTr
$LN20@R_RocketTr:

; 1236 : 		case 7:	// explosion tracer
; 1237 : 			x = COM_RandomLong( 0, 65535 );

	push	65535					; 0000ffffH
	push	0
	call	_COM_RandomLong
	add	esp, 8
	cvtsi2ss xmm0, eax
	movss	DWORD PTR _x$[ebp], xmm0

; 1238 : 			y = COM_RandomLong( 8, 16 );

	push	16					; 00000010H
	push	8
	call	_COM_RandomLong
	add	esp, 8
	cvtsi2ss xmm0, eax
	movss	DWORD PTR _y$[ebp], xmm0

; 1239 : 			SinCos( x, &s, &c );

	lea	ecx, DWORD PTR _c$[ebp]
	push	ecx
	lea	edx, DWORD PTR _s$[ebp]
	push	edx
	push	ecx
	movss	xmm0, DWORD PTR _x$[ebp]
	movss	DWORD PTR [esp], xmm0
	call	_SinCos
	add	esp, 12					; 0000000cH

; 1240 : 			s *= y;

	movss	xmm0, DWORD PTR _s$[ebp]
	mulss	xmm0, DWORD PTR _y$[ebp]
	movss	DWORD PTR _s$[ebp], xmm0

; 1241 : 			c *= y;

	movss	xmm0, DWORD PTR _c$[ebp]
	mulss	xmm0, DWORD PTR _y$[ebp]
	movss	DWORD PTR _c$[ebp], xmm0

; 1242 : 
; 1243 : 			VectorMAMAM( 1.0f, start, s, right, c, up, p->org );

	mov	eax, 4
	imul	ecx, eax, 0
	mov	edx, DWORD PTR _start$[ebp]
	movss	xmm0, DWORD PTR __real@3f800000
	mulss	xmm0, DWORD PTR [edx+ecx]
	mov	eax, 4
	imul	ecx, eax, 0
	movss	xmm1, DWORD PTR _s$[ebp]
	mulss	xmm1, DWORD PTR _right$[ebp+ecx]
	addss	xmm0, xmm1
	mov	edx, 4
	imul	eax, edx, 0
	movss	xmm1, DWORD PTR _c$[ebp]
	mulss	xmm1, DWORD PTR _up$[ebp+eax]
	addss	xmm0, xmm1
	mov	ecx, 4
	imul	edx, ecx, 0
	mov	eax, DWORD PTR _p$[ebp]
	movss	DWORD PTR [eax+edx], xmm0
	mov	ecx, 4
	shl	ecx, 0
	mov	edx, DWORD PTR _start$[ebp]
	movss	xmm0, DWORD PTR __real@3f800000
	mulss	xmm0, DWORD PTR [edx+ecx]
	mov	eax, 4
	shl	eax, 0
	movss	xmm1, DWORD PTR _s$[ebp]
	mulss	xmm1, DWORD PTR _right$[ebp+eax]
	addss	xmm0, xmm1
	mov	ecx, 4
	shl	ecx, 0
	movss	xmm1, DWORD PTR _c$[ebp]
	mulss	xmm1, DWORD PTR _up$[ebp+ecx]
	addss	xmm0, xmm1
	mov	edx, 4
	shl	edx, 0
	mov	eax, DWORD PTR _p$[ebp]
	movss	DWORD PTR [eax+edx], xmm0
	mov	ecx, 4
	shl	ecx, 1
	mov	edx, DWORD PTR _start$[ebp]
	movss	xmm0, DWORD PTR __real@3f800000
	mulss	xmm0, DWORD PTR [edx+ecx]
	mov	eax, 4
	shl	eax, 1
	movss	xmm1, DWORD PTR _s$[ebp]
	mulss	xmm1, DWORD PTR _right$[ebp+eax]
	addss	xmm0, xmm1
	mov	ecx, 4
	shl	ecx, 1
	movss	xmm1, DWORD PTR _c$[ebp]
	mulss	xmm1, DWORD PTR _up$[ebp+ecx]
	addss	xmm0, xmm1
	movss	DWORD PTR tv455[ebp], xmm0
	mov	edx, 4
	shl	edx, 1
	mov	eax, DWORD PTR _p$[ebp]
	movss	xmm0, DWORD PTR tv455[ebp]
	movss	DWORD PTR [eax+edx], xmm0

; 1244 : 			VectorSubtract( start, p->org, p->vel );

	mov	ecx, 4
	imul	edx, ecx, 0
	mov	eax, 4
	imul	ecx, eax, 0
	mov	eax, DWORD PTR _start$[ebp]
	mov	esi, DWORD PTR _p$[ebp]
	movss	xmm0, DWORD PTR [eax+edx]
	subss	xmm0, DWORD PTR [esi+ecx]
	mov	ecx, 4
	imul	edx, ecx, 0
	mov	eax, DWORD PTR _p$[ebp]
	movss	DWORD PTR [eax+edx+20], xmm0
	mov	ecx, 4
	shl	ecx, 0
	mov	edx, 4
	shl	edx, 0
	mov	eax, DWORD PTR _start$[ebp]
	mov	esi, DWORD PTR _p$[ebp]
	movss	xmm0, DWORD PTR [eax+ecx]
	subss	xmm0, DWORD PTR [esi+edx]
	mov	ecx, 4
	shl	ecx, 0
	mov	edx, DWORD PTR _p$[ebp]
	movss	DWORD PTR [edx+ecx+20], xmm0
	mov	eax, 4
	shl	eax, 1
	mov	ecx, 4
	shl	ecx, 1
	mov	edx, DWORD PTR _start$[ebp]
	mov	esi, DWORD PTR _p$[ebp]
	movss	xmm0, DWORD PTR [edx+eax]
	subss	xmm0, DWORD PTR [esi+ecx]
	movss	DWORD PTR tv482[ebp], xmm0
	mov	eax, 4
	shl	eax, 1
	mov	ecx, DWORD PTR _p$[ebp]
	movss	xmm0, DWORD PTR tv482[ebp]
	movss	DWORD PTR [ecx+eax+20], xmm0

; 1245 : 			VectorScale( p->vel, 2.0f, p->vel );

	mov	edx, 4
	imul	eax, edx, 0
	mov	ecx, DWORD PTR _p$[ebp]
	movss	xmm0, DWORD PTR [ecx+eax+20]
	mulss	xmm0, DWORD PTR __real@40000000
	mov	edx, 4
	imul	eax, edx, 0
	mov	ecx, DWORD PTR _p$[ebp]
	movss	DWORD PTR [ecx+eax+20], xmm0
	mov	edx, 4
	shl	edx, 0
	mov	eax, DWORD PTR _p$[ebp]
	movss	xmm0, DWORD PTR [eax+edx+20]
	mulss	xmm0, DWORD PTR __real@40000000
	mov	ecx, 4
	shl	ecx, 0
	mov	edx, DWORD PTR _p$[ebp]
	movss	DWORD PTR [edx+ecx+20], xmm0
	mov	eax, 4
	shl	eax, 1
	mov	ecx, DWORD PTR _p$[ebp]
	movss	xmm0, DWORD PTR [ecx+eax+20]
	mulss	xmm0, DWORD PTR __real@40000000
	movss	DWORD PTR tv503[ebp], xmm0
	mov	edx, 4
	shl	edx, 1
	mov	eax, DWORD PTR _p$[ebp]
	movss	xmm0, DWORD PTR tv503[ebp]
	movss	DWORD PTR [eax+edx+20], xmm0

; 1246 : 			VectorMA( p->vel, COM_RandomFloat( 96.0f, 111.0f ), vec, p->vel );

	mov	ecx, 4
	imul	esi, ecx, 0
	push	ecx
	movss	xmm0, DWORD PTR __real@42de0000
	movss	DWORD PTR [esp], xmm0
	push	ecx
	movss	xmm0, DWORD PTR __real@42c00000
	movss	DWORD PTR [esp], xmm0
	call	_COM_RandomFloat
	add	esp, 8
	fstp	DWORD PTR tv1056[ebp]
	movss	xmm0, DWORD PTR tv1056[ebp]
	mov	edx, 4
	imul	eax, edx, 0
	mulss	xmm0, DWORD PTR _vec$[ebp+eax]
	mov	ecx, DWORD PTR _p$[ebp]
	addss	xmm0, DWORD PTR [ecx+esi+20]
	mov	edx, 4
	imul	eax, edx, 0
	mov	ecx, DWORD PTR _p$[ebp]
	movss	DWORD PTR [ecx+eax+20], xmm0
	mov	esi, 4
	shl	esi, 0
	push	ecx
	movss	xmm0, DWORD PTR __real@42de0000
	movss	DWORD PTR [esp], xmm0
	push	ecx
	movss	xmm0, DWORD PTR __real@42c00000
	movss	DWORD PTR [esp], xmm0
	call	_COM_RandomFloat
	add	esp, 8
	fstp	DWORD PTR tv1071[ebp]
	movss	xmm0, DWORD PTR tv1071[ebp]
	mov	edx, 4
	shl	edx, 0
	mulss	xmm0, DWORD PTR _vec$[ebp+edx]
	mov	eax, DWORD PTR _p$[ebp]
	addss	xmm0, DWORD PTR [eax+esi+20]
	mov	ecx, 4
	shl	ecx, 0
	mov	edx, DWORD PTR _p$[ebp]
	movss	DWORD PTR [edx+ecx+20], xmm0
	mov	esi, 4
	shl	esi, 1
	push	ecx
	movss	xmm0, DWORD PTR __real@42de0000
	movss	DWORD PTR [esp], xmm0
	push	ecx
	movss	xmm0, DWORD PTR __real@42c00000
	movss	DWORD PTR [esp], xmm0
	call	_COM_RandomFloat
	add	esp, 8
	fstp	DWORD PTR tv1086[ebp]
	movss	xmm0, DWORD PTR tv1086[ebp]
	mov	eax, 4
	shl	eax, 1
	mulss	xmm0, DWORD PTR _vec$[ebp+eax]
	mov	ecx, DWORD PTR _p$[ebp]
	movss	xmm1, DWORD PTR [ecx+esi+20]
	addss	xmm1, xmm0
	movss	DWORD PTR tv545[ebp], xmm1
	mov	edx, 4
	shl	edx, 1
	mov	eax, DWORD PTR _p$[ebp]
	movss	xmm0, DWORD PTR tv545[ebp]
	movss	DWORD PTR [eax+edx+20], xmm0

; 1247 : 			p->ramp = COM_RandomLong( 0, 3 );

	push	3
	push	0
	call	_COM_RandomLong
	add	esp, 8
	cvtsi2ss xmm0, eax
	mov	ecx, DWORD PTR _p$[ebp]
	movss	DWORD PTR [ecx+32], xmm0

; 1248 : 			p->color = ramp3[(int)p->ramp];

	mov	edx, DWORD PTR _p$[ebp]
	cvttss2si eax, DWORD PTR [edx+32]
	mov	ecx, DWORD PTR _p$[ebp]
	mov	dx, WORD PTR _ramp3[eax*4]
	mov	WORD PTR [ecx+12], dx

; 1249 : 			p->type = pt_explode2;

	mov	eax, DWORD PTR _p$[ebp]
	mov	DWORD PTR [eax+40], 5

; 1250 : 			break;

	jmp	SHORT $LN4@R_RocketTr
$LN21@R_RocketTr:

; 1251 : 		default:
; 1252 : 			// just build line to show error
; 1253 : 			VectorCopy( start, p->org );

	mov	ecx, 4
	imul	edx, ecx, 0
	mov	eax, 4
	imul	ecx, eax, 0
	mov	eax, DWORD PTR _p$[ebp]
	mov	esi, DWORD PTR _start$[ebp]
	mov	edx, DWORD PTR [esi+edx]
	mov	DWORD PTR [eax+ecx], edx
	mov	eax, 4
	shl	eax, 0
	mov	ecx, 4
	shl	ecx, 0
	mov	edx, DWORD PTR _p$[ebp]
	mov	esi, DWORD PTR _start$[ebp]
	mov	eax, DWORD PTR [esi+eax]
	mov	DWORD PTR [edx+ecx], eax
	mov	ecx, 4
	shl	ecx, 1
	mov	edx, 4
	shl	edx, 1
	mov	eax, DWORD PTR _p$[ebp]
	mov	esi, DWORD PTR _start$[ebp]
	mov	ecx, DWORD PTR [esi+ecx]
	mov	DWORD PTR [eax+edx], ecx
$LN4@R_RocketTr:

; 1254 : 			break;
; 1255 : 		}
; 1256 : 
; 1257 : 		VectorAdd( start, vec, start );

	mov	edx, 4
	imul	eax, edx, 0
	mov	ecx, 4
	imul	edx, ecx, 0
	mov	ecx, DWORD PTR _start$[ebp]
	movss	xmm0, DWORD PTR [ecx+eax]
	addss	xmm0, DWORD PTR _vec$[ebp+edx]
	mov	edx, 4
	imul	eax, edx, 0
	mov	ecx, DWORD PTR _start$[ebp]
	movss	DWORD PTR [ecx+eax], xmm0
	mov	edx, 4
	shl	edx, 0
	mov	eax, 4
	shl	eax, 0
	mov	ecx, DWORD PTR _start$[ebp]
	movss	xmm0, DWORD PTR [ecx+edx]
	addss	xmm0, DWORD PTR _vec$[ebp+eax]
	mov	edx, 4
	shl	edx, 0
	mov	eax, DWORD PTR _start$[ebp]
	movss	DWORD PTR [eax+edx], xmm0
	mov	ecx, 4
	shl	ecx, 1
	mov	edx, 4
	shl	edx, 1
	mov	eax, DWORD PTR _start$[ebp]
	movss	xmm0, DWORD PTR [eax+ecx]
	addss	xmm0, DWORD PTR _vec$[ebp+edx]
	movss	DWORD PTR tv593[ebp], xmm0
	mov	ecx, 4
	shl	ecx, 1
	mov	edx, DWORD PTR _start$[ebp]
	movss	xmm0, DWORD PTR tv593[ebp]
	movss	DWORD PTR [edx+ecx], xmm0

; 1258 : 	}

	jmp	$LN2@R_RocketTr
$LN3@R_RocketTr:

; 1259 : }

	pop	esi
	mov	ecx, DWORD PTR __$ArrayPad$[ebp]
	xor	ecx, ebp
	call	@__security_check_cookie@4
	mov	esp, ebp
	pop	ebp
	ret	0
	npad	3
$LN23@R_RocketTr:
	DD	$LN10@R_RocketTr
	DD	$LN11@R_RocketTr
	DD	$LN12@R_RocketTr
	DD	$LN13@R_RocketTr
	DD	$LN18@R_RocketTr
	DD	$LN13@R_RocketTr
	DD	$LN19@R_RocketTr
	DD	$LN20@R_RocketTr
_R_RocketTrail ENDP
_TEXT	ENDS
; Function compile flags: /Odtp
; File c:\users\user\downloads\xash_build4529_src\engine\client\gl_rpart.c
_TEXT	SEGMENT
tv239 = -76						; size = 8
tv222 = -68						; size = 4
tv285 = -64						; size = 4
tv340 = -60						; size = 4
tv272 = -56						; size = 4
tv338 = -52						; size = 4
tv259 = -48						; size = 4
tv336 = -44						; size = 4
_vel$ = -40						; size = 4
_k$ = -36						; size = 4
_j$ = -32						; size = 4
_i$ = -28						; size = 4
_ilength$1 = -24					; size = 4
_p$ = -20						; size = 4
_dir$ = -16						; size = 12
__$ArrayPad$ = -4					; size = 4
_org$ = 8						; size = 4
_R_TeleportSplash PROC

; 1107 : {

	push	ebp
	mov	ebp, esp
	sub	esp, 76					; 0000004cH
	mov	eax, DWORD PTR ___security_cookie
	xor	eax, ebp
	mov	DWORD PTR __$ArrayPad$[ebp], eax

; 1108 : 	particle_t	*p;
; 1109 : 	vec3_t		dir;
; 1110 : 	float		vel;
; 1111 : 	int		i, j, k;
; 1112 : 
; 1113 : 	for( i = -16; i < 16; i += 4 )

	mov	DWORD PTR _i$[ebp], -16			; fffffff0H
	jmp	SHORT $LN4@R_Teleport
$LN2@R_Teleport:
	mov	eax, DWORD PTR _i$[ebp]
	add	eax, 4
	mov	DWORD PTR _i$[ebp], eax
$LN4@R_Teleport:
	cmp	DWORD PTR _i$[ebp], 16			; 00000010H
	jge	$LN3@R_Teleport

; 1114 : 	{
; 1115 : 		for( j = -16; j < 16; j += 4 )

	mov	DWORD PTR _j$[ebp], -16			; fffffff0H
	jmp	SHORT $LN7@R_Teleport
$LN5@R_Teleport:
	mov	ecx, DWORD PTR _j$[ebp]
	add	ecx, 4
	mov	DWORD PTR _j$[ebp], ecx
$LN7@R_Teleport:
	cmp	DWORD PTR _j$[ebp], 16			; 00000010H
	jge	$LN6@R_Teleport

; 1116 : 		{
; 1117 : 			for( k = -24; k < 32; k += 4 )

	mov	DWORD PTR _k$[ebp], -24			; ffffffe8H
	jmp	SHORT $LN10@R_Teleport
$LN8@R_Teleport:
	mov	edx, DWORD PTR _k$[ebp]
	add	edx, 4
	mov	DWORD PTR _k$[ebp], edx
$LN10@R_Teleport:
	cmp	DWORD PTR _k$[ebp], 32			; 00000020H
	jge	$LN9@R_Teleport

; 1118 : 			{
; 1119 : 				p = R_AllocParticle( NULL );

	push	0
	call	_R_AllocParticle
	add	esp, 4
	mov	DWORD PTR _p$[ebp], eax

; 1120 : 				if( !p ) return;

	cmp	DWORD PTR _p$[ebp], 0
	jne	SHORT $LN11@R_Teleport
	jmp	$LN3@R_Teleport
$LN11@R_Teleport:

; 1121 : 		
; 1122 : 				p->die = cl.time + COM_RandomFloat( 0.2f, 0.34f );

	push	ecx
	movss	xmm0, DWORD PTR __real@3eae147b
	movss	DWORD PTR [esp], xmm0
	push	ecx
	movss	xmm0, DWORD PTR __real@3e4ccccd
	movss	DWORD PTR [esp], xmm0
	call	_COM_RandomFloat
	add	esp, 8
	fstp	QWORD PTR tv239[ebp]
	movsd	xmm0, QWORD PTR tv239[ebp]
	addsd	xmm0, QWORD PTR _cl+1525848
	cvtsd2ss xmm0, xmm0
	mov	eax, DWORD PTR _p$[ebp]
	movss	DWORD PTR [eax+36], xmm0

; 1123 : 				p->color = COM_RandomLong( 7, 14 );

	push	14					; 0000000eH
	push	7
	call	_COM_RandomLong
	add	esp, 8
	mov	ecx, DWORD PTR _p$[ebp]
	mov	WORD PTR [ecx+12], ax

; 1124 : 				p->type = pt_slowgrav;

	mov	edx, DWORD PTR _p$[ebp]
	mov	DWORD PTR [edx+40], 2

; 1125 : 				
; 1126 : 				dir[0] = j * 8.0f;

	cvtsi2ss xmm0, DWORD PTR _j$[ebp]
	mulss	xmm0, DWORD PTR __real@41000000
	mov	eax, 4
	imul	ecx, eax, 0
	movss	DWORD PTR _dir$[ebp+ecx], xmm0

; 1127 : 				dir[1] = i * 8.0f;

	cvtsi2ss xmm0, DWORD PTR _i$[ebp]
	mulss	xmm0, DWORD PTR __real@41000000
	mov	edx, 4
	shl	edx, 0
	movss	DWORD PTR _dir$[ebp+edx], xmm0

; 1128 : 				dir[2] = k * 8.0f;

	cvtsi2ss xmm0, DWORD PTR _k$[ebp]
	mulss	xmm0, DWORD PTR __real@41000000
	mov	eax, 4
	shl	eax, 1
	movss	DWORD PTR _dir$[ebp+eax], xmm0

; 1129 : 	
; 1130 : 				p->org[0] = org[0] + i + COM_RandomFloat( 0.0f, 3.0f );

	mov	ecx, 4
	imul	edx, ecx, 0
	cvtsi2ss xmm0, DWORD PTR _i$[ebp]
	mov	eax, DWORD PTR _org$[ebp]
	addss	xmm0, DWORD PTR [eax+edx]
	push	ecx
	movss	xmm1, DWORD PTR __real@40400000
	movss	DWORD PTR [esp], xmm1
	push	ecx
	xorps	xmm1, xmm1
	movss	DWORD PTR [esp], xmm1
	movss	DWORD PTR tv336[ebp], xmm0
	call	_COM_RandomFloat
	add	esp, 8
	fstp	DWORD PTR tv259[ebp]
	movss	xmm0, DWORD PTR tv336[ebp]
	addss	xmm0, DWORD PTR tv259[ebp]
	mov	ecx, 4
	imul	edx, ecx, 0
	mov	eax, DWORD PTR _p$[ebp]
	movss	DWORD PTR [eax+edx], xmm0

; 1131 : 				p->org[1] = org[1] + j + COM_RandomFloat( 0.0f, 3.0f );

	mov	ecx, 4
	shl	ecx, 0
	cvtsi2ss xmm0, DWORD PTR _j$[ebp]
	mov	edx, DWORD PTR _org$[ebp]
	addss	xmm0, DWORD PTR [edx+ecx]
	push	ecx
	movss	xmm1, DWORD PTR __real@40400000
	movss	DWORD PTR [esp], xmm1
	push	ecx
	xorps	xmm1, xmm1
	movss	DWORD PTR [esp], xmm1
	movss	DWORD PTR tv338[ebp], xmm0
	call	_COM_RandomFloat
	add	esp, 8
	fstp	DWORD PTR tv272[ebp]
	movss	xmm0, DWORD PTR tv338[ebp]
	addss	xmm0, DWORD PTR tv272[ebp]
	mov	eax, 4
	shl	eax, 0
	mov	ecx, DWORD PTR _p$[ebp]
	movss	DWORD PTR [ecx+eax], xmm0

; 1132 : 				p->org[2] = org[2] + k + COM_RandomFloat( 0.0f, 3.0f );

	mov	edx, 4
	shl	edx, 1
	cvtsi2ss xmm0, DWORD PTR _k$[ebp]
	mov	eax, DWORD PTR _org$[ebp]
	addss	xmm0, DWORD PTR [eax+edx]
	push	ecx
	movss	xmm1, DWORD PTR __real@40400000
	movss	DWORD PTR [esp], xmm1
	push	ecx
	xorps	xmm1, xmm1
	movss	DWORD PTR [esp], xmm1
	movss	DWORD PTR tv340[ebp], xmm0
	call	_COM_RandomFloat
	add	esp, 8
	fstp	DWORD PTR tv285[ebp]
	movss	xmm0, DWORD PTR tv340[ebp]
	addss	xmm0, DWORD PTR tv285[ebp]
	mov	ecx, 4
	shl	ecx, 1
	mov	edx, DWORD PTR _p$[ebp]
	movss	DWORD PTR [edx+ecx], xmm0

; 1133 : 	
; 1134 : 				VectorNormalize( dir );

	mov	eax, 4
	imul	ecx, eax, 0
	mov	edx, 4
	imul	eax, edx, 0
	movss	xmm0, DWORD PTR _dir$[ebp+ecx]
	mulss	xmm0, DWORD PTR _dir$[ebp+eax]
	mov	ecx, 4
	shl	ecx, 0
	mov	edx, 4
	shl	edx, 0
	movss	xmm1, DWORD PTR _dir$[ebp+ecx]
	mulss	xmm1, DWORD PTR _dir$[ebp+edx]
	addss	xmm0, xmm1
	mov	eax, 4
	shl	eax, 1
	mov	ecx, 4
	shl	ecx, 1
	movss	xmm1, DWORD PTR _dir$[ebp+eax]
	mulss	xmm1, DWORD PTR _dir$[ebp+ecx]
	addss	xmm0, xmm1
	cvtss2sd xmm0, xmm0
	sub	esp, 8
	movsd	QWORD PTR [esp], xmm0
	call	_sqrt
	add	esp, 8
	fstp	DWORD PTR _ilength$1[ebp]
	movss	xmm0, DWORD PTR _ilength$1[ebp]
	ucomiss	xmm0, DWORD PTR __real@00000000
	lahf
	test	ah, 68					; 00000044H
	jnp	SHORT $LN12@R_Teleport
	movss	xmm0, DWORD PTR __real@3f800000
	divss	xmm0, DWORD PTR _ilength$1[ebp]
	movss	DWORD PTR _ilength$1[ebp], xmm0
$LN12@R_Teleport:
	mov	edx, 4
	imul	eax, edx, 0
	movss	xmm0, DWORD PTR _dir$[ebp+eax]
	mulss	xmm0, DWORD PTR _ilength$1[ebp]
	mov	ecx, 4
	imul	edx, ecx, 0
	movss	DWORD PTR _dir$[ebp+edx], xmm0
	mov	eax, 4
	shl	eax, 0
	movss	xmm0, DWORD PTR _dir$[ebp+eax]
	mulss	xmm0, DWORD PTR _ilength$1[ebp]
	mov	ecx, 4
	shl	ecx, 0
	movss	DWORD PTR _dir$[ebp+ecx], xmm0
	mov	edx, 4
	shl	edx, 1
	movss	xmm0, DWORD PTR _dir$[ebp+edx]
	mulss	xmm0, DWORD PTR _ilength$1[ebp]
	mov	eax, 4
	shl	eax, 1
	movss	DWORD PTR _dir$[ebp+eax], xmm0

; 1135 : 				vel = COM_RandomFloat( 50.0f, 113.0f );

	push	ecx
	movss	xmm0, DWORD PTR __real@42e20000
	movss	DWORD PTR [esp], xmm0
	push	ecx
	movss	xmm0, DWORD PTR __real@42480000
	movss	DWORD PTR [esp], xmm0
	call	_COM_RandomFloat
	add	esp, 8
	fstp	DWORD PTR _vel$[ebp]

; 1136 : 				VectorScale( dir, vel, p->vel );

	mov	ecx, 4
	imul	edx, ecx, 0
	movss	xmm0, DWORD PTR _dir$[ebp+edx]
	mulss	xmm0, DWORD PTR _vel$[ebp]
	mov	eax, 4
	imul	ecx, eax, 0
	mov	edx, DWORD PTR _p$[ebp]
	movss	DWORD PTR [edx+ecx+20], xmm0
	mov	eax, 4
	shl	eax, 0
	movss	xmm0, DWORD PTR _dir$[ebp+eax]
	mulss	xmm0, DWORD PTR _vel$[ebp]
	mov	ecx, 4
	shl	ecx, 0
	mov	edx, DWORD PTR _p$[ebp]
	movss	DWORD PTR [edx+ecx+20], xmm0
	mov	eax, 4
	shl	eax, 1
	movss	xmm0, DWORD PTR _dir$[ebp+eax]
	mulss	xmm0, DWORD PTR _vel$[ebp]
	movss	DWORD PTR tv222[ebp], xmm0
	mov	ecx, 4
	shl	ecx, 1
	mov	edx, DWORD PTR _p$[ebp]
	movss	xmm0, DWORD PTR tv222[ebp]
	movss	DWORD PTR [edx+ecx+20], xmm0

; 1137 : 			}

	jmp	$LN8@R_Teleport
$LN9@R_Teleport:

; 1138 : 		}

	jmp	$LN5@R_Teleport
$LN6@R_Teleport:

; 1139 : 	}

	jmp	$LN2@R_Teleport
$LN3@R_Teleport:

; 1140 : }

	mov	ecx, DWORD PTR __$ArrayPad$[ebp]
	xor	ecx, ebp
	call	@__security_check_cookie@4
	mov	esp, ebp
	pop	ebp
	ret	0
_R_TeleportSplash ENDP
_TEXT	ENDS
; Function compile flags: /Odtp
; File c:\users\user\downloads\xash_build4529_src\engine\client\gl_rpart.c
_TEXT	SEGMENT
tv237 = -72						; size = 8
tv220 = -64						; size = 4
tv284 = -60						; size = 4
tv260 = -56						; size = 4
tv339 = -52						; size = 4
tv251 = -48						; size = 4
tv337 = -44						; size = 4
_vel$ = -40						; size = 4
_k$ = -36						; size = 4
_i$ = -32						; size = 4
_j$ = -28						; size = 4
_ilength$1 = -24					; size = 4
_p$ = -20						; size = 4
_dir$ = -16						; size = 12
__$ArrayPad$ = -4					; size = 4
_org$ = 8						; size = 4
_R_LavaSplash PROC

; 985  : {

	push	ebp
	mov	ebp, esp
	sub	esp, 72					; 00000048H
	mov	eax, DWORD PTR ___security_cookie
	xor	eax, ebp
	mov	DWORD PTR __$ArrayPad$[ebp], eax
	push	esi

; 986  : 	particle_t	*p;
; 987  : 	float		vel;
; 988  : 	vec3_t		dir;
; 989  : 	int		i, j, k;
; 990  : 
; 991  : 	for( i = -16; i < 16; i++ )

	mov	DWORD PTR _i$[ebp], -16			; fffffff0H
	jmp	SHORT $LN4@R_LavaSpla
$LN2@R_LavaSpla:
	mov	eax, DWORD PTR _i$[ebp]
	add	eax, 1
	mov	DWORD PTR _i$[ebp], eax
$LN4@R_LavaSpla:
	cmp	DWORD PTR _i$[ebp], 16			; 00000010H
	jge	$LN3@R_LavaSpla

; 992  : 	{
; 993  : 		for( j = -16; j <16; j++ )

	mov	DWORD PTR _j$[ebp], -16			; fffffff0H
	jmp	SHORT $LN7@R_LavaSpla
$LN5@R_LavaSpla:
	mov	ecx, DWORD PTR _j$[ebp]
	add	ecx, 1
	mov	DWORD PTR _j$[ebp], ecx
$LN7@R_LavaSpla:
	cmp	DWORD PTR _j$[ebp], 16			; 00000010H
	jge	$LN6@R_LavaSpla

; 994  : 		{
; 995  : 			for( k = 0; k < 1; k++ )

	mov	DWORD PTR _k$[ebp], 0
	jmp	SHORT $LN10@R_LavaSpla
$LN8@R_LavaSpla:
	mov	edx, DWORD PTR _k$[ebp]
	add	edx, 1
	mov	DWORD PTR _k$[ebp], edx
$LN10@R_LavaSpla:
	cmp	DWORD PTR _k$[ebp], 1
	jge	$LN9@R_LavaSpla

; 996  : 			{
; 997  : 				p = R_AllocParticle( NULL );

	push	0
	call	_R_AllocParticle
	add	esp, 4
	mov	DWORD PTR _p$[ebp], eax

; 998  : 				if( !p ) return;

	cmp	DWORD PTR _p$[ebp], 0
	jne	SHORT $LN11@R_LavaSpla
	jmp	$LN3@R_LavaSpla
$LN11@R_LavaSpla:

; 999  : 
; 1000 : 				p->die = cl.time + COM_RandomFloat( 2.0f, 2.62f );

	push	ecx
	movss	xmm0, DWORD PTR __real@4027ae14
	movss	DWORD PTR [esp], xmm0
	push	ecx
	movss	xmm0, DWORD PTR __real@40000000
	movss	DWORD PTR [esp], xmm0
	call	_COM_RandomFloat
	add	esp, 8
	fstp	QWORD PTR tv237[ebp]
	movsd	xmm0, QWORD PTR tv237[ebp]
	addsd	xmm0, QWORD PTR _cl+1525848
	cvtsd2ss xmm0, xmm0
	mov	eax, DWORD PTR _p$[ebp]
	movss	DWORD PTR [eax+36], xmm0

; 1001 : 				p->color = COM_RandomLong( 224, 231 );

	push	231					; 000000e7H
	push	224					; 000000e0H
	call	_COM_RandomLong
	add	esp, 8
	mov	ecx, DWORD PTR _p$[ebp]
	mov	WORD PTR [ecx+12], ax

; 1002 : 				p->type = pt_slowgrav;

	mov	edx, DWORD PTR _p$[ebp]
	mov	DWORD PTR [edx+40], 2

; 1003 : 				
; 1004 : 				dir[0] = j * 8.0f + COM_RandomFloat( 0.0f, 7.0f );

	cvtsi2ss xmm0, DWORD PTR _j$[ebp]
	mulss	xmm0, DWORD PTR __real@41000000
	push	ecx
	movss	xmm1, DWORD PTR __real@40e00000
	movss	DWORD PTR [esp], xmm1
	push	ecx
	xorps	xmm1, xmm1
	movss	DWORD PTR [esp], xmm1
	movss	DWORD PTR tv337[ebp], xmm0
	call	_COM_RandomFloat
	add	esp, 8
	fstp	DWORD PTR tv251[ebp]
	movss	xmm0, DWORD PTR tv337[ebp]
	addss	xmm0, DWORD PTR tv251[ebp]
	mov	eax, 4
	imul	ecx, eax, 0
	movss	DWORD PTR _dir$[ebp+ecx], xmm0

; 1005 : 				dir[1] = i * 8.0f + COM_RandomFloat( 0.0f, 7.0f );

	cvtsi2ss xmm0, DWORD PTR _i$[ebp]
	mulss	xmm0, DWORD PTR __real@41000000
	push	ecx
	movss	xmm1, DWORD PTR __real@40e00000
	movss	DWORD PTR [esp], xmm1
	push	ecx
	xorps	xmm1, xmm1
	movss	DWORD PTR [esp], xmm1
	movss	DWORD PTR tv339[ebp], xmm0
	call	_COM_RandomFloat
	add	esp, 8
	fstp	DWORD PTR tv260[ebp]
	movss	xmm0, DWORD PTR tv339[ebp]
	addss	xmm0, DWORD PTR tv260[ebp]
	mov	edx, 4
	shl	edx, 0
	movss	DWORD PTR _dir$[ebp+edx], xmm0

; 1006 : 				dir[2] = 256.0f;

	mov	eax, 4
	shl	eax, 1
	movss	xmm0, DWORD PTR __real@43800000
	movss	DWORD PTR _dir$[ebp+eax], xmm0

; 1007 : 
; 1008 : 				p->org[0] = org[0] + dir[0];

	mov	ecx, 4
	imul	edx, ecx, 0
	mov	eax, 4
	imul	ecx, eax, 0
	mov	eax, DWORD PTR _org$[ebp]
	movss	xmm0, DWORD PTR [eax+edx]
	addss	xmm0, DWORD PTR _dir$[ebp+ecx]
	mov	ecx, 4
	imul	edx, ecx, 0
	mov	eax, DWORD PTR _p$[ebp]
	movss	DWORD PTR [eax+edx], xmm0

; 1009 : 				p->org[1] = org[1] + dir[1];

	mov	ecx, 4
	shl	ecx, 0
	mov	edx, 4
	shl	edx, 0
	mov	eax, DWORD PTR _org$[ebp]
	movss	xmm0, DWORD PTR [eax+ecx]
	addss	xmm0, DWORD PTR _dir$[ebp+edx]
	mov	ecx, 4
	shl	ecx, 0
	mov	edx, DWORD PTR _p$[ebp]
	movss	DWORD PTR [edx+ecx], xmm0

; 1010 : 				p->org[2] = org[2] + COM_RandomFloat( 0.0f, 63.0f );

	mov	esi, 4
	shl	esi, 1
	push	ecx
	movss	xmm0, DWORD PTR __real@427c0000
	movss	DWORD PTR [esp], xmm0
	push	ecx
	xorps	xmm0, xmm0
	movss	DWORD PTR [esp], xmm0
	call	_COM_RandomFloat
	add	esp, 8
	fstp	DWORD PTR tv284[ebp]
	mov	eax, DWORD PTR _org$[ebp]
	movss	xmm0, DWORD PTR tv284[ebp]
	addss	xmm0, DWORD PTR [eax+esi]
	mov	ecx, 4
	shl	ecx, 1
	mov	edx, DWORD PTR _p$[ebp]
	movss	DWORD PTR [edx+ecx], xmm0

; 1011 : 
; 1012 : 				VectorNormalize( dir );

	mov	eax, 4
	imul	ecx, eax, 0
	mov	edx, 4
	imul	eax, edx, 0
	movss	xmm0, DWORD PTR _dir$[ebp+ecx]
	mulss	xmm0, DWORD PTR _dir$[ebp+eax]
	mov	ecx, 4
	shl	ecx, 0
	mov	edx, 4
	shl	edx, 0
	movss	xmm1, DWORD PTR _dir$[ebp+ecx]
	mulss	xmm1, DWORD PTR _dir$[ebp+edx]
	addss	xmm0, xmm1
	mov	eax, 4
	shl	eax, 1
	mov	ecx, 4
	shl	ecx, 1
	movss	xmm1, DWORD PTR _dir$[ebp+eax]
	mulss	xmm1, DWORD PTR _dir$[ebp+ecx]
	addss	xmm0, xmm1
	cvtss2sd xmm0, xmm0
	sub	esp, 8
	movsd	QWORD PTR [esp], xmm0
	call	_sqrt
	add	esp, 8
	fstp	DWORD PTR _ilength$1[ebp]
	movss	xmm0, DWORD PTR _ilength$1[ebp]
	ucomiss	xmm0, DWORD PTR __real@00000000
	lahf
	test	ah, 68					; 00000044H
	jnp	SHORT $LN12@R_LavaSpla
	movss	xmm0, DWORD PTR __real@3f800000
	divss	xmm0, DWORD PTR _ilength$1[ebp]
	movss	DWORD PTR _ilength$1[ebp], xmm0
$LN12@R_LavaSpla:
	mov	edx, 4
	imul	eax, edx, 0
	movss	xmm0, DWORD PTR _dir$[ebp+eax]
	mulss	xmm0, DWORD PTR _ilength$1[ebp]
	mov	ecx, 4
	imul	edx, ecx, 0
	movss	DWORD PTR _dir$[ebp+edx], xmm0
	mov	eax, 4
	shl	eax, 0
	movss	xmm0, DWORD PTR _dir$[ebp+eax]
	mulss	xmm0, DWORD PTR _ilength$1[ebp]
	mov	ecx, 4
	shl	ecx, 0
	movss	DWORD PTR _dir$[ebp+ecx], xmm0
	mov	edx, 4
	shl	edx, 1
	movss	xmm0, DWORD PTR _dir$[ebp+edx]
	mulss	xmm0, DWORD PTR _ilength$1[ebp]
	mov	eax, 4
	shl	eax, 1
	movss	DWORD PTR _dir$[ebp+eax], xmm0

; 1013 : 				vel = COM_RandomFloat( 50.0f, 113.0f );

	push	ecx
	movss	xmm0, DWORD PTR __real@42e20000
	movss	DWORD PTR [esp], xmm0
	push	ecx
	movss	xmm0, DWORD PTR __real@42480000
	movss	DWORD PTR [esp], xmm0
	call	_COM_RandomFloat
	add	esp, 8
	fstp	DWORD PTR _vel$[ebp]

; 1014 : 				VectorScale( dir, vel, p->vel );

	mov	ecx, 4
	imul	edx, ecx, 0
	movss	xmm0, DWORD PTR _dir$[ebp+edx]
	mulss	xmm0, DWORD PTR _vel$[ebp]
	mov	eax, 4
	imul	ecx, eax, 0
	mov	edx, DWORD PTR _p$[ebp]
	movss	DWORD PTR [edx+ecx+20], xmm0
	mov	eax, 4
	shl	eax, 0
	movss	xmm0, DWORD PTR _dir$[ebp+eax]
	mulss	xmm0, DWORD PTR _vel$[ebp]
	mov	ecx, 4
	shl	ecx, 0
	mov	edx, DWORD PTR _p$[ebp]
	movss	DWORD PTR [edx+ecx+20], xmm0
	mov	eax, 4
	shl	eax, 1
	movss	xmm0, DWORD PTR _dir$[ebp+eax]
	mulss	xmm0, DWORD PTR _vel$[ebp]
	movss	DWORD PTR tv220[ebp], xmm0
	mov	ecx, 4
	shl	ecx, 1
	mov	edx, DWORD PTR _p$[ebp]
	movss	xmm0, DWORD PTR tv220[ebp]
	movss	DWORD PTR [edx+ecx+20], xmm0

; 1015 : 			}

	jmp	$LN8@R_LavaSpla
$LN9@R_LavaSpla:

; 1016 : 		}

	jmp	$LN5@R_LavaSpla
$LN6@R_LavaSpla:

; 1017 : 	}

	jmp	$LN2@R_LavaSpla
$LN3@R_LavaSpla:

; 1018 : }

	pop	esi
	mov	ecx, DWORD PTR __$ArrayPad$[ebp]
	xor	ecx, ebp
	call	@__security_check_cookie@4
	mov	esp, ebp
	pop	ebp
	ret	0
_R_LavaSplash ENDP
_TEXT	ENDS
; Function compile flags: /Odtp
; File c:\users\user\downloads\xash_build4529_src\engine\client\gl_rpart.c
_TEXT	SEGMENT
tv242 = -84						; size = 8
tv343 = -76						; size = 8
tv223 = -68						; size = 4
tv193 = -64						; size = 4
tv169 = -60						; size = 4
tv295 = -56						; size = 4
tv283 = -52						; size = 4
tv271 = -48						; size = 4
_dist$ = -44						; size = 4
_j$ = -40						; size = 4
_i$ = -36						; size = 4
_p$ = -32						; size = 4
_dest$ = -28						; size = 12
_dir$ = -16						; size = 12
__$ArrayPad$ = -4					; size = 4
_org$ = 8						; size = 4
_size$ = 12						; size = 4
_color$ = 16						; size = 4
_life$ = 20						; size = 4
_R_ParticleBurst PROC

; 1027 : {

	push	ebp
	mov	ebp, esp
	sub	esp, 84					; 00000054H
	mov	eax, DWORD PTR ___security_cookie
	xor	eax, ebp
	mov	DWORD PTR __$ArrayPad$[ebp], eax
	push	esi

; 1028 : 	particle_t	*p;
; 1029 : 	vec3_t		dir, dest;
; 1030 : 	int		i, j;
; 1031 : 	float		dist;
; 1032 : 
; 1033 : 	for( i = 0; i < 32; i++ )

	mov	DWORD PTR _i$[ebp], 0
	jmp	SHORT $LN4@R_Particle
$LN2@R_Particle:
	mov	eax, DWORD PTR _i$[ebp]
	add	eax, 1
	mov	DWORD PTR _i$[ebp], eax
$LN4@R_Particle:
	cmp	DWORD PTR _i$[ebp], 32			; 00000020H
	jge	$LN3@R_Particle

; 1034 : 	{
; 1035 : 		for( j = 0; j < 32; j++ )

	mov	DWORD PTR _j$[ebp], 0
	jmp	SHORT $LN7@R_Particle
$LN5@R_Particle:
	mov	ecx, DWORD PTR _j$[ebp]
	add	ecx, 1
	mov	DWORD PTR _j$[ebp], ecx
$LN7@R_Particle:
	cmp	DWORD PTR _j$[ebp], 32			; 00000020H
	jge	$LN6@R_Particle

; 1036 : 		{
; 1037 : 			p = R_AllocParticle( NULL );

	push	0
	call	_R_AllocParticle
	add	esp, 4
	mov	DWORD PTR _p$[ebp], eax

; 1038 : 			if( !p ) return;

	cmp	DWORD PTR _p$[ebp], 0
	jne	SHORT $LN8@R_Particle
	jmp	$LN3@R_Particle
$LN8@R_Particle:

; 1039 : 
; 1040 : 			p->die = cl.time + life + COM_RandomFloat( -0.5f, 0.5f );

	cvtss2sd xmm0, DWORD PTR _life$[ebp]
	addsd	xmm0, QWORD PTR _cl+1525848
	push	ecx
	movss	xmm1, DWORD PTR __real@3f000000
	movss	DWORD PTR [esp], xmm1
	push	ecx
	movss	xmm1, DWORD PTR __real@bf000000
	movss	DWORD PTR [esp], xmm1
	movsd	QWORD PTR tv343[ebp], xmm0
	call	_COM_RandomFloat
	add	esp, 8
	fstp	QWORD PTR tv242[ebp]
	movsd	xmm0, QWORD PTR tv343[ebp]
	addsd	xmm0, QWORD PTR tv242[ebp]
	cvtsd2ss xmm0, xmm0
	mov	edx, DWORD PTR _p$[ebp]
	movss	DWORD PTR [edx+36], xmm0

; 1041 : 			p->color = color + COM_RandomLong( 0, 10 );

	push	10					; 0000000aH
	push	0
	call	_COM_RandomLong
	add	esp, 8
	add	eax, DWORD PTR _color$[ebp]
	mov	ecx, DWORD PTR _p$[ebp]
	mov	WORD PTR [ecx+12], ax

; 1042 : 			p->ramp = 1.0f;

	mov	edx, DWORD PTR _p$[ebp]
	movss	xmm0, DWORD PTR __real@3f800000
	movss	DWORD PTR [edx+32], xmm0

; 1043 : 
; 1044 : 			VectorCopy( org, p->org );

	mov	eax, 4
	imul	ecx, eax, 0
	mov	edx, 4
	imul	eax, edx, 0
	mov	edx, DWORD PTR _p$[ebp]
	mov	esi, DWORD PTR _org$[ebp]
	mov	ecx, DWORD PTR [esi+ecx]
	mov	DWORD PTR [edx+eax], ecx
	mov	edx, 4
	shl	edx, 0
	mov	eax, 4
	shl	eax, 0
	mov	ecx, DWORD PTR _p$[ebp]
	mov	esi, DWORD PTR _org$[ebp]
	mov	edx, DWORD PTR [esi+edx]
	mov	DWORD PTR [ecx+eax], edx
	mov	eax, 4
	shl	eax, 1
	mov	ecx, 4
	shl	ecx, 1
	mov	edx, DWORD PTR _p$[ebp]
	mov	esi, DWORD PTR _org$[ebp]
	mov	eax, DWORD PTR [esi+eax]
	mov	DWORD PTR [edx+ecx], eax

; 1045 : 			VectorAddScalar( org, COM_RandomFloat( -size, size ), dest );

	mov	ecx, 4
	imul	esi, ecx, 0
	cvtsi2ss xmm0, DWORD PTR _size$[ebp]
	push	ecx
	movss	DWORD PTR [esp], xmm0
	mov	edx, DWORD PTR _size$[ebp]
	neg	edx
	cvtsi2ss xmm0, edx
	push	ecx
	movss	DWORD PTR [esp], xmm0
	call	_COM_RandomFloat
	add	esp, 8
	fstp	DWORD PTR tv271[ebp]
	mov	eax, DWORD PTR _org$[ebp]
	movss	xmm0, DWORD PTR tv271[ebp]
	addss	xmm0, DWORD PTR [eax+esi]
	mov	ecx, 4
	imul	edx, ecx, 0
	movss	DWORD PTR _dest$[ebp+edx], xmm0
	mov	esi, 4
	shl	esi, 0
	cvtsi2ss xmm0, DWORD PTR _size$[ebp]
	push	ecx
	movss	DWORD PTR [esp], xmm0
	mov	eax, DWORD PTR _size$[ebp]
	neg	eax
	cvtsi2ss xmm0, eax
	push	ecx
	movss	DWORD PTR [esp], xmm0
	call	_COM_RandomFloat
	add	esp, 8
	fstp	DWORD PTR tv283[ebp]
	mov	ecx, DWORD PTR _org$[ebp]
	movss	xmm0, DWORD PTR tv283[ebp]
	addss	xmm0, DWORD PTR [ecx+esi]
	mov	edx, 4
	shl	edx, 0
	movss	DWORD PTR _dest$[ebp+edx], xmm0
	mov	esi, 4
	shl	esi, 1
	cvtsi2ss xmm0, DWORD PTR _size$[ebp]
	push	ecx
	movss	DWORD PTR [esp], xmm0
	mov	eax, DWORD PTR _size$[ebp]
	neg	eax
	cvtsi2ss xmm0, eax
	push	ecx
	movss	DWORD PTR [esp], xmm0
	call	_COM_RandomFloat
	add	esp, 8
	fstp	DWORD PTR tv295[ebp]
	mov	ecx, DWORD PTR _org$[ebp]
	movss	xmm0, DWORD PTR [ecx+esi]
	addss	xmm0, DWORD PTR tv295[ebp]
	movss	DWORD PTR tv169[ebp], xmm0
	mov	edx, 4
	shl	edx, 1
	movss	xmm0, DWORD PTR tv169[ebp]
	movss	DWORD PTR _dest$[ebp+edx], xmm0

; 1046 : 			VectorSubtract( dest, p->org, dir );

	mov	eax, 4
	imul	ecx, eax, 0
	mov	edx, 4
	imul	eax, edx, 0
	mov	edx, DWORD PTR _p$[ebp]
	movss	xmm0, DWORD PTR _dest$[ebp+ecx]
	subss	xmm0, DWORD PTR [edx+eax]
	mov	eax, 4
	imul	ecx, eax, 0
	movss	DWORD PTR _dir$[ebp+ecx], xmm0
	mov	edx, 4
	shl	edx, 0
	mov	eax, 4
	shl	eax, 0
	mov	ecx, DWORD PTR _p$[ebp]
	movss	xmm0, DWORD PTR _dest$[ebp+edx]
	subss	xmm0, DWORD PTR [ecx+eax]
	mov	edx, 4
	shl	edx, 0
	movss	DWORD PTR _dir$[ebp+edx], xmm0
	mov	eax, 4
	shl	eax, 1
	mov	ecx, 4
	shl	ecx, 1
	mov	edx, DWORD PTR _p$[ebp]
	movss	xmm0, DWORD PTR _dest$[ebp+eax]
	subss	xmm0, DWORD PTR [edx+ecx]
	movss	DWORD PTR tv193[ebp], xmm0
	mov	eax, 4
	shl	eax, 1
	movss	xmm0, DWORD PTR tv193[ebp]
	movss	DWORD PTR _dir$[ebp+eax], xmm0

; 1047 : 			dist = VectorNormalizeLength( dir );

	lea	ecx, DWORD PTR _dir$[ebp]
	push	ecx
	lea	edx, DWORD PTR _dir$[ebp]
	push	edx
	call	_VectorNormalizeLength2
	add	esp, 8
	fstp	DWORD PTR _dist$[ebp]

; 1048 : 			VectorScale( dir, ( dist / life ), p->vel );

	mov	eax, 4
	imul	ecx, eax, 0
	movss	xmm0, DWORD PTR _dist$[ebp]
	divss	xmm0, DWORD PTR _life$[ebp]
	mulss	xmm0, DWORD PTR _dir$[ebp+ecx]
	mov	edx, 4
	imul	eax, edx, 0
	mov	ecx, DWORD PTR _p$[ebp]
	movss	DWORD PTR [ecx+eax+20], xmm0
	mov	edx, 4
	shl	edx, 0
	movss	xmm0, DWORD PTR _dist$[ebp]
	divss	xmm0, DWORD PTR _life$[ebp]
	mulss	xmm0, DWORD PTR _dir$[ebp+edx]
	mov	eax, 4
	shl	eax, 0
	mov	ecx, DWORD PTR _p$[ebp]
	movss	DWORD PTR [ecx+eax+20], xmm0
	mov	edx, 4
	shl	edx, 1
	movss	xmm0, DWORD PTR _dist$[ebp]
	divss	xmm0, DWORD PTR _life$[ebp]
	movss	xmm1, DWORD PTR _dir$[ebp+edx]
	mulss	xmm1, xmm0
	movss	DWORD PTR tv223[ebp], xmm1
	mov	eax, 4
	shl	eax, 1
	mov	ecx, DWORD PTR _p$[ebp]
	movss	xmm0, DWORD PTR tv223[ebp]
	movss	DWORD PTR [ecx+eax+20], xmm0

; 1049 : 		}

	jmp	$LN5@R_Particle
$LN6@R_Particle:

; 1050 : 	}

	jmp	$LN2@R_Particle
$LN3@R_Particle:

; 1051 : }

	pop	esi
	mov	ecx, DWORD PTR __$ArrayPad$[ebp]
	xor	ecx, ebp
	call	@__security_check_cookie@4
	mov	esp, ebp
	pop	ebp
	ret	0
_R_ParticleBurst ENDP
_TEXT	ENDS
; Function compile flags: /Odtp
; File c:\users\user\downloads\xash_build4529_src\engine\client\gl_rpart.c
_TEXT	SEGMENT
tv186 = -36						; size = 8
tv165 = -28						; size = 4
tv147 = -24						; size = 4
tv227 = -20						; size = 4
tv213 = -16						; size = 4
tv199 = -12						; size = 4
_i$ = -8						; size = 4
_p$ = -4						; size = 4
_org$ = 8						; size = 4
_dir$ = 12						; size = 4
_color$ = 16						; size = 4
_count$ = 20						; size = 4
_R_RunParticleEffect PROC

; 839  : {

	push	ebp
	mov	ebp, esp
	sub	esp, 36					; 00000024H
	push	esi

; 840  : 	particle_t	*p;
; 841  : 	int		i;
; 842  : 
; 843  : 	if( count == 1024 )

	cmp	DWORD PTR _count$[ebp], 1024		; 00000400H
	jne	SHORT $LN5@R_RunParti

; 844  : 	{
; 845  : 		// rocket explosion
; 846  : 		R_ParticleExplosion( org );

	mov	eax, DWORD PTR _org$[ebp]
	push	eax
	call	_R_ParticleExplosion
	add	esp, 4

; 847  : 		return;

	jmp	$LN3@R_RunParti
$LN5@R_RunParti:

; 848  : 	}
; 849  : 	
; 850  : 	for( i = 0; i < count; i++ )

	mov	DWORD PTR _i$[ebp], 0
	jmp	SHORT $LN4@R_RunParti
$LN2@R_RunParti:
	mov	ecx, DWORD PTR _i$[ebp]
	add	ecx, 1
	mov	DWORD PTR _i$[ebp], ecx
$LN4@R_RunParti:
	mov	edx, DWORD PTR _i$[ebp]
	cmp	edx, DWORD PTR _count$[ebp]
	jge	$LN3@R_RunParti

; 851  : 	{
; 852  : 		p = R_AllocParticle( NULL );

	push	0
	call	_R_AllocParticle
	add	esp, 4
	mov	DWORD PTR _p$[ebp], eax

; 853  : 		if( !p ) return;

	cmp	DWORD PTR _p$[ebp], 0
	jne	SHORT $LN6@R_RunParti
	jmp	$LN3@R_RunParti
$LN6@R_RunParti:

; 854  : 
; 855  : 		p->color = (color & ~7) + COM_RandomLong( 0, 7 );

	mov	esi, DWORD PTR _color$[ebp]
	and	esi, -8					; fffffff8H
	push	7
	push	0
	call	_COM_RandomLong
	add	esp, 8
	add	esi, eax
	mov	eax, DWORD PTR _p$[ebp]
	mov	WORD PTR [eax+12], si

; 856  : 		p->die = cl.time + COM_RandomFloat( 0.1f, 0.4f );

	push	ecx
	movss	xmm0, DWORD PTR __real@3ecccccd
	movss	DWORD PTR [esp], xmm0
	push	ecx
	movss	xmm0, DWORD PTR __real@3dcccccd
	movss	DWORD PTR [esp], xmm0
	call	_COM_RandomFloat
	add	esp, 8
	fstp	QWORD PTR tv186[ebp]
	movsd	xmm0, QWORD PTR tv186[ebp]
	addsd	xmm0, QWORD PTR _cl+1525848
	cvtsd2ss xmm0, xmm0
	mov	ecx, DWORD PTR _p$[ebp]
	movss	DWORD PTR [ecx+36], xmm0

; 857  : 		p->type = pt_slowgrav;

	mov	edx, DWORD PTR _p$[ebp]
	mov	DWORD PTR [edx+40], 2

; 858  : 
; 859  : 		VectorAddScalar( org, COM_RandomFloat( -8.0f, 8.0f ), p->org );

	mov	eax, 4
	imul	esi, eax, 0
	push	ecx
	movss	xmm0, DWORD PTR __real@41000000
	movss	DWORD PTR [esp], xmm0
	push	ecx
	movss	xmm0, DWORD PTR __real@c1000000
	movss	DWORD PTR [esp], xmm0
	call	_COM_RandomFloat
	add	esp, 8
	fstp	DWORD PTR tv199[ebp]
	mov	ecx, DWORD PTR _org$[ebp]
	movss	xmm0, DWORD PTR tv199[ebp]
	addss	xmm0, DWORD PTR [ecx+esi]
	mov	edx, 4
	imul	eax, edx, 0
	mov	ecx, DWORD PTR _p$[ebp]
	movss	DWORD PTR [ecx+eax], xmm0
	mov	esi, 4
	shl	esi, 0
	push	ecx
	movss	xmm0, DWORD PTR __real@41000000
	movss	DWORD PTR [esp], xmm0
	push	ecx
	movss	xmm0, DWORD PTR __real@c1000000
	movss	DWORD PTR [esp], xmm0
	call	_COM_RandomFloat
	add	esp, 8
	fstp	DWORD PTR tv213[ebp]
	mov	edx, DWORD PTR _org$[ebp]
	movss	xmm0, DWORD PTR tv213[ebp]
	addss	xmm0, DWORD PTR [edx+esi]
	mov	eax, 4
	shl	eax, 0
	mov	ecx, DWORD PTR _p$[ebp]
	movss	DWORD PTR [ecx+eax], xmm0
	mov	esi, 4
	shl	esi, 1
	push	ecx
	movss	xmm0, DWORD PTR __real@41000000
	movss	DWORD PTR [esp], xmm0
	push	ecx
	movss	xmm0, DWORD PTR __real@c1000000
	movss	DWORD PTR [esp], xmm0
	call	_COM_RandomFloat
	add	esp, 8
	fstp	DWORD PTR tv227[ebp]
	mov	edx, DWORD PTR _org$[ebp]
	movss	xmm0, DWORD PTR [edx+esi]
	addss	xmm0, DWORD PTR tv227[ebp]
	movss	DWORD PTR tv147[ebp], xmm0
	mov	eax, 4
	shl	eax, 1
	mov	ecx, DWORD PTR _p$[ebp]
	movss	xmm0, DWORD PTR tv147[ebp]
	movss	DWORD PTR [ecx+eax], xmm0

; 860  : 		VectorScale( dir, 15.0f, p->vel );

	mov	edx, 4
	imul	eax, edx, 0
	mov	ecx, DWORD PTR _dir$[ebp]
	movss	xmm0, DWORD PTR [ecx+eax]
	mulss	xmm0, DWORD PTR __real@41700000
	mov	edx, 4
	imul	eax, edx, 0
	mov	ecx, DWORD PTR _p$[ebp]
	movss	DWORD PTR [ecx+eax+20], xmm0
	mov	edx, 4
	shl	edx, 0
	mov	eax, DWORD PTR _dir$[ebp]
	movss	xmm0, DWORD PTR [eax+edx]
	mulss	xmm0, DWORD PTR __real@41700000
	mov	ecx, 4
	shl	ecx, 0
	mov	edx, DWORD PTR _p$[ebp]
	movss	DWORD PTR [edx+ecx+20], xmm0
	mov	eax, 4
	shl	eax, 1
	mov	ecx, DWORD PTR _dir$[ebp]
	movss	xmm0, DWORD PTR [ecx+eax]
	mulss	xmm0, DWORD PTR __real@41700000
	movss	DWORD PTR tv165[ebp], xmm0
	mov	edx, 4
	shl	edx, 1
	mov	eax, DWORD PTR _p$[ebp]
	movss	xmm0, DWORD PTR tv165[ebp]
	movss	DWORD PTR [eax+edx+20], xmm0

; 861  : 	}

	jmp	$LN2@R_RunParti
$LN3@R_RunParti:

; 862  : }

	pop	esi
	mov	esp, ebp
	pop	ebp
	ret	0
_R_RunParticleEffect ENDP
_TEXT	ENDS
; Function compile flags: /Odtp
; File c:\users\user\downloads\xash_build4529_src\engine\client\gl_rpart.c
_TEXT	SEGMENT
_i$ = -8						; size = 4
_p$ = -4						; size = 4
_org$ = 8						; size = 4
_R_FlickerParticles PROC

; 1377 : {

	push	ebp
	mov	ebp, esp
	sub	esp, 8
	push	esi

; 1378 : 	particle_t	*p;
; 1379 : 	int		i;
; 1380 : 
; 1381 : 	for( i = 0; i < 15; i++ )

	mov	DWORD PTR _i$[ebp], 0
	jmp	SHORT $LN4@R_FlickerP
$LN2@R_FlickerP:
	mov	eax, DWORD PTR _i$[ebp]
	add	eax, 1
	mov	DWORD PTR _i$[ebp], eax
$LN4@R_FlickerP:
	cmp	DWORD PTR _i$[ebp], 15			; 0000000fH
	jge	$LN3@R_FlickerP

; 1382 : 	{
; 1383 : 		p = R_AllocParticle( NULL );

	push	0
	call	_R_AllocParticle
	add	esp, 4
	mov	DWORD PTR _p$[ebp], eax

; 1384 : 		if( !p ) return;

	cmp	DWORD PTR _p$[ebp], 0
	jne	SHORT $LN5@R_FlickerP
	jmp	$LN3@R_FlickerP
$LN5@R_FlickerP:

; 1385 : 
; 1386 : 		VectorCopy( org, p->org );

	mov	ecx, 4
	imul	edx, ecx, 0
	mov	eax, 4
	imul	ecx, eax, 0
	mov	eax, DWORD PTR _p$[ebp]
	mov	esi, DWORD PTR _org$[ebp]
	mov	edx, DWORD PTR [esi+edx]
	mov	DWORD PTR [eax+ecx], edx
	mov	eax, 4
	shl	eax, 0
	mov	ecx, 4
	shl	ecx, 0
	mov	edx, DWORD PTR _p$[ebp]
	mov	esi, DWORD PTR _org$[ebp]
	mov	eax, DWORD PTR [esi+eax]
	mov	DWORD PTR [edx+ecx], eax
	mov	ecx, 4
	shl	ecx, 1
	mov	edx, 4
	shl	edx, 1
	mov	eax, DWORD PTR _p$[ebp]
	mov	esi, DWORD PTR _org$[ebp]
	mov	ecx, DWORD PTR [esi+ecx]
	mov	DWORD PTR [eax+edx], ecx

; 1387 : 		p->vel[0] = COM_RandomFloat( -32.0f, 32.0f );

	push	ecx
	movss	xmm0, DWORD PTR __real@42000000
	movss	DWORD PTR [esp], xmm0
	push	ecx
	movss	xmm0, DWORD PTR __real@c2000000
	movss	DWORD PTR [esp], xmm0
	call	_COM_RandomFloat
	add	esp, 8
	mov	edx, 4
	imul	eax, edx, 0
	mov	ecx, DWORD PTR _p$[ebp]
	fstp	DWORD PTR [ecx+eax+20]

; 1388 : 		p->vel[1] = COM_RandomFloat( -32.0f, 32.0f );

	push	ecx
	movss	xmm0, DWORD PTR __real@42000000
	movss	DWORD PTR [esp], xmm0
	push	ecx
	movss	xmm0, DWORD PTR __real@c2000000
	movss	DWORD PTR [esp], xmm0
	call	_COM_RandomFloat
	add	esp, 8
	mov	edx, 4
	shl	edx, 0
	mov	eax, DWORD PTR _p$[ebp]
	fstp	DWORD PTR [eax+edx+20]

; 1389 : 		p->vel[2] = COM_RandomFloat( 80.0f, 143.0f );

	push	ecx
	movss	xmm0, DWORD PTR __real@430f0000
	movss	DWORD PTR [esp], xmm0
	push	ecx
	movss	xmm0, DWORD PTR __real@42a00000
	movss	DWORD PTR [esp], xmm0
	call	_COM_RandomFloat
	add	esp, 8
	mov	ecx, 4
	shl	ecx, 1
	mov	edx, DWORD PTR _p$[ebp]
	fstp	DWORD PTR [edx+ecx+20]

; 1390 : 
; 1391 : 		p->die = cl.time + 2.0f;

	movsd	xmm0, QWORD PTR _cl+1525848
	addsd	xmm0, QWORD PTR __real@4000000000000000
	cvtsd2ss xmm0, xmm0
	mov	eax, DWORD PTR _p$[ebp]
	movss	DWORD PTR [eax+36], xmm0

; 1392 : 		p->type = pt_blob2;

	mov	ecx, DWORD PTR _p$[ebp]
	mov	DWORD PTR [ecx+40], 7

; 1393 : 		p->color = 254;

	mov	edx, 254				; 000000feH
	mov	eax, DWORD PTR _p$[ebp]
	mov	WORD PTR [eax+12], dx

; 1394 : 	}

	jmp	$LN2@R_FlickerP
$LN3@R_FlickerP:

; 1395 : }

	pop	esi
	mov	esp, ebp
	pop	ebp
	ret	0
_R_FlickerParticles ENDP
_TEXT	ENDS
; Function compile flags: /Odtp
; File c:\users\user\downloads\xash_build4529_src\engine\client\gl_rpart.c
_TEXT	SEGMENT
_sr$ = -60						; size = 4
_cr$ = -56						; size = 4
tv197 = -52						; size = 4
tv142 = -48						; size = 4
_sp$ = -44						; size = 4
_sy$ = -40						; size = 4
_cy$ = -36						; size = 4
_cp$ = -32						; size = 4
_angle$ = -28						; size = 4
_p$ = -24						; size = 4
_i$ = -20						; size = 4
_forward$ = -16						; size = 12
__$ArrayPad$ = -4					; size = 4
_ent$ = 8						; size = 4
_R_EntityParticles PROC

; 702  : {

	push	ebp
	mov	ebp, esp
	sub	esp, 60					; 0000003cH
	mov	eax, DWORD PTR ___security_cookie
	xor	eax, ebp
	mov	DWORD PTR __$ArrayPad$[ebp], eax

; 703  : 	float		angle;
; 704  : 	float		sr, sp, sy, cr, cp, cy;
; 705  : 	vec3_t		forward;	
; 706  : 	particle_t	*p;
; 707  : 	int		i;
; 708  : 
; 709  : 	for( i = 0; i < NUMVERTEXNORMALS; i++ )

	mov	DWORD PTR _i$[ebp], 0
	jmp	SHORT $LN4@R_EntityPa
$LN2@R_EntityPa:
	mov	eax, DWORD PTR _i$[ebp]
	add	eax, 1
	mov	DWORD PTR _i$[ebp], eax
$LN4@R_EntityPa:
	cmp	DWORD PTR _i$[ebp], 162			; 000000a2H
	jge	$LN3@R_EntityPa

; 710  : 	{
; 711  : 		p = R_AllocParticle( NULL );

	push	0
	call	_R_AllocParticle
	add	esp, 4
	mov	DWORD PTR _p$[ebp], eax

; 712  : 		if( !p ) return;

	cmp	DWORD PTR _p$[ebp], 0
	jne	SHORT $LN5@R_EntityPa
	jmp	$LN3@R_EntityPa
$LN5@R_EntityPa:

; 713  : 
; 714  : 		angle = cl.time * cl_avelocities[i][0];

	imul	ecx, DWORD PTR _i$[ebp], 12
	mov	edx, 4
	imul	eax, edx, 0
	cvtss2sd xmm0, DWORD PTR _cl_avelocities[ecx+eax]
	mulsd	xmm0, QWORD PTR _cl+1525848
	cvtsd2ss xmm0, xmm0
	movss	DWORD PTR _angle$[ebp], xmm0

; 715  : 		SinCos( angle, &sy, &cy );

	lea	ecx, DWORD PTR _cy$[ebp]
	push	ecx
	lea	edx, DWORD PTR _sy$[ebp]
	push	edx
	push	ecx
	movss	xmm0, DWORD PTR _angle$[ebp]
	movss	DWORD PTR [esp], xmm0
	call	_SinCos
	add	esp, 12					; 0000000cH

; 716  : 		angle = cl.time * cl_avelocities[i][1];

	imul	eax, DWORD PTR _i$[ebp], 12
	mov	ecx, 4
	shl	ecx, 0
	cvtss2sd xmm0, DWORD PTR _cl_avelocities[eax+ecx]
	mulsd	xmm0, QWORD PTR _cl+1525848
	cvtsd2ss xmm0, xmm0
	movss	DWORD PTR _angle$[ebp], xmm0

; 717  : 		SinCos( angle, &sp, &cp );

	lea	edx, DWORD PTR _cp$[ebp]
	push	edx
	lea	eax, DWORD PTR _sp$[ebp]
	push	eax
	push	ecx
	movss	xmm0, DWORD PTR _angle$[ebp]
	movss	DWORD PTR [esp], xmm0
	call	_SinCos
	add	esp, 12					; 0000000cH

; 718  : 		angle = cl.time * cl_avelocities[i][2];

	imul	ecx, DWORD PTR _i$[ebp], 12
	mov	edx, 4
	shl	edx, 1
	cvtss2sd xmm0, DWORD PTR _cl_avelocities[ecx+edx]
	mulsd	xmm0, QWORD PTR _cl+1525848
	cvtsd2ss xmm0, xmm0
	movss	DWORD PTR _angle$[ebp], xmm0

; 719  : 		SinCos( angle, &sr, &cr );

	lea	eax, DWORD PTR _cr$[ebp]
	push	eax
	lea	ecx, DWORD PTR _sr$[ebp]
	push	ecx
	push	ecx
	movss	xmm0, DWORD PTR _angle$[ebp]
	movss	DWORD PTR [esp], xmm0
	call	_SinCos
	add	esp, 12					; 0000000cH

; 720  : 	
; 721  : 		VectorSet( forward, cp * cy, cp * sy, -sp ); 

	movss	xmm0, DWORD PTR _cp$[ebp]
	mulss	xmm0, DWORD PTR _cy$[ebp]
	mov	edx, 4
	imul	eax, edx, 0
	movss	DWORD PTR _forward$[ebp+eax], xmm0
	movss	xmm0, DWORD PTR _cp$[ebp]
	mulss	xmm0, DWORD PTR _sy$[ebp]
	mov	ecx, 4
	shl	ecx, 0
	movss	DWORD PTR _forward$[ebp+ecx], xmm0
	movss	xmm0, DWORD PTR _sp$[ebp]
	xorps	xmm0, DWORD PTR __xmm@80000000800000008000000080000000
	movss	DWORD PTR tv142[ebp], xmm0
	mov	edx, 4
	shl	edx, 1
	movss	xmm0, DWORD PTR tv142[ebp]
	movss	DWORD PTR _forward$[ebp+edx], xmm0

; 722  : 
; 723  : 		p->die = cl.time + 0.001f;

	movsd	xmm0, QWORD PTR _cl+1525848
	addsd	xmm0, QWORD PTR __real@3f50624de0000000
	cvtsd2ss xmm0, xmm0
	mov	eax, DWORD PTR _p$[ebp]
	movss	DWORD PTR [eax+36], xmm0

; 724  : 		p->color = 111; // yellow

	mov	ecx, 111				; 0000006fH
	mov	edx, DWORD PTR _p$[ebp]
	mov	WORD PTR [edx+12], cx

; 725  : 
; 726  : 		VectorMAMAM( 1.0f, ent->origin, 64.0f, m_bytenormals[i], 16.0f, forward, p->org );

	mov	eax, 4
	imul	ecx, eax, 0
	mov	edx, DWORD PTR _ent$[ebp]
	movss	xmm0, DWORD PTR __real@3f800000
	mulss	xmm0, DWORD PTR [edx+ecx+2888]
	imul	eax, DWORD PTR _i$[ebp], 12
	mov	ecx, 4
	imul	edx, ecx, 0
	movss	xmm1, DWORD PTR __real@42800000
	mulss	xmm1, DWORD PTR _m_bytenormals[eax+edx]
	addss	xmm0, xmm1
	mov	eax, 4
	imul	ecx, eax, 0
	movss	xmm1, DWORD PTR __real@41800000
	mulss	xmm1, DWORD PTR _forward$[ebp+ecx]
	addss	xmm0, xmm1
	mov	edx, 4
	imul	eax, edx, 0
	mov	ecx, DWORD PTR _p$[ebp]
	movss	DWORD PTR [ecx+eax], xmm0
	mov	edx, 4
	shl	edx, 0
	mov	eax, DWORD PTR _ent$[ebp]
	movss	xmm0, DWORD PTR __real@3f800000
	mulss	xmm0, DWORD PTR [eax+edx+2888]
	imul	ecx, DWORD PTR _i$[ebp], 12
	mov	edx, 4
	shl	edx, 0
	movss	xmm1, DWORD PTR __real@42800000
	mulss	xmm1, DWORD PTR _m_bytenormals[ecx+edx]
	addss	xmm0, xmm1
	mov	eax, 4
	shl	eax, 0
	movss	xmm1, DWORD PTR __real@41800000
	mulss	xmm1, DWORD PTR _forward$[ebp+eax]
	addss	xmm0, xmm1
	mov	ecx, 4
	shl	ecx, 0
	mov	edx, DWORD PTR _p$[ebp]
	movss	DWORD PTR [edx+ecx], xmm0
	mov	eax, 4
	shl	eax, 1
	mov	ecx, DWORD PTR _ent$[ebp]
	movss	xmm0, DWORD PTR __real@3f800000
	mulss	xmm0, DWORD PTR [ecx+eax+2888]
	imul	edx, DWORD PTR _i$[ebp], 12
	mov	eax, 4
	shl	eax, 1
	movss	xmm1, DWORD PTR __real@42800000
	mulss	xmm1, DWORD PTR _m_bytenormals[edx+eax]
	addss	xmm0, xmm1
	mov	ecx, 4
	shl	ecx, 1
	movss	xmm1, DWORD PTR __real@41800000
	mulss	xmm1, DWORD PTR _forward$[ebp+ecx]
	addss	xmm0, xmm1
	movss	DWORD PTR tv197[ebp], xmm0
	mov	edx, 4
	shl	edx, 1
	mov	eax, DWORD PTR _p$[ebp]
	movss	xmm0, DWORD PTR tv197[ebp]
	movss	DWORD PTR [eax+edx], xmm0

; 727  : 	}

	jmp	$LN2@R_EntityPa
$LN3@R_EntityPa:

; 728  : }

	mov	ecx, DWORD PTR __$ArrayPad$[ebp]
	xor	ecx, ebp
	call	@__security_check_cookie@4
	mov	esp, ebp
	pop	ebp
	ret	0
_R_EntityParticles ENDP
_TEXT	ENDS
; Function compile flags: /Odtp
; File c:\users\user\downloads\xash_build4529_src\engine\client\gl_rpart.c
_TEXT	SEGMENT
tv151 = -24						; size = 8
tv174 = -16						; size = 4
_i$ = -12						; size = 4
_j$ = -8						; size = 4
_p$ = -4						; size = 4
_org$ = 8						; size = 4
_R_BlobExplosion PROC

; 800  : {

	push	ebp
	mov	ebp, esp
	sub	esp, 24					; 00000018H

; 801  : 	particle_t	*p;
; 802  : 	int		i, j;
; 803  : 
; 804  : 	for( i = 0; i < 1024; i++ )

	mov	DWORD PTR _i$[ebp], 0
	jmp	SHORT $LN4@R_BlobExpl
$LN2@R_BlobExpl:
	mov	eax, DWORD PTR _i$[ebp]
	add	eax, 1
	mov	DWORD PTR _i$[ebp], eax
$LN4@R_BlobExpl:
	cmp	DWORD PTR _i$[ebp], 1024		; 00000400H
	jge	$LN3@R_BlobExpl

; 805  : 	{
; 806  : 		p = R_AllocParticle( NULL );

	push	0
	call	_R_AllocParticle
	add	esp, 4
	mov	DWORD PTR _p$[ebp], eax

; 807  : 		if( !p ) return;

	cmp	DWORD PTR _p$[ebp], 0
	jne	SHORT $LN8@R_BlobExpl
	jmp	$LN3@R_BlobExpl
$LN8@R_BlobExpl:

; 808  : 
; 809  : 		p->die = cl.time + COM_RandomFloat( 2.0f, 2.4f );

	push	ecx
	movss	xmm0, DWORD PTR __real@4019999a
	movss	DWORD PTR [esp], xmm0
	push	ecx
	movss	xmm0, DWORD PTR __real@40000000
	movss	DWORD PTR [esp], xmm0
	call	_COM_RandomFloat
	add	esp, 8
	fstp	QWORD PTR tv151[ebp]
	movsd	xmm0, QWORD PTR tv151[ebp]
	addsd	xmm0, QWORD PTR _cl+1525848
	cvtsd2ss xmm0, xmm0
	mov	ecx, DWORD PTR _p$[ebp]
	movss	DWORD PTR [ecx+36], xmm0

; 810  : 		p->packedColor = 255; // use old code for blob particles

	mov	edx, 255				; 000000ffH
	mov	eax, DWORD PTR _p$[ebp]
	mov	WORD PTR [eax+14], dx

; 811  : 
; 812  : 		if( i & 1 )

	mov	ecx, DWORD PTR _i$[ebp]
	and	ecx, 1
	je	SHORT $LN9@R_BlobExpl

; 813  : 		{
; 814  : 			p->type = pt_blob;

	mov	edx, DWORD PTR _p$[ebp]
	mov	DWORD PTR [edx+40], 6

; 815  : 			p->color = COM_RandomLong( 66, 71 );

	push	71					; 00000047H
	push	66					; 00000042H
	call	_COM_RandomLong
	add	esp, 8
	mov	ecx, DWORD PTR _p$[ebp]
	mov	WORD PTR [ecx+12], ax

; 816  : 		}

	jmp	SHORT $LN10@R_BlobExpl
$LN9@R_BlobExpl:

; 817  : 		else
; 818  : 		{
; 819  : 			p->type = pt_blob2;

	mov	edx, DWORD PTR _p$[ebp]
	mov	DWORD PTR [edx+40], 7

; 820  : 			p->color = COM_RandomLong( 150, 155 );

	push	155					; 0000009bH
	push	150					; 00000096H
	call	_COM_RandomLong
	add	esp, 8
	mov	ecx, DWORD PTR _p$[ebp]
	mov	WORD PTR [ecx+12], ax
$LN10@R_BlobExpl:

; 821  : 		}
; 822  : 
; 823  : 		for( j = 0; j < 3; j++ )

	mov	DWORD PTR _j$[ebp], 0
	jmp	SHORT $LN7@R_BlobExpl
$LN5@R_BlobExpl:
	mov	edx, DWORD PTR _j$[ebp]
	add	edx, 1
	mov	DWORD PTR _j$[ebp], edx
$LN7@R_BlobExpl:
	cmp	DWORD PTR _j$[ebp], 3
	jge	SHORT $LN6@R_BlobExpl

; 824  : 		{
; 825  : 			p->org[j] = org[j] + COM_RandomFloat( -16.0f, 16.0f );

	push	ecx
	movss	xmm0, DWORD PTR __real@41800000
	movss	DWORD PTR [esp], xmm0
	push	ecx
	movss	xmm0, DWORD PTR __real@c1800000
	movss	DWORD PTR [esp], xmm0
	call	_COM_RandomFloat
	add	esp, 8
	fstp	DWORD PTR tv174[ebp]
	mov	eax, DWORD PTR _j$[ebp]
	mov	ecx, DWORD PTR _org$[ebp]
	movss	xmm0, DWORD PTR tv174[ebp]
	addss	xmm0, DWORD PTR [ecx+eax*4]
	mov	edx, DWORD PTR _j$[ebp]
	mov	eax, DWORD PTR _p$[ebp]
	movss	DWORD PTR [eax+edx*4], xmm0

; 826  : 			p->vel[j] = COM_RandomFloat( -256.0f, 256.0f );

	push	ecx
	movss	xmm0, DWORD PTR __real@43800000
	movss	DWORD PTR [esp], xmm0
	push	ecx
	movss	xmm0, DWORD PTR __real@c3800000
	movss	DWORD PTR [esp], xmm0
	call	_COM_RandomFloat
	add	esp, 8
	mov	ecx, DWORD PTR _j$[ebp]
	mov	edx, DWORD PTR _p$[ebp]
	fstp	DWORD PTR [edx+ecx*4+20]

; 827  : 		}

	jmp	$LN5@R_BlobExpl
$LN6@R_BlobExpl:

; 828  : 	}

	jmp	$LN2@R_BlobExpl
$LN3@R_BlobExpl:

; 829  : }

	mov	esp, ebp
	pop	ebp
	ret	0
_R_BlobExplosion ENDP
_TEXT	ENDS
; Function compile flags: /Odtp
; File c:\users\user\downloads\xash_build4529_src\engine\client\gl_rpart.c
_TEXT	SEGMENT
tv379 = -56						; size = 4
tv358 = -52						; size = 4
tv583 = -48						; size = 4
tv570 = -44						; size = 4
tv557 = -40						; size = 4
tv273 = -36						; size = 4
tv252 = -32						; size = 4
tv170 = -28						; size = 4
_j$ = -24						; size = 4
_i$ = -20						; size = 4
_arc$ = -16						; size = 4
_num$1 = -12						; size = 4
_accel$ = -8						; size = 4
_p$ = -4						; size = 4
_org$ = 8						; size = 4
_dir$ = 12						; size = 4
_pcolor$ = 16						; size = 4
_speed$ = 20						; size = 4
_R_BloodStream PROC

; 908  : {

	push	ebp
	mov	ebp, esp
	sub	esp, 56					; 00000038H
	push	esi

; 909  : 	particle_t	*p;
; 910  : 	int		i, j;
; 911  : 	float		arc;
; 912  : 	float		accel = speed;

	cvtsi2ss xmm0, DWORD PTR _speed$[ebp]
	movss	DWORD PTR _accel$[ebp], xmm0

; 913  : 
; 914  : 	for( arc = 0.05f, i = 0; i < 100; i++ )

	movss	xmm0, DWORD PTR __real@3d4ccccd
	movss	DWORD PTR _arc$[ebp], xmm0
	mov	DWORD PTR _i$[ebp], 0
	jmp	SHORT $LN4@R_BloodStr
$LN2@R_BloodStr:
	mov	eax, DWORD PTR _i$[ebp]
	add	eax, 1
	mov	DWORD PTR _i$[ebp], eax
$LN4@R_BloodStr:
	cmp	DWORD PTR _i$[ebp], 100			; 00000064H
	jge	$LN3@R_BloodStr

; 915  : 	{
; 916  : 		p = R_AllocParticle( NULL );

	push	0
	call	_R_AllocParticle
	add	esp, 4
	mov	DWORD PTR _p$[ebp], eax

; 917  : 		if( !p ) return;

	cmp	DWORD PTR _p$[ebp], 0
	jne	SHORT $LN11@R_BloodStr
	jmp	$LN6@R_BloodStr
$LN11@R_BloodStr:

; 918  : 
; 919  : 		p->die = cl.time + 2.0f;

	movsd	xmm0, QWORD PTR _cl+1525848
	addsd	xmm0, QWORD PTR __real@4000000000000000
	cvtsd2ss xmm0, xmm0
	mov	ecx, DWORD PTR _p$[ebp]
	movss	DWORD PTR [ecx+36], xmm0

; 920  : 		p->type = pt_vox_grav;

	mov	edx, DWORD PTR _p$[ebp]
	mov	DWORD PTR [edx+40], 9

; 921  : 		p->color = pcolor + COM_RandomLong( 0, 9 );

	push	9
	push	0
	call	_COM_RandomLong
	add	esp, 8
	add	eax, DWORD PTR _pcolor$[ebp]
	mov	ecx, DWORD PTR _p$[ebp]
	mov	WORD PTR [ecx+12], ax

; 922  : 
; 923  : 		VectorCopy( org, p->org );

	mov	edx, 4
	imul	eax, edx, 0
	mov	ecx, 4
	imul	edx, ecx, 0
	mov	ecx, DWORD PTR _p$[ebp]
	mov	esi, DWORD PTR _org$[ebp]
	mov	eax, DWORD PTR [esi+eax]
	mov	DWORD PTR [ecx+edx], eax
	mov	ecx, 4
	shl	ecx, 0
	mov	edx, 4
	shl	edx, 0
	mov	eax, DWORD PTR _p$[ebp]
	mov	esi, DWORD PTR _org$[ebp]
	mov	ecx, DWORD PTR [esi+ecx]
	mov	DWORD PTR [eax+edx], ecx
	mov	edx, 4
	shl	edx, 1
	mov	eax, 4
	shl	eax, 1
	mov	ecx, DWORD PTR _p$[ebp]
	mov	esi, DWORD PTR _org$[ebp]
	mov	edx, DWORD PTR [esi+edx]
	mov	DWORD PTR [ecx+eax], edx

; 924  : 		VectorCopy( dir, p->vel );

	mov	eax, 4
	imul	ecx, eax, 0
	mov	edx, 4
	imul	eax, edx, 0
	mov	edx, DWORD PTR _p$[ebp]
	mov	esi, DWORD PTR _dir$[ebp]
	mov	ecx, DWORD PTR [esi+ecx]
	mov	DWORD PTR [edx+eax+20], ecx
	mov	edx, 4
	shl	edx, 0
	mov	eax, 4
	shl	eax, 0
	mov	ecx, DWORD PTR _p$[ebp]
	mov	esi, DWORD PTR _dir$[ebp]
	mov	edx, DWORD PTR [esi+edx]
	mov	DWORD PTR [ecx+eax+20], edx
	mov	eax, 4
	shl	eax, 1
	mov	ecx, 4
	shl	ecx, 1
	mov	edx, DWORD PTR _p$[ebp]
	mov	esi, DWORD PTR _dir$[ebp]
	mov	eax, DWORD PTR [esi+eax]
	mov	DWORD PTR [edx+ecx+20], eax

; 925  : 
; 926  : 		p->vel[2] -= arc;

	mov	ecx, 4
	shl	ecx, 1
	mov	edx, DWORD PTR _p$[ebp]
	movss	xmm0, DWORD PTR [edx+ecx+20]
	subss	xmm0, DWORD PTR _arc$[ebp]
	mov	eax, 4
	shl	eax, 1
	mov	ecx, DWORD PTR _p$[ebp]
	movss	DWORD PTR [ecx+eax+20], xmm0

; 927  : 		arc -= 0.005f;

	movss	xmm0, DWORD PTR _arc$[ebp]
	subss	xmm0, DWORD PTR __real@3ba3d70a
	movss	DWORD PTR _arc$[ebp], xmm0

; 928  : 		VectorScale( p->vel, accel, p->vel );

	mov	edx, 4
	imul	eax, edx, 0
	mov	ecx, DWORD PTR _p$[ebp]
	movss	xmm0, DWORD PTR [ecx+eax+20]
	mulss	xmm0, DWORD PTR _accel$[ebp]
	mov	edx, 4
	imul	eax, edx, 0
	mov	ecx, DWORD PTR _p$[ebp]
	movss	DWORD PTR [ecx+eax+20], xmm0
	mov	edx, 4
	shl	edx, 0
	mov	eax, DWORD PTR _p$[ebp]
	movss	xmm0, DWORD PTR [eax+edx+20]
	mulss	xmm0, DWORD PTR _accel$[ebp]
	mov	ecx, 4
	shl	ecx, 0
	mov	edx, DWORD PTR _p$[ebp]
	movss	DWORD PTR [edx+ecx+20], xmm0
	mov	eax, 4
	shl	eax, 1
	mov	ecx, DWORD PTR _p$[ebp]
	movss	xmm0, DWORD PTR [ecx+eax+20]
	mulss	xmm0, DWORD PTR _accel$[ebp]
	movss	DWORD PTR tv170[ebp], xmm0
	mov	edx, 4
	shl	edx, 1
	mov	eax, DWORD PTR _p$[ebp]
	movss	xmm0, DWORD PTR tv170[ebp]
	movss	DWORD PTR [eax+edx+20], xmm0

; 929  : 		accel -= 0.00001f; // so last few will drip

	movss	xmm0, DWORD PTR _accel$[ebp]
	subss	xmm0, DWORD PTR __real@3727c5ac
	movss	DWORD PTR _accel$[ebp], xmm0

; 930  : 	}

	jmp	$LN2@R_BloodStr
$LN3@R_BloodStr:

; 931  : 
; 932  : 	for( arc = 0.075f, i = 0; i < ( speed / 5 ); i++ )

	movss	xmm0, DWORD PTR __real@3d99999a
	movss	DWORD PTR _arc$[ebp], xmm0
	mov	DWORD PTR _i$[ebp], 0
	jmp	SHORT $LN7@R_BloodStr
$LN5@R_BloodStr:
	mov	ecx, DWORD PTR _i$[ebp]
	add	ecx, 1
	mov	DWORD PTR _i$[ebp], ecx
$LN7@R_BloodStr:
	mov	eax, DWORD PTR _speed$[ebp]
	cdq
	mov	ecx, 5
	idiv	ecx
	cmp	DWORD PTR _i$[ebp], eax
	jge	$LN6@R_BloodStr

; 933  : 	{
; 934  : 		float	num;
; 935  : 
; 936  : 		p = R_AllocParticle( NULL );

	push	0
	call	_R_AllocParticle
	add	esp, 4
	mov	DWORD PTR _p$[ebp], eax

; 937  : 		if( !p ) return;

	cmp	DWORD PTR _p$[ebp], 0
	jne	SHORT $LN12@R_BloodStr
	jmp	$LN6@R_BloodStr
$LN12@R_BloodStr:

; 938  : 
; 939  : 		p->die = cl.time + 3.0f;

	movsd	xmm0, QWORD PTR _cl+1525848
	addsd	xmm0, QWORD PTR __real@4008000000000000
	cvtsd2ss xmm0, xmm0
	mov	edx, DWORD PTR _p$[ebp]
	movss	DWORD PTR [edx+36], xmm0

; 940  : 		p->color = pcolor + COM_RandomLong( 0, 9 );

	push	9
	push	0
	call	_COM_RandomLong
	add	esp, 8
	add	eax, DWORD PTR _pcolor$[ebp]
	mov	ecx, DWORD PTR _p$[ebp]
	mov	WORD PTR [ecx+12], ax

; 941  : 		p->type = pt_vox_slowgrav;

	mov	edx, DWORD PTR _p$[ebp]
	mov	DWORD PTR [edx+40], 8

; 942  : 
; 943  : 		VectorCopy( org, p->org );

	mov	eax, 4
	imul	ecx, eax, 0
	mov	edx, 4
	imul	eax, edx, 0
	mov	edx, DWORD PTR _p$[ebp]
	mov	esi, DWORD PTR _org$[ebp]
	mov	ecx, DWORD PTR [esi+ecx]
	mov	DWORD PTR [edx+eax], ecx
	mov	edx, 4
	shl	edx, 0
	mov	eax, 4
	shl	eax, 0
	mov	ecx, DWORD PTR _p$[ebp]
	mov	esi, DWORD PTR _org$[ebp]
	mov	edx, DWORD PTR [esi+edx]
	mov	DWORD PTR [ecx+eax], edx
	mov	eax, 4
	shl	eax, 1
	mov	ecx, 4
	shl	ecx, 1
	mov	edx, DWORD PTR _p$[ebp]
	mov	esi, DWORD PTR _org$[ebp]
	mov	eax, DWORD PTR [esi+eax]
	mov	DWORD PTR [edx+ecx], eax

; 944  : 		VectorCopy( dir, p->vel );

	mov	ecx, 4
	imul	edx, ecx, 0
	mov	eax, 4
	imul	ecx, eax, 0
	mov	eax, DWORD PTR _p$[ebp]
	mov	esi, DWORD PTR _dir$[ebp]
	mov	edx, DWORD PTR [esi+edx]
	mov	DWORD PTR [eax+ecx+20], edx
	mov	eax, 4
	shl	eax, 0
	mov	ecx, 4
	shl	ecx, 0
	mov	edx, DWORD PTR _p$[ebp]
	mov	esi, DWORD PTR _dir$[ebp]
	mov	eax, DWORD PTR [esi+eax]
	mov	DWORD PTR [edx+ecx+20], eax
	mov	ecx, 4
	shl	ecx, 1
	mov	edx, 4
	shl	edx, 1
	mov	eax, DWORD PTR _p$[ebp]
	mov	esi, DWORD PTR _dir$[ebp]
	mov	ecx, DWORD PTR [esi+ecx]
	mov	DWORD PTR [eax+edx+20], ecx

; 945  : 
; 946  : 		p->vel[2] -= arc;

	mov	edx, 4
	shl	edx, 1
	mov	eax, DWORD PTR _p$[ebp]
	movss	xmm0, DWORD PTR [eax+edx+20]
	subss	xmm0, DWORD PTR _arc$[ebp]
	mov	ecx, 4
	shl	ecx, 1
	mov	edx, DWORD PTR _p$[ebp]
	movss	DWORD PTR [edx+ecx+20], xmm0

; 947  : 		arc -= 0.005f;

	movss	xmm0, DWORD PTR _arc$[ebp]
	subss	xmm0, DWORD PTR __real@3ba3d70a
	movss	DWORD PTR _arc$[ebp], xmm0

; 948  : 
; 949  : 		num = COM_RandomFloat( 0.0f, 1.0f );

	push	ecx
	movss	xmm0, DWORD PTR __real@3f800000
	movss	DWORD PTR [esp], xmm0
	push	ecx
	xorps	xmm0, xmm0
	movss	DWORD PTR [esp], xmm0
	call	_COM_RandomFloat
	add	esp, 8
	fstp	DWORD PTR _num$1[ebp]

; 950  : 		accel = speed * num;

	cvtsi2ss xmm0, DWORD PTR _speed$[ebp]
	mulss	xmm0, DWORD PTR _num$1[ebp]
	movss	DWORD PTR _accel$[ebp], xmm0

; 951  : 		num *= 1.7f;

	movss	xmm0, DWORD PTR _num$1[ebp]
	mulss	xmm0, DWORD PTR __real@3fd9999a
	movss	DWORD PTR _num$1[ebp], xmm0

; 952  : 
; 953  : 		VectorScale( p->vel, num, p->vel );

	mov	eax, 4
	imul	ecx, eax, 0
	mov	edx, DWORD PTR _p$[ebp]
	movss	xmm0, DWORD PTR [edx+ecx+20]
	mulss	xmm0, DWORD PTR _num$1[ebp]
	mov	eax, 4
	imul	ecx, eax, 0
	mov	edx, DWORD PTR _p$[ebp]
	movss	DWORD PTR [edx+ecx+20], xmm0
	mov	eax, 4
	shl	eax, 0
	mov	ecx, DWORD PTR _p$[ebp]
	movss	xmm0, DWORD PTR [ecx+eax+20]
	mulss	xmm0, DWORD PTR _num$1[ebp]
	mov	edx, 4
	shl	edx, 0
	mov	eax, DWORD PTR _p$[ebp]
	movss	DWORD PTR [eax+edx+20], xmm0
	mov	ecx, 4
	shl	ecx, 1
	mov	edx, DWORD PTR _p$[ebp]
	movss	xmm0, DWORD PTR [edx+ecx+20]
	mulss	xmm0, DWORD PTR _num$1[ebp]
	movss	DWORD PTR tv252[ebp], xmm0
	mov	eax, 4
	shl	eax, 1
	mov	ecx, DWORD PTR _p$[ebp]
	movss	xmm0, DWORD PTR tv252[ebp]
	movss	DWORD PTR [ecx+eax+20], xmm0

; 954  : 		VectorScale( p->vel, accel, p->vel );

	mov	edx, 4
	imul	eax, edx, 0
	mov	ecx, DWORD PTR _p$[ebp]
	movss	xmm0, DWORD PTR [ecx+eax+20]
	mulss	xmm0, DWORD PTR _accel$[ebp]
	mov	edx, 4
	imul	eax, edx, 0
	mov	ecx, DWORD PTR _p$[ebp]
	movss	DWORD PTR [ecx+eax+20], xmm0
	mov	edx, 4
	shl	edx, 0
	mov	eax, DWORD PTR _p$[ebp]
	movss	xmm0, DWORD PTR [eax+edx+20]
	mulss	xmm0, DWORD PTR _accel$[ebp]
	mov	ecx, 4
	shl	ecx, 0
	mov	edx, DWORD PTR _p$[ebp]
	movss	DWORD PTR [edx+ecx+20], xmm0
	mov	eax, 4
	shl	eax, 1
	mov	ecx, DWORD PTR _p$[ebp]
	movss	xmm0, DWORD PTR [ecx+eax+20]
	mulss	xmm0, DWORD PTR _accel$[ebp]
	movss	DWORD PTR tv273[ebp], xmm0
	mov	edx, 4
	shl	edx, 1
	mov	eax, DWORD PTR _p$[ebp]
	movss	xmm0, DWORD PTR tv273[ebp]
	movss	DWORD PTR [eax+edx+20], xmm0

; 955  : 
; 956  : 		for( j = 0; j < 2; j++ )

	mov	DWORD PTR _j$[ebp], 0
	jmp	SHORT $LN10@R_BloodStr
$LN8@R_BloodStr:
	mov	ecx, DWORD PTR _j$[ebp]
	add	ecx, 1
	mov	DWORD PTR _j$[ebp], ecx
$LN10@R_BloodStr:
	cmp	DWORD PTR _j$[ebp], 2
	jge	$LN9@R_BloodStr

; 957  : 		{
; 958  : 			p = R_AllocParticle( NULL );

	push	0
	call	_R_AllocParticle
	add	esp, 4
	mov	DWORD PTR _p$[ebp], eax

; 959  : 			if( !p ) return;

	cmp	DWORD PTR _p$[ebp], 0
	jne	SHORT $LN13@R_BloodStr
	jmp	$LN6@R_BloodStr
$LN13@R_BloodStr:

; 960  : 
; 961  : 			p->die = cl.time + 3.0f;

	movsd	xmm0, QWORD PTR _cl+1525848
	addsd	xmm0, QWORD PTR __real@4008000000000000
	cvtsd2ss xmm0, xmm0
	mov	edx, DWORD PTR _p$[ebp]
	movss	DWORD PTR [edx+36], xmm0

; 962  : 			p->color = pcolor + COM_RandomLong( 0, 9 );

	push	9
	push	0
	call	_COM_RandomLong
	add	esp, 8
	add	eax, DWORD PTR _pcolor$[ebp]
	mov	ecx, DWORD PTR _p$[ebp]
	mov	WORD PTR [ecx+12], ax

; 963  : 			p->type = pt_vox_slowgrav;

	mov	edx, DWORD PTR _p$[ebp]
	mov	DWORD PTR [edx+40], 8

; 964  : 
; 965  : 			p->org[0] = org[0] + COM_RandomFloat( -1.0f, 1.0f );

	mov	eax, 4
	imul	esi, eax, 0
	push	ecx
	movss	xmm0, DWORD PTR __real@3f800000
	movss	DWORD PTR [esp], xmm0
	push	ecx
	movss	xmm0, DWORD PTR __real@bf800000
	movss	DWORD PTR [esp], xmm0
	call	_COM_RandomFloat
	add	esp, 8
	fstp	DWORD PTR tv557[ebp]
	mov	ecx, DWORD PTR _org$[ebp]
	movss	xmm0, DWORD PTR tv557[ebp]
	addss	xmm0, DWORD PTR [ecx+esi]
	mov	edx, 4
	imul	eax, edx, 0
	mov	ecx, DWORD PTR _p$[ebp]
	movss	DWORD PTR [ecx+eax], xmm0

; 966  : 			p->org[1] = org[1] + COM_RandomFloat( -1.0f, 1.0f );

	mov	esi, 4
	shl	esi, 0
	push	ecx
	movss	xmm0, DWORD PTR __real@3f800000
	movss	DWORD PTR [esp], xmm0
	push	ecx
	movss	xmm0, DWORD PTR __real@bf800000
	movss	DWORD PTR [esp], xmm0
	call	_COM_RandomFloat
	add	esp, 8
	fstp	DWORD PTR tv570[ebp]
	mov	edx, DWORD PTR _org$[ebp]
	movss	xmm0, DWORD PTR tv570[ebp]
	addss	xmm0, DWORD PTR [edx+esi]
	mov	eax, 4
	shl	eax, 0
	mov	ecx, DWORD PTR _p$[ebp]
	movss	DWORD PTR [ecx+eax], xmm0

; 967  : 			p->org[2] = org[2] + COM_RandomFloat( -1.0f, 1.0f );

	mov	esi, 4
	shl	esi, 1
	push	ecx
	movss	xmm0, DWORD PTR __real@3f800000
	movss	DWORD PTR [esp], xmm0
	push	ecx
	movss	xmm0, DWORD PTR __real@bf800000
	movss	DWORD PTR [esp], xmm0
	call	_COM_RandomFloat
	add	esp, 8
	fstp	DWORD PTR tv583[ebp]
	mov	edx, DWORD PTR _org$[ebp]
	movss	xmm0, DWORD PTR tv583[ebp]
	addss	xmm0, DWORD PTR [edx+esi]
	mov	eax, 4
	shl	eax, 1
	mov	ecx, DWORD PTR _p$[ebp]
	movss	DWORD PTR [ecx+eax], xmm0

; 968  : 
; 969  : 			VectorCopy( dir, p->vel );

	mov	edx, 4
	imul	eax, edx, 0
	mov	ecx, 4
	imul	edx, ecx, 0
	mov	ecx, DWORD PTR _p$[ebp]
	mov	esi, DWORD PTR _dir$[ebp]
	mov	eax, DWORD PTR [esi+eax]
	mov	DWORD PTR [ecx+edx+20], eax
	mov	ecx, 4
	shl	ecx, 0
	mov	edx, 4
	shl	edx, 0
	mov	eax, DWORD PTR _p$[ebp]
	mov	esi, DWORD PTR _dir$[ebp]
	mov	ecx, DWORD PTR [esi+ecx]
	mov	DWORD PTR [eax+edx+20], ecx
	mov	edx, 4
	shl	edx, 1
	mov	eax, 4
	shl	eax, 1
	mov	ecx, DWORD PTR _p$[ebp]
	mov	esi, DWORD PTR _dir$[ebp]
	mov	edx, DWORD PTR [esi+edx]
	mov	DWORD PTR [ecx+eax+20], edx

; 970  : 			p->vel[2] -= arc;

	mov	eax, 4
	shl	eax, 1
	mov	ecx, DWORD PTR _p$[ebp]
	movss	xmm0, DWORD PTR [ecx+eax+20]
	subss	xmm0, DWORD PTR _arc$[ebp]
	mov	edx, 4
	shl	edx, 1
	mov	eax, DWORD PTR _p$[ebp]
	movss	DWORD PTR [eax+edx+20], xmm0

; 971  : 
; 972  : 			VectorScale( p->vel, num, p->vel );

	mov	ecx, 4
	imul	edx, ecx, 0
	mov	eax, DWORD PTR _p$[ebp]
	movss	xmm0, DWORD PTR [eax+edx+20]
	mulss	xmm0, DWORD PTR _num$1[ebp]
	mov	ecx, 4
	imul	edx, ecx, 0
	mov	eax, DWORD PTR _p$[ebp]
	movss	DWORD PTR [eax+edx+20], xmm0
	mov	ecx, 4
	shl	ecx, 0
	mov	edx, DWORD PTR _p$[ebp]
	movss	xmm0, DWORD PTR [edx+ecx+20]
	mulss	xmm0, DWORD PTR _num$1[ebp]
	mov	eax, 4
	shl	eax, 0
	mov	ecx, DWORD PTR _p$[ebp]
	movss	DWORD PTR [ecx+eax+20], xmm0
	mov	edx, 4
	shl	edx, 1
	mov	eax, DWORD PTR _p$[ebp]
	movss	xmm0, DWORD PTR [eax+edx+20]
	mulss	xmm0, DWORD PTR _num$1[ebp]
	movss	DWORD PTR tv358[ebp], xmm0
	mov	ecx, 4
	shl	ecx, 1
	mov	edx, DWORD PTR _p$[ebp]
	movss	xmm0, DWORD PTR tv358[ebp]
	movss	DWORD PTR [edx+ecx+20], xmm0

; 973  : 			VectorScale( p->vel, accel, p->vel );

	mov	eax, 4
	imul	ecx, eax, 0
	mov	edx, DWORD PTR _p$[ebp]
	movss	xmm0, DWORD PTR [edx+ecx+20]
	mulss	xmm0, DWORD PTR _accel$[ebp]
	mov	eax, 4
	imul	ecx, eax, 0
	mov	edx, DWORD PTR _p$[ebp]
	movss	DWORD PTR [edx+ecx+20], xmm0
	mov	eax, 4
	shl	eax, 0
	mov	ecx, DWORD PTR _p$[ebp]
	movss	xmm0, DWORD PTR [ecx+eax+20]
	mulss	xmm0, DWORD PTR _accel$[ebp]
	mov	edx, 4
	shl	edx, 0
	mov	eax, DWORD PTR _p$[ebp]
	movss	DWORD PTR [eax+edx+20], xmm0
	mov	ecx, 4
	shl	ecx, 1
	mov	edx, DWORD PTR _p$[ebp]
	movss	xmm0, DWORD PTR [edx+ecx+20]
	mulss	xmm0, DWORD PTR _accel$[ebp]
	movss	DWORD PTR tv379[ebp], xmm0
	mov	eax, 4
	shl	eax, 1
	mov	ecx, DWORD PTR _p$[ebp]
	movss	xmm0, DWORD PTR tv379[ebp]
	movss	DWORD PTR [ecx+eax+20], xmm0

; 974  : 		}

	jmp	$LN8@R_BloodStr
$LN9@R_BloodStr:

; 975  : 	}

	jmp	$LN5@R_BloodStr
$LN6@R_BloodStr:

; 976  : }

	pop	esi
	mov	esp, ebp
	pop	ebp
	ret	0
_R_BloodStream ENDP
_TEXT	ENDS
; Function compile flags: /Odtp
; File c:\users\user\downloads\xash_build4529_src\engine\client\gl_rpart.c
_TEXT	SEGMENT
tv256 = -112						; size = 4
tv238 = -108						; size = 4
tv433 = -104						; size = 4
tv420 = -100						; size = 4
tv407 = -96						; size = 4
tv193 = -92						; size = 4
tv385 = -88						; size = 4
tv373 = -84						; size = 4
tv361 = -80						; size = 4
tv166 = -76						; size = 4
tv345 = -72						; size = 4
tv332 = -68						; size = 4
tv319 = -64						; size = 4
_pspeed$ = -60						; size = 4
_j$ = -56						; size = 4
_i$ = -52						; size = 4
_ilength$1 = -48					; size = 4
_p$ = -44						; size = 4
_vec$ = -40						; size = 12
_pos$ = -28						; size = 12
_dir$ = -16						; size = 12
__$ArrayPad$ = -4					; size = 4
_org$ = 8						; size = 4
_ndir$ = 12						; size = 4
_pcolor$ = 16						; size = 4
_speed$ = 20						; size = 4
_R_Blood PROC

; 872  : {

	push	ebp
	mov	ebp, esp
	sub	esp, 112				; 00000070H
	mov	eax, DWORD PTR ___security_cookie
	xor	eax, ebp
	mov	DWORD PTR __$ArrayPad$[ebp], eax
	push	esi

; 873  : 	vec3_t		pos, dir, vec;
; 874  : 	float		pspeed = speed * 3.0f;

	cvtsi2ss xmm0, DWORD PTR _speed$[ebp]
	mulss	xmm0, DWORD PTR __real@40400000
	movss	DWORD PTR _pspeed$[ebp], xmm0

; 875  : 	int		i, j;
; 876  : 	particle_t	*p;
; 877  : 
; 878  : 	VectorNormalize2( ndir, dir );

	mov	eax, 4
	imul	ecx, eax, 0
	mov	edx, 4
	imul	eax, edx, 0
	mov	edx, DWORD PTR _ndir$[ebp]
	mov	esi, DWORD PTR _ndir$[ebp]
	movss	xmm0, DWORD PTR [edx+ecx]
	mulss	xmm0, DWORD PTR [esi+eax]
	mov	eax, 4
	shl	eax, 0
	mov	ecx, 4
	shl	ecx, 0
	mov	edx, DWORD PTR _ndir$[ebp]
	mov	esi, DWORD PTR _ndir$[ebp]
	movss	xmm1, DWORD PTR [edx+eax]
	mulss	xmm1, DWORD PTR [esi+ecx]
	addss	xmm0, xmm1
	mov	eax, 4
	shl	eax, 1
	mov	ecx, 4
	shl	ecx, 1
	mov	edx, DWORD PTR _ndir$[ebp]
	mov	esi, DWORD PTR _ndir$[ebp]
	movss	xmm1, DWORD PTR [edx+eax]
	mulss	xmm1, DWORD PTR [esi+ecx]
	addss	xmm0, xmm1
	cvtss2sd xmm0, xmm0
	sub	esp, 8
	movsd	QWORD PTR [esp], xmm0
	call	_sqrt
	add	esp, 8
	fstp	DWORD PTR _ilength$1[ebp]
	movss	xmm0, DWORD PTR _ilength$1[ebp]
	ucomiss	xmm0, DWORD PTR __real@00000000
	lahf
	test	ah, 68					; 00000044H
	jnp	SHORT $LN8@R_Blood
	movss	xmm0, DWORD PTR __real@3f800000
	divss	xmm0, DWORD PTR _ilength$1[ebp]
	movss	DWORD PTR _ilength$1[ebp], xmm0
$LN8@R_Blood:
	mov	eax, 4
	imul	ecx, eax, 0
	mov	edx, DWORD PTR _ndir$[ebp]
	movss	xmm0, DWORD PTR [edx+ecx]
	mulss	xmm0, DWORD PTR _ilength$1[ebp]
	mov	eax, 4
	imul	ecx, eax, 0
	movss	DWORD PTR _dir$[ebp+ecx], xmm0
	mov	edx, 4
	shl	edx, 0
	mov	eax, DWORD PTR _ndir$[ebp]
	movss	xmm0, DWORD PTR [eax+edx]
	mulss	xmm0, DWORD PTR _ilength$1[ebp]
	mov	ecx, 4
	shl	ecx, 0
	movss	DWORD PTR _dir$[ebp+ecx], xmm0
	mov	edx, 4
	shl	edx, 1
	mov	eax, DWORD PTR _ndir$[ebp]
	movss	xmm0, DWORD PTR [eax+edx]
	mulss	xmm0, DWORD PTR _ilength$1[ebp]
	mov	ecx, 4
	shl	ecx, 1
	movss	DWORD PTR _dir$[ebp+ecx], xmm0

; 879  : 
; 880  : 	for( i = 0; i < (speed / 2); i++ )

	mov	DWORD PTR _i$[ebp], 0
	jmp	SHORT $LN4@R_Blood
$LN2@R_Blood:
	mov	edx, DWORD PTR _i$[ebp]
	add	edx, 1
	mov	DWORD PTR _i$[ebp], edx
$LN4@R_Blood:
	mov	eax, DWORD PTR _speed$[ebp]
	cdq
	sub	eax, edx
	sar	eax, 1
	cmp	DWORD PTR _i$[ebp], eax
	jge	$LN3@R_Blood

; 881  : 	{
; 882  : 		VectorAddScalar( org, COM_RandomFloat( -3.0f, 3.0f ), pos );

	mov	eax, 4
	imul	esi, eax, 0
	push	ecx
	movss	xmm0, DWORD PTR __real@40400000
	movss	DWORD PTR [esp], xmm0
	push	ecx
	movss	xmm0, DWORD PTR __real@c0400000
	movss	DWORD PTR [esp], xmm0
	call	_COM_RandomFloat
	add	esp, 8
	fstp	DWORD PTR tv319[ebp]
	mov	ecx, DWORD PTR _org$[ebp]
	movss	xmm0, DWORD PTR tv319[ebp]
	addss	xmm0, DWORD PTR [ecx+esi]
	mov	edx, 4
	imul	eax, edx, 0
	movss	DWORD PTR _pos$[ebp+eax], xmm0
	mov	esi, 4
	shl	esi, 0
	push	ecx
	movss	xmm0, DWORD PTR __real@40400000
	movss	DWORD PTR [esp], xmm0
	push	ecx
	movss	xmm0, DWORD PTR __real@c0400000
	movss	DWORD PTR [esp], xmm0
	call	_COM_RandomFloat
	add	esp, 8
	fstp	DWORD PTR tv332[ebp]
	mov	ecx, DWORD PTR _org$[ebp]
	movss	xmm0, DWORD PTR tv332[ebp]
	addss	xmm0, DWORD PTR [ecx+esi]
	mov	edx, 4
	shl	edx, 0
	movss	DWORD PTR _pos$[ebp+edx], xmm0
	mov	esi, 4
	shl	esi, 1
	push	ecx
	movss	xmm0, DWORD PTR __real@40400000
	movss	DWORD PTR [esp], xmm0
	push	ecx
	movss	xmm0, DWORD PTR __real@c0400000
	movss	DWORD PTR [esp], xmm0
	call	_COM_RandomFloat
	add	esp, 8
	fstp	DWORD PTR tv345[ebp]
	mov	eax, DWORD PTR _org$[ebp]
	movss	xmm0, DWORD PTR [eax+esi]
	addss	xmm0, DWORD PTR tv345[ebp]
	movss	DWORD PTR tv166[ebp], xmm0
	mov	ecx, 4
	shl	ecx, 1
	movss	xmm0, DWORD PTR tv166[ebp]
	movss	DWORD PTR _pos$[ebp+ecx], xmm0

; 883  : 		VectorAddScalar( dir, COM_RandomFloat( -0.06f, 0.06f ), vec );

	mov	edx, 4
	imul	esi, edx, 0
	push	ecx
	movss	xmm0, DWORD PTR __real@3d75c28f
	movss	DWORD PTR [esp], xmm0
	push	ecx
	movss	xmm0, DWORD PTR __real@bd75c28f
	movss	DWORD PTR [esp], xmm0
	call	_COM_RandomFloat
	add	esp, 8
	fstp	DWORD PTR tv361[ebp]
	movss	xmm0, DWORD PTR tv361[ebp]
	addss	xmm0, DWORD PTR _dir$[ebp+esi]
	mov	eax, 4
	imul	ecx, eax, 0
	movss	DWORD PTR _vec$[ebp+ecx], xmm0
	mov	esi, 4
	shl	esi, 0
	push	ecx
	movss	xmm0, DWORD PTR __real@3d75c28f
	movss	DWORD PTR [esp], xmm0
	push	ecx
	movss	xmm0, DWORD PTR __real@bd75c28f
	movss	DWORD PTR [esp], xmm0
	call	_COM_RandomFloat
	add	esp, 8
	fstp	DWORD PTR tv373[ebp]
	movss	xmm0, DWORD PTR tv373[ebp]
	addss	xmm0, DWORD PTR _dir$[ebp+esi]
	mov	edx, 4
	shl	edx, 0
	movss	DWORD PTR _vec$[ebp+edx], xmm0
	mov	esi, 4
	shl	esi, 1
	push	ecx
	movss	xmm0, DWORD PTR __real@3d75c28f
	movss	DWORD PTR [esp], xmm0
	push	ecx
	movss	xmm0, DWORD PTR __real@bd75c28f
	movss	DWORD PTR [esp], xmm0
	call	_COM_RandomFloat
	add	esp, 8
	fstp	DWORD PTR tv385[ebp]
	movss	xmm0, DWORD PTR _dir$[ebp+esi]
	addss	xmm0, DWORD PTR tv385[ebp]
	movss	DWORD PTR tv193[ebp], xmm0
	mov	eax, 4
	shl	eax, 1
	movss	xmm0, DWORD PTR tv193[ebp]
	movss	DWORD PTR _vec$[ebp+eax], xmm0

; 884  : 
; 885  : 		for( j = 0; j < 7; j++ )

	mov	DWORD PTR _j$[ebp], 0
	jmp	SHORT $LN7@R_Blood
$LN5@R_Blood:
	mov	ecx, DWORD PTR _j$[ebp]
	add	ecx, 1
	mov	DWORD PTR _j$[ebp], ecx
$LN7@R_Blood:
	cmp	DWORD PTR _j$[ebp], 7
	jge	$LN6@R_Blood

; 886  : 		{
; 887  : 			p = R_AllocParticle( NULL );

	push	0
	call	_R_AllocParticle
	add	esp, 4
	mov	DWORD PTR _p$[ebp], eax

; 888  : 			if( !p ) return;

	cmp	DWORD PTR _p$[ebp], 0
	jne	SHORT $LN9@R_Blood
	jmp	$LN3@R_Blood
$LN9@R_Blood:

; 889  : 
; 890  : 			p->die = cl.time + 1.5f;

	movsd	xmm0, QWORD PTR _cl+1525848
	addsd	xmm0, QWORD PTR __real@3ff8000000000000
	cvtsd2ss xmm0, xmm0
	mov	edx, DWORD PTR _p$[ebp]
	movss	DWORD PTR [edx+36], xmm0

; 891  : 			p->color = pcolor + COM_RandomLong( 0, 9 );

	push	9
	push	0
	call	_COM_RandomLong
	add	esp, 8
	add	eax, DWORD PTR _pcolor$[ebp]
	mov	ecx, DWORD PTR _p$[ebp]
	mov	WORD PTR [ecx+12], ax

; 892  : 			p->type = pt_vox_grav;

	mov	edx, DWORD PTR _p$[ebp]
	mov	DWORD PTR [edx+40], 9

; 893  : 
; 894  : 			VectorAddScalar( pos, COM_RandomFloat( -1.0f, 1.0f ), p->org );

	mov	eax, 4
	imul	esi, eax, 0
	push	ecx
	movss	xmm0, DWORD PTR __real@3f800000
	movss	DWORD PTR [esp], xmm0
	push	ecx
	movss	xmm0, DWORD PTR __real@bf800000
	movss	DWORD PTR [esp], xmm0
	call	_COM_RandomFloat
	add	esp, 8
	fstp	DWORD PTR tv407[ebp]
	movss	xmm0, DWORD PTR tv407[ebp]
	addss	xmm0, DWORD PTR _pos$[ebp+esi]
	mov	ecx, 4
	imul	edx, ecx, 0
	mov	eax, DWORD PTR _p$[ebp]
	movss	DWORD PTR [eax+edx], xmm0
	mov	esi, 4
	shl	esi, 0
	push	ecx
	movss	xmm0, DWORD PTR __real@3f800000
	movss	DWORD PTR [esp], xmm0
	push	ecx
	movss	xmm0, DWORD PTR __real@bf800000
	movss	DWORD PTR [esp], xmm0
	call	_COM_RandomFloat
	add	esp, 8
	fstp	DWORD PTR tv420[ebp]
	movss	xmm0, DWORD PTR tv420[ebp]
	addss	xmm0, DWORD PTR _pos$[ebp+esi]
	mov	ecx, 4
	shl	ecx, 0
	mov	edx, DWORD PTR _p$[ebp]
	movss	DWORD PTR [edx+ecx], xmm0
	mov	esi, 4
	shl	esi, 1
	push	ecx
	movss	xmm0, DWORD PTR __real@3f800000
	movss	DWORD PTR [esp], xmm0
	push	ecx
	movss	xmm0, DWORD PTR __real@bf800000
	movss	DWORD PTR [esp], xmm0
	call	_COM_RandomFloat
	add	esp, 8
	fstp	DWORD PTR tv433[ebp]
	movss	xmm0, DWORD PTR _pos$[ebp+esi]
	addss	xmm0, DWORD PTR tv433[ebp]
	movss	DWORD PTR tv238[ebp], xmm0
	mov	eax, 4
	shl	eax, 1
	mov	ecx, DWORD PTR _p$[ebp]
	movss	xmm0, DWORD PTR tv238[ebp]
	movss	DWORD PTR [ecx+eax], xmm0

; 895  : 			VectorScale( vec, pspeed, p->vel );

	mov	edx, 4
	imul	eax, edx, 0
	movss	xmm0, DWORD PTR _vec$[ebp+eax]
	mulss	xmm0, DWORD PTR _pspeed$[ebp]
	mov	ecx, 4
	imul	edx, ecx, 0
	mov	eax, DWORD PTR _p$[ebp]
	movss	DWORD PTR [eax+edx+20], xmm0
	mov	ecx, 4
	shl	ecx, 0
	movss	xmm0, DWORD PTR _vec$[ebp+ecx]
	mulss	xmm0, DWORD PTR _pspeed$[ebp]
	mov	edx, 4
	shl	edx, 0
	mov	eax, DWORD PTR _p$[ebp]
	movss	DWORD PTR [eax+edx+20], xmm0
	mov	ecx, 4
	shl	ecx, 1
	movss	xmm0, DWORD PTR _vec$[ebp+ecx]
	mulss	xmm0, DWORD PTR _pspeed$[ebp]
	movss	DWORD PTR tv256[ebp], xmm0
	mov	edx, 4
	shl	edx, 1
	mov	eax, DWORD PTR _p$[ebp]
	movss	xmm0, DWORD PTR tv256[ebp]
	movss	DWORD PTR [eax+edx+20], xmm0

; 896  : 		}

	jmp	$LN5@R_Blood
$LN6@R_Blood:

; 897  : 	}

	jmp	$LN2@R_Blood
$LN3@R_Blood:

; 898  : }

	pop	esi
	mov	ecx, DWORD PTR __$ArrayPad$[ebp]
	xor	ecx, ebp
	call	@__security_check_cookie@4
	mov	esp, ebp
	pop	ebp
	ret	0
_R_Blood ENDP
_TEXT	ENDS
; Function compile flags: /Odtp
; File c:\users\user\downloads\xash_build4529_src\engine\client\gl_rpart.c
_TEXT	SEGMENT
tv157 = -76						; size = 4
tv136 = -72						; size = 4
tv201 = -68						; size = 4
tv191 = -64						; size = 4
tv181 = -60						; size = 4
_p$ = -56						; size = 4
_factor$ = -52						; size = 4
_dist$ = -48						; size = 4
_i$ = -44						; size = 4
_start$ = -40						; size = 12
_vel$ = -28						; size = 12
_temp$ = -16						; size = 12
__$ArrayPad$ = -4					; size = 4
_end$ = 8						; size = 4
_radius$ = 12						; size = 4
_count$ = 16						; size = 4
_life$ = 20						; size = 4
_R_Implosion PROC

; 1566 : {

	push	ebp
	mov	ebp, esp
	sub	esp, 76					; 0000004cH
	mov	eax, DWORD PTR ___security_cookie
	xor	eax, ebp
	mov	DWORD PTR __$ArrayPad$[ebp], eax

; 1567 : 	float		dist = ( radius / 100.0f );

	movss	xmm0, DWORD PTR _radius$[ebp]
	divss	xmm0, DWORD PTR __real@42c80000
	movss	DWORD PTR _dist$[ebp], xmm0

; 1568 : 	vec3_t		start, temp, vel;
; 1569 : 	float		factor;
; 1570 : 	particle_t	*p;
; 1571 : 	int		i;
; 1572 : 
; 1573 : 	if( life <= 0.0f ) life = 0.1f; // to avoid divide by zero

	xorps	xmm0, xmm0
	comiss	xmm0, DWORD PTR _life$[ebp]
	jb	SHORT $LN5@R_Implosio
	movss	xmm0, DWORD PTR __real@3dcccccd
	movss	DWORD PTR _life$[ebp], xmm0
$LN5@R_Implosio:

; 1574 : 	factor = -1.0 / life;

	cvtss2sd xmm0, DWORD PTR _life$[ebp]
	movsd	xmm1, QWORD PTR __real@bff0000000000000
	divsd	xmm1, xmm0
	cvtsd2ss xmm0, xmm1
	movss	DWORD PTR _factor$[ebp], xmm0

; 1575 : 
; 1576 : 	for ( i = 0; i < count; i++ )

	mov	DWORD PTR _i$[ebp], 0
	jmp	SHORT $LN4@R_Implosio
$LN2@R_Implosio:
	mov	eax, DWORD PTR _i$[ebp]
	add	eax, 1
	mov	DWORD PTR _i$[ebp], eax
$LN4@R_Implosio:
	mov	ecx, DWORD PTR _i$[ebp]
	cmp	ecx, DWORD PTR _count$[ebp]
	jge	$LN3@R_Implosio

; 1577 : 	{
; 1578 : 		temp[0] = dist * COM_RandomFloat( -100.0f, 100.0f );

	push	ecx
	movss	xmm0, DWORD PTR __real@42c80000
	movss	DWORD PTR [esp], xmm0
	push	ecx
	movss	xmm0, DWORD PTR __real@c2c80000
	movss	DWORD PTR [esp], xmm0
	call	_COM_RandomFloat
	add	esp, 8
	fstp	DWORD PTR tv181[ebp]
	movss	xmm0, DWORD PTR tv181[ebp]
	mulss	xmm0, DWORD PTR _dist$[ebp]
	mov	edx, 4
	imul	eax, edx, 0
	movss	DWORD PTR _temp$[ebp+eax], xmm0

; 1579 : 		temp[1] = dist * COM_RandomFloat( -100.0f, 100.0f );

	push	ecx
	movss	xmm0, DWORD PTR __real@42c80000
	movss	DWORD PTR [esp], xmm0
	push	ecx
	movss	xmm0, DWORD PTR __real@c2c80000
	movss	DWORD PTR [esp], xmm0
	call	_COM_RandomFloat
	add	esp, 8
	fstp	DWORD PTR tv191[ebp]
	movss	xmm0, DWORD PTR tv191[ebp]
	mulss	xmm0, DWORD PTR _dist$[ebp]
	mov	ecx, 4
	shl	ecx, 0
	movss	DWORD PTR _temp$[ebp+ecx], xmm0

; 1580 : 		temp[2] = dist * COM_RandomFloat( 0.0f, 100.0f );

	push	ecx
	movss	xmm0, DWORD PTR __real@42c80000
	movss	DWORD PTR [esp], xmm0
	push	ecx
	xorps	xmm0, xmm0
	movss	DWORD PTR [esp], xmm0
	call	_COM_RandomFloat
	add	esp, 8
	fstp	DWORD PTR tv201[ebp]
	movss	xmm0, DWORD PTR tv201[ebp]
	mulss	xmm0, DWORD PTR _dist$[ebp]
	mov	edx, 4
	shl	edx, 1
	movss	DWORD PTR _temp$[ebp+edx], xmm0

; 1581 : 		VectorScale( temp, factor, vel );

	mov	eax, 4
	imul	ecx, eax, 0
	movss	xmm0, DWORD PTR _temp$[ebp+ecx]
	mulss	xmm0, DWORD PTR _factor$[ebp]
	mov	edx, 4
	imul	eax, edx, 0
	movss	DWORD PTR _vel$[ebp+eax], xmm0
	mov	ecx, 4
	shl	ecx, 0
	movss	xmm0, DWORD PTR _temp$[ebp+ecx]
	mulss	xmm0, DWORD PTR _factor$[ebp]
	mov	edx, 4
	shl	edx, 0
	movss	DWORD PTR _vel$[ebp+edx], xmm0
	mov	eax, 4
	shl	eax, 1
	movss	xmm0, DWORD PTR _temp$[ebp+eax]
	mulss	xmm0, DWORD PTR _factor$[ebp]
	movss	DWORD PTR tv136[ebp], xmm0
	mov	ecx, 4
	shl	ecx, 1
	movss	xmm0, DWORD PTR tv136[ebp]
	movss	DWORD PTR _vel$[ebp+ecx], xmm0

; 1582 : 		VectorAdd( temp, end, start );

	mov	edx, 4
	imul	eax, edx, 0
	mov	ecx, 4
	imul	edx, ecx, 0
	mov	ecx, DWORD PTR _end$[ebp]
	movss	xmm0, DWORD PTR _temp$[ebp+eax]
	addss	xmm0, DWORD PTR [ecx+edx]
	mov	edx, 4
	imul	eax, edx, 0
	movss	DWORD PTR _start$[ebp+eax], xmm0
	mov	ecx, 4
	shl	ecx, 0
	mov	edx, 4
	shl	edx, 0
	mov	eax, DWORD PTR _end$[ebp]
	movss	xmm0, DWORD PTR _temp$[ebp+ecx]
	addss	xmm0, DWORD PTR [eax+edx]
	mov	ecx, 4
	shl	ecx, 0
	movss	DWORD PTR _start$[ebp+ecx], xmm0
	mov	edx, 4
	shl	edx, 1
	mov	eax, 4
	shl	eax, 1
	mov	ecx, DWORD PTR _end$[ebp]
	movss	xmm0, DWORD PTR _temp$[ebp+edx]
	addss	xmm0, DWORD PTR [ecx+eax]
	movss	DWORD PTR tv157[ebp], xmm0
	mov	edx, 4
	shl	edx, 1
	movss	xmm0, DWORD PTR tv157[ebp]
	movss	DWORD PTR _start$[ebp+edx], xmm0

; 1583 : 
; 1584 : 		if(( p = R_AllocTracer( start, vel, life )) == NULL )

	push	ecx
	movss	xmm0, DWORD PTR _life$[ebp]
	movss	DWORD PTR [esp], xmm0
	lea	eax, DWORD PTR _vel$[ebp]
	push	eax
	lea	ecx, DWORD PTR _start$[ebp]
	push	ecx
	call	_R_AllocTracer
	add	esp, 12					; 0000000cH
	mov	DWORD PTR _p$[ebp], eax
	cmp	DWORD PTR _p$[ebp], 0
	jne	SHORT $LN6@R_Implosio

; 1585 : 			return;

	jmp	SHORT $LN3@R_Implosio
$LN6@R_Implosio:

; 1586 : 
; 1587 : 		p->type = pt_explode;

	mov	edx, DWORD PTR _p$[ebp]
	mov	DWORD PTR [edx+40], 4

; 1588 : 	}

	jmp	$LN2@R_Implosio
$LN3@R_Implosio:

; 1589 : }

	mov	ecx, DWORD PTR __$ArrayPad$[ebp]
	xor	ecx, ebp
	call	@__security_check_cookie@4
	mov	esp, ebp
	pop	ebp
	ret	0
_R_Implosion ENDP
_TEXT	ENDS
; Function compile flags: /Odtp
; File c:\users\user\downloads\xash_build4529_src\engine\client\gl_rpart.c
_TEXT	SEGMENT
tv150 = -20						; size = 4
_colorMod$ = -16					; size = 4
_i$ = -12						; size = 4
_j$ = -8						; size = 4
_p$ = -4						; size = 4
_org$ = 8						; size = 4
_colorStart$ = 12					; size = 4
_colorLength$ = 16					; size = 4
_R_ParticleExplosion2 PROC

; 768  : {

	push	ebp
	mov	ebp, esp
	sub	esp, 20					; 00000014H

; 769  : 	int		i, j;
; 770  : 	int		colorMod = 0;

	mov	DWORD PTR _colorMod$[ebp], 0

; 771  : 	particle_t	*p;
; 772  : 
; 773  : 	for( i = 0; i < 512; i++ )

	mov	DWORD PTR _i$[ebp], 0
	jmp	SHORT $LN4@R_Particle
$LN2@R_Particle:
	mov	eax, DWORD PTR _i$[ebp]
	add	eax, 1
	mov	DWORD PTR _i$[ebp], eax
$LN4@R_Particle:
	cmp	DWORD PTR _i$[ebp], 512			; 00000200H
	jge	$LN3@R_Particle

; 774  : 	{
; 775  : 		p = R_AllocParticle( NULL );

	push	0
	call	_R_AllocParticle
	add	esp, 4
	mov	DWORD PTR _p$[ebp], eax

; 776  : 		if( !p ) return;

	cmp	DWORD PTR _p$[ebp], 0
	jne	SHORT $LN8@R_Particle
	jmp	$LN3@R_Particle
$LN8@R_Particle:

; 777  : 
; 778  : 		p->die = cl.time + 0.3f;

	movsd	xmm0, QWORD PTR _cl+1525848
	addsd	xmm0, QWORD PTR __real@3fd3333340000000
	cvtsd2ss xmm0, xmm0
	mov	ecx, DWORD PTR _p$[ebp]
	movss	DWORD PTR [ecx+36], xmm0

; 779  : 		p->color = colorStart + ( colorMod % colorLength );

	mov	eax, DWORD PTR _colorMod$[ebp]
	cdq
	idiv	DWORD PTR _colorLength$[ebp]
	add	edx, DWORD PTR _colorStart$[ebp]
	mov	eax, DWORD PTR _p$[ebp]
	mov	WORD PTR [eax+12], dx

; 780  : 		p->packedColor = 255; // use old code for blob particles

	mov	ecx, 255				; 000000ffH
	mov	edx, DWORD PTR _p$[ebp]
	mov	WORD PTR [edx+14], cx

; 781  : 		colorMod++;

	mov	eax, DWORD PTR _colorMod$[ebp]
	add	eax, 1
	mov	DWORD PTR _colorMod$[ebp], eax

; 782  : 
; 783  : 		p->type = pt_blob;

	mov	ecx, DWORD PTR _p$[ebp]
	mov	DWORD PTR [ecx+40], 6

; 784  : 
; 785  : 		for( j = 0; j < 3; j++ )

	mov	DWORD PTR _j$[ebp], 0
	jmp	SHORT $LN7@R_Particle
$LN5@R_Particle:
	mov	edx, DWORD PTR _j$[ebp]
	add	edx, 1
	mov	DWORD PTR _j$[ebp], edx
$LN7@R_Particle:
	cmp	DWORD PTR _j$[ebp], 3
	jge	SHORT $LN6@R_Particle

; 786  : 		{
; 787  : 			p->org[j] = org[j] + COM_RandomFloat( -16.0f, 16.0f );

	push	ecx
	movss	xmm0, DWORD PTR __real@41800000
	movss	DWORD PTR [esp], xmm0
	push	ecx
	movss	xmm0, DWORD PTR __real@c1800000
	movss	DWORD PTR [esp], xmm0
	call	_COM_RandomFloat
	add	esp, 8
	fstp	DWORD PTR tv150[ebp]
	mov	eax, DWORD PTR _j$[ebp]
	mov	ecx, DWORD PTR _org$[ebp]
	movss	xmm0, DWORD PTR tv150[ebp]
	addss	xmm0, DWORD PTR [ecx+eax*4]
	mov	edx, DWORD PTR _j$[ebp]
	mov	eax, DWORD PTR _p$[ebp]
	movss	DWORD PTR [eax+edx*4], xmm0

; 788  : 			p->vel[j] = COM_RandomFloat( -256.0f, 256.0f );

	push	ecx
	movss	xmm0, DWORD PTR __real@43800000
	movss	DWORD PTR [esp], xmm0
	push	ecx
	movss	xmm0, DWORD PTR __real@c3800000
	movss	DWORD PTR [esp], xmm0
	call	_COM_RandomFloat
	add	esp, 8
	mov	ecx, DWORD PTR _j$[ebp]
	mov	edx, DWORD PTR _p$[ebp]
	fstp	DWORD PTR [edx+ecx*4+20]

; 789  : 		}

	jmp	$LN5@R_Particle
$LN6@R_Particle:

; 790  : 	}

	jmp	$LN2@R_Particle
$LN3@R_Particle:

; 791  : }

	mov	esp, ebp
	pop	ebp
	ret	0
_R_ParticleExplosion2 ENDP
_TEXT	ENDS
; Function compile flags: /Odtp
; File c:\users\user\downloads\xash_build4529_src\engine\client\gl_rpart.c
_TEXT	SEGMENT
tv150 = -16						; size = 4
_i$ = -12						; size = 4
_j$ = -8						; size = 4
_p$ = -4						; size = 4
_org$ = 8						; size = 4
_R_ParticleExplosion PROC

; 737  : {

	push	ebp
	mov	ebp, esp
	sub	esp, 16					; 00000010H

; 738  : 	particle_t	*p;
; 739  : 	int		i, j;
; 740  : 
; 741  : 	for( i = 0; i < 1024; i++ )

	mov	DWORD PTR _i$[ebp], 0
	jmp	SHORT $LN4@R_Particle
$LN2@R_Particle:
	mov	eax, DWORD PTR _i$[ebp]
	add	eax, 1
	mov	DWORD PTR _i$[ebp], eax
$LN4@R_Particle:
	cmp	DWORD PTR _i$[ebp], 1024		; 00000400H
	jge	$LN3@R_Particle

; 742  : 	{
; 743  : 		p = R_AllocParticle( NULL );

	push	0
	call	_R_AllocParticle
	add	esp, 4
	mov	DWORD PTR _p$[ebp], eax

; 744  : 		if( !p ) return;

	cmp	DWORD PTR _p$[ebp], 0
	jne	SHORT $LN8@R_Particle
	jmp	$LN3@R_Particle
$LN8@R_Particle:

; 745  : 
; 746  : 		p->die = cl.time + 5.0f;

	movsd	xmm0, QWORD PTR _cl+1525848
	addsd	xmm0, QWORD PTR __real@4014000000000000
	cvtsd2ss xmm0, xmm0
	mov	ecx, DWORD PTR _p$[ebp]
	movss	DWORD PTR [ecx+36], xmm0

; 747  : 		p->ramp = COM_RandomLong( 0, 3 );

	push	3
	push	0
	call	_COM_RandomLong
	add	esp, 8
	cvtsi2ss xmm0, eax
	mov	edx, DWORD PTR _p$[ebp]
	movss	DWORD PTR [edx+32], xmm0

; 748  : 		p->color = ramp1[0];

	mov	eax, 4
	imul	ecx, eax, 0
	mov	edx, DWORD PTR _p$[ebp]
	mov	ax, WORD PTR _ramp1[ecx]
	mov	WORD PTR [edx+12], ax

; 749  : 
; 750  : 		for( j = 0; j < 3; j++ )

	mov	DWORD PTR _j$[ebp], 0
	jmp	SHORT $LN7@R_Particle
$LN5@R_Particle:
	mov	ecx, DWORD PTR _j$[ebp]
	add	ecx, 1
	mov	DWORD PTR _j$[ebp], ecx
$LN7@R_Particle:
	cmp	DWORD PTR _j$[ebp], 3
	jge	SHORT $LN6@R_Particle

; 751  : 		{
; 752  : 			p->org[j] = org[j] + COM_RandomFloat( -16.0f, 16.0f );

	push	ecx
	movss	xmm0, DWORD PTR __real@41800000
	movss	DWORD PTR [esp], xmm0
	push	ecx
	movss	xmm0, DWORD PTR __real@c1800000
	movss	DWORD PTR [esp], xmm0
	call	_COM_RandomFloat
	add	esp, 8
	fstp	DWORD PTR tv150[ebp]
	mov	edx, DWORD PTR _j$[ebp]
	mov	eax, DWORD PTR _org$[ebp]
	movss	xmm0, DWORD PTR tv150[ebp]
	addss	xmm0, DWORD PTR [eax+edx*4]
	mov	ecx, DWORD PTR _j$[ebp]
	mov	edx, DWORD PTR _p$[ebp]
	movss	DWORD PTR [edx+ecx*4], xmm0

; 753  : 			p->vel[j] = COM_RandomFloat( -256.0f, 256.0f );

	push	ecx
	movss	xmm0, DWORD PTR __real@43800000
	movss	DWORD PTR [esp], xmm0
	push	ecx
	movss	xmm0, DWORD PTR __real@c3800000
	movss	DWORD PTR [esp], xmm0
	call	_COM_RandomFloat
	add	esp, 8
	mov	eax, DWORD PTR _j$[ebp]
	mov	ecx, DWORD PTR _p$[ebp]
	fstp	DWORD PTR [ecx+eax*4+20]

; 754  : 		}

	jmp	$LN5@R_Particle
$LN6@R_Particle:

; 755  : 
; 756  : 		if( i & 1 ) p->type = pt_explode;

	mov	edx, DWORD PTR _i$[ebp]
	and	edx, 1
	je	SHORT $LN9@R_Particle
	mov	eax, DWORD PTR _p$[ebp]
	mov	DWORD PTR [eax+40], 4
	jmp	SHORT $LN10@R_Particle
$LN9@R_Particle:

; 757  : 		else p->type = pt_explode2;

	mov	ecx, DWORD PTR _p$[ebp]
	mov	DWORD PTR [ecx+40], 5
$LN10@R_Particle:

; 758  : 	}

	jmp	$LN2@R_Particle
$LN3@R_Particle:

; 759  : }

	mov	esp, ebp
	pop	ebp
	ret	0
_R_ParticleExplosion ENDP
_TEXT	ENDS
; Function compile flags: /Odtp
; File c:\users\user\downloads\xash_build4529_src\engine\client\gl_rpart.c
_TEXT	SEGMENT
_p$ = -4						; size = 4
_callback$ = 8						; size = 4
_R_AllocParticle PROC

; 214  : {

	push	ebp
	mov	ebp, esp
	push	ecx

; 215  : 	particle_t	*p;
; 216  : 
; 217  : 	if( !cl_draw_particles->value )

	mov	eax, DWORD PTR _cl_draw_particles
	movss	xmm0, DWORD PTR [eax+12]
	ucomiss	xmm0, DWORD PTR __real@00000000
	lahf
	test	ah, 68					; 00000044H
	jp	SHORT $LN2@R_AllocPar

; 218  : 		return NULL;

	xor	eax, eax
	jmp	$LN1@R_AllocPar
$LN2@R_AllocPar:

; 219  : 
; 220  : 	// never alloc particles when we not in game
; 221  : 	if( tr.frametime == 0.0 ) return NULL;

	movsd	xmm0, QWORD PTR _tr+66968
	ucomisd	xmm0, QWORD PTR __real@0000000000000000
	lahf
	test	ah, 68					; 00000044H
	jp	SHORT $LN3@R_AllocPar
	xor	eax, eax
	jmp	$LN1@R_AllocPar
$LN3@R_AllocPar:

; 222  : 
; 223  : 	if( !cl_free_particles )

	cmp	DWORD PTR _cl_free_particles, 0
	jne	SHORT $LN4@R_AllocPar

; 224  : 	{
; 225  : 		if( cl_lasttimewarn < host.realtime )

	cvtss2sd xmm0, DWORD PTR _cl_lasttimewarn
	movsd	xmm1, QWORD PTR _host+1440
	comisd	xmm1, xmm0
	jbe	SHORT $LN5@R_AllocPar

; 226  : 		{
; 227  : 			// don't spam about overflow
; 228  : 			Con_DPrintf( S_ERROR "Overflow %d particles\n", GI->max_particles );

	mov	ecx, DWORD PTR _SI+768
	mov	edx, DWORD PTR [ecx+1668]
	push	edx
	push	OFFSET $SG145588
	call	_Con_DPrintf
	add	esp, 8

; 229  : 			cl_lasttimewarn = host.realtime + 1.0f;

	movsd	xmm0, QWORD PTR _host+1440
	addsd	xmm0, QWORD PTR __real@3ff0000000000000
	cvtsd2ss xmm0, xmm0
	movss	DWORD PTR _cl_lasttimewarn, xmm0
$LN5@R_AllocPar:

; 230  : 		}
; 231  : 		return NULL;

	xor	eax, eax
	jmp	$LN1@R_AllocPar
$LN4@R_AllocPar:

; 232  : 	}
; 233  : 
; 234  : 	p = cl_free_particles;

	mov	eax, DWORD PTR _cl_free_particles
	mov	DWORD PTR _p$[ebp], eax

; 235  : 	cl_free_particles = p->next;

	mov	ecx, DWORD PTR _p$[ebp]
	mov	edx, DWORD PTR [ecx+16]
	mov	DWORD PTR _cl_free_particles, edx

; 236  : 	p->next = cl_active_particles;

	mov	eax, DWORD PTR _p$[ebp]
	mov	ecx, DWORD PTR _cl_active_particles
	mov	DWORD PTR [eax+16], ecx

; 237  : 	cl_active_particles = p;

	mov	edx, DWORD PTR _p$[ebp]
	mov	DWORD PTR _cl_active_particles, edx

; 238  : 
; 239  : 	// clear old particle
; 240  : 	p->type = pt_static;

	mov	eax, DWORD PTR _p$[ebp]
	mov	DWORD PTR [eax+40], 0

; 241  : 	VectorClear( p->vel );

	mov	ecx, 4
	shl	ecx, 1
	mov	edx, DWORD PTR _p$[ebp]
	xorps	xmm0, xmm0
	movss	DWORD PTR [edx+ecx+20], xmm0
	mov	eax, 4
	shl	eax, 0
	mov	ecx, DWORD PTR _p$[ebp]
	xorps	xmm0, xmm0
	movss	DWORD PTR [ecx+eax+20], xmm0
	mov	edx, 4
	imul	eax, edx, 0
	mov	ecx, DWORD PTR _p$[ebp]
	xorps	xmm0, xmm0
	movss	DWORD PTR [ecx+eax+20], xmm0

; 242  : 	VectorClear( p->org );

	mov	edx, 4
	shl	edx, 1
	mov	eax, DWORD PTR _p$[ebp]
	xorps	xmm0, xmm0
	movss	DWORD PTR [eax+edx], xmm0
	mov	ecx, 4
	shl	ecx, 0
	mov	edx, DWORD PTR _p$[ebp]
	xorps	xmm0, xmm0
	movss	DWORD PTR [edx+ecx], xmm0
	mov	eax, 4
	imul	ecx, eax, 0
	mov	edx, DWORD PTR _p$[ebp]
	xorps	xmm0, xmm0
	movss	DWORD PTR [edx+ecx], xmm0

; 243  : 	p->packedColor = 0;

	xor	eax, eax
	mov	ecx, DWORD PTR _p$[ebp]
	mov	WORD PTR [ecx+14], ax

; 244  : 	p->die = cl.time;

	cvtsd2ss xmm0, QWORD PTR _cl+1525848
	mov	edx, DWORD PTR _p$[ebp]
	movss	DWORD PTR [edx+36], xmm0

; 245  : 	p->color = 0;

	xor	eax, eax
	mov	ecx, DWORD PTR _p$[ebp]
	mov	WORD PTR [ecx+12], ax

; 246  : 	p->ramp = 0;

	mov	edx, DWORD PTR _p$[ebp]
	xorps	xmm0, xmm0
	movss	DWORD PTR [edx+32], xmm0

; 247  : 
; 248  : 	if( callback )

	cmp	DWORD PTR _callback$[ebp], 0
	je	SHORT $LN6@R_AllocPar

; 249  : 	{
; 250  : 		p->type = pt_clientcustom;

	mov	eax, DWORD PTR _p$[ebp]
	mov	DWORD PTR [eax+40], 10			; 0000000aH

; 251  : 		p->callback = callback;

	mov	ecx, DWORD PTR _p$[ebp]
	mov	edx, DWORD PTR _callback$[ebp]
	mov	DWORD PTR [ecx+48], edx
$LN6@R_AllocPar:

; 252  : 	}
; 253  : 
; 254  : 	return p;

	mov	eax, DWORD PTR _p$[ebp]
$LN1@R_AllocPar:

; 255  : }

	mov	esp, ebp
	pop	ebp
	ret	0
_R_AllocParticle ENDP
_TEXT	ENDS
; Function compile flags: /Odtp
; File c:\users\user\downloads\xash_build4529_src\engine\client\gl_rpart.c
_TEXT	SEGMENT
_afile$ = -352						; size = 4
_count$ = -348						; size = 4
_pfile$ = -344						; size = 4
_p$ = -340						; size = 4
_org$ = -336						; size = 12
_token$ = -324						; size = 256
_filename$ = -68					; size = 64
__$ArrayPad$ = -4					; size = 4
_CL_ReadPointFile_f PROC

; 1598 : {

	push	ebp
	mov	ebp, esp
	sub	esp, 352				; 00000160H
	mov	eax, DWORD PTR ___security_cookie
	xor	eax, ebp
	mov	DWORD PTR __$ArrayPad$[ebp], eax

; 1599 : 	char		*afile, *pfile;
; 1600 : 	vec3_t		org;
; 1601 : 	int		count;
; 1602 : 	particle_t	*p;
; 1603 : 	char		filename[64];
; 1604 : 	string		token;
; 1605 : 	
; 1606 : 	Q_snprintf( filename, sizeof( filename ), "maps/%s.pts", clgame.mapname );

	push	OFFSET _clgame+232
	push	OFFSET $SG146235
	push	64					; 00000040H
	lea	eax, DWORD PTR _filename$[ebp]
	push	eax
	call	_Q_snprintf
	add	esp, 16					; 00000010H

; 1607 : 	afile = FS_LoadFile( filename, NULL, false );

	push	0
	push	0
	lea	ecx, DWORD PTR _filename$[ebp]
	push	ecx
	call	_FS_LoadFile
	add	esp, 12					; 0000000cH
	mov	DWORD PTR _afile$[ebp], eax

; 1608 : 
; 1609 : 	if( !afile )

	cmp	DWORD PTR _afile$[ebp], 0
	jne	SHORT $LN4@CL_ReadPoi

; 1610 : 	{
; 1611 : 		Con_Printf( S_ERROR "couldn't open %s\n", filename );

	lea	edx, DWORD PTR _filename$[ebp]
	push	edx
	push	OFFSET $SG146237
	call	_Con_Printf
	add	esp, 8

; 1612 : 		return;

	jmp	$LN10@CL_ReadPoi
$LN4@CL_ReadPoi:

; 1613 : 	}
; 1614 : 	
; 1615 : 	Con_Printf( "Reading %s...\n", filename );

	lea	eax, DWORD PTR _filename$[ebp]
	push	eax
	push	OFFSET $SG146238
	call	_Con_Printf
	add	esp, 8

; 1616 : 
; 1617 : 	count = 0;

	mov	DWORD PTR _count$[ebp], 0

; 1618 : 	pfile = afile;

	mov	ecx, DWORD PTR _afile$[ebp]
	mov	DWORD PTR _pfile$[ebp], ecx
$LN2@CL_ReadPoi:

; 1619 : 
; 1620 : 	while( 1 )

	mov	edx, 1
	test	edx, edx
	je	$LN3@CL_ReadPoi

; 1621 : 	{
; 1622 : 		pfile = COM_ParseFile( pfile, token );

	lea	eax, DWORD PTR _token$[ebp]
	push	eax
	mov	ecx, DWORD PTR _pfile$[ebp]
	push	ecx
	call	_COM_ParseFile
	add	esp, 8
	mov	DWORD PTR _pfile$[ebp], eax

; 1623 : 		if( !pfile ) break;

	cmp	DWORD PTR _pfile$[ebp], 0
	jne	SHORT $LN5@CL_ReadPoi
	jmp	$LN3@CL_ReadPoi
$LN5@CL_ReadPoi:

; 1624 : 		org[0] = Q_atof( token );

	lea	edx, DWORD PTR _token$[ebp]
	push	edx
	call	_Q_atof
	add	esp, 4
	mov	eax, 4
	imul	ecx, eax, 0
	fstp	DWORD PTR _org$[ebp+ecx]

; 1625 : 
; 1626 : 		pfile = COM_ParseFile( pfile, token );

	lea	edx, DWORD PTR _token$[ebp]
	push	edx
	mov	eax, DWORD PTR _pfile$[ebp]
	push	eax
	call	_COM_ParseFile
	add	esp, 8
	mov	DWORD PTR _pfile$[ebp], eax

; 1627 : 		if( !pfile ) break;

	cmp	DWORD PTR _pfile$[ebp], 0
	jne	SHORT $LN6@CL_ReadPoi
	jmp	$LN3@CL_ReadPoi
$LN6@CL_ReadPoi:

; 1628 : 		org[1] = Q_atof( token );

	lea	ecx, DWORD PTR _token$[ebp]
	push	ecx
	call	_Q_atof
	add	esp, 4
	mov	edx, 4
	shl	edx, 0
	fstp	DWORD PTR _org$[ebp+edx]

; 1629 : 
; 1630 : 		pfile = COM_ParseFile( pfile, token );

	lea	eax, DWORD PTR _token$[ebp]
	push	eax
	mov	ecx, DWORD PTR _pfile$[ebp]
	push	ecx
	call	_COM_ParseFile
	add	esp, 8
	mov	DWORD PTR _pfile$[ebp], eax

; 1631 : 		if( !pfile ) break;

	cmp	DWORD PTR _pfile$[ebp], 0
	jne	SHORT $LN7@CL_ReadPoi
	jmp	$LN3@CL_ReadPoi
$LN7@CL_ReadPoi:

; 1632 : 		org[2] = Q_atof( token );

	lea	edx, DWORD PTR _token$[ebp]
	push	edx
	call	_Q_atof
	add	esp, 4
	mov	eax, 4
	shl	eax, 1
	fstp	DWORD PTR _org$[ebp+eax]

; 1633 : 
; 1634 : 		count++;

	mov	ecx, DWORD PTR _count$[ebp]
	add	ecx, 1
	mov	DWORD PTR _count$[ebp], ecx

; 1635 : 		
; 1636 : 		if( !cl_free_particles )

	cmp	DWORD PTR _cl_free_particles, 0
	jne	SHORT $LN8@CL_ReadPoi

; 1637 : 		{
; 1638 : 			Con_Printf( S_ERROR "not enough free particles!\n" );

	push	OFFSET $SG146243
	call	_Con_Printf
	add	esp, 4

; 1639 : 			break;

	jmp	$LN3@CL_ReadPoi
$LN8@CL_ReadPoi:

; 1640 : 		}
; 1641 : 
; 1642 : 		// NOTE: can't use R_AllocParticle because this command
; 1643 : 		// may be executed from the console, while frametime is 0
; 1644 : 		p = cl_free_particles;

	mov	edx, DWORD PTR _cl_free_particles
	mov	DWORD PTR _p$[ebp], edx

; 1645 : 		cl_free_particles = p->next;

	mov	eax, DWORD PTR _p$[ebp]
	mov	ecx, DWORD PTR [eax+16]
	mov	DWORD PTR _cl_free_particles, ecx

; 1646 : 		p->next = cl_active_particles;

	mov	edx, DWORD PTR _p$[ebp]
	mov	eax, DWORD PTR _cl_active_particles
	mov	DWORD PTR [edx+16], eax

; 1647 : 		cl_active_particles = p;

	mov	ecx, DWORD PTR _p$[ebp]
	mov	DWORD PTR _cl_active_particles, ecx

; 1648 : 
; 1649 : 		p->ramp = 0;		

	mov	edx, DWORD PTR _p$[ebp]
	xorps	xmm0, xmm0
	movss	DWORD PTR [edx+32], xmm0

; 1650 : 		p->type = pt_static;

	mov	eax, DWORD PTR _p$[ebp]
	mov	DWORD PTR [eax+40], 0

; 1651 : 		p->die = cl.time + 99999;

	movsd	xmm0, QWORD PTR _cl+1525848
	addsd	xmm0, QWORD PTR __real@40f869f000000000
	cvtsd2ss xmm0, xmm0
	mov	ecx, DWORD PTR _p$[ebp]
	movss	DWORD PTR [ecx+36], xmm0

; 1652 : 		p->color = (-count) & 15;

	mov	edx, DWORD PTR _count$[ebp]
	neg	edx
	and	edx, 15					; 0000000fH
	mov	eax, DWORD PTR _p$[ebp]
	mov	WORD PTR [eax+12], dx

; 1653 : 		VectorCopy( org, p->org );

	mov	ecx, 4
	imul	edx, ecx, 0
	mov	eax, 4
	imul	ecx, eax, 0
	mov	eax, DWORD PTR _p$[ebp]
	mov	edx, DWORD PTR _org$[ebp+edx]
	mov	DWORD PTR [eax+ecx], edx
	mov	eax, 4
	shl	eax, 0
	mov	ecx, 4
	shl	ecx, 0
	mov	edx, DWORD PTR _p$[ebp]
	mov	eax, DWORD PTR _org$[ebp+eax]
	mov	DWORD PTR [edx+ecx], eax
	mov	ecx, 4
	shl	ecx, 1
	mov	edx, 4
	shl	edx, 1
	mov	eax, DWORD PTR _p$[ebp]
	mov	ecx, DWORD PTR _org$[ebp+ecx]
	mov	DWORD PTR [eax+edx], ecx

; 1654 : 		VectorClear( p->vel );

	mov	edx, 4
	shl	edx, 1
	mov	eax, DWORD PTR _p$[ebp]
	xorps	xmm0, xmm0
	movss	DWORD PTR [eax+edx+20], xmm0
	mov	ecx, 4
	shl	ecx, 0
	mov	edx, DWORD PTR _p$[ebp]
	xorps	xmm0, xmm0
	movss	DWORD PTR [edx+ecx+20], xmm0
	mov	eax, 4
	imul	ecx, eax, 0
	mov	edx, DWORD PTR _p$[ebp]
	xorps	xmm0, xmm0
	movss	DWORD PTR [edx+ecx+20], xmm0

; 1655 : 	}

	jmp	$LN2@CL_ReadPoi
$LN3@CL_ReadPoi:

; 1656 : 
; 1657 : 	Mem_Free( afile );

	push	1657					; 00000679H
	push	OFFSET $SG146244
	mov	eax, DWORD PTR _afile$[ebp]
	push	eax
	call	__Mem_Free
	add	esp, 12					; 0000000cH

; 1658 : 
; 1659 : 	if( count ) Con_Printf( "%i points read\n", count );

	cmp	DWORD PTR _count$[ebp], 0
	je	SHORT $LN9@CL_ReadPoi
	mov	ecx, DWORD PTR _count$[ebp]
	push	ecx
	push	OFFSET $SG146247
	call	_Con_Printf
	add	esp, 8
	jmp	SHORT $LN10@CL_ReadPoi
$LN9@CL_ReadPoi:

; 1660 : 	else Con_Printf( "map %s has no leaks!\n", clgame.mapname );

	push	OFFSET _clgame+232
	push	OFFSET $SG146248
	call	_Con_Printf
	add	esp, 8
$LN10@CL_ReadPoi:

; 1661 : }

	mov	ecx, DWORD PTR __$ArrayPad$[ebp]
	xor	ecx, ebp
	call	@__security_check_cookie@4
	mov	esp, ebp
	pop	ebp
	ret	0
_CL_ReadPointFile_f ENDP
_TEXT	ENDS
; Function compile flags: /Odtp
; File c:\users\user\downloads\xash_build4529_src\engine\client\gl_rpart.c
_TEXT	SEGMENT
tv603 = -216						; size = 4
tv528 = -212						; size = 4
tv495 = -208						; size = 4
tv462 = -204						; size = 4
tv435 = -200						; size = 4
tv408 = -196						; size = 4
tv387 = -192						; size = 4
tv348 = -188						; size = 4
tv271 = -184						; size = 4
tv226 = -180						; size = 4
tv202 = -176						; size = 4
_gravity$ = -172					; size = 4
_pColor$1 = -168					; size = 4
_scale$ = -164						; size = 4
_atten$ = -160						; size = 4
_ilength$2 = -156					; size = 4
_p$ = -152						; size = 4
_screenLast$ = -148					; size = 12
_screen$ = -136						; size = 12
_end$ = -124						; size = 12
_verts$3 = -112						; size = 48
_tmp2$4 = -64						; size = 12
_start$ = -52						; size = 12
_delta$ = -40						; size = 12
_normal$5 = -28						; size = 12
_tmp$6 = -16						; size = 12
__$ArrayPad$ = -4					; size = 4
_frametime$ = 8						; size = 8
_CL_DrawTracers PROC

; 551  : {

	push	ebp
	mov	ebp, esp
	sub	esp, 216				; 000000d8H
	mov	eax, DWORD PTR ___security_cookie
	xor	eax, ebp
	mov	DWORD PTR __$ArrayPad$[ebp], eax

; 552  : 	float		scale, atten, gravity;
; 553  : 	vec3_t		screenLast, screen;
; 554  : 	vec3_t		start, end, delta;
; 555  : 	particle_t	*p;
; 556  : 
; 557  : 	if( !cl_draw_tracers->value )

	mov	eax, DWORD PTR _cl_draw_tracers
	movss	xmm0, DWORD PTR [eax+12]
	ucomiss	xmm0, DWORD PTR __real@00000000
	lahf
	test	ah, 68					; 00000044H
	jp	SHORT $LN5@CL_DrawTra

; 558  : 		return;

	jmp	$LN1@CL_DrawTra
$LN5@CL_DrawTra:

; 559  : 
; 560  : 	// update tracer color if this is changed
; 561  : 	if( FBitSet( tracerred->flags|tracergreen->flags|tracerblue->flags|traceralpha->flags, FCVAR_CHANGED ))

	mov	ecx, DWORD PTR _tracerred
	mov	edx, DWORD PTR _tracergreen
	mov	eax, DWORD PTR [ecx+8]
	or	eax, DWORD PTR [edx+8]
	mov	ecx, DWORD PTR _tracerblue
	or	eax, DWORD PTR [ecx+8]
	mov	edx, DWORD PTR _traceralpha
	or	eax, DWORD PTR [edx+8]
	and	eax, 8192				; 00002000H
	je	$LN6@CL_DrawTra

; 562  : 	{
; 563  : 		gTracerColors[4].r = (byte)(tracerred->value * traceralpha->value * 255);

	mov	eax, DWORD PTR _tracerred
	mov	ecx, DWORD PTR _traceralpha
	movss	xmm0, DWORD PTR [eax+12]
	mulss	xmm0, DWORD PTR [ecx+12]
	mulss	xmm0, DWORD PTR __real@437f0000
	cvttss2si edx, xmm0
	mov	eax, 3
	shl	eax, 2
	mov	BYTE PTR _gTracerColors[eax], dl

; 564  : 		gTracerColors[4].g = (byte)(tracergreen->value * traceralpha->value * 255);

	mov	ecx, DWORD PTR _tracergreen
	mov	edx, DWORD PTR _traceralpha
	movss	xmm0, DWORD PTR [ecx+12]
	mulss	xmm0, DWORD PTR [edx+12]
	mulss	xmm0, DWORD PTR __real@437f0000
	cvttss2si eax, xmm0
	mov	ecx, 3
	shl	ecx, 2
	mov	BYTE PTR _gTracerColors[ecx+1], al

; 565  : 		gTracerColors[4].b = (byte)(tracerblue->value * traceralpha->value * 255);

	mov	edx, DWORD PTR _tracerblue
	mov	eax, DWORD PTR _traceralpha
	movss	xmm0, DWORD PTR [edx+12]
	mulss	xmm0, DWORD PTR [eax+12]
	mulss	xmm0, DWORD PTR __real@437f0000
	cvttss2si ecx, xmm0
	mov	edx, 3
	shl	edx, 2
	mov	BYTE PTR _gTracerColors[edx+2], cl

; 566  : 		ClearBits( tracerred->flags, FCVAR_CHANGED );

	mov	eax, DWORD PTR _tracerred
	mov	ecx, DWORD PTR [eax+8]
	and	ecx, -8193				; ffffdfffH
	mov	edx, DWORD PTR _tracerred
	mov	DWORD PTR [edx+8], ecx

; 567  : 		ClearBits( tracergreen->flags, FCVAR_CHANGED );

	mov	eax, DWORD PTR _tracergreen
	mov	ecx, DWORD PTR [eax+8]
	and	ecx, -8193				; ffffdfffH
	mov	edx, DWORD PTR _tracergreen
	mov	DWORD PTR [edx+8], ecx

; 568  : 		ClearBits( tracerblue->flags, FCVAR_CHANGED );

	mov	eax, DWORD PTR _tracerblue
	mov	ecx, DWORD PTR [eax+8]
	and	ecx, -8193				; ffffdfffH
	mov	edx, DWORD PTR _tracerblue
	mov	DWORD PTR [edx+8], ecx

; 569  : 		ClearBits( traceralpha->flags, FCVAR_CHANGED );

	mov	eax, DWORD PTR _traceralpha
	mov	ecx, DWORD PTR [eax+8]
	and	ecx, -8193				; ffffdfffH
	mov	edx, DWORD PTR _traceralpha
	mov	DWORD PTR [edx+8], ecx
$LN6@CL_DrawTra:

; 570  : 	}
; 571  : 
; 572  : 	R_FreeDeadParticles( &cl_active_tracers );

	push	OFFSET _cl_active_tracers
	call	_R_FreeDeadParticles
	add	esp, 4

; 573  : 
; 574  : 	if( !cl_active_tracers )

	cmp	DWORD PTR _cl_active_tracers, 0
	jne	SHORT $LN7@CL_DrawTra

; 575  : 		return;	// nothing to draw?

	jmp	$LN1@CL_DrawTra
$LN7@CL_DrawTra:

; 576  : 
; 577  : 	if( !TriSpriteTexture( cl_sprite_dot, 0 ))

	push	0
	mov	eax, DWORD PTR _cl_sprite_dot
	push	eax
	call	_TriSpriteTexture
	add	esp, 8
	test	eax, eax
	jne	SHORT $LN8@CL_DrawTra

; 578  : 		return;

	jmp	$LN1@CL_DrawTra
$LN8@CL_DrawTra:

; 579  : 
; 580  : 	pglEnable( GL_BLEND );

	push	3042					; 00000be2H
	call	DWORD PTR _pglEnable

; 581  : 	pglBlendFunc( GL_SRC_ALPHA, GL_ONE );

	push	1
	push	770					; 00000302H
	call	DWORD PTR _pglBlendFunc

; 582  : 	pglDisable( GL_ALPHA_TEST );

	push	3008					; 00000bc0H
	call	DWORD PTR _pglDisable

; 583  : 	pglDepthMask( GL_FALSE );

	push	0
	call	DWORD PTR _pglDepthMask

; 584  : 
; 585  : 	gravity = frametime * clgame.movevars.gravity;

	cvtss2sd xmm0, DWORD PTR _clgame+1028
	mulsd	xmm0, QWORD PTR _frametime$[ebp]
	cvtsd2ss xmm0, xmm0
	movss	DWORD PTR _gravity$[ebp], xmm0

; 586  : 	scale = 1.0 - (frametime * 0.9);

	movsd	xmm0, QWORD PTR _frametime$[ebp]
	mulsd	xmm0, QWORD PTR __real@3feccccccccccccd
	movsd	xmm1, QWORD PTR __real@3ff0000000000000
	subsd	xmm1, xmm0
	cvtsd2ss xmm0, xmm1
	movss	DWORD PTR _scale$[ebp], xmm0

; 587  : 	if( scale < 0.0f ) scale = 0.0f;

	xorps	xmm0, xmm0
	comiss	xmm0, DWORD PTR _scale$[ebp]
	jbe	SHORT $LN9@CL_DrawTra
	xorps	xmm0, xmm0
	movss	DWORD PTR _scale$[ebp], xmm0
$LN9@CL_DrawTra:

; 588  : 
; 589  : 	for( p = cl_active_tracers; p; p = p->next )

	mov	ecx, DWORD PTR _cl_active_tracers
	mov	DWORD PTR _p$[ebp], ecx
	jmp	SHORT $LN4@CL_DrawTra
$LN2@CL_DrawTra:
	mov	edx, DWORD PTR _p$[ebp]
	mov	eax, DWORD PTR [edx+16]
	mov	DWORD PTR _p$[ebp], eax
$LN4@CL_DrawTra:
	cmp	DWORD PTR _p$[ebp], 0
	je	$LN3@CL_DrawTra

; 590  : 	{
; 591  : 		atten = (p->die - cl.time);

	mov	ecx, DWORD PTR _p$[ebp]
	cvtss2sd xmm0, DWORD PTR [ecx+36]
	subsd	xmm0, QWORD PTR _cl+1525848
	cvtsd2ss xmm0, xmm0
	movss	DWORD PTR _atten$[ebp], xmm0

; 592  : 		if( atten > 0.1f ) atten = 0.1f;

	movss	xmm0, DWORD PTR _atten$[ebp]
	comiss	xmm0, DWORD PTR __real@3dcccccd
	jbe	SHORT $LN10@CL_DrawTra
	movss	xmm0, DWORD PTR __real@3dcccccd
	movss	DWORD PTR _atten$[ebp], xmm0
$LN10@CL_DrawTra:

; 593  : 
; 594  : 		VectorScale( p->vel, ( p->ramp * atten ), delta );

	mov	edx, 4
	imul	eax, edx, 0
	mov	ecx, DWORD PTR _p$[ebp]
	movss	xmm0, DWORD PTR [ecx+32]
	mulss	xmm0, DWORD PTR _atten$[ebp]
	mov	edx, DWORD PTR _p$[ebp]
	mulss	xmm0, DWORD PTR [edx+eax+20]
	mov	eax, 4
	imul	ecx, eax, 0
	movss	DWORD PTR _delta$[ebp+ecx], xmm0
	mov	edx, 4
	shl	edx, 0
	mov	eax, DWORD PTR _p$[ebp]
	movss	xmm0, DWORD PTR [eax+32]
	mulss	xmm0, DWORD PTR _atten$[ebp]
	mov	ecx, DWORD PTR _p$[ebp]
	mulss	xmm0, DWORD PTR [ecx+edx+20]
	mov	edx, 4
	shl	edx, 0
	movss	DWORD PTR _delta$[ebp+edx], xmm0
	mov	eax, 4
	shl	eax, 1
	mov	ecx, DWORD PTR _p$[ebp]
	movss	xmm0, DWORD PTR [ecx+32]
	mulss	xmm0, DWORD PTR _atten$[ebp]
	mov	edx, DWORD PTR _p$[ebp]
	movss	xmm1, DWORD PTR [edx+eax+20]
	mulss	xmm1, xmm0
	movss	DWORD PTR tv202[ebp], xmm1
	mov	eax, 4
	shl	eax, 1
	movss	xmm0, DWORD PTR tv202[ebp]
	movss	DWORD PTR _delta$[ebp+eax], xmm0

; 595  : 		VectorAdd( p->org, delta, end );

	mov	ecx, 4
	imul	edx, ecx, 0
	mov	eax, 4
	imul	ecx, eax, 0
	mov	eax, DWORD PTR _p$[ebp]
	movss	xmm0, DWORD PTR [eax+edx]
	addss	xmm0, DWORD PTR _delta$[ebp+ecx]
	mov	ecx, 4
	imul	edx, ecx, 0
	movss	DWORD PTR _end$[ebp+edx], xmm0
	mov	eax, 4
	shl	eax, 0
	mov	ecx, 4
	shl	ecx, 0
	mov	edx, DWORD PTR _p$[ebp]
	movss	xmm0, DWORD PTR [edx+eax]
	addss	xmm0, DWORD PTR _delta$[ebp+ecx]
	mov	eax, 4
	shl	eax, 0
	movss	DWORD PTR _end$[ebp+eax], xmm0
	mov	ecx, 4
	shl	ecx, 1
	mov	edx, 4
	shl	edx, 1
	mov	eax, DWORD PTR _p$[ebp]
	movss	xmm0, DWORD PTR [eax+ecx]
	addss	xmm0, DWORD PTR _delta$[ebp+edx]
	movss	DWORD PTR tv226[ebp], xmm0
	mov	ecx, 4
	shl	ecx, 1
	movss	xmm0, DWORD PTR tv226[ebp]
	movss	DWORD PTR _end$[ebp+ecx], xmm0

; 596  : 		VectorCopy( p->org, start );

	mov	edx, 4
	imul	eax, edx, 0
	mov	ecx, 4
	imul	edx, ecx, 0
	mov	ecx, DWORD PTR _p$[ebp]
	mov	eax, DWORD PTR [ecx+eax]
	mov	DWORD PTR _start$[ebp+edx], eax
	mov	ecx, 4
	shl	ecx, 0
	mov	edx, 4
	shl	edx, 0
	mov	eax, DWORD PTR _p$[ebp]
	mov	ecx, DWORD PTR [eax+ecx]
	mov	DWORD PTR _start$[ebp+edx], ecx
	mov	edx, 4
	shl	edx, 1
	mov	eax, 4
	shl	eax, 1
	mov	ecx, DWORD PTR _p$[ebp]
	mov	edx, DWORD PTR [ecx+edx]
	mov	DWORD PTR _start$[ebp+eax], edx

; 597  : 
; 598  : 		if( !CL_CullTracer( p, start, end ))

	lea	eax, DWORD PTR _end$[ebp]
	push	eax
	lea	ecx, DWORD PTR _start$[ebp]
	push	ecx
	mov	edx, DWORD PTR _p$[ebp]
	push	edx
	call	_CL_CullTracer
	add	esp, 12					; 0000000cH
	test	eax, eax
	jne	$LN11@CL_DrawTra

; 599  : 		{
; 600  : 			vec3_t	verts[4], tmp2;
; 601  : 			vec3_t	tmp, normal;
; 602  : 			color24	*pColor;
; 603  : 
; 604  : 			// Transform point into screen space
; 605  : 			TriWorldToScreen( start, screen );

	lea	eax, DWORD PTR _screen$[ebp]
	push	eax
	lea	ecx, DWORD PTR _start$[ebp]
	push	ecx
	call	_TriWorldToScreen
	add	esp, 8

; 606  : 			TriWorldToScreen( end, screenLast );

	lea	edx, DWORD PTR _screenLast$[ebp]
	push	edx
	lea	eax, DWORD PTR _end$[ebp]
	push	eax
	call	_TriWorldToScreen
	add	esp, 8

; 607  : 
; 608  : 			// build world-space normal to screen-space direction vector
; 609  : 			VectorSubtract( screen, screenLast, tmp );

	mov	ecx, 4
	imul	edx, ecx, 0
	mov	eax, 4
	imul	ecx, eax, 0
	movss	xmm0, DWORD PTR _screen$[ebp+edx]
	subss	xmm0, DWORD PTR _screenLast$[ebp+ecx]
	mov	edx, 4
	imul	eax, edx, 0
	movss	DWORD PTR _tmp$6[ebp+eax], xmm0
	mov	ecx, 4
	shl	ecx, 0
	mov	edx, 4
	shl	edx, 0
	movss	xmm0, DWORD PTR _screen$[ebp+ecx]
	subss	xmm0, DWORD PTR _screenLast$[ebp+edx]
	mov	eax, 4
	shl	eax, 0
	movss	DWORD PTR _tmp$6[ebp+eax], xmm0
	mov	ecx, 4
	shl	ecx, 1
	mov	edx, 4
	shl	edx, 1
	movss	xmm0, DWORD PTR _screen$[ebp+ecx]
	subss	xmm0, DWORD PTR _screenLast$[ebp+edx]
	movss	DWORD PTR tv271[ebp], xmm0
	mov	eax, 4
	shl	eax, 1
	movss	xmm0, DWORD PTR tv271[ebp]
	movss	DWORD PTR _tmp$6[ebp+eax], xmm0

; 610  : 
; 611  : 			// we don't need Z, we're in screen space
; 612  : 			tmp[2] = 0;

	mov	ecx, 4
	shl	ecx, 1
	xorps	xmm0, xmm0
	movss	DWORD PTR _tmp$6[ebp+ecx], xmm0

; 613  : 			VectorNormalize( tmp );

	mov	edx, 4
	imul	eax, edx, 0
	mov	ecx, 4
	imul	edx, ecx, 0
	movss	xmm0, DWORD PTR _tmp$6[ebp+eax]
	mulss	xmm0, DWORD PTR _tmp$6[ebp+edx]
	mov	eax, 4
	shl	eax, 0
	mov	ecx, 4
	shl	ecx, 0
	movss	xmm1, DWORD PTR _tmp$6[ebp+eax]
	mulss	xmm1, DWORD PTR _tmp$6[ebp+ecx]
	addss	xmm0, xmm1
	mov	edx, 4
	shl	edx, 1
	mov	eax, 4
	shl	eax, 1
	movss	xmm1, DWORD PTR _tmp$6[ebp+edx]
	mulss	xmm1, DWORD PTR _tmp$6[ebp+eax]
	addss	xmm0, xmm1
	cvtss2sd xmm0, xmm0
	sub	esp, 8
	movsd	QWORD PTR [esp], xmm0
	call	_sqrt
	add	esp, 8
	fstp	DWORD PTR _ilength$2[ebp]
	movss	xmm0, DWORD PTR _ilength$2[ebp]
	ucomiss	xmm0, DWORD PTR __real@00000000
	lahf
	test	ah, 68					; 00000044H
	jnp	SHORT $LN12@CL_DrawTra
	movss	xmm0, DWORD PTR __real@3f800000
	divss	xmm0, DWORD PTR _ilength$2[ebp]
	movss	DWORD PTR _ilength$2[ebp], xmm0
$LN12@CL_DrawTra:
	mov	ecx, 4
	imul	edx, ecx, 0
	movss	xmm0, DWORD PTR _tmp$6[ebp+edx]
	mulss	xmm0, DWORD PTR _ilength$2[ebp]
	mov	eax, 4
	imul	ecx, eax, 0
	movss	DWORD PTR _tmp$6[ebp+ecx], xmm0
	mov	edx, 4
	shl	edx, 0
	movss	xmm0, DWORD PTR _tmp$6[ebp+edx]
	mulss	xmm0, DWORD PTR _ilength$2[ebp]
	mov	eax, 4
	shl	eax, 0
	movss	DWORD PTR _tmp$6[ebp+eax], xmm0
	mov	ecx, 4
	shl	ecx, 1
	movss	xmm0, DWORD PTR _tmp$6[ebp+ecx]
	mulss	xmm0, DWORD PTR _ilength$2[ebp]
	mov	edx, 4
	shl	edx, 1
	movss	DWORD PTR _tmp$6[ebp+edx], xmm0

; 614  : 
; 615  : 			// build point along noraml line (normal is -y, x)
; 616  : 			VectorScale( RI.cull_vup, tmp[0] * gTracerSize[p->type], normal );

	mov	eax, 4
	imul	ecx, eax, 0
	mov	edx, 4
	imul	eax, edx, 0
	mov	edx, DWORD PTR _p$[ebp]
	mov	edx, DWORD PTR [edx+40]
	movss	xmm0, DWORD PTR _tmp$6[ebp+eax]
	mulss	xmm0, DWORD PTR _gTracerSize[edx*4]
	mulss	xmm0, DWORD PTR _RI[ecx+296]
	mov	eax, 4
	imul	ecx, eax, 0
	movss	DWORD PTR _normal$5[ebp+ecx], xmm0
	mov	edx, 4
	shl	edx, 0
	mov	eax, 4
	imul	ecx, eax, 0
	mov	eax, DWORD PTR _p$[ebp]
	mov	eax, DWORD PTR [eax+40]
	movss	xmm0, DWORD PTR _tmp$6[ebp+ecx]
	mulss	xmm0, DWORD PTR _gTracerSize[eax*4]
	mulss	xmm0, DWORD PTR _RI[edx+296]
	mov	ecx, 4
	shl	ecx, 0
	movss	DWORD PTR _normal$5[ebp+ecx], xmm0
	mov	edx, 4
	shl	edx, 1
	mov	eax, 4
	imul	ecx, eax, 0
	mov	eax, DWORD PTR _p$[ebp]
	mov	eax, DWORD PTR [eax+40]
	movss	xmm0, DWORD PTR _tmp$6[ebp+ecx]
	mulss	xmm0, DWORD PTR _gTracerSize[eax*4]
	movss	xmm1, DWORD PTR _RI[edx+296]
	mulss	xmm1, xmm0
	movss	DWORD PTR tv348[ebp], xmm1
	mov	ecx, 4
	shl	ecx, 1
	movss	xmm0, DWORD PTR tv348[ebp]
	movss	DWORD PTR _normal$5[ebp+ecx], xmm0

; 617  : 			VectorScale( RI.cull_vright, -tmp[1] * gTracerSize[p->type], tmp2 );

	mov	edx, 4
	imul	eax, edx, 0
	mov	ecx, 4
	shl	ecx, 0
	movss	xmm0, DWORD PTR _tmp$6[ebp+ecx]
	xorps	xmm0, DWORD PTR __xmm@80000000800000008000000080000000
	mov	edx, DWORD PTR _p$[ebp]
	mov	ecx, DWORD PTR [edx+40]
	mulss	xmm0, DWORD PTR _gTracerSize[ecx*4]
	mulss	xmm0, DWORD PTR _RI[eax+284]
	mov	edx, 4
	imul	eax, edx, 0
	movss	DWORD PTR _tmp2$4[ebp+eax], xmm0
	mov	ecx, 4
	shl	ecx, 0
	mov	edx, 4
	shl	edx, 0
	movss	xmm0, DWORD PTR _tmp$6[ebp+edx]
	xorps	xmm0, DWORD PTR __xmm@80000000800000008000000080000000
	mov	eax, DWORD PTR _p$[ebp]
	mov	edx, DWORD PTR [eax+40]
	mulss	xmm0, DWORD PTR _gTracerSize[edx*4]
	mulss	xmm0, DWORD PTR _RI[ecx+284]
	mov	eax, 4
	shl	eax, 0
	movss	DWORD PTR _tmp2$4[ebp+eax], xmm0
	mov	ecx, 4
	shl	ecx, 1
	mov	edx, 4
	shl	edx, 0
	movss	xmm0, DWORD PTR _tmp$6[ebp+edx]
	xorps	xmm0, DWORD PTR __xmm@80000000800000008000000080000000
	mov	eax, DWORD PTR _p$[ebp]
	mov	edx, DWORD PTR [eax+40]
	mulss	xmm0, DWORD PTR _gTracerSize[edx*4]
	movss	xmm1, DWORD PTR _RI[ecx+284]
	mulss	xmm1, xmm0
	movss	DWORD PTR tv387[ebp], xmm1
	mov	eax, 4
	shl	eax, 1
	movss	xmm0, DWORD PTR tv387[ebp]
	movss	DWORD PTR _tmp2$4[ebp+eax], xmm0

; 618  : 			VectorSubtract( normal, tmp2, normal );

	mov	ecx, 4
	imul	edx, ecx, 0
	mov	eax, 4
	imul	ecx, eax, 0
	movss	xmm0, DWORD PTR _normal$5[ebp+edx]
	subss	xmm0, DWORD PTR _tmp2$4[ebp+ecx]
	mov	edx, 4
	imul	eax, edx, 0
	movss	DWORD PTR _normal$5[ebp+eax], xmm0
	mov	ecx, 4
	shl	ecx, 0
	mov	edx, 4
	shl	edx, 0
	movss	xmm0, DWORD PTR _normal$5[ebp+ecx]
	subss	xmm0, DWORD PTR _tmp2$4[ebp+edx]
	mov	eax, 4
	shl	eax, 0
	movss	DWORD PTR _normal$5[ebp+eax], xmm0
	mov	ecx, 4
	shl	ecx, 1
	mov	edx, 4
	shl	edx, 1
	movss	xmm0, DWORD PTR _normal$5[ebp+ecx]
	subss	xmm0, DWORD PTR _tmp2$4[ebp+edx]
	movss	DWORD PTR tv408[ebp], xmm0
	mov	eax, 4
	shl	eax, 1
	movss	xmm0, DWORD PTR tv408[ebp]
	movss	DWORD PTR _normal$5[ebp+eax], xmm0

; 619  : 
; 620  : 			// compute four vertexes
; 621  : 			VectorSubtract( start, normal, verts[0] ); 

	mov	ecx, 4
	imul	edx, ecx, 0
	mov	eax, 4
	imul	ecx, eax, 0
	movss	xmm0, DWORD PTR _start$[ebp+edx]
	subss	xmm0, DWORD PTR _normal$5[ebp+ecx]
	mov	edx, 12					; 0000000cH
	imul	eax, edx, 0
	lea	ecx, DWORD PTR _verts$3[ebp+eax]
	mov	edx, 4
	imul	eax, edx, 0
	movss	DWORD PTR [ecx+eax], xmm0
	mov	ecx, 4
	shl	ecx, 0
	mov	edx, 4
	shl	edx, 0
	movss	xmm0, DWORD PTR _start$[ebp+ecx]
	subss	xmm0, DWORD PTR _normal$5[ebp+edx]
	mov	eax, 12					; 0000000cH
	imul	ecx, eax, 0
	lea	edx, DWORD PTR _verts$3[ebp+ecx]
	mov	eax, 4
	shl	eax, 0
	movss	DWORD PTR [edx+eax], xmm0
	mov	ecx, 4
	shl	ecx, 1
	mov	edx, 4
	shl	edx, 1
	movss	xmm0, DWORD PTR _start$[ebp+ecx]
	subss	xmm0, DWORD PTR _normal$5[ebp+edx]
	movss	DWORD PTR tv435[ebp], xmm0
	mov	eax, 12					; 0000000cH
	imul	ecx, eax, 0
	lea	edx, DWORD PTR _verts$3[ebp+ecx]
	mov	eax, 4
	shl	eax, 1
	movss	xmm0, DWORD PTR tv435[ebp]
	movss	DWORD PTR [edx+eax], xmm0

; 622  : 			VectorAdd( start, normal, verts[1] ); 

	mov	ecx, 4
	imul	edx, ecx, 0
	mov	eax, 4
	imul	ecx, eax, 0
	movss	xmm0, DWORD PTR _start$[ebp+edx]
	addss	xmm0, DWORD PTR _normal$5[ebp+ecx]
	mov	edx, 12					; 0000000cH
	shl	edx, 0
	lea	eax, DWORD PTR _verts$3[ebp+edx]
	mov	ecx, 4
	imul	edx, ecx, 0
	movss	DWORD PTR [eax+edx], xmm0
	mov	eax, 4
	shl	eax, 0
	mov	ecx, 4
	shl	ecx, 0
	movss	xmm0, DWORD PTR _start$[ebp+eax]
	addss	xmm0, DWORD PTR _normal$5[ebp+ecx]
	mov	edx, 12					; 0000000cH
	shl	edx, 0
	lea	eax, DWORD PTR _verts$3[ebp+edx]
	mov	ecx, 4
	shl	ecx, 0
	movss	DWORD PTR [eax+ecx], xmm0
	mov	edx, 4
	shl	edx, 1
	mov	eax, 4
	shl	eax, 1
	movss	xmm0, DWORD PTR _start$[ebp+edx]
	addss	xmm0, DWORD PTR _normal$5[ebp+eax]
	movss	DWORD PTR tv462[ebp], xmm0
	mov	ecx, 12					; 0000000cH
	shl	ecx, 0
	lea	edx, DWORD PTR _verts$3[ebp+ecx]
	mov	eax, 4
	shl	eax, 1
	movss	xmm0, DWORD PTR tv462[ebp]
	movss	DWORD PTR [edx+eax], xmm0

; 623  : 			VectorAdd( verts[0], delta, verts[2] ); 

	mov	ecx, 12					; 0000000cH
	imul	edx, ecx, 0
	lea	eax, DWORD PTR _verts$3[ebp+edx]
	mov	ecx, 4
	imul	edx, ecx, 0
	mov	ecx, 4
	imul	ecx, ecx, 0
	movss	xmm0, DWORD PTR [eax+edx]
	addss	xmm0, DWORD PTR _delta$[ebp+ecx]
	mov	edx, 12					; 0000000cH
	shl	edx, 1
	lea	eax, DWORD PTR _verts$3[ebp+edx]
	mov	ecx, 4
	imul	edx, ecx, 0
	movss	DWORD PTR [eax+edx], xmm0
	mov	eax, 12					; 0000000cH
	imul	ecx, eax, 0
	lea	edx, DWORD PTR _verts$3[ebp+ecx]
	mov	eax, 4
	shl	eax, 0
	mov	ecx, 4
	shl	ecx, 0
	movss	xmm0, DWORD PTR [edx+eax]
	addss	xmm0, DWORD PTR _delta$[ebp+ecx]
	mov	edx, 12					; 0000000cH
	shl	edx, 1
	lea	eax, DWORD PTR _verts$3[ebp+edx]
	mov	ecx, 4
	shl	ecx, 0
	movss	DWORD PTR [eax+ecx], xmm0
	mov	edx, 12					; 0000000cH
	imul	eax, edx, 0
	lea	ecx, DWORD PTR _verts$3[ebp+eax]
	mov	edx, 4
	shl	edx, 1
	mov	eax, 4
	shl	eax, 1
	movss	xmm0, DWORD PTR [ecx+edx]
	addss	xmm0, DWORD PTR _delta$[ebp+eax]
	movss	DWORD PTR tv495[ebp], xmm0
	mov	ecx, 12					; 0000000cH
	shl	ecx, 1
	lea	edx, DWORD PTR _verts$3[ebp+ecx]
	mov	eax, 4
	shl	eax, 1
	movss	xmm0, DWORD PTR tv495[ebp]
	movss	DWORD PTR [edx+eax], xmm0

; 624  : 			VectorAdd( verts[1], delta, verts[3] ); 

	mov	ecx, 12					; 0000000cH
	shl	ecx, 0
	lea	edx, DWORD PTR _verts$3[ebp+ecx]
	mov	eax, 4
	imul	ecx, eax, 0
	mov	eax, 4
	imul	eax, eax, 0
	movss	xmm0, DWORD PTR [edx+ecx]
	addss	xmm0, DWORD PTR _delta$[ebp+eax]
	mov	ecx, 12					; 0000000cH
	imul	edx, ecx, 3
	lea	eax, DWORD PTR _verts$3[ebp+edx]
	mov	ecx, 4
	imul	edx, ecx, 0
	movss	DWORD PTR [eax+edx], xmm0
	mov	eax, 12					; 0000000cH
	shl	eax, 0
	lea	ecx, DWORD PTR _verts$3[ebp+eax]
	mov	edx, 4
	shl	edx, 0
	mov	eax, 4
	shl	eax, 0
	movss	xmm0, DWORD PTR [ecx+edx]
	addss	xmm0, DWORD PTR _delta$[ebp+eax]
	mov	ecx, 12					; 0000000cH
	imul	edx, ecx, 3
	lea	eax, DWORD PTR _verts$3[ebp+edx]
	mov	ecx, 4
	shl	ecx, 0
	movss	DWORD PTR [eax+ecx], xmm0
	mov	edx, 12					; 0000000cH
	shl	edx, 0
	lea	eax, DWORD PTR _verts$3[ebp+edx]
	mov	ecx, 4
	shl	ecx, 1
	mov	edx, 4
	shl	edx, 1
	movss	xmm0, DWORD PTR [eax+ecx]
	addss	xmm0, DWORD PTR _delta$[ebp+edx]
	movss	DWORD PTR tv528[ebp], xmm0
	mov	eax, 12					; 0000000cH
	imul	ecx, eax, 3
	lea	edx, DWORD PTR _verts$3[ebp+ecx]
	mov	eax, 4
	shl	eax, 1
	movss	xmm0, DWORD PTR tv528[ebp]
	movss	DWORD PTR [edx+eax], xmm0

; 625  : 
; 626  : 			pColor = &gTracerColors[p->color];

	mov	ecx, DWORD PTR _p$[ebp]
	movsx	edx, WORD PTR [ecx+12]
	imul	eax, edx, 3
	add	eax, OFFSET _gTracerColors
	mov	DWORD PTR _pColor$1[ebp], eax

; 627  : 			pglColor4ub( pColor->r, pColor->g, pColor->b, p->packedColor );

	mov	ecx, DWORD PTR _p$[ebp]
	movzx	edx, BYTE PTR [ecx+14]
	push	edx
	mov	eax, DWORD PTR _pColor$1[ebp]
	movzx	ecx, BYTE PTR [eax+2]
	push	ecx
	mov	edx, DWORD PTR _pColor$1[ebp]
	movzx	eax, BYTE PTR [edx+1]
	push	eax
	mov	ecx, DWORD PTR _pColor$1[ebp]
	movzx	edx, BYTE PTR [ecx]
	push	edx
	call	DWORD PTR _pglColor4ub

; 628  : 
; 629  : 			pglBegin( GL_QUADS );

	push	7
	call	DWORD PTR _pglBegin

; 630  : 				pglTexCoord2f( 0.0f, 0.8f );

	push	ecx
	movss	xmm0, DWORD PTR __real@3f4ccccd
	movss	DWORD PTR [esp], xmm0
	push	ecx
	xorps	xmm0, xmm0
	movss	DWORD PTR [esp], xmm0
	call	DWORD PTR _pglTexCoord2f

; 631  : 				pglVertex3fv( verts[2] );

	mov	eax, 12					; 0000000cH
	shl	eax, 1
	lea	ecx, DWORD PTR _verts$3[ebp+eax]
	push	ecx
	call	DWORD PTR _pglVertex3fv

; 632  : 				pglTexCoord2f( 1.0f, 0.8f );

	push	ecx
	movss	xmm0, DWORD PTR __real@3f4ccccd
	movss	DWORD PTR [esp], xmm0
	push	ecx
	movss	xmm0, DWORD PTR __real@3f800000
	movss	DWORD PTR [esp], xmm0
	call	DWORD PTR _pglTexCoord2f

; 633  : 				pglVertex3fv( verts[3] );

	mov	edx, 12					; 0000000cH
	imul	eax, edx, 3
	lea	ecx, DWORD PTR _verts$3[ebp+eax]
	push	ecx
	call	DWORD PTR _pglVertex3fv

; 634  : 				pglTexCoord2f( 1.0f, 0.0f );

	push	ecx
	xorps	xmm0, xmm0
	movss	DWORD PTR [esp], xmm0
	push	ecx
	movss	xmm0, DWORD PTR __real@3f800000
	movss	DWORD PTR [esp], xmm0
	call	DWORD PTR _pglTexCoord2f

; 635  : 				pglVertex3fv( verts[1] );

	mov	edx, 12					; 0000000cH
	shl	edx, 0
	lea	eax, DWORD PTR _verts$3[ebp+edx]
	push	eax
	call	DWORD PTR _pglVertex3fv

; 636  : 				pglTexCoord2f( 0.0f, 0.0f );

	push	ecx
	xorps	xmm0, xmm0
	movss	DWORD PTR [esp], xmm0
	push	ecx
	xorps	xmm0, xmm0
	movss	DWORD PTR [esp], xmm0
	call	DWORD PTR _pglTexCoord2f

; 637  : 				pglVertex3fv( verts[0] );

	mov	ecx, 12					; 0000000cH
	imul	edx, ecx, 0
	lea	eax, DWORD PTR _verts$3[ebp+edx]
	push	eax
	call	DWORD PTR _pglVertex3fv

; 638  : 			pglEnd();

	call	DWORD PTR _pglEnd
$LN11@CL_DrawTra:

; 639  : 		}
; 640  : 
; 641  : 		// evaluate position
; 642  : 		VectorMA( p->org, frametime, p->vel, p->org );

	mov	ecx, 4
	imul	edx, ecx, 0
	mov	eax, DWORD PTR _p$[ebp]
	cvtss2sd xmm0, DWORD PTR [eax+edx]
	mov	ecx, 4
	imul	edx, ecx, 0
	mov	eax, DWORD PTR _p$[ebp]
	cvtss2sd xmm1, DWORD PTR [eax+edx+20]
	mulsd	xmm1, QWORD PTR _frametime$[ebp]
	addsd	xmm0, xmm1
	mov	ecx, 4
	imul	edx, ecx, 0
	cvtsd2ss xmm0, xmm0
	mov	eax, DWORD PTR _p$[ebp]
	movss	DWORD PTR [eax+edx], xmm0
	mov	ecx, 4
	shl	ecx, 0
	mov	edx, DWORD PTR _p$[ebp]
	cvtss2sd xmm0, DWORD PTR [edx+ecx]
	mov	eax, 4
	shl	eax, 0
	mov	ecx, DWORD PTR _p$[ebp]
	cvtss2sd xmm1, DWORD PTR [ecx+eax+20]
	mulsd	xmm1, QWORD PTR _frametime$[ebp]
	addsd	xmm0, xmm1
	mov	edx, 4
	shl	edx, 0
	cvtsd2ss xmm0, xmm0
	mov	eax, DWORD PTR _p$[ebp]
	movss	DWORD PTR [eax+edx], xmm0
	mov	ecx, 4
	shl	ecx, 1
	mov	edx, DWORD PTR _p$[ebp]
	cvtss2sd xmm0, DWORD PTR [edx+ecx]
	mov	eax, 4
	shl	eax, 1
	mov	ecx, DWORD PTR _p$[ebp]
	cvtss2sd xmm1, DWORD PTR [ecx+eax+20]
	mulsd	xmm1, QWORD PTR _frametime$[ebp]
	addsd	xmm0, xmm1
	cvtsd2ss xmm0, xmm0
	movss	DWORD PTR tv603[ebp], xmm0
	mov	edx, 4
	shl	edx, 1
	mov	eax, DWORD PTR _p$[ebp]
	movss	xmm0, DWORD PTR tv603[ebp]
	movss	DWORD PTR [eax+edx], xmm0

; 643  : 
; 644  : 		if( p->type == pt_grav )

	mov	ecx, DWORD PTR _p$[ebp]
	cmp	DWORD PTR [ecx+40], 1
	jne	$LN13@CL_DrawTra

; 645  : 		{
; 646  : 			p->vel[0] *= scale;

	mov	edx, 4
	imul	eax, edx, 0
	mov	ecx, DWORD PTR _p$[ebp]
	movss	xmm0, DWORD PTR [ecx+eax+20]
	mulss	xmm0, DWORD PTR _scale$[ebp]
	mov	edx, 4
	imul	eax, edx, 0
	mov	ecx, DWORD PTR _p$[ebp]
	movss	DWORD PTR [ecx+eax+20], xmm0

; 647  : 			p->vel[1] *= scale;

	mov	edx, 4
	shl	edx, 0
	mov	eax, DWORD PTR _p$[ebp]
	movss	xmm0, DWORD PTR [eax+edx+20]
	mulss	xmm0, DWORD PTR _scale$[ebp]
	mov	ecx, 4
	shl	ecx, 0
	mov	edx, DWORD PTR _p$[ebp]
	movss	DWORD PTR [edx+ecx+20], xmm0

; 648  : 			p->vel[2] -= gravity;

	mov	eax, 4
	shl	eax, 1
	mov	ecx, DWORD PTR _p$[ebp]
	movss	xmm0, DWORD PTR [ecx+eax+20]
	subss	xmm0, DWORD PTR _gravity$[ebp]
	mov	edx, 4
	shl	edx, 1
	mov	eax, DWORD PTR _p$[ebp]
	movss	DWORD PTR [eax+edx+20], xmm0

; 649  : 
; 650  : 			p->packedColor = 255 * (p->die - cl.time) * 2;

	mov	ecx, DWORD PTR _p$[ebp]
	cvtss2sd xmm0, DWORD PTR [ecx+36]
	subsd	xmm0, QWORD PTR _cl+1525848
	mulsd	xmm0, QWORD PTR __real@406fe00000000000
	mulsd	xmm0, QWORD PTR __real@4000000000000000
	cvttsd2si edx, xmm0
	mov	eax, DWORD PTR _p$[ebp]
	mov	WORD PTR [eax+14], dx

; 651  : 			if( p->packedColor > 255 ) p->packedColor = 255;

	mov	ecx, DWORD PTR _p$[ebp]
	movsx	edx, WORD PTR [ecx+14]
	cmp	edx, 255				; 000000ffH
	jle	SHORT $LN15@CL_DrawTra
	mov	eax, 255				; 000000ffH
	mov	ecx, DWORD PTR _p$[ebp]
	mov	WORD PTR [ecx+14], ax
$LN15@CL_DrawTra:

; 652  : 		}

	jmp	SHORT $LN16@CL_DrawTra
$LN13@CL_DrawTra:

; 653  : 		else if( p->type == pt_slowgrav )

	mov	edx, DWORD PTR _p$[ebp]
	cmp	DWORD PTR [edx+40], 2
	jne	SHORT $LN16@CL_DrawTra

; 654  : 		{
; 655  : 			p->vel[2] = gravity * 0.05;

	cvtss2sd xmm0, DWORD PTR _gravity$[ebp]
	mulsd	xmm0, QWORD PTR __real@3fa999999999999a
	mov	eax, 4
	shl	eax, 1
	cvtsd2ss xmm0, xmm0
	mov	ecx, DWORD PTR _p$[ebp]
	movss	DWORD PTR [ecx+eax+20], xmm0
$LN16@CL_DrawTra:

; 656  : 		}
; 657  : 	}

	jmp	$LN2@CL_DrawTra
$LN3@CL_DrawTra:

; 658  : 
; 659  : 	pglDepthMask( GL_TRUE );

	push	1
	call	DWORD PTR _pglDepthMask
$LN1@CL_DrawTra:

; 660  : }

	mov	ecx, DWORD PTR __$ArrayPad$[ebp]
	xor	ecx, ebp
	call	@__security_check_cookie@4
	mov	esp, ebp
	pop	ebp
	ret	0
_CL_DrawTracers ENDP
_TEXT	ENDS
; Function compile flags: /Odtp
; File c:\users\user\downloads\xash_build4529_src\engine\client\gl_rpart.c
_TEXT	SEGMENT
tv731 = -120						; size = 4
tv598 = -116						; size = 4
tv555 = -112						; size = 4
_time3$ = -108						; size = 4
tv489 = -104						; size = 4
_time1$ = -100						; size = 4
tv425 = -96						; size = 4
tv213 = -92						; size = 4
tv198 = -88						; size = 4
tv737 = -84						; size = 4
_time2$ = -80						; size = 4
tv224 = -76						; size = 4
tv223 = -72						; size = 4
tv181 = -68						; size = 4
tv175 = -64						; size = 4
tv135 = -60						; size = 4
_pColor$ = -56						; size = 4
_alpha$ = -52						; size = 4
tv427 = -48						; size = 4
_dvel$ = -44						; size = 4
_grav$ = -40						; size = 4
_size$ = -36						; size = 4
_p$ = -32						; size = 4
_up$ = -28						; size = 12
_right$ = -16						; size = 12
__$ArrayPad$ = -4					; size = 4
_frametime$ = 8						; size = 8
_CL_DrawParticles PROC

; 359  : {

	push	ebp
	mov	ebp, esp
	sub	esp, 120				; 00000078H
	mov	eax, DWORD PTR ___security_cookie
	xor	eax, ebp
	mov	DWORD PTR __$ArrayPad$[ebp], eax

; 360  : 	particle_t	*p;
; 361  : 	float		time3 = 15.0f * frametime;

	movsd	xmm0, QWORD PTR __real@402e000000000000
	mulsd	xmm0, QWORD PTR _frametime$[ebp]
	cvtsd2ss xmm0, xmm0
	movss	DWORD PTR _time3$[ebp], xmm0

; 362  : 	float		time2 = 10.0f * frametime;

	movsd	xmm0, QWORD PTR __real@4024000000000000
	mulsd	xmm0, QWORD PTR _frametime$[ebp]
	cvtsd2ss xmm0, xmm0
	movss	DWORD PTR _time2$[ebp], xmm0

; 363  : 	float		time1 = 5.0f * frametime;

	movsd	xmm0, QWORD PTR __real@4014000000000000
	mulsd	xmm0, QWORD PTR _frametime$[ebp]
	cvtsd2ss xmm0, xmm0
	movss	DWORD PTR _time1$[ebp], xmm0

; 364  : 	float		dvel = 4.0f * frametime;

	movsd	xmm0, QWORD PTR __real@4010000000000000
	mulsd	xmm0, QWORD PTR _frametime$[ebp]
	cvtsd2ss xmm0, xmm0
	movss	DWORD PTR _dvel$[ebp], xmm0

; 365  : 	float		grav = frametime * clgame.movevars.gravity * 0.05f;

	cvtss2sd xmm0, DWORD PTR _clgame+1028
	mulsd	xmm0, QWORD PTR _frametime$[ebp]
	mulsd	xmm0, QWORD PTR __real@3fa99999a0000000
	cvtsd2ss xmm0, xmm0
	movss	DWORD PTR _grav$[ebp], xmm0

; 366  : 	vec3_t		right, up;
; 367  : 	color24		*pColor;
; 368  : 	int		alpha;
; 369  : 	float		size;
; 370  : 
; 371  : 	if( !cl_draw_particles->value )

	mov	eax, DWORD PTR _cl_draw_particles
	movss	xmm0, DWORD PTR [eax+12]
	ucomiss	xmm0, DWORD PTR __real@00000000
	lahf
	test	ah, 68					; 00000044H
	jp	SHORT $LN7@CL_DrawPar

; 372  : 		return;

	jmp	$LN1@CL_DrawPar
$LN7@CL_DrawPar:

; 373  : 
; 374  : 	R_FreeDeadParticles( &cl_active_particles );

	push	OFFSET _cl_active_particles
	call	_R_FreeDeadParticles
	add	esp, 4

; 375  : 
; 376  : 	if( !cl_active_particles )

	cmp	DWORD PTR _cl_active_particles, 0
	jne	SHORT $LN8@CL_DrawPar

; 377  : 		return;	// nothing to draw?

	jmp	$LN1@CL_DrawPar
$LN8@CL_DrawPar:

; 378  : 
; 379  : 	pglEnable( GL_BLEND );

	push	3042					; 00000be2H
	call	DWORD PTR _pglEnable

; 380  : 	pglDisable( GL_ALPHA_TEST );

	push	3008					; 00000bc0H
	call	DWORD PTR _pglDisable

; 381  : 	pglBlendFunc( GL_SRC_ALPHA, GL_ONE_MINUS_SRC_ALPHA );

	push	771					; 00000303H
	push	770					; 00000302H
	call	DWORD PTR _pglBlendFunc

; 382  : 
; 383  : 	GL_Bind( GL_TEXTURE0, tr.particleTexture );

	mov	ecx, DWORD PTR _tr+4
	push	ecx
	push	0
	call	_GL_Bind

; 384  : 	pglTexEnvf( GL_TEXTURE_ENV, GL_TEXTURE_ENV_MODE, GL_MODULATE );

	add	esp, 4
	movss	xmm0, DWORD PTR __real@46040000
	movss	DWORD PTR [esp], xmm0
	push	8704					; 00002200H
	push	8960					; 00002300H
	call	DWORD PTR _pglTexEnvf

; 385  : 	pglDepthMask( GL_FALSE );

	push	0
	call	DWORD PTR _pglDepthMask

; 386  : 
; 387  : 	pglBegin( GL_QUADS );

	push	7
	call	DWORD PTR _pglBegin

; 388  : 
; 389  : 	for( p = cl_active_particles; p; p = p->next )

	mov	edx, DWORD PTR _cl_active_particles
	mov	DWORD PTR _p$[ebp], edx
	jmp	SHORT $LN4@CL_DrawPar
$LN2@CL_DrawPar:
	mov	eax, DWORD PTR _p$[ebp]
	mov	ecx, DWORD PTR [eax+16]
	mov	DWORD PTR _p$[ebp], ecx
$LN4@CL_DrawPar:
	cmp	DWORD PTR _p$[ebp], 0
	je	$LN3@CL_DrawPar

; 390  : 	{
; 391  : 		if(( p->type != pt_blob ) || ( p->packedColor == 255 ))

	mov	edx, DWORD PTR _p$[ebp]
	cmp	DWORD PTR [edx+40], 6
	jne	SHORT $LN10@CL_DrawPar
	mov	eax, DWORD PTR _p$[ebp]
	movsx	ecx, WORD PTR [eax+14]
	cmp	ecx, 255				; 000000ffH
	jne	$LN9@CL_DrawPar
$LN10@CL_DrawPar:

; 392  : 		{
; 393  : 			size = PART_SIZE; // get initial size of particle

	mov	edx, DWORD PTR _cl_draw_particles
	movss	xmm0, DWORD PTR __real@3f000000
	comiss	xmm0, DWORD PTR [edx+12]
	jbe	SHORT $LN39@CL_DrawPar
	movss	xmm0, DWORD PTR __real@3f000000
	movss	DWORD PTR tv135[ebp], xmm0
	jmp	SHORT $LN40@CL_DrawPar
$LN39@CL_DrawPar:
	mov	eax, DWORD PTR _cl_draw_particles
	movss	xmm0, DWORD PTR [eax+12]
	movss	DWORD PTR tv135[ebp], xmm0
$LN40@CL_DrawPar:
	movss	xmm0, DWORD PTR tv135[ebp]
	movss	DWORD PTR _size$[ebp], xmm0

; 394  : 
; 395  : 			// scale up to keep particles from disappearing
; 396  : 			size += (p->org[0] - RI.vieworg[0]) * RI.cull_vforward[0];

	mov	ecx, 4
	imul	edx, ecx, 0
	mov	eax, 4
	imul	ecx, eax, 0
	mov	eax, DWORD PTR _p$[ebp]
	movss	xmm0, DWORD PTR [eax+edx]
	subss	xmm0, DWORD PTR _RI[ecx+200]
	mov	ecx, 4
	imul	edx, ecx, 0
	mulss	xmm0, DWORD PTR _RI[edx+272]
	addss	xmm0, DWORD PTR _size$[ebp]
	movss	DWORD PTR _size$[ebp], xmm0

; 397  : 			size += (p->org[1] - RI.vieworg[1]) * RI.cull_vforward[1];

	mov	eax, 4
	shl	eax, 0
	mov	ecx, 4
	shl	ecx, 0
	mov	edx, DWORD PTR _p$[ebp]
	movss	xmm0, DWORD PTR [edx+eax]
	subss	xmm0, DWORD PTR _RI[ecx+200]
	mov	eax, 4
	shl	eax, 0
	mulss	xmm0, DWORD PTR _RI[eax+272]
	addss	xmm0, DWORD PTR _size$[ebp]
	movss	DWORD PTR _size$[ebp], xmm0

; 398  : 			size += (p->org[2] - RI.vieworg[2]) * RI.cull_vforward[2];

	mov	ecx, 4
	shl	ecx, 1
	mov	edx, 4
	shl	edx, 1
	mov	eax, DWORD PTR _p$[ebp]
	movss	xmm0, DWORD PTR [eax+ecx]
	subss	xmm0, DWORD PTR _RI[edx+200]
	mov	ecx, 4
	shl	ecx, 1
	mulss	xmm0, DWORD PTR _RI[ecx+272]
	addss	xmm0, DWORD PTR _size$[ebp]
	movss	DWORD PTR _size$[ebp], xmm0

; 399  : 
; 400  : 			if( size < 20.0f ) size = PART_SIZE;

	movss	xmm0, DWORD PTR __real@41a00000
	comiss	xmm0, DWORD PTR _size$[ebp]
	jbe	SHORT $LN11@CL_DrawPar
	mov	edx, DWORD PTR _cl_draw_particles
	movss	xmm0, DWORD PTR __real@3f000000
	comiss	xmm0, DWORD PTR [edx+12]
	jbe	SHORT $LN41@CL_DrawPar
	movss	xmm0, DWORD PTR __real@3f000000
	movss	DWORD PTR tv175[ebp], xmm0
	jmp	SHORT $LN42@CL_DrawPar
$LN41@CL_DrawPar:
	mov	eax, DWORD PTR _cl_draw_particles
	movss	xmm0, DWORD PTR [eax+12]
	movss	DWORD PTR tv175[ebp], xmm0
$LN42@CL_DrawPar:
	movss	xmm0, DWORD PTR tv175[ebp]
	movss	DWORD PTR _size$[ebp], xmm0
	jmp	SHORT $LN12@CL_DrawPar
$LN11@CL_DrawPar:

; 401  : 			else size = PART_SIZE + size * 0.002f;

	mov	ecx, DWORD PTR _cl_draw_particles
	movss	xmm0, DWORD PTR __real@3f000000
	comiss	xmm0, DWORD PTR [ecx+12]
	jbe	SHORT $LN43@CL_DrawPar
	movss	xmm0, DWORD PTR __real@3f000000
	movss	DWORD PTR tv181[ebp], xmm0
	jmp	SHORT $LN44@CL_DrawPar
$LN43@CL_DrawPar:
	mov	edx, DWORD PTR _cl_draw_particles
	movss	xmm0, DWORD PTR [edx+12]
	movss	DWORD PTR tv181[ebp], xmm0
$LN44@CL_DrawPar:
	movss	xmm0, DWORD PTR _size$[ebp]
	mulss	xmm0, DWORD PTR __real@3b03126f
	addss	xmm0, DWORD PTR tv181[ebp]
	movss	DWORD PTR _size$[ebp], xmm0
$LN12@CL_DrawPar:

; 402  : 
; 403  : 			// scale the axes by radius
; 404  : 			VectorScale( RI.cull_vright, size, right );

	mov	eax, 4
	imul	ecx, eax, 0
	movss	xmm0, DWORD PTR _RI[ecx+284]
	mulss	xmm0, DWORD PTR _size$[ebp]
	mov	edx, 4
	imul	eax, edx, 0
	movss	DWORD PTR _right$[ebp+eax], xmm0
	mov	ecx, 4
	shl	ecx, 0
	movss	xmm0, DWORD PTR _RI[ecx+284]
	mulss	xmm0, DWORD PTR _size$[ebp]
	mov	edx, 4
	shl	edx, 0
	movss	DWORD PTR _right$[ebp+edx], xmm0
	mov	eax, 4
	shl	eax, 1
	movss	xmm0, DWORD PTR _RI[eax+284]
	mulss	xmm0, DWORD PTR _size$[ebp]
	movss	DWORD PTR tv198[ebp], xmm0
	mov	ecx, 4
	shl	ecx, 1
	movss	xmm0, DWORD PTR tv198[ebp]
	movss	DWORD PTR _right$[ebp+ecx], xmm0

; 405  : 			VectorScale( RI.cull_vup, size, up );

	mov	edx, 4
	imul	eax, edx, 0
	movss	xmm0, DWORD PTR _RI[eax+296]
	mulss	xmm0, DWORD PTR _size$[ebp]
	mov	ecx, 4
	imul	edx, ecx, 0
	movss	DWORD PTR _up$[ebp+edx], xmm0
	mov	eax, 4
	shl	eax, 0
	movss	xmm0, DWORD PTR _RI[eax+296]
	mulss	xmm0, DWORD PTR _size$[ebp]
	mov	ecx, 4
	shl	ecx, 0
	movss	DWORD PTR _up$[ebp+ecx], xmm0
	mov	edx, 4
	shl	edx, 1
	movss	xmm0, DWORD PTR _RI[edx+296]
	mulss	xmm0, DWORD PTR _size$[ebp]
	movss	DWORD PTR tv213[ebp], xmm0
	mov	eax, 4
	shl	eax, 1
	movss	xmm0, DWORD PTR tv213[ebp]
	movss	DWORD PTR _up$[ebp+eax], xmm0

; 406  : 
; 407  : 			p->color = bound( 0, p->color, 255 );

	mov	ecx, DWORD PTR _p$[ebp]
	movsx	edx, WORD PTR [ecx+12]
	test	edx, edx
	jl	SHORT $LN47@CL_DrawPar
	mov	eax, DWORD PTR _p$[ebp]
	movsx	ecx, WORD PTR [eax+12]
	cmp	ecx, 255				; 000000ffH
	jge	SHORT $LN45@CL_DrawPar
	mov	edx, DWORD PTR _p$[ebp]
	movsx	eax, WORD PTR [edx+12]
	mov	DWORD PTR tv223[ebp], eax
	jmp	SHORT $LN46@CL_DrawPar
$LN45@CL_DrawPar:
	mov	DWORD PTR tv223[ebp], 255		; 000000ffH
$LN46@CL_DrawPar:
	mov	ecx, DWORD PTR tv223[ebp]
	mov	DWORD PTR tv224[ebp], ecx
	jmp	SHORT $LN48@CL_DrawPar
$LN47@CL_DrawPar:
	mov	DWORD PTR tv224[ebp], 0
$LN48@CL_DrawPar:
	mov	edx, DWORD PTR _p$[ebp]
	mov	ax, WORD PTR tv224[ebp]
	mov	WORD PTR [edx+12], ax

; 408  : 			pColor = &clgame.palette[p->color];

	mov	ecx, DWORD PTR _p$[ebp]
	movsx	edx, WORD PTR [ecx+12]
	imul	eax, edx, 3
	add	eax, OFFSET _clgame+125460
	mov	DWORD PTR _pColor$[ebp], eax

; 409  : 
; 410  : 			alpha = 255 * (p->die - cl.time) * 16.0f;

	mov	ecx, DWORD PTR _p$[ebp]
	cvtss2sd xmm0, DWORD PTR [ecx+36]
	subsd	xmm0, QWORD PTR _cl+1525848
	mulsd	xmm0, QWORD PTR __real@406fe00000000000
	mulsd	xmm0, QWORD PTR __real@4030000000000000
	cvttsd2si edx, xmm0
	mov	DWORD PTR _alpha$[ebp], edx

; 411  : 			if( alpha > 255 || p->type == pt_static )

	cmp	DWORD PTR _alpha$[ebp], 255		; 000000ffH
	jg	SHORT $LN14@CL_DrawPar
	mov	eax, DWORD PTR _p$[ebp]
	cmp	DWORD PTR [eax+40], 0
	jne	SHORT $LN13@CL_DrawPar
$LN14@CL_DrawPar:

; 412  : 				alpha = 255;

	mov	DWORD PTR _alpha$[ebp], 255		; 000000ffH
$LN13@CL_DrawPar:

; 413  : 
; 414  : 			pglColor4ub( LightToTexGamma( pColor->r ), LightToTexGamma( pColor->g ), LightToTexGamma( pColor->b ), alpha );

	movzx	ecx, BYTE PTR _alpha$[ebp]
	push	ecx
	mov	edx, DWORD PTR _pColor$[ebp]
	movzx	eax, BYTE PTR [edx+2]
	push	eax
	call	_LightToTexGamma
	add	esp, 4
	movzx	ecx, al
	push	ecx
	mov	edx, DWORD PTR _pColor$[ebp]
	movzx	eax, BYTE PTR [edx+1]
	push	eax
	call	_LightToTexGamma
	add	esp, 4
	movzx	ecx, al
	push	ecx
	mov	edx, DWORD PTR _pColor$[ebp]
	movzx	eax, BYTE PTR [edx]
	push	eax
	call	_LightToTexGamma
	add	esp, 4
	movzx	ecx, al
	push	ecx
	call	DWORD PTR _pglColor4ub

; 415  : 
; 416  : 			pglTexCoord2f( 0.0f, 1.0f );

	push	ecx
	movss	xmm0, DWORD PTR __real@3f800000
	movss	DWORD PTR [esp], xmm0
	push	ecx
	xorps	xmm0, xmm0
	movss	DWORD PTR [esp], xmm0
	call	DWORD PTR _pglTexCoord2f

; 417  : 			pglVertex3f( p->org[0] - right[0] + up[0], p->org[1] - right[1] + up[1], p->org[2] - right[2] + up[2] );

	mov	edx, 4
	shl	edx, 1
	mov	eax, 4
	shl	eax, 1
	mov	ecx, DWORD PTR _p$[ebp]
	movss	xmm0, DWORD PTR [ecx+edx]
	subss	xmm0, DWORD PTR _right$[ebp+eax]
	mov	edx, 4
	shl	edx, 1
	addss	xmm0, DWORD PTR _up$[ebp+edx]
	push	ecx
	movss	DWORD PTR [esp], xmm0
	mov	eax, 4
	shl	eax, 0
	mov	ecx, 4
	shl	ecx, 0
	mov	edx, DWORD PTR _p$[ebp]
	movss	xmm0, DWORD PTR [edx+eax]
	subss	xmm0, DWORD PTR _right$[ebp+ecx]
	mov	eax, 4
	shl	eax, 0
	addss	xmm0, DWORD PTR _up$[ebp+eax]
	push	ecx
	movss	DWORD PTR [esp], xmm0
	mov	ecx, 4
	imul	edx, ecx, 0
	mov	eax, 4
	imul	ecx, eax, 0
	mov	eax, DWORD PTR _p$[ebp]
	movss	xmm0, DWORD PTR [eax+edx]
	subss	xmm0, DWORD PTR _right$[ebp+ecx]
	mov	ecx, 4
	imul	edx, ecx, 0
	addss	xmm0, DWORD PTR _up$[ebp+edx]
	push	ecx
	movss	DWORD PTR [esp], xmm0
	call	DWORD PTR _pglVertex3f

; 418  : 			pglTexCoord2f( 0.0f, 0.0f );

	push	ecx
	xorps	xmm0, xmm0
	movss	DWORD PTR [esp], xmm0
	push	ecx
	xorps	xmm0, xmm0
	movss	DWORD PTR [esp], xmm0
	call	DWORD PTR _pglTexCoord2f

; 419  : 			pglVertex3f( p->org[0] + right[0] + up[0], p->org[1] + right[1] + up[1], p->org[2] + right[2] + up[2] );

	mov	eax, 4
	shl	eax, 1
	mov	ecx, 4
	shl	ecx, 1
	mov	edx, DWORD PTR _p$[ebp]
	movss	xmm0, DWORD PTR [edx+eax]
	addss	xmm0, DWORD PTR _right$[ebp+ecx]
	mov	eax, 4
	shl	eax, 1
	addss	xmm0, DWORD PTR _up$[ebp+eax]
	push	ecx
	movss	DWORD PTR [esp], xmm0
	mov	ecx, 4
	shl	ecx, 0
	mov	edx, 4
	shl	edx, 0
	mov	eax, DWORD PTR _p$[ebp]
	movss	xmm0, DWORD PTR [eax+ecx]
	addss	xmm0, DWORD PTR _right$[ebp+edx]
	mov	ecx, 4
	shl	ecx, 0
	addss	xmm0, DWORD PTR _up$[ebp+ecx]
	push	ecx
	movss	DWORD PTR [esp], xmm0
	mov	edx, 4
	imul	eax, edx, 0
	mov	ecx, 4
	imul	edx, ecx, 0
	mov	ecx, DWORD PTR _p$[ebp]
	movss	xmm0, DWORD PTR [ecx+eax]
	addss	xmm0, DWORD PTR _right$[ebp+edx]
	mov	edx, 4
	imul	eax, edx, 0
	addss	xmm0, DWORD PTR _up$[ebp+eax]
	push	ecx
	movss	DWORD PTR [esp], xmm0
	call	DWORD PTR _pglVertex3f

; 420  : 			pglTexCoord2f( 1.0f, 0.0f );

	push	ecx
	xorps	xmm0, xmm0
	movss	DWORD PTR [esp], xmm0
	push	ecx
	movss	xmm0, DWORD PTR __real@3f800000
	movss	DWORD PTR [esp], xmm0
	call	DWORD PTR _pglTexCoord2f

; 421  : 			pglVertex3f( p->org[0] + right[0] - up[0], p->org[1] + right[1] - up[1], p->org[2] + right[2] - up[2] );

	mov	ecx, 4
	shl	ecx, 1
	mov	edx, 4
	shl	edx, 1
	mov	eax, DWORD PTR _p$[ebp]
	movss	xmm0, DWORD PTR [eax+ecx]
	addss	xmm0, DWORD PTR _right$[ebp+edx]
	mov	ecx, 4
	shl	ecx, 1
	subss	xmm0, DWORD PTR _up$[ebp+ecx]
	push	ecx
	movss	DWORD PTR [esp], xmm0
	mov	edx, 4
	shl	edx, 0
	mov	eax, 4
	shl	eax, 0
	mov	ecx, DWORD PTR _p$[ebp]
	movss	xmm0, DWORD PTR [ecx+edx]
	addss	xmm0, DWORD PTR _right$[ebp+eax]
	mov	edx, 4
	shl	edx, 0
	subss	xmm0, DWORD PTR _up$[ebp+edx]
	push	ecx
	movss	DWORD PTR [esp], xmm0
	mov	eax, 4
	imul	ecx, eax, 0
	mov	edx, 4
	imul	eax, edx, 0
	mov	edx, DWORD PTR _p$[ebp]
	movss	xmm0, DWORD PTR [edx+ecx]
	addss	xmm0, DWORD PTR _right$[ebp+eax]
	mov	eax, 4
	imul	ecx, eax, 0
	subss	xmm0, DWORD PTR _up$[ebp+ecx]
	push	ecx
	movss	DWORD PTR [esp], xmm0
	call	DWORD PTR _pglVertex3f

; 422  : 			pglTexCoord2f( 1.0f, 1.0f );

	push	ecx
	movss	xmm0, DWORD PTR __real@3f800000
	movss	DWORD PTR [esp], xmm0
	push	ecx
	movss	xmm0, DWORD PTR __real@3f800000
	movss	DWORD PTR [esp], xmm0
	call	DWORD PTR _pglTexCoord2f

; 423  : 			pglVertex3f( p->org[0] - right[0] - up[0], p->org[1] - right[1] - up[1], p->org[2] - right[2] - up[2] );

	mov	edx, 4
	shl	edx, 1
	mov	eax, 4
	shl	eax, 1
	mov	ecx, DWORD PTR _p$[ebp]
	movss	xmm0, DWORD PTR [ecx+edx]
	subss	xmm0, DWORD PTR _right$[ebp+eax]
	mov	edx, 4
	shl	edx, 1
	subss	xmm0, DWORD PTR _up$[ebp+edx]
	push	ecx
	movss	DWORD PTR [esp], xmm0
	mov	eax, 4
	shl	eax, 0
	mov	ecx, 4
	shl	ecx, 0
	mov	edx, DWORD PTR _p$[ebp]
	movss	xmm0, DWORD PTR [edx+eax]
	subss	xmm0, DWORD PTR _right$[ebp+ecx]
	mov	eax, 4
	shl	eax, 0
	subss	xmm0, DWORD PTR _up$[ebp+eax]
	push	ecx
	movss	DWORD PTR [esp], xmm0
	mov	ecx, 4
	imul	edx, ecx, 0
	mov	eax, 4
	imul	ecx, eax, 0
	mov	eax, DWORD PTR _p$[ebp]
	movss	xmm0, DWORD PTR [eax+edx]
	subss	xmm0, DWORD PTR _right$[ebp+ecx]
	mov	ecx, 4
	imul	edx, ecx, 0
	subss	xmm0, DWORD PTR _up$[ebp+edx]
	push	ecx
	movss	DWORD PTR [esp], xmm0
	call	DWORD PTR _pglVertex3f

; 424  : 			r_stats.c_particle_count++;

	mov	eax, DWORD PTR _r_stats+40
	add	eax, 1
	mov	DWORD PTR _r_stats+40, eax
$LN9@CL_DrawPar:

; 425  : 		}
; 426  : 
; 427  : 		if( p->type != pt_clientcustom )

	mov	ecx, DWORD PTR _p$[ebp]
	cmp	DWORD PTR [ecx+40], 10			; 0000000aH
	je	$LN15@CL_DrawPar

; 428  : 		{
; 429  : 			// update position.
; 430  : 			VectorMA( p->org, frametime, p->vel, p->org );

	mov	edx, 4
	imul	eax, edx, 0
	mov	ecx, DWORD PTR _p$[ebp]
	cvtss2sd xmm0, DWORD PTR [ecx+eax]
	mov	edx, 4
	imul	eax, edx, 0
	mov	ecx, DWORD PTR _p$[ebp]
	cvtss2sd xmm1, DWORD PTR [ecx+eax+20]
	mulsd	xmm1, QWORD PTR _frametime$[ebp]
	addsd	xmm0, xmm1
	mov	edx, 4
	imul	eax, edx, 0
	cvtsd2ss xmm0, xmm0
	mov	ecx, DWORD PTR _p$[ebp]
	movss	DWORD PTR [ecx+eax], xmm0
	mov	edx, 4
	shl	edx, 0
	mov	eax, DWORD PTR _p$[ebp]
	cvtss2sd xmm0, DWORD PTR [eax+edx]
	mov	ecx, 4
	shl	ecx, 0
	mov	edx, DWORD PTR _p$[ebp]
	cvtss2sd xmm1, DWORD PTR [edx+ecx+20]
	mulsd	xmm1, QWORD PTR _frametime$[ebp]
	addsd	xmm0, xmm1
	mov	eax, 4
	shl	eax, 0
	cvtsd2ss xmm0, xmm0
	mov	ecx, DWORD PTR _p$[ebp]
	movss	DWORD PTR [ecx+eax], xmm0
	mov	edx, 4
	shl	edx, 1
	mov	eax, DWORD PTR _p$[ebp]
	cvtss2sd xmm0, DWORD PTR [eax+edx]
	mov	ecx, 4
	shl	ecx, 1
	mov	edx, DWORD PTR _p$[ebp]
	cvtss2sd xmm1, DWORD PTR [edx+ecx+20]
	mulsd	xmm1, QWORD PTR _frametime$[ebp]
	addsd	xmm0, xmm1
	cvtsd2ss xmm0, xmm0
	movss	DWORD PTR tv425[ebp], xmm0
	mov	eax, 4
	shl	eax, 1
	mov	ecx, DWORD PTR _p$[ebp]
	movss	xmm0, DWORD PTR tv425[ebp]
	movss	DWORD PTR [ecx+eax], xmm0
$LN15@CL_DrawPar:

; 431  : 		}
; 432  : 
; 433  : 		switch( p->type )

	mov	edx, DWORD PTR _p$[ebp]
	mov	eax, DWORD PTR [edx+40]
	mov	DWORD PTR tv427[ebp], eax
	mov	ecx, DWORD PTR tv427[ebp]
	sub	ecx, 1
	mov	DWORD PTR tv427[ebp], ecx
	cmp	DWORD PTR tv427[ebp], 9
	ja	$LN5@CL_DrawPar
	mov	edx, DWORD PTR tv427[ebp]
	jmp	DWORD PTR $LN51@CL_DrawPar[edx*4]

; 434  : 		{
; 435  : 		case pt_static:
; 436  : 			break;

	jmp	$LN5@CL_DrawPar
$LN17@CL_DrawPar:

; 437  : 		case pt_fire:
; 438  : 			p->ramp += time1;

	mov	eax, DWORD PTR _p$[ebp]
	movss	xmm0, DWORD PTR [eax+32]
	addss	xmm0, DWORD PTR _time1$[ebp]
	mov	ecx, DWORD PTR _p$[ebp]
	movss	DWORD PTR [ecx+32], xmm0

; 439  : 			if( p->ramp >= 6.0f ) p->die = -1.0f;

	mov	edx, DWORD PTR _p$[ebp]
	movss	xmm0, DWORD PTR [edx+32]
	comiss	xmm0, DWORD PTR __real@40c00000
	jb	SHORT $LN18@CL_DrawPar
	mov	eax, DWORD PTR _p$[ebp]
	movss	xmm0, DWORD PTR __real@bf800000
	movss	DWORD PTR [eax+36], xmm0
	jmp	SHORT $LN19@CL_DrawPar
$LN18@CL_DrawPar:

; 440  : 			else p->color = ramp3[(int)p->ramp];

	mov	ecx, DWORD PTR _p$[ebp]
	cvttss2si edx, DWORD PTR [ecx+32]
	mov	eax, DWORD PTR _p$[ebp]
	mov	cx, WORD PTR _ramp3[edx*4]
	mov	WORD PTR [eax+12], cx
$LN19@CL_DrawPar:

; 441  : 			p->vel[2] += grav;

	mov	edx, 4
	shl	edx, 1
	mov	eax, DWORD PTR _p$[ebp]
	movss	xmm0, DWORD PTR [eax+edx+20]
	addss	xmm0, DWORD PTR _grav$[ebp]
	mov	ecx, 4
	shl	ecx, 1
	mov	edx, DWORD PTR _p$[ebp]
	movss	DWORD PTR [edx+ecx+20], xmm0

; 442  : 			break;

	jmp	$LN5@CL_DrawPar
$LN20@CL_DrawPar:

; 443  : 		case pt_explode:
; 444  : 			p->ramp += time2;

	mov	eax, DWORD PTR _p$[ebp]
	movss	xmm0, DWORD PTR [eax+32]
	addss	xmm0, DWORD PTR _time2$[ebp]
	mov	ecx, DWORD PTR _p$[ebp]
	movss	DWORD PTR [ecx+32], xmm0

; 445  : 			if( p->ramp >= 8.0f ) p->die = -1.0f;

	mov	edx, DWORD PTR _p$[ebp]
	movss	xmm0, DWORD PTR [edx+32]
	comiss	xmm0, DWORD PTR __real@41000000
	jb	SHORT $LN21@CL_DrawPar
	mov	eax, DWORD PTR _p$[ebp]
	movss	xmm0, DWORD PTR __real@bf800000
	movss	DWORD PTR [eax+36], xmm0
	jmp	SHORT $LN22@CL_DrawPar
$LN21@CL_DrawPar:

; 446  : 			else p->color = ramp1[(int)p->ramp];

	mov	ecx, DWORD PTR _p$[ebp]
	cvttss2si edx, DWORD PTR [ecx+32]
	mov	eax, DWORD PTR _p$[ebp]
	mov	cx, WORD PTR _ramp1[edx*4]
	mov	WORD PTR [eax+12], cx
$LN22@CL_DrawPar:

; 447  : 			VectorMA( p->vel, dvel, p->vel, p->vel );

	mov	edx, 4
	imul	eax, edx, 0
	mov	ecx, 4
	imul	edx, ecx, 0
	mov	ecx, DWORD PTR _p$[ebp]
	movss	xmm0, DWORD PTR _dvel$[ebp]
	mulss	xmm0, DWORD PTR [ecx+edx+20]
	mov	edx, DWORD PTR _p$[ebp]
	addss	xmm0, DWORD PTR [edx+eax+20]
	mov	eax, 4
	imul	ecx, eax, 0
	mov	edx, DWORD PTR _p$[ebp]
	movss	DWORD PTR [edx+ecx+20], xmm0
	mov	eax, 4
	shl	eax, 0
	mov	ecx, 4
	shl	ecx, 0
	mov	edx, DWORD PTR _p$[ebp]
	movss	xmm0, DWORD PTR _dvel$[ebp]
	mulss	xmm0, DWORD PTR [edx+ecx+20]
	mov	ecx, DWORD PTR _p$[ebp]
	addss	xmm0, DWORD PTR [ecx+eax+20]
	mov	edx, 4
	shl	edx, 0
	mov	eax, DWORD PTR _p$[ebp]
	movss	DWORD PTR [eax+edx+20], xmm0
	mov	ecx, 4
	shl	ecx, 1
	mov	edx, 4
	shl	edx, 1
	mov	eax, DWORD PTR _p$[ebp]
	movss	xmm0, DWORD PTR _dvel$[ebp]
	mulss	xmm0, DWORD PTR [eax+edx+20]
	mov	edx, DWORD PTR _p$[ebp]
	movss	xmm1, DWORD PTR [edx+ecx+20]
	addss	xmm1, xmm0
	movss	DWORD PTR tv489[ebp], xmm1
	mov	eax, 4
	shl	eax, 1
	mov	ecx, DWORD PTR _p$[ebp]
	movss	xmm0, DWORD PTR tv489[ebp]
	movss	DWORD PTR [ecx+eax+20], xmm0

; 448  : 			p->vel[2] -= grav;

	mov	edx, 4
	shl	edx, 1
	mov	eax, DWORD PTR _p$[ebp]
	movss	xmm0, DWORD PTR [eax+edx+20]
	subss	xmm0, DWORD PTR _grav$[ebp]
	mov	ecx, 4
	shl	ecx, 1
	mov	edx, DWORD PTR _p$[ebp]
	movss	DWORD PTR [edx+ecx+20], xmm0

; 449  : 			break;

	jmp	$LN5@CL_DrawPar
$LN23@CL_DrawPar:

; 450  : 		case pt_explode2:
; 451  : 			p->ramp += time3;

	mov	eax, DWORD PTR _p$[ebp]
	movss	xmm0, DWORD PTR [eax+32]
	addss	xmm0, DWORD PTR _time3$[ebp]
	mov	ecx, DWORD PTR _p$[ebp]
	movss	DWORD PTR [ecx+32], xmm0

; 452  : 			if( p->ramp >= 8.0f ) p->die = -1.0f;

	mov	edx, DWORD PTR _p$[ebp]
	movss	xmm0, DWORD PTR [edx+32]
	comiss	xmm0, DWORD PTR __real@41000000
	jb	SHORT $LN24@CL_DrawPar
	mov	eax, DWORD PTR _p$[ebp]
	movss	xmm0, DWORD PTR __real@bf800000
	movss	DWORD PTR [eax+36], xmm0
	jmp	SHORT $LN25@CL_DrawPar
$LN24@CL_DrawPar:

; 453  : 			else p->color = ramp2[(int)p->ramp];

	mov	ecx, DWORD PTR _p$[ebp]
	cvttss2si edx, DWORD PTR [ecx+32]
	mov	eax, DWORD PTR _p$[ebp]
	mov	cx, WORD PTR _ramp2[edx*4]
	mov	WORD PTR [eax+12], cx
$LN25@CL_DrawPar:

; 454  : 			VectorMA( p->vel,-frametime, p->vel, p->vel );

	mov	edx, 4
	imul	eax, edx, 0
	mov	ecx, DWORD PTR _p$[ebp]
	cvtss2sd xmm0, DWORD PTR [ecx+eax+20]
	movsd	xmm1, QWORD PTR _frametime$[ebp]
	xorps	xmm1, QWORD PTR __xmm@80000000000000008000000000000000
	mov	edx, 4
	imul	eax, edx, 0
	mov	ecx, DWORD PTR _p$[ebp]
	cvtss2sd xmm2, DWORD PTR [ecx+eax+20]
	mulsd	xmm1, xmm2
	addsd	xmm0, xmm1
	mov	edx, 4
	imul	eax, edx, 0
	cvtsd2ss xmm0, xmm0
	mov	ecx, DWORD PTR _p$[ebp]
	movss	DWORD PTR [ecx+eax+20], xmm0
	mov	edx, 4
	shl	edx, 0
	mov	eax, DWORD PTR _p$[ebp]
	cvtss2sd xmm0, DWORD PTR [eax+edx+20]
	movsd	xmm1, QWORD PTR _frametime$[ebp]
	xorps	xmm1, QWORD PTR __xmm@80000000000000008000000000000000
	mov	ecx, 4
	shl	ecx, 0
	mov	edx, DWORD PTR _p$[ebp]
	cvtss2sd xmm2, DWORD PTR [edx+ecx+20]
	mulsd	xmm1, xmm2
	addsd	xmm0, xmm1
	mov	eax, 4
	shl	eax, 0
	cvtsd2ss xmm0, xmm0
	mov	ecx, DWORD PTR _p$[ebp]
	movss	DWORD PTR [ecx+eax+20], xmm0
	mov	edx, 4
	shl	edx, 1
	mov	eax, DWORD PTR _p$[ebp]
	cvtss2sd xmm0, DWORD PTR [eax+edx+20]
	movsd	xmm1, QWORD PTR _frametime$[ebp]
	xorps	xmm1, QWORD PTR __xmm@80000000000000008000000000000000
	mov	ecx, 4
	shl	ecx, 1
	mov	edx, DWORD PTR _p$[ebp]
	cvtss2sd xmm2, DWORD PTR [edx+ecx+20]
	mulsd	xmm1, xmm2
	addsd	xmm0, xmm1
	cvtsd2ss xmm0, xmm0
	movss	DWORD PTR tv555[ebp], xmm0
	mov	eax, 4
	shl	eax, 1
	mov	ecx, DWORD PTR _p$[ebp]
	movss	xmm0, DWORD PTR tv555[ebp]
	movss	DWORD PTR [ecx+eax+20], xmm0

; 455  : 			p->vel[2] -= grav;

	mov	edx, 4
	shl	edx, 1
	mov	eax, DWORD PTR _p$[ebp]
	movss	xmm0, DWORD PTR [eax+edx+20]
	subss	xmm0, DWORD PTR _grav$[ebp]
	mov	ecx, 4
	shl	ecx, 1
	mov	edx, DWORD PTR _p$[ebp]
	movss	DWORD PTR [edx+ecx+20], xmm0

; 456  : 			break;

	jmp	$LN5@CL_DrawPar
$LN26@CL_DrawPar:

; 457  : 		case pt_blob:
; 458  : 			if( p->packedColor == 255 )

	mov	eax, DWORD PTR _p$[ebp]
	movsx	ecx, WORD PTR [eax+14]
	cmp	ecx, 255				; 000000ffH
	jne	$LN27@CL_DrawPar

; 459  : 			{
; 460  : 				// normal blob explosion
; 461  : 				VectorMA( p->vel, dvel, p->vel, p->vel );

	mov	edx, 4
	imul	eax, edx, 0
	mov	ecx, 4
	imul	edx, ecx, 0
	mov	ecx, DWORD PTR _p$[ebp]
	movss	xmm0, DWORD PTR _dvel$[ebp]
	mulss	xmm0, DWORD PTR [ecx+edx+20]
	mov	edx, DWORD PTR _p$[ebp]
	addss	xmm0, DWORD PTR [edx+eax+20]
	mov	eax, 4
	imul	ecx, eax, 0
	mov	edx, DWORD PTR _p$[ebp]
	movss	DWORD PTR [edx+ecx+20], xmm0
	mov	eax, 4
	shl	eax, 0
	mov	ecx, 4
	shl	ecx, 0
	mov	edx, DWORD PTR _p$[ebp]
	movss	xmm0, DWORD PTR _dvel$[ebp]
	mulss	xmm0, DWORD PTR [edx+ecx+20]
	mov	ecx, DWORD PTR _p$[ebp]
	addss	xmm0, DWORD PTR [ecx+eax+20]
	mov	edx, 4
	shl	edx, 0
	mov	eax, DWORD PTR _p$[ebp]
	movss	DWORD PTR [eax+edx+20], xmm0
	mov	ecx, 4
	shl	ecx, 1
	mov	edx, 4
	shl	edx, 1
	mov	eax, DWORD PTR _p$[ebp]
	movss	xmm0, DWORD PTR _dvel$[ebp]
	mulss	xmm0, DWORD PTR [eax+edx+20]
	mov	edx, DWORD PTR _p$[ebp]
	movss	xmm1, DWORD PTR [edx+ecx+20]
	addss	xmm1, xmm0
	movss	DWORD PTR tv598[ebp], xmm1
	mov	eax, 4
	shl	eax, 1
	mov	ecx, DWORD PTR _p$[ebp]
	movss	xmm0, DWORD PTR tv598[ebp]
	movss	DWORD PTR [ecx+eax+20], xmm0

; 462  : 				p->vel[2] -= grav;

	mov	edx, 4
	shl	edx, 1
	mov	eax, DWORD PTR _p$[ebp]
	movss	xmm0, DWORD PTR [eax+edx+20]
	subss	xmm0, DWORD PTR _grav$[ebp]
	mov	ecx, 4
	shl	ecx, 1
	mov	edx, DWORD PTR _p$[ebp]
	movss	DWORD PTR [edx+ecx+20], xmm0

; 463  : 				break;

	jmp	$LN5@CL_DrawPar
$LN27@CL_DrawPar:

; 464  : 			}
; 465  : 		case pt_blob2:
; 466  : 			if( p->packedColor == 255 )

	mov	eax, DWORD PTR _p$[ebp]
	movsx	ecx, WORD PTR [eax+14]
	cmp	ecx, 255				; 000000ffH
	jne	$LN29@CL_DrawPar

; 467  : 			{
; 468  : 				// normal blob explosion
; 469  : 				p->vel[0] -= p->vel[0] * dvel;

	mov	edx, 4
	imul	eax, edx, 0
	mov	ecx, 4
	imul	edx, ecx, 0
	mov	ecx, DWORD PTR _p$[ebp]
	movss	xmm0, DWORD PTR [ecx+edx+20]
	mulss	xmm0, DWORD PTR _dvel$[ebp]
	mov	edx, DWORD PTR _p$[ebp]
	movss	xmm1, DWORD PTR [edx+eax+20]
	subss	xmm1, xmm0
	mov	eax, 4
	imul	ecx, eax, 0
	mov	edx, DWORD PTR _p$[ebp]
	movss	DWORD PTR [edx+ecx+20], xmm1

; 470  : 				p->vel[1] -= p->vel[1] * dvel;

	mov	eax, 4
	shl	eax, 0
	mov	ecx, 4
	shl	ecx, 0
	mov	edx, DWORD PTR _p$[ebp]
	movss	xmm0, DWORD PTR [edx+ecx+20]
	mulss	xmm0, DWORD PTR _dvel$[ebp]
	mov	ecx, DWORD PTR _p$[ebp]
	movss	xmm1, DWORD PTR [ecx+eax+20]
	subss	xmm1, xmm0
	mov	edx, 4
	shl	edx, 0
	mov	eax, DWORD PTR _p$[ebp]
	movss	DWORD PTR [eax+edx+20], xmm1

; 471  : 				p->vel[2] -= grav;

	mov	ecx, 4
	shl	ecx, 1
	mov	edx, DWORD PTR _p$[ebp]
	movss	xmm0, DWORD PTR [edx+ecx+20]
	subss	xmm0, DWORD PTR _grav$[ebp]
	mov	eax, 4
	shl	eax, 1
	mov	ecx, DWORD PTR _p$[ebp]
	movss	DWORD PTR [ecx+eax+20], xmm0

; 472  : 			}

	jmp	$LN30@CL_DrawPar
$LN29@CL_DrawPar:

; 473  : 			else
; 474  : 			{
; 475  : 				p->ramp += time2;

	mov	edx, DWORD PTR _p$[ebp]
	movss	xmm0, DWORD PTR [edx+32]
	addss	xmm0, DWORD PTR _time2$[ebp]
	mov	eax, DWORD PTR _p$[ebp]
	movss	DWORD PTR [eax+32], xmm0

; 476  : 				if( p->ramp >= 9.0f ) p->ramp = 0.0f;

	mov	ecx, DWORD PTR _p$[ebp]
	movss	xmm0, DWORD PTR [ecx+32]
	comiss	xmm0, DWORD PTR __real@41100000
	jb	SHORT $LN31@CL_DrawPar
	mov	edx, DWORD PTR _p$[ebp]
	xorps	xmm0, xmm0
	movss	DWORD PTR [edx+32], xmm0
$LN31@CL_DrawPar:

; 477  : 				p->color = gSparkRamp[(int)p->ramp];

	mov	eax, DWORD PTR _p$[ebp]
	cvttss2si ecx, DWORD PTR [eax+32]
	mov	edx, DWORD PTR _p$[ebp]
	mov	ax, WORD PTR _gSparkRamp[ecx*4]
	mov	WORD PTR [edx+12], ax

; 478  : 				VectorMA( p->vel, -frametime * 0.5f, p->vel, p->vel );

	mov	ecx, 4
	imul	edx, ecx, 0
	mov	eax, DWORD PTR _p$[ebp]
	cvtss2sd xmm0, DWORD PTR [eax+edx+20]
	movsd	xmm1, QWORD PTR _frametime$[ebp]
	xorps	xmm1, QWORD PTR __xmm@80000000000000008000000000000000
	mulsd	xmm1, QWORD PTR __real@3fe0000000000000
	mov	ecx, 4
	imul	edx, ecx, 0
	mov	eax, DWORD PTR _p$[ebp]
	cvtss2sd xmm2, DWORD PTR [eax+edx+20]
	mulsd	xmm1, xmm2
	addsd	xmm0, xmm1
	mov	ecx, 4
	imul	edx, ecx, 0
	cvtsd2ss xmm0, xmm0
	mov	eax, DWORD PTR _p$[ebp]
	movss	DWORD PTR [eax+edx+20], xmm0
	mov	ecx, 4
	shl	ecx, 0
	mov	edx, DWORD PTR _p$[ebp]
	cvtss2sd xmm0, DWORD PTR [edx+ecx+20]
	movsd	xmm1, QWORD PTR _frametime$[ebp]
	xorps	xmm1, QWORD PTR __xmm@80000000000000008000000000000000
	mulsd	xmm1, QWORD PTR __real@3fe0000000000000
	mov	eax, 4
	shl	eax, 0
	mov	ecx, DWORD PTR _p$[ebp]
	cvtss2sd xmm2, DWORD PTR [ecx+eax+20]
	mulsd	xmm1, xmm2
	addsd	xmm0, xmm1
	mov	edx, 4
	shl	edx, 0
	cvtsd2ss xmm0, xmm0
	mov	eax, DWORD PTR _p$[ebp]
	movss	DWORD PTR [eax+edx+20], xmm0
	mov	ecx, 4
	shl	ecx, 1
	mov	edx, DWORD PTR _p$[ebp]
	cvtss2sd xmm0, DWORD PTR [edx+ecx+20]
	movsd	xmm1, QWORD PTR _frametime$[ebp]
	xorps	xmm1, QWORD PTR __xmm@80000000000000008000000000000000
	mulsd	xmm1, QWORD PTR __real@3fe0000000000000
	mov	eax, 4
	shl	eax, 1
	mov	ecx, DWORD PTR _p$[ebp]
	cvtss2sd xmm2, DWORD PTR [ecx+eax+20]
	mulsd	xmm1, xmm2
	addsd	xmm0, xmm1
	cvtsd2ss xmm0, xmm0
	movss	DWORD PTR tv731[ebp], xmm0
	mov	edx, 4
	shl	edx, 1
	mov	eax, DWORD PTR _p$[ebp]
	movss	xmm0, DWORD PTR tv731[ebp]
	movss	DWORD PTR [eax+edx+20], xmm0

; 479  : 				p->type = COM_RandomLong( 0, 3 ) ? pt_blob : pt_blob2;

	push	3
	push	0
	call	_COM_RandomLong
	add	esp, 8
	test	eax, eax
	je	SHORT $LN49@CL_DrawPar
	mov	DWORD PTR tv737[ebp], 6
	jmp	SHORT $LN50@CL_DrawPar
$LN49@CL_DrawPar:
	mov	DWORD PTR tv737[ebp], 7
$LN50@CL_DrawPar:
	mov	ecx, DWORD PTR _p$[ebp]
	mov	edx, DWORD PTR tv737[ebp]
	mov	DWORD PTR [ecx+40], edx

; 480  : 				p->vel[2] -= grav * 5.0f;

	mov	eax, 4
	shl	eax, 1
	movss	xmm0, DWORD PTR _grav$[ebp]
	mulss	xmm0, DWORD PTR __real@40a00000
	mov	ecx, DWORD PTR _p$[ebp]
	movss	xmm1, DWORD PTR [ecx+eax+20]
	subss	xmm1, xmm0
	mov	edx, 4
	shl	edx, 1
	mov	eax, DWORD PTR _p$[ebp]
	movss	DWORD PTR [eax+edx+20], xmm1
$LN30@CL_DrawPar:

; 481  : 			}
; 482  : 			break;

	jmp	$LN5@CL_DrawPar
$LN32@CL_DrawPar:

; 483  : 		case pt_grav:
; 484  : 			p->vel[2] -= grav * 20.0f;

	mov	ecx, 4
	shl	ecx, 1
	movss	xmm0, DWORD PTR _grav$[ebp]
	mulss	xmm0, DWORD PTR __real@41a00000
	mov	edx, DWORD PTR _p$[ebp]
	movss	xmm1, DWORD PTR [edx+ecx+20]
	subss	xmm1, xmm0
	mov	eax, 4
	shl	eax, 1
	mov	ecx, DWORD PTR _p$[ebp]
	movss	DWORD PTR [ecx+eax+20], xmm1

; 485  : 			break;

	jmp	$LN5@CL_DrawPar
$LN33@CL_DrawPar:

; 486  : 		case pt_slowgrav:
; 487  : 			p->vel[2] -= grav;

	mov	edx, 4
	shl	edx, 1
