; Listing generated by Microsoft (R) Optimizing Compiler Version 19.16.27045.0 

	TITLE	C:\Users\USER\Downloads\xash_build4529_src\engine\client\gl_studio.c
	.686P
	.XMM
	include listing.inc
	.model	flat

INCLUDELIB MSVCRTD
INCLUDELIB OLDNAMES

PUBLIC	_pfnPlayerInfo
PUBLIC	_r_glowshellfreq
PUBLIC	_r_shadows
PUBLIC	_R_StudioGetPlayerState
PUBLIC	_cl_righthand
PUBLIC	_R_StudioDynamicLight
PUBLIC	_R_StudioEntityLight
PUBLIC	_R_StudioSetupLighting
PUBLIC	_R_StudioSetRenderamt
PUBLIC	_R_StudioSetCullState
PUBLIC	_R_StudioRenderShadow
PUBLIC	_R_StudioSetRemapColors
PUBLIC	_R_StudioGetForceFaceFlags
PUBLIC	_R_StudioSetForceFaceFlags
PUBLIC	_R_StudioSetHeader
PUBLIC	_R_StudioSetRenderModel
PUBLIC	_R_StudioSetChromeOrigin
PUBLIC	_GL_StudioSetRenderMode
EXTRN	_Mod_Calloc:PROC
EXTRN	_Mod_CacheCheck:PROC
EXTRN	_Mod_LoadCacheFile:PROC
EXTRN	_Mod_StudioExtradata:PROC
EXTRN	_pfnCVarGetPointer:PROC
EXTRN	_CL_ModelHandle:PROC
_DATA	SEGMENT
COMM	_pglGetError:DWORD
COMM	_pglGetString:DWORD
COMM	_pglAccum:DWORD
COMM	_pglAlphaFunc:DWORD
COMM	_pglArrayElement:DWORD
COMM	_pglBegin:DWORD
COMM	_pglBindTexture:DWORD
COMM	_pglBitmap:DWORD
COMM	_pglBlendFunc:DWORD
COMM	_pglCallList:DWORD
COMM	_pglCallLists:DWORD
COMM	_pglClear:DWORD
COMM	_pglClearAccum:DWORD
COMM	_pglClearColor:DWORD
COMM	_pglClearDepth:DWORD
COMM	_pglClearIndex:DWORD
COMM	_pglClearStencil:DWORD
COMM	_pglIsEnabled:DWORD
COMM	_pglIsList:DWORD
COMM	_pglIsTexture:DWORD
COMM	_pglClipPlane:DWORD
COMM	_pglColor3b:DWORD
COMM	_pglColor3bv:DWORD
COMM	_pglColor3d:DWORD
COMM	_pglColor3dv:DWORD
COMM	_pglColor3f:DWORD
COMM	_pglColor3fv:DWORD
COMM	_pglColor3i:DWORD
COMM	_pglColor3iv:DWORD
COMM	_pglColor3s:DWORD
COMM	_pglColor3sv:DWORD
COMM	_pglColor3ub:DWORD
COMM	_pglColor3ubv:DWORD
COMM	_pglColor3ui:DWORD
COMM	_pglColor3uiv:DWORD
COMM	_pglColor3us:DWORD
COMM	_pglColor3usv:DWORD
COMM	_pglColor4b:DWORD
COMM	_pglColor4bv:DWORD
COMM	_pglColor4d:DWORD
COMM	_pglColor4dv:DWORD
COMM	_pglColor4f:DWORD
COMM	_pglColor4fv:DWORD
COMM	_pglColor4i:DWORD
COMM	_pglColor4iv:DWORD
COMM	_pglColor4s:DWORD
COMM	_pglColor4sv:DWORD
COMM	_pglColor4ub:DWORD
COMM	_pglColor4ubv:DWORD
COMM	_pglColor4ui:DWORD
COMM	_pglColor4uiv:DWORD
COMM	_pglColor4us:DWORD
COMM	_pglColor4usv:DWORD
COMM	_pglColorMask:DWORD
COMM	_pglColorMaterial:DWORD
COMM	_pglColorPointer:DWORD
COMM	_pglCopyPixels:DWORD
COMM	_pglCopyTexImage1D:DWORD
COMM	_pglCopyTexImage2D:DWORD
COMM	_pglCopyTexSubImage1D:DWORD
COMM	_pglCopyTexSubImage2D:DWORD
COMM	_pglCullFace:DWORD
COMM	_pglDeleteLists:DWORD
COMM	_pglDeleteTextures:DWORD
COMM	_pglDepthFunc:DWORD
COMM	_pglDepthMask:DWORD
COMM	_pglDepthRange:DWORD
COMM	_pglDisable:DWORD
COMM	_pglDisableClientState:DWORD
COMM	_pglDrawArrays:DWORD
COMM	_pglDrawBuffer:DWORD
COMM	_pglDrawElements:DWORD
COMM	_pglDrawPixels:DWORD
COMM	_pglEdgeFlag:DWORD
COMM	_pglEdgeFlagPointer:DWORD
COMM	_pglEdgeFlagv:DWORD
COMM	_pglEnable:DWORD
COMM	_pglEnableClientState:DWORD
COMM	_pglEnd:DWORD
COMM	_pglEndList:DWORD
COMM	_pglEvalCoord1d:DWORD
COMM	_pglEvalCoord1dv:DWORD
COMM	_pglEvalCoord1f:DWORD
COMM	_pglEvalCoord1fv:DWORD
COMM	_pglEvalCoord2d:DWORD
COMM	_pglEvalCoord2dv:DWORD
COMM	_pglEvalCoord2f:DWORD
COMM	_pglEvalCoord2fv:DWORD
COMM	_pglEvalMesh1:DWORD
COMM	_pglEvalMesh2:DWORD
COMM	_pglEvalPoint1:DWORD
COMM	_pglEvalPoint2:DWORD
COMM	_pglFeedbackBuffer:DWORD
COMM	_pglFinish:DWORD
COMM	_pglFlush:DWORD
COMM	_pglFogf:DWORD
COMM	_pglFogfv:DWORD
COMM	_pglFogi:DWORD
COMM	_pglFogiv:DWORD
COMM	_pglFrontFace:DWORD
COMM	_pglFrustum:DWORD
COMM	_pglGenTextures:DWORD
COMM	_pglGetBooleanv:DWORD
COMM	_pglGetClipPlane:DWORD
COMM	_pglGetDoublev:DWORD
COMM	_pglGetFloatv:DWORD
COMM	_pglGetIntegerv:DWORD
COMM	_pglGetLightfv:DWORD
COMM	_pglGetLightiv:DWORD
COMM	_pglGetMapdv:DWORD
COMM	_pglGetMapfv:DWORD
COMM	_pglGetMapiv:DWORD
COMM	_pglGetMaterialfv:DWORD
COMM	_pglGetMaterialiv:DWORD
COMM	_pglGetPixelMapfv:DWORD
COMM	_pglGetPixelMapuiv:DWORD
COMM	_pglGetPixelMapusv:DWORD
COMM	_pglGetPointerv:DWORD
COMM	_pglGetPolygonStipple:DWORD
COMM	_pglGetTexEnvfv:DWORD
COMM	_pglGetTexEnviv:DWORD
COMM	_pglGetTexGendv:DWORD
COMM	_pglGetTexGenfv:DWORD
COMM	_pglGetTexGeniv:DWORD
COMM	_pglGetTexImage:DWORD
COMM	_pglGetTexLevelParameterfv:DWORD
COMM	_pglGetTexLevelParameteriv:DWORD
COMM	_pglGetTexParameterfv:DWORD
COMM	_pglGetTexParameteriv:DWORD
COMM	_pglHint:DWORD
COMM	_pglIndexMask:DWORD
COMM	_pglIndexPointer:DWORD
COMM	_pglIndexd:DWORD
COMM	_pglIndexdv:DWORD
COMM	_pglIndexf:DWORD
COMM	_pglIndexfv:DWORD
COMM	_pglIndexi:DWORD
COMM	_pglIndexiv:DWORD
COMM	_pglIndexs:DWORD
COMM	_pglIndexsv:DWORD
COMM	_pglIndexub:DWORD
COMM	_pglIndexubv:DWORD
COMM	_pglInitNames:DWORD
COMM	_pglInterleavedArrays:DWORD
COMM	_pglLightModelf:DWORD
COMM	_pglLightModelfv:DWORD
COMM	_pglLightModeli:DWORD
COMM	_pglLightModeliv:DWORD
COMM	_pglLightf:DWORD
COMM	_pglLightfv:DWORD
COMM	_pglLighti:DWORD
COMM	_pglLightiv:DWORD
COMM	_pglLineStipple:DWORD
COMM	_pglLineWidth:DWORD
COMM	_pglListBase:DWORD
COMM	_pglLoadIdentity:DWORD
COMM	_pglLoadMatrixd:DWORD
COMM	_pglLoadMatrixf:DWORD
COMM	_pglLoadName:DWORD
COMM	_pglLogicOp:DWORD
COMM	_pglMap1d:DWORD
COMM	_pglMap1f:DWORD
COMM	_pglMap2d:DWORD
COMM	_pglMap2f:DWORD
COMM	_pglMapGrid1d:DWORD
COMM	_pglMapGrid1f:DWORD
COMM	_pglMapGrid2d:DWORD
COMM	_pglMapGrid2f:DWORD
COMM	_pglMaterialf:DWORD
COMM	_pglMaterialfv:DWORD
COMM	_pglMateriali:DWORD
COMM	_pglMaterialiv:DWORD
COMM	_pglMatrixMode:DWORD
COMM	_pglMultMatrixd:DWORD
COMM	_pglMultMatrixf:DWORD
COMM	_pglNewList:DWORD
COMM	_pglNormal3b:DWORD
COMM	_pglNormal3bv:DWORD
COMM	_pglNormal3d:DWORD
COMM	_pglNormal3dv:DWORD
COMM	_pglNormal3f:DWORD
COMM	_pglNormal3fv:DWORD
COMM	_pglNormal3i:DWORD
COMM	_pglNormal3iv:DWORD
COMM	_pglNormal3s:DWORD
COMM	_pglNormal3sv:DWORD
COMM	_pglNormalPointer:DWORD
COMM	_pglOrtho:DWORD
COMM	_pglPassThrough:DWORD
COMM	_pglPixelMapfv:DWORD
COMM	_pglPixelMapuiv:DWORD
COMM	_pglPixelMapusv:DWORD
COMM	_pglPixelStoref:DWORD
COMM	_pglPixelStorei:DWORD
COMM	_pglPixelTransferf:DWORD
COMM	_pglPixelTransferi:DWORD
COMM	_pglPixelZoom:DWORD
COMM	_pglPointSize:DWORD
COMM	_pglPolygonMode:DWORD
COMM	_pglPolygonOffset:DWORD
COMM	_pglPolygonStipple:DWORD
COMM	_pglPopAttrib:DWORD
COMM	_pglPopClientAttrib:DWORD
COMM	_pglPopMatrix:DWORD
COMM	_pglPopName:DWORD
COMM	_pglPushAttrib:DWORD
COMM	_pglPushClientAttrib:DWORD
COMM	_pglPushMatrix:DWORD
COMM	_pglPushName:DWORD
COMM	_pglRasterPos2d:DWORD
COMM	_pglRasterPos2dv:DWORD
COMM	_pglRasterPos2f:DWORD
COMM	_pglRasterPos2fv:DWORD
COMM	_pglRasterPos2i:DWORD
COMM	_pglRasterPos2iv:DWORD
COMM	_pglRasterPos2s:DWORD
COMM	_pglRasterPos2sv:DWORD
COMM	_pglRasterPos3d:DWORD
COMM	_pglRasterPos3dv:DWORD
COMM	_pglRasterPos3f:DWORD
COMM	_pglRasterPos3fv:DWORD
COMM	_pglRasterPos3i:DWORD
COMM	_pglRasterPos3iv:DWORD
COMM	_pglRasterPos3s:DWORD
COMM	_pglRasterPos3sv:DWORD
COMM	_pglRasterPos4d:DWORD
COMM	_pglRasterPos4dv:DWORD
COMM	_pglRasterPos4f:DWORD
COMM	_pglRasterPos4fv:DWORD
COMM	_pglRasterPos4i:DWORD
COMM	_pglRasterPos4iv:DWORD
COMM	_pglRasterPos4s:DWORD
COMM	_pglRasterPos4sv:DWORD
COMM	_pglReadBuffer:DWORD
COMM	_pglReadPixels:DWORD
COMM	_pglRectd:DWORD
COMM	_pglRectdv:DWORD
COMM	_pglRectf:DWORD
COMM	_pglRectfv:DWORD
COMM	_pglRecti:DWORD
COMM	_pglRectiv:DWORD
COMM	_pglRects:DWORD
COMM	_pglRectsv:DWORD
COMM	_pglRotated:DWORD
COMM	_pglRotatef:DWORD
COMM	_pglScaled:DWORD
COMM	_pglScalef:DWORD
COMM	_pglScissor:DWORD
COMM	_pglSelectBuffer:DWORD
COMM	_pglShadeModel:DWORD
COMM	_pglStencilFunc:DWORD
COMM	_pglStencilMask:DWORD
COMM	_pglStencilOp:DWORD
COMM	_pglTexCoord1d:DWORD
COMM	_pglTexCoord1dv:DWORD
COMM	_pglTexCoord1f:DWORD
COMM	_pglTexCoord1fv:DWORD
COMM	_pglTexCoord1i:DWORD
COMM	_pglTexCoord1iv:DWORD
COMM	_pglTexCoord1s:DWORD
COMM	_pglTexCoord1sv:DWORD
COMM	_pglTexCoord2d:DWORD
COMM	_pglTexCoord2dv:DWORD
COMM	_pglTexCoord2f:DWORD
COMM	_pglTexCoord2fv:DWORD
COMM	_pglTexCoord2i:DWORD
COMM	_pglTexCoord2iv:DWORD
COMM	_pglTexCoord2s:DWORD
COMM	_pglTexCoord2sv:DWORD
COMM	_pglTexCoord3d:DWORD
COMM	_pglTexCoord3dv:DWORD
COMM	_pglTexCoord3f:DWORD
COMM	_pglTexCoord3fv:DWORD
COMM	_pglTexCoord3i:DWORD
COMM	_pglTexCoord3iv:DWORD
COMM	_pglTexCoord3s:DWORD
COMM	_pglTexCoord3sv:DWORD
COMM	_pglTexCoord4d:DWORD
COMM	_pglTexCoord4dv:DWORD
COMM	_pglTexCoord4f:DWORD
COMM	_pglTexCoord4fv:DWORD
COMM	_pglTexCoord4i:DWORD
COMM	_pglTexCoord4iv:DWORD
COMM	_pglTexCoord4s:DWORD
COMM	_pglTexCoord4sv:DWORD
COMM	_pglTexCoordPointer:DWORD
COMM	_pglTexEnvf:DWORD
COMM	_pglTexEnvfv:DWORD
COMM	_pglTexEnvi:DWORD
COMM	_pglTexEnviv:DWORD
COMM	_pglTexGend:DWORD
COMM	_pglTexGendv:DWORD
COMM	_pglTexGenf:DWORD
COMM	_pglTexGenfv:DWORD
COMM	_pglTexGeni:DWORD
COMM	_pglTexGeniv:DWORD
COMM	_pglTexImage1D:DWORD
COMM	_pglTexImage2D:DWORD
COMM	_pglTexParameterf:DWORD
COMM	_pglTexParameterfv:DWORD
COMM	_pglTexParameteri:DWORD
COMM	_pglTexParameteriv:DWORD
COMM	_pglTexSubImage1D:DWORD
COMM	_pglTexSubImage2D:DWORD
COMM	_pglTranslated:DWORD
COMM	_pglTranslatef:DWORD
COMM	_pglVertex2d:DWORD
COMM	_pglVertex2dv:DWORD
COMM	_pglVertex2f:DWORD
COMM	_pglVertex2fv:DWORD
COMM	_pglVertex2i:DWORD
COMM	_pglVertex2iv:DWORD
COMM	_pglVertex2s:DWORD
COMM	_pglVertex2sv:DWORD
COMM	_pglVertex3d:DWORD
COMM	_pglVertex3dv:DWORD
COMM	_pglVertex3f:DWORD
COMM	_pglVertex3fv:DWORD
COMM	_pglVertex3i:DWORD
COMM	_pglVertex3iv:DWORD
COMM	_pglVertex3s:DWORD
COMM	_pglVertex3sv:DWORD
COMM	_pglVertex4d:DWORD
COMM	_pglVertex4dv:DWORD
COMM	_pglVertex4f:DWORD
COMM	_pglVertex4fv:DWORD
COMM	_pglVertex4i:DWORD
COMM	_pglVertex4iv:DWORD
COMM	_pglVertex4s:DWORD
COMM	_pglVertex4sv:DWORD
COMM	_pglVertexPointer:DWORD
COMM	_pglViewport:DWORD
COMM	_pglPointParameterfEXT:DWORD
COMM	_pglPointParameterfvEXT:DWORD
COMM	_pglLockArraysEXT:DWORD
COMM	_pglUnlockArraysEXT:DWORD
COMM	_pglActiveTextureARB:DWORD
COMM	_pglClientActiveTextureARB:DWORD
COMM	_pglGetCompressedTexImage:DWORD
COMM	_pglDrawRangeElements:DWORD
COMM	_pglDrawRangeElementsEXT:DWORD
COMM	_pglMultiTexCoord1f:DWORD
COMM	_pglMultiTexCoord2f:DWORD
COMM	_pglMultiTexCoord3f:DWORD
COMM	_pglMultiTexCoord4f:DWORD
COMM	_pglActiveTexture:DWORD
COMM	_pglClientActiveTexture:DWORD
COMM	_pglCompressedTexImage3DARB:DWORD
COMM	_pglCompressedTexImage2DARB:DWORD
COMM	_pglCompressedTexImage1DARB:DWORD
COMM	_pglCompressedTexSubImage3DARB:DWORD
COMM	_pglCompressedTexSubImage2DARB:DWORD
COMM	_pglCompressedTexSubImage1DARB:DWORD
COMM	_pglDeleteObjectARB:DWORD
COMM	_pglGetHandleARB:DWORD
COMM	_pglDetachObjectARB:DWORD
COMM	_pglCreateShaderObjectARB:DWORD
COMM	_pglShaderSourceARB:DWORD
COMM	_pglCompileShaderARB:DWORD
COMM	_pglCreateProgramObjectARB:DWORD
COMM	_pglAttachObjectARB:DWORD
COMM	_pglLinkProgramARB:DWORD
COMM	_pglUseProgramObjectARB:DWORD
COMM	_pglValidateProgramARB:DWORD
COMM	_pglBindProgramARB:DWORD
COMM	_pglDeleteProgramsARB:DWORD
COMM	_pglGenProgramsARB:DWORD
COMM	_pglProgramStringARB:DWORD
COMM	_pglProgramEnvParameter4fARB:DWORD
COMM	_pglProgramLocalParameter4fARB:DWORD
COMM	_pglUniform1fARB:DWORD
COMM	_pglUniform2fARB:DWORD
COMM	_pglUniform3fARB:DWORD
COMM	_pglUniform4fARB:DWORD
COMM	_pglUniform1iARB:DWORD
COMM	_pglUniform2iARB:DWORD
COMM	_pglUniform3iARB:DWORD
COMM	_pglUniform4iARB:DWORD
COMM	_pglUniform1fvARB:DWORD
COMM	_pglUniform2fvARB:DWORD
COMM	_pglUniform3fvARB:DWORD
COMM	_pglUniform4fvARB:DWORD
COMM	_pglUniform1ivARB:DWORD
COMM	_pglUniform2ivARB:DWORD
COMM	_pglUniform3ivARB:DWORD
COMM	_pglUniform4ivARB:DWORD
COMM	_pglUniformMatrix2fvARB:DWORD
COMM	_pglUniformMatrix3fvARB:DWORD
COMM	_pglUniformMatrix4fvARB:DWORD
COMM	_pglGetObjectParameterfvARB:DWORD
COMM	_pglGetObjectParameterivARB:DWORD
COMM	_pglGetInfoLogARB:DWORD
COMM	_pglGetAttachedObjectsARB:DWORD
COMM	_pglGetUniformLocationARB:DWORD
COMM	_pglGetActiveUniformARB:DWORD
COMM	_pglGetUniformfvARB:DWORD
COMM	_pglGetUniformivARB:DWORD
COMM	_pglGetShaderSourceARB:DWORD
COMM	_pglTexImage3D:DWORD
COMM	_pglTexSubImage3D:DWORD
COMM	_pglCopyTexSubImage3D:DWORD
COMM	_pglBlendEquationEXT:DWORD
COMM	_pglStencilOpSeparate:DWORD
COMM	_pglStencilFuncSeparate:DWORD
COMM	_pglActiveStencilFaceEXT:DWORD
COMM	_pglVertexAttribPointerARB:DWORD
COMM	_pglEnableVertexAttribArrayARB:DWORD
COMM	_pglDisableVertexAttribArrayARB:DWORD
COMM	_pglBindAttribLocationARB:DWORD
COMM	_pglGetActiveAttribARB:DWORD
COMM	_pglGetAttribLocationARB:DWORD
COMM	_pglBindFragDataLocation:DWORD
COMM	_pglVertexAttrib2fARB:DWORD
COMM	_pglVertexAttrib2fvARB:DWORD
COMM	_pglVertexAttrib3fvARB:DWORD
COMM	_pglBindBufferARB:DWORD
COMM	_pglDeleteBuffersARB:DWORD
COMM	_pglGenBuffersARB:DWORD
COMM	_pglIsBufferARB:DWORD
COMM	_pglMapBufferARB:DWORD
COMM	_pglUnmapBufferARB:DWORD
COMM	_pglBufferDataARB:DWORD
COMM	_pglBufferSubDataARB:DWORD
COMM	_pglGenQueriesARB:DWORD
COMM	_pglDeleteQueriesARB:DWORD
COMM	_pglIsQueryARB:DWORD
COMM	_pglBeginQueryARB:DWORD
COMM	_pglEndQueryARB:DWORD
COMM	_pglGetQueryivARB:DWORD
COMM	_pglGetQueryObjectivARB:DWORD
COMM	_pglGetQueryObjectuivARB:DWORD
COMM	_pglDebugMessageControlARB:DWORD
COMM	_pglDebugMessageInsertARB:DWORD
COMM	_pglDebugMessageCallbackARB:DWORD
COMM	_pglGetDebugMessageLogARB:DWORD
COMM	_pglIsRenderbuffer:DWORD
COMM	_pglBindRenderbuffer:DWORD
COMM	_pglDeleteRenderbuffers:DWORD
COMM	_pglGenRenderbuffers:DWORD
COMM	_pglRenderbufferStorage:DWORD
COMM	_pglRenderbufferStorageMultisample:DWORD
COMM	_pglGetRenderbufferParameteriv:DWORD
COMM	_pglIsFramebuffer:DWORD
COMM	_pglBindFramebuffer:DWORD
COMM	_pglDeleteFramebuffers:DWORD
COMM	_pglGenFramebuffers:DWORD
COMM	_pglCheckFramebufferStatus:DWORD
COMM	_pglFramebufferTexture1D:DWORD
COMM	_pglFramebufferTexture2D:DWORD
COMM	_pglFramebufferTexture3D:DWORD
COMM	_pglFramebufferTextureLayer:DWORD
COMM	_pglFramebufferRenderbuffer:DWORD
COMM	_pglGetFramebufferAttachmentParameteriv:DWORD
COMM	_pglBlitFramebuffer:DWORD
COMM	_pglDrawBuffersARB:DWORD
COMM	_pglGenerateMipmap:DWORD
COMM	_pglBindVertexArray:DWORD
COMM	_pglDeleteVertexArrays:DWORD
COMM	_pglGenVertexArrays:DWORD
COMM	_pglIsVertexArray:DWORD
COMM	_pglSwapInterval:DWORD
COMM	_pwglSwapBuffers:DWORD
COMM	_pwglCopyContext:DWORD
COMM	_pwglCreateContext:DWORD
COMM	_pwglCreateLayerContext:DWORD
COMM	_pwglDeleteContext:DWORD
COMM	_pwglGetCurrentContext:DWORD
COMM	_pwglGetProcAddress:DWORD
COMM	_pwglMakeCurrent:DWORD
COMM	_pwglShareLists:DWORD
COMM	_pwglUseFontBitmaps:DWORD
COMM	_pwglUseFontOutlines:DWORD
COMM	_pwglDescribeLayerPlane:DWORD
COMM	_pwglSetLayerPaletteEntries:DWORD
COMM	_pwglGetLayerPaletteEntries:DWORD
COMM	_pwglRealizeLayerPalette:DWORD
COMM	_pwglSwapLayerBuffers:DWORD
COMM	_pwglSwapIntervalEXT:DWORD
COMM	_pwglCreateContextAttribsARB:DWORD
COMM	_pwglGetPixelFormatAttribiv:DWORD
COMM	_pwglChoosePixelFormat:DWORD
COMM	_pwglGetExtensionsStringEXT:DWORD
COMM	_r_studio_sort_textures:DWORD
COMM	_r_drawviewmodel:DWORD
COMM	_cl_himodels:DWORD
COMM	_m_pSubModel:DWORD
COMM	_m_pBodyPart:DWORD
COMM	_m_pPlayerInfo:DWORD
COMM	_m_pStudioHeader:DWORD
COMM	_m_flGaitMovement:DWORD
COMM	_g_iBackFaceCull:DWORD
COMM	_g_nTopColor:DWORD
COMM	_g_nBottomColor:DWORD
COMM	_g_nFaceFlags:DWORD
COMM	_g_nForceFaceFlags:DWORD
_DATA	ENDS
_BSS	SEGMENT
_cl_righthand DD 01H DUP (?)
_BSS	ENDS
_DATA	SEGMENT
_r_glowshellfreq DD FLAT:$SG144835
	DD	FLAT:$SG144836
	DD	00H
	DD	000000000r			; 0
	DD	0deadbeefH
	DD	FLAT:$SG144837
	ORG $+4
$SG144835 DB	'r_glowshellfreq', 00H
$SG144836 DB	'2.2', 00H
$SG144837 DB	'glowing shell frequency update', 00H
	ORG $+1
_r_shadows DD	FLAT:$SG144840
	DD	FLAT:$SG144841
	DD	00H
	DD	000000000r			; 0
	DD	0deadbeefH
	DD	FLAT:$SG144842
	ORG $+4
$SG144840 DB	'r_shadows', 00H
	ORG $+2
$SG144841 DB	'0', 00H
	ORG $+2
$SG144842 DB	'cast shadows from models', 00H
_DATA	ENDS
PUBLIC	_R_StudioSlerpBones
PUBLIC	_R_StudioCalcBoneQuaternion
PUBLIC	_R_StudioCalcBonePosition
PUBLIC	_R_StudioGetAnim
PUBLIC	_Mod_StudioLoadTextures
PUBLIC	_Mod_StudioUnloadTextures
PUBLIC	_CL_InitStudioAPI
PUBLIC	_R_StudioInit
PUBLIC	_R_StudioLerpMovement
PUBLIC	_CL_GetSequenceDuration
PUBLIC	_R_StudioGetTexture
PUBLIC	_CL_GetStudioEstimatedFrame
PUBLIC	_R_GetEntityRenderMode
PUBLIC	_R_DrawStudioModel
PUBLIC	_R_GatherPlayerLight
PUBLIC	_R_RunViewmodelEvents
PUBLIC	_R_DrawViewModel
PUBLIC	_R_StudioComputeSkinMatrix
PUBLIC	_R_StudioPlayerBlend
PUBLIC	_R_StudioSetUpTransform
PUBLIC	_R_StudioEstimateFrame
PUBLIC	_R_StudioEstimateInterpolant
PUBLIC	_R_StudioFxTransform
PUBLIC	_R_StudioCalcBoneAdj
PUBLIC	_R_StudioCalcRotations
PUBLIC	_R_StudioMergeBones
PUBLIC	_R_StudioSetupBones
PUBLIC	_R_StudioBuildNormalTable
PUBLIC	_R_StudioGenerateNormals
PUBLIC	_R_StudioSetupChrome
PUBLIC	_R_StudioLighting
PUBLIC	_R_LightLambert
PUBLIC	_R_LightStrength
PUBLIC	_R_StudioRenderFinal
PUBLIC	_R_StudioRenderModel
PUBLIC	_R_StudioEstimateGait
PUBLIC	_R_StudioProcessGait
PUBLIC	_R_StudioDrawModelInternal
PUBLIC	__real@00000000
PUBLIC	__real@0000000000000000
PUBLIC	__real@38d1b717
PUBLIC	__real@3b808081
PUBLIC	__real@3c000000
PUBLIC	__real@3c23d70a
PUBLIC	__real@3c8efa35
PUBLIC	__real@3d4ccccd
PUBLIC	__real@3dcccccd
PUBLIC	__real@3e4ccccd
PUBLIC	__real@3e70f0f1
PUBLIC	__real@3e800000
PUBLIC	__real@3e99999a
PUBLIC	__real@3f000000
PUBLIC	__real@3f19999a
PUBLIC	__real@3f333333
PUBLIC	__real@3f4ccccd
PUBLIC	__real@3f666666
PUBLIC	__real@3f800000
PUBLIC	__real@3fa99999a0000000
PUBLIC	__real@3fb40000
PUBLIC	__real@3fb99999a0000000
PUBLIC	__real@3fbdf3b6
PUBLIC	__real@3fbf5c29
PUBLIC	__real@3fc99999a0000000
PUBLIC	__real@3fd51eb860000000
PUBLIC	__real@3fe0000000000000
PUBLIC	__real@3ff0000000000000
PUBLIC	__real@3ff004189374bc6a
PUBLIC	__real@40000000
PUBLIC	__real@400921fb60000000
PUBLIC	__real@4024000000000000
PUBLIC	__real@40400000
PUBLIC	__real@4066800000000000
PUBLIC	__real@4070000000000000
PUBLIC	__real@40800000
PUBLIC	__real@40a00000
PUBLIC	__real@40af400000000000
PUBLIC	__real@40c00000
PUBLIC	__real@40e00000
PUBLIC	__real@41000000
PUBLIC	__real@41200000
PUBLIC	__real@41800000
PUBLIC	__real@41c00000
PUBLIC	__real@41f00000
PUBLIC	__real@42000000
PUBLIC	__real@42800000
PUBLIC	__real@42f00000
PUBLIC	__real@43000000
PUBLIC	__real@43340000
PUBLIC	__real@437f0000
PUBLIC	__real@43800000
PUBLIC	__real@43a00000
PUBLIC	__real@43b40000
PUBLIC	__real@44400000
PUBLIC	__real@45000000
PUBLIC	__real@45f00800
PUBLIC	__real@46000000
PUBLIC	__real@46040000
PUBLIC	__real@47800000
PUBLIC	__real@49742400
PUBLIC	__real@bc23d70a
PUBLIC	__real@bf800000
PUBLIC	__real@c1200000
PUBLIC	__real@c2800000
PUBLIC	__real@c2f00000
PUBLIC	__real@c3340000
PUBLIC	__xmm@41f00000000000000000000000000000
PUBLIC	__xmm@80000000800000008000000080000000
EXTRN	_memcpy:PROC
EXTRN	__imp__qsort:PROC
EXTRN	_abs:PROC
EXTRN	_Q_strncpy:PROC
EXTRN	_Q_atoi:PROC
EXTRN	_Q_strnicmp:PROC
EXTRN	_Q_strncmp:PROC
EXTRN	_Q_snprintf:PROC
EXTRN	__Mem_Realloc:PROC
EXTRN	__Mem_Alloc:PROC
EXTRN	__Mem_Free:PROC
EXTRN	_Cvar_RegisterVariable:PROC
EXTRN	_Cvar_Get:PROC
EXTRN	_DBG_AssertFunction:PROC
EXTRN	_COM_FileBase:PROC
EXTRN	_COM_ExtractFilePath:PROC
EXTRN	_FS_LoadFile:PROC
EXTRN	_FS_FileExists:PROC
EXTRN	_COM_StripExtension:PROC
EXTRN	_Host_IsLocalGame:PROC
EXTRN	_Host_Error:PROC
EXTRN	_Con_Printf:PROC
EXTRN	_CL_IsThirdPerson:PROC
EXTRN	_CL_GetEntityByIndex:PROC
EXTRN	_COM_RandomLong:PROC
EXTRN	_COM_RandomFloat:PROC
EXTRN	_LightToTexGamma:PROC
EXTRN	_atan2:PROC
EXTRN	_cos:PROC
EXTRN	_sin:PROC
EXTRN	_sqrt:PROC
EXTRN	_HalfToFloat:PROC
EXTRN	_VectorCompareEpsilon:PROC
EXTRN	_ClearBounds:PROC
EXTRN	_AddPointToBounds:PROC
EXTRN	_AngleQuaternion:PROC
EXTRN	_QuaternionAngle:PROC
EXTRN	_QuaternionSlerp:PROC
EXTRN	_Matrix3x4_VectorTransform:PROC
EXTRN	_Matrix3x4_VectorITransform:PROC
EXTRN	_Matrix3x4_VectorRotate:PROC
EXTRN	_Matrix3x4_VectorIRotate:PROC
EXTRN	_Matrix3x4_ConcatTransforms:PROC
EXTRN	_Matrix3x4_FromOriginQuat:PROC
EXTRN	_Matrix3x4_CreateFromEntity:PROC
EXTRN	_Matrix3x4_OriginFromMatrix:PROC
EXTRN	_Mod_ForName:PROC
EXTRN	_CL_TraceLine:PROC
EXTRN	_CL_GetRemapInfoForEntity:PROC
EXTRN	_CL_AllocRemapInfo:PROC
EXTRN	_CL_UpdateRemapInfo:PROC
EXTRN	_CL_FxBlend:PROC
EXTRN	_PM_TraceSurface:PROC
EXTRN	_GL_Bind:PROC
EXTRN	_R_CullModel:PROC
EXTRN	_GL_LoadTexture:PROC
EXTRN	_GL_FreeTexture:PROC
EXTRN	_R_LightVec:PROC
EXTRN	_R_LightPoint:PROC
EXTRN	_R_AllowFog:PROC
EXTRN	_R_DrawAliasModel:PROC
EXTRN	_CL_AllocElight:PROC
EXTRN	_TriBegin:PROC
EXTRN	_TriVertex3fv:PROC
EXTRN	_TriColor4f:PROC
EXTRN	_TriSpriteTexture:PROC
EXTRN	_TriColor4ub:PROC
EXTRN	_TriBrightness:PROC
EXTRN	_TriRenderMode:PROC
EXTRN	_TriEnd:PROC
EXTRN	@__security_check_cookie@4:PROC
EXTRN	__ftol2_sse:PROC
EXTRN	_host_developer:BYTE
EXTRN	_host:BYTE
EXTRN	_vec3_origin:BYTE
EXTRN	_boxpnt:BYTE
EXTRN	_matrix3x4_identity:BYTE
EXTRN	_com_studiocache:DWORD
EXTRN	_cl:BYTE
EXTRN	_clgame:BYTE
EXTRN	_gameui:BYTE
EXTRN	_r_stats:BYTE
EXTRN	_RI:BYTE
EXTRN	_tr:BYTE
EXTRN	_gldepthmin:DWORD
EXTRN	_gldepthmax:DWORD
EXTRN	_cl_dlights:BYTE
EXTRN	_cl_elights:BYTE
EXTRN	_glState:BYTE
EXTRN	_r_fullbright:DWORD
EXTRN	_r_drawentities:DWORD
EXTRN	_r_dynamic:DWORD
EXTRN	_r_lightmap:DWORD
EXTRN	_cl_sprite_shell:DWORD
EXTRN	___security_cookie:DWORD
EXTRN	__fltused:DWORD
_BSS	SEGMENT
_pStudioDraw DD	01H DUP (?)
_g_studio DB	01cbec0H DUP (?)
_m_fDoRemap DD	01H DUP (?)
?q@?1??R_StudioMergeBones@@9@9 DD 0200H DUP (?)		; `R_StudioMergeBones'::`2'::q
?pos@?1??R_StudioMergeBones@@9@9 DD 0180H DUP (?)	; `R_StudioMergeBones'::`2'::pos
?pos@?1??R_StudioSetupBones@@9@9 DD 0180H DUP (?)	; `R_StudioSetupBones'::`2'::pos
?q@?1??R_StudioSetupBones@@9@9 DD 0200H DUP (?)		; `R_StudioSetupBones'::`2'::q
?pos2@?1??R_StudioSetupBones@@9@9 DD 0180H DUP (?)	; `R_StudioSetupBones'::`2'::pos2
?q2@?1??R_StudioSetupBones@@9@9 DD 0200H DUP (?)	; `R_StudioSetupBones'::`2'::q2
?pos3@?1??R_StudioSetupBones@@9@9 DD 0180H DUP (?)	; `R_StudioSetupBones'::`2'::pos3
?q3@?1??R_StudioSetupBones@@9@9 DD 0200H DUP (?)	; `R_StudioSetupBones'::`2'::q3
?pos4@?1??R_StudioSetupBones@@9@9 DD 0180H DUP (?)	; `R_StudioSetupBones'::`2'::pos4
?q4@?1??R_StudioSetupBones@@9@9 DD 0200H DUP (?)	; `R_StudioSetupBones'::`2'::q4
?pos1b@?4??R_StudioSetupBones@@9@9 DD 0180H DUP (?)	; `R_StudioSetupBones'::`5'::pos1b
?q1b@?4??R_StudioSetupBones@@9@9 DD 0200H DUP (?)	; `R_StudioSetupBones'::`5'::q1b
_BSS	ENDS
;	COMDAT __xmm@80000000800000008000000080000000
CONST	SEGMENT
__xmm@80000000800000008000000080000000 DB 00H, 00H, 00H, 080H, 00H, 00H, 00H
	DB	080H, 00H, 00H, 00H, 080H, 00H, 00H, 00H, 080H
CONST	ENDS
;	COMDAT __xmm@41f00000000000000000000000000000
CONST	SEGMENT
__xmm@41f00000000000000000000000000000 DB 00H, 00H, 00H, 00H, 00H, 00H, 00H
	DB	00H, 00H, 00H, 00H, 00H, 00H, 00H, 0f0H, 'A'
CONST	ENDS
;	COMDAT __real@c3340000
CONST	SEGMENT
__real@c3340000 DD 0c3340000r			; -180
CONST	ENDS
;	COMDAT __real@c2f00000
CONST	SEGMENT
__real@c2f00000 DD 0c2f00000r			; -120
CONST	ENDS
;	COMDAT __real@c2800000
CONST	SEGMENT
__real@c2800000 DD 0c2800000r			; -64
CONST	ENDS
;	COMDAT __real@c1200000
CONST	SEGMENT
__real@c1200000 DD 0c1200000r			; -10
CONST	ENDS
;	COMDAT __real@bf800000
CONST	SEGMENT
__real@bf800000 DD 0bf800000r			; -1
CONST	ENDS
;	COMDAT __real@bc23d70a
CONST	SEGMENT
__real@bc23d70a DD 0bc23d70ar			; -0.01
CONST	ENDS
;	COMDAT __real@49742400
CONST	SEGMENT
__real@49742400 DD 049742400r			; 1e+06
CONST	ENDS
;	COMDAT __real@47800000
CONST	SEGMENT
__real@47800000 DD 047800000r			; 65536
CONST	ENDS
;	COMDAT __real@46040000
CONST	SEGMENT
__real@46040000 DD 046040000r			; 8448
CONST	ENDS
;	COMDAT __real@46000000
CONST	SEGMENT
__real@46000000 DD 046000000r			; 8192
CONST	ENDS
;	COMDAT __real@45f00800
CONST	SEGMENT
__real@45f00800 DD 045f00800r			; 7681
CONST	ENDS
;	COMDAT __real@45000000
CONST	SEGMENT
__real@45000000 DD 045000000r			; 2048
CONST	ENDS
;	COMDAT __real@44400000
CONST	SEGMENT
__real@44400000 DD 044400000r			; 768
CONST	ENDS
;	COMDAT __real@43b40000
CONST	SEGMENT
__real@43b40000 DD 043b40000r			; 360
CONST	ENDS
;	COMDAT __real@43a00000
CONST	SEGMENT
__real@43a00000 DD 043a00000r			; 320
CONST	ENDS
;	COMDAT __real@43800000
CONST	SEGMENT
__real@43800000 DD 043800000r			; 256
CONST	ENDS
;	COMDAT __real@437f0000
CONST	SEGMENT
__real@437f0000 DD 0437f0000r			; 255
CONST	ENDS
;	COMDAT __real@43340000
CONST	SEGMENT
__real@43340000 DD 043340000r			; 180
CONST	ENDS
;	COMDAT __real@43000000
CONST	SEGMENT
__real@43000000 DD 043000000r			; 128
CONST	ENDS
;	COMDAT __real@42f00000
CONST	SEGMENT
__real@42f00000 DD 042f00000r			; 120
CONST	ENDS
;	COMDAT __real@42800000
CONST	SEGMENT
__real@42800000 DD 042800000r			; 64
CONST	ENDS
;	COMDAT __real@42000000
CONST	SEGMENT
__real@42000000 DD 042000000r			; 32
CONST	ENDS
;	COMDAT __real@41f00000
CONST	SEGMENT
__real@41f00000 DD 041f00000r			; 30
CONST	ENDS
;	COMDAT __real@41c00000
CONST	SEGMENT
__real@41c00000 DD 041c00000r			; 24
CONST	ENDS
;	COMDAT __real@41800000
CONST	SEGMENT
__real@41800000 DD 041800000r			; 16
CONST	ENDS
;	COMDAT __real@41200000
CONST	SEGMENT
__real@41200000 DD 041200000r			; 10
CONST	ENDS
;	COMDAT __real@41000000
CONST	SEGMENT
__real@41000000 DD 041000000r			; 8
CONST	ENDS
;	COMDAT __real@40e00000
CONST	SEGMENT
__real@40e00000 DD 040e00000r			; 7
CONST	ENDS
;	COMDAT __real@40c00000
CONST	SEGMENT
__real@40c00000 DD 040c00000r			; 6
CONST	ENDS
;	COMDAT __real@40af400000000000
CONST	SEGMENT
__real@40af400000000000 DQ 040af400000000000r	; 4000
CONST	ENDS
;	COMDAT __real@40a00000
CONST	SEGMENT
__real@40a00000 DD 040a00000r			; 5
CONST	ENDS
;	COMDAT __real@40800000
CONST	SEGMENT
__real@40800000 DD 040800000r			; 4
CONST	ENDS
;	COMDAT __real@4070000000000000
CONST	SEGMENT
__real@4070000000000000 DQ 04070000000000000r	; 256
CONST	ENDS
;	COMDAT __real@4066800000000000
CONST	SEGMENT
__real@4066800000000000 DQ 04066800000000000r	; 180
CONST	ENDS
;	COMDAT __real@40400000
CONST	SEGMENT
__real@40400000 DD 040400000r			; 3
CONST	ENDS
;	COMDAT __real@4024000000000000
CONST	SEGMENT
__real@4024000000000000 DQ 04024000000000000r	; 10
CONST	ENDS
;	COMDAT __real@400921fb60000000
CONST	SEGMENT
__real@400921fb60000000 DQ 0400921fb60000000r	; 3.14159
CONST	ENDS
;	COMDAT __real@40000000
CONST	SEGMENT
__real@40000000 DD 040000000r			; 2
CONST	ENDS
;	COMDAT __real@3ff004189374bc6a
CONST	SEGMENT
__real@3ff004189374bc6a DQ 03ff004189374bc6ar	; 1.001
CONST	ENDS
;	COMDAT __real@3ff0000000000000
CONST	SEGMENT
__real@3ff0000000000000 DQ 03ff0000000000000r	; 1
CONST	ENDS
;	COMDAT __real@3fe0000000000000
CONST	SEGMENT
__real@3fe0000000000000 DQ 03fe0000000000000r	; 0.5
CONST	ENDS
;	COMDAT __real@3fd51eb860000000
CONST	SEGMENT
__real@3fd51eb860000000 DQ 03fd51eb860000000r	; 0.33
CONST	ENDS
;	COMDAT __real@3fc99999a0000000
CONST	SEGMENT
__real@3fc99999a0000000 DQ 03fc99999a0000000r	; 0.2
CONST	ENDS
;	COMDAT __real@3fbf5c29
CONST	SEGMENT
__real@3fbf5c29 DD 03fbf5c29r			; 1.495
CONST	ENDS
;	COMDAT __real@3fbdf3b6
CONST	SEGMENT
__real@3fbdf3b6 DD 03fbdf3b6r			; 1.484
CONST	ENDS
;	COMDAT __real@3fb99999a0000000
CONST	SEGMENT
__real@3fb99999a0000000 DQ 03fb99999a0000000r	; 0.1
CONST	ENDS
;	COMDAT __real@3fb40000
CONST	SEGMENT
__real@3fb40000 DD 03fb40000r			; 1.40625
CONST	ENDS
;	COMDAT __real@3fa99999a0000000
CONST	SEGMENT
__real@3fa99999a0000000 DQ 03fa99999a0000000r	; 0.05
CONST	ENDS
;	COMDAT __real@3f800000
CONST	SEGMENT
__real@3f800000 DD 03f800000r			; 1
CONST	ENDS
;	COMDAT __real@3f666666
CONST	SEGMENT
__real@3f666666 DD 03f666666r			; 0.9
CONST	ENDS
;	COMDAT __real@3f4ccccd
CONST	SEGMENT
__real@3f4ccccd DD 03f4ccccdr			; 0.8
CONST	ENDS
;	COMDAT __real@3f333333
CONST	SEGMENT
__real@3f333333 DD 03f333333r			; 0.7
CONST	ENDS
;	COMDAT __real@3f19999a
CONST	SEGMENT
__real@3f19999a DD 03f19999ar			; 0.6
CONST	ENDS
;	COMDAT __real@3f000000
CONST	SEGMENT
__real@3f000000 DD 03f000000r			; 0.5
CONST	ENDS
;	COMDAT __real@3e99999a
CONST	SEGMENT
__real@3e99999a DD 03e99999ar			; 0.3
CONST	ENDS
;	COMDAT __real@3e800000
CONST	SEGMENT
__real@3e800000 DD 03e800000r			; 0.25
CONST	ENDS
;	COMDAT __real@3e70f0f1
CONST	SEGMENT
__real@3e70f0f1 DD 03e70f0f1r			; 0.235294
CONST	ENDS
;	COMDAT __real@3e4ccccd
CONST	SEGMENT
__real@3e4ccccd DD 03e4ccccdr			; 0.2
CONST	ENDS
;	COMDAT __real@3dcccccd
CONST	SEGMENT
__real@3dcccccd DD 03dcccccdr			; 0.1
CONST	ENDS
;	COMDAT __real@3d4ccccd
CONST	SEGMENT
__real@3d4ccccd DD 03d4ccccdr			; 0.05
CONST	ENDS
;	COMDAT __real@3c8efa35
CONST	SEGMENT
__real@3c8efa35 DD 03c8efa35r			; 0.0174533
CONST	ENDS
;	COMDAT __real@3c23d70a
CONST	SEGMENT
__real@3c23d70a DD 03c23d70ar			; 0.01
CONST	ENDS
;	COMDAT __real@3c000000
CONST	SEGMENT
__real@3c000000 DD 03c000000r			; 0.0078125
CONST	ENDS
;	COMDAT __real@3b808081
CONST	SEGMENT
__real@3b808081 DD 03b808081r			; 0.00392157
CONST	ENDS
;	COMDAT __real@38d1b717
CONST	SEGMENT
__real@38d1b717 DD 038d1b717r			; 0.0001
CONST	ENDS
;	COMDAT __real@0000000000000000
CONST	SEGMENT
__real@0000000000000000 DQ 00000000000000000r	; 0
CONST	ENDS
;	COMDAT __real@00000000
CONST	SEGMENT
__real@00000000 DD 000000000r			; 0
CONST	ENDS
_DATA	SEGMENT
	ORG $+3
_hullcolor DD	03f800000r			; 1
	DD	03f800000r			; 1
	DD	03f800000r			; 1
	DD	03f800000r			; 1
	DD	03f000000r			; 0.5
	DD	03f000000r			; 0.5
	DD	03f000000r			; 0.5
	DD	03f800000r			; 1
	DD	03f000000r			; 0.5
	DD	03f800000r			; 1
	DD	03f800000r			; 1
	DD	03f000000r			; 0.5
	DD	03f000000r			; 0.5
	DD	03f000000r			; 0.5
	DD	03f800000r			; 1
	DD	03f800000r			; 1
	DD	03f000000r			; 0.5
	DD	03f800000r			; 1
	DD	03f000000r			; 0.5
	DD	03f800000r			; 1
	DD	03f800000r			; 1
	DD	03f800000r			; 1
	DD	03f800000r			; 1
	DD	03f800000r			; 1
$SG144907 DB	'draw high-resolution player models in multiplayer', 00H
	ORG $+2
$SG144908 DB	'1', 00H
	ORG $+2
$SG144909 DB	'cl_himodels', 00H
$SG144910 DB	'change draw order for additive meshes', 00H
	ORG $+2
$SG144911 DB	'0', 00H
	ORG $+2
$SG144912 DB	'r_studio_sort_textures', 00H
	ORG $+1
$SG144913 DB	'draw firstperson weapon model', 00H
	ORG $+2
$SG144914 DB	'1', 00H
	ORG $+2
$SG144915 DB	'r_drawviewmodel', 00H
$SG145507 DB	'Bip01 Spine', 00H
$SG145206 DB	'c:\users\user\downloads\xash_build4529_src\engine\client'
	DB	'\gl_studio.c', 00H
	ORG $+3
$SG145208 DB	'%s/%s%i%i.mdl', 00H
	ORG $+2
$SG145211 DB	'StudioGetAnim: can''t load %s', 0aH, 00H
	ORG $+2
$SG145213 DB	'StudioGetAnim: %s is corrupted', 0aH, 00H
$SG145214 DB	'loading: %s', 0aH, 00H
	ORG $+3
$SG145215 DB	'c:\users\user\downloads\xash_build4529_src\engine\client'
	DB	'\gl_studio.c', 00H
	ORG $+3
$SG145216 DB	'c:\users\user\downloads\xash_build4529_src\engine\client'
	DB	'\gl_studio.c', 00H
	ORG $+3
$SG145509 DB	'Bip01 Pelvis', 00H
	ORG $+3
$SG145553 DB	'c:\users\user\downloads\xash_build4529_src\engine\client'
	DB	'\gl_studio.c', 00H
	ORG $+3
$SG145554 DB	'm_pSubModel != NULL', 00H
$SG145600 DB	'm_pSubModel != NULL', 00H
$SG145599 DB	'c:\users\user\downloads\xash_build4529_src\engine\client'
	DB	'\gl_studio.c', 00H
	ORG $+3
$SG146169 DB	'models/player/%s/%s.mdl', 00H
$SG146522 DB	'DM_Base', 00H
$SG146523 DB	'remap', 00H
	ORG $+2
$SG146524 DB	'c:\users\user\downloads\xash_build4529_src\engine\client'
	DB	'\gl_studio.c', 00H
	ORG $+3
$SG146525 DB	'c:\users\user\downloads\xash_build4529_src\engine\client'
	DB	'\gl_studio.c', 00H
	ORG $+3
$SG146528 DB	'DM_Base', 00H
$SG146529 DB	'DM_Base', 00H
$SG146530 DB	'DM_User', 00H
$SG146533 DB	'#%s/%s.mdl', 00H
	ORG $+1
_gStudioDraw DD	01H
	DD	FLAT:_R_StudioDrawModel
	DD	FLAT:_R_StudioDrawPlayer
_gStudioAPI DD	FLAT:_Mod_Calloc
	DD	FLAT:_Mod_CacheCheck
	DD	FLAT:_Mod_LoadCacheFile
	DD	FLAT:_pfnMod_ForName
	DD	FLAT:_Mod_StudioExtradata
	DD	FLAT:_CL_ModelHandle
	DD	FLAT:_pfnGetCurrentEntity
	DD	FLAT:_pfnPlayerInfo
	DD	FLAT:_R_StudioGetPlayerState
	DD	FLAT:_pfnGetViewEntity
	DD	FLAT:_pfnGetEngineTimes
	DD	FLAT:_pfnCVarGetPointer
	DD	FLAT:_pfnGetViewInfo
	DD	FLAT:_R_GetChromeSprite
	DD	FLAT:_pfnGetModelCounters
	DD	FLAT:_pfnGetAliasScale
	DD	FLAT:_pfnStudioGetBoneTransform
	DD	FLAT:_pfnStudioGetLightTransform
	DD	FLAT:_pfnStudioGetAliasTransform
	DD	FLAT:_pfnStudioGetRotationMatrix
	DD	FLAT:_R_StudioSetupModel
	DD	FLAT:_R_StudioCheckBBox
	DD	FLAT:_R_StudioDynamicLight
	DD	FLAT:_R_StudioEntityLight
	DD	FLAT:_R_StudioSetupLighting
	DD	FLAT:_R_StudioDrawPoints
	DD	FLAT:_R_StudioDrawHulls
	DD	FLAT:_R_StudioDrawAbsBBox
	DD	FLAT:_R_StudioDrawBones
	DD	FLAT:_R_StudioSetupSkin
	DD	FLAT:_R_StudioSetRemapColors
	DD	FLAT:_R_StudioSetupPlayerModel
	DD	FLAT:_R_StudioClientEvents
	DD	FLAT:_R_StudioGetForceFaceFlags
	DD	FLAT:_R_StudioSetForceFaceFlags
	DD	FLAT:_R_StudioSetHeader
	DD	FLAT:_R_StudioSetRenderModel
	DD	FLAT:_R_StudioSetupRenderer
	DD	FLAT:_R_StudioRestoreRenderer
	DD	FLAT:_R_StudioSetChromeOrigin
	DD	FLAT:_pfnIsHardware
	DD	FLAT:_GL_StudioDrawShadow
	DD	FLAT:_GL_StudioSetRenderMode
	DD	FLAT:_R_StudioSetRenderamt
	DD	FLAT:_R_StudioSetCullState
	DD	FLAT:_R_StudioRenderShadow
_DATA	ENDS
; Function compile flags: /Odtp
; File c:\users\user\downloads\xash_build4529_src\engine\client\gl_studio.c
_TEXT	SEGMENT
_size$ = -444						; size = 4
_pixels$1 = -440					; size = 4
_size$2 = -436						; size = 4
tv204 = -432						; size = 4
tv203 = -428						; size = 4
tv188 = -424						; size = 4
tv187 = -420						; size = 4
tv172 = -416						; size = 4
tv171 = -412						; size = 4
_i$3 = -408						; size = 4
_flags$ = -404						; size = 4
_tx$ = -400						; size = 4
_texname$ = -396					; size = 128
_name$ = -268						; size = 128
_mdlname$ = -140					; size = 128
_val$4 = -12						; size = 6
__$ArrayPad$ = -4					; size = 4
_mod$ = 8						; size = 4
_phdr$ = 12						; size = 4
_ptexture$ = 16						; size = 4
_R_StudioLoadTexture PROC

; 3732 : {

	push	ebp
	mov	ebp, esp
	sub	esp, 444				; 000001bcH
	mov	eax, DWORD PTR ___security_cookie
	xor	eax, ebp
	mov	DWORD PTR __$ArrayPad$[ebp], eax

; 3733 : 	size_t		size;
; 3734 : 	int		flags = 0;

	mov	DWORD PTR _flags$[ebp], 0

; 3735 : 	char		texname[128], name[128], mdlname[128];
; 3736 : 	texture_t		*tx = NULL;

	mov	DWORD PTR _tx$[ebp], 0

; 3737 : 	
; 3738 : 	if( ptexture->flags & STUDIO_NF_NORMALMAP )

	mov	eax, DWORD PTR _ptexture$[ebp]
	mov	ecx, DWORD PTR [eax+64]
	and	ecx, 128				; 00000080H
	je	SHORT $LN2@R_StudioLo

; 3739 : 		flags |= (TF_NORMALMAP);

	mov	edx, DWORD PTR _flags$[ebp]
	or	edx, 32768				; 00008000H
	mov	DWORD PTR _flags$[ebp], edx
$LN2@R_StudioLo:

; 3740 : 
; 3741 : 	// store some textures for remapping
; 3742 : 	if( !Q_strnicmp( ptexture->name, "DM_Base", 7 ) || !Q_strnicmp( ptexture->name, "remap", 5 ))

	push	7
	push	OFFSET $SG146522
	mov	eax, DWORD PTR _ptexture$[ebp]
	push	eax
	call	_Q_strnicmp
	add	esp, 12					; 0000000cH
	test	eax, eax
	je	SHORT $LN4@R_StudioLo
	push	5
	push	OFFSET $SG146523
	mov	ecx, DWORD PTR _ptexture$[ebp]
	push	ecx
	call	_Q_strnicmp
	add	esp, 12					; 0000000cH
	test	eax, eax
	jne	$LN3@R_StudioLo
$LN4@R_StudioLo:

; 3743 : 	{
; 3744 : 		int	i, size;
; 3745 : 		char	val[6];
; 3746 : 		byte	*pixels;
; 3747 : 
; 3748 : 		i = mod->numtextures;

	mov	edx, DWORD PTR _mod$[ebp]
	mov	eax, DWORD PTR [edx+368]
	mov	DWORD PTR _i$3[ebp], eax

; 3749 : 		mod->textures = (texture_t **)Mem_Realloc( mod->mempool, mod->textures, ( i + 1 ) * sizeof( texture_t* ));

	push	3749					; 00000ea5H
	push	OFFSET $SG146524
	push	1
	mov	ecx, DWORD PTR _i$3[ebp]
	lea	edx, DWORD PTR [ecx*4+4]
	push	edx
	mov	eax, DWORD PTR _mod$[ebp]
	mov	ecx, DWORD PTR [eax+372]
	push	ecx
	mov	edx, DWORD PTR _mod$[ebp]
	mov	eax, DWORD PTR [edx+76]
	push	eax
	call	__Mem_Realloc
	add	esp, 24					; 00000018H
	mov	ecx, DWORD PTR _mod$[ebp]
	mov	DWORD PTR [ecx+372], eax

; 3750 : 		size = ptexture->width * ptexture->height + 768;

	mov	edx, DWORD PTR _ptexture$[ebp]
	mov	eax, DWORD PTR _ptexture$[ebp]
	mov	ecx, DWORD PTR [edx+68]
	imul	ecx, DWORD PTR [eax+72]
	add	ecx, 768				; 00000300H
	mov	DWORD PTR _size$2[ebp], ecx

; 3751 : 		tx = Mem_Calloc( mod->mempool, sizeof( *tx ) + size );

	push	3751					; 00000ea7H
	push	OFFSET $SG146525
	push	1
	mov	edx, DWORD PTR _size$2[ebp]
	add	edx, 68					; 00000044H
	push	edx
	mov	eax, DWORD PTR _mod$[ebp]
	mov	ecx, DWORD PTR [eax+76]
	push	ecx
	call	__Mem_Alloc
	add	esp, 20					; 00000014H
	mov	DWORD PTR _tx$[ebp], eax

; 3752 : 		mod->textures[i] = tx;

	mov	edx, DWORD PTR _mod$[ebp]
	mov	eax, DWORD PTR [edx+372]
	mov	ecx, DWORD PTR _i$3[ebp]
	mov	edx, DWORD PTR _tx$[ebp]
	mov	DWORD PTR [eax+ecx*4], edx

; 3753 : 
; 3754 : 		// store ranges into anim_min, anim_max etc
; 3755 : 		if( !Q_strnicmp( ptexture->name, "DM_Base", 7 ))

	push	7
	push	OFFSET $SG146528
	mov	eax, DWORD PTR _ptexture$[ebp]
	push	eax
	call	_Q_strnicmp
	add	esp, 12					; 0000000cH
	test	eax, eax
	jne	SHORT $LN5@R_StudioLo

; 3756 : 		{
; 3757 : 			Q_strncpy( tx->name, "DM_Base", sizeof( tx->name ));

	push	16					; 00000010H
	push	OFFSET $SG146529
	mov	ecx, DWORD PTR _tx$[ebp]
	push	ecx
	call	_Q_strncpy
	add	esp, 12					; 0000000cH

; 3758 : 			tx->anim_min = PLATE_HUE_START; // topcolor start

	mov	edx, DWORD PTR _tx$[ebp]
	mov	DWORD PTR [edx+36], 160			; 000000a0H

; 3759 : 			tx->anim_max = PLATE_HUE_END; // topcolor end

	mov	eax, DWORD PTR _tx$[ebp]
	mov	DWORD PTR [eax+40], 191			; 000000bfH

; 3760 : 			// bottomcolor start always equal is (topcolor end + 1)
; 3761 : 			tx->anim_total = SUIT_HUE_END;// bottomcolor end 

	mov	ecx, DWORD PTR _tx$[ebp]
	mov	DWORD PTR [ecx+32], 223			; 000000dfH

; 3762 : 		}

	jmp	$LN6@R_StudioLo
$LN5@R_StudioLo:

; 3763 : 		else
; 3764 : 		{
; 3765 : 			Q_strncpy( tx->name, "DM_User", sizeof( tx->name )); // custom remapped

	push	16					; 00000010H
	push	OFFSET $SG146530
	mov	edx, DWORD PTR _tx$[ebp]
	push	edx
	call	_Q_strncpy
	add	esp, 12					; 0000000cH

; 3766 : 			Q_strncpy( val, ptexture->name + 7, 4 );  

	push	4
	mov	eax, DWORD PTR _ptexture$[ebp]
	add	eax, 7
	push	eax
	lea	ecx, DWORD PTR _val$4[ebp]
	push	ecx
	call	_Q_strncpy
	add	esp, 12					; 0000000cH

; 3767 : 			tx->anim_min = bound( 0, Q_atoi( val ), 255 ); // topcolor start

	lea	edx, DWORD PTR _val$4[ebp]
	push	edx
	call	_Q_atoi
	add	esp, 4
	test	eax, eax
	jl	SHORT $LN15@R_StudioLo
	lea	eax, DWORD PTR _val$4[ebp]
	push	eax
	call	_Q_atoi
	add	esp, 4
	cmp	eax, 255				; 000000ffH
	jge	SHORT $LN13@R_StudioLo
	lea	ecx, DWORD PTR _val$4[ebp]
	push	ecx
	call	_Q_atoi
	add	esp, 4
	mov	DWORD PTR tv171[ebp], eax
	jmp	SHORT $LN14@R_StudioLo
$LN13@R_StudioLo:
	mov	DWORD PTR tv171[ebp], 255		; 000000ffH
$LN14@R_StudioLo:
	mov	edx, DWORD PTR tv171[ebp]
	mov	DWORD PTR tv172[ebp], edx
	jmp	SHORT $LN16@R_StudioLo
$LN15@R_StudioLo:
	mov	DWORD PTR tv172[ebp], 0
$LN16@R_StudioLo:
	mov	eax, DWORD PTR _tx$[ebp]
	mov	ecx, DWORD PTR tv172[ebp]
	mov	DWORD PTR [eax+36], ecx

; 3768 : 			Q_strncpy( val, ptexture->name + 11, 4 ); 

	push	4
	mov	edx, DWORD PTR _ptexture$[ebp]
	add	edx, 11					; 0000000bH
	push	edx
	lea	eax, DWORD PTR _val$4[ebp]
	push	eax
	call	_Q_strncpy
	add	esp, 12					; 0000000cH

; 3769 : 			tx->anim_max = bound( 0, Q_atoi( val ), 255 ); // topcolor end

	lea	ecx, DWORD PTR _val$4[ebp]
	push	ecx
	call	_Q_atoi
	add	esp, 4
	test	eax, eax
	jl	SHORT $LN19@R_StudioLo
	lea	edx, DWORD PTR _val$4[ebp]
	push	edx
	call	_Q_atoi
	add	esp, 4
	cmp	eax, 255				; 000000ffH
	jge	SHORT $LN17@R_StudioLo
	lea	eax, DWORD PTR _val$4[ebp]
	push	eax
	call	_Q_atoi
	add	esp, 4
	mov	DWORD PTR tv187[ebp], eax
	jmp	SHORT $LN18@R_StudioLo
$LN17@R_StudioLo:
	mov	DWORD PTR tv187[ebp], 255		; 000000ffH
$LN18@R_StudioLo:
	mov	ecx, DWORD PTR tv187[ebp]
	mov	DWORD PTR tv188[ebp], ecx
	jmp	SHORT $LN20@R_StudioLo
$LN19@R_StudioLo:
	mov	DWORD PTR tv188[ebp], 0
$LN20@R_StudioLo:
	mov	edx, DWORD PTR _tx$[ebp]
	mov	eax, DWORD PTR tv188[ebp]
	mov	DWORD PTR [edx+40], eax

; 3770 : 			// bottomcolor start always equal is (topcolor end + 1)
; 3771 : 			Q_strncpy( val, ptexture->name + 15, 4 ); 

	push	4
	mov	ecx, DWORD PTR _ptexture$[ebp]
	add	ecx, 15					; 0000000fH
	push	ecx
	lea	edx, DWORD PTR _val$4[ebp]
	push	edx
	call	_Q_strncpy
	add	esp, 12					; 0000000cH

; 3772 : 			tx->anim_total = bound( 0, Q_atoi( val ), 255 ); // bottomcolor end

	lea	eax, DWORD PTR _val$4[ebp]
	push	eax
	call	_Q_atoi
	add	esp, 4
	test	eax, eax
	jl	SHORT $LN23@R_StudioLo
	lea	ecx, DWORD PTR _val$4[ebp]
	push	ecx
	call	_Q_atoi
	add	esp, 4
	cmp	eax, 255				; 000000ffH
	jge	SHORT $LN21@R_StudioLo
	lea	edx, DWORD PTR _val$4[ebp]
	push	edx
	call	_Q_atoi
	add	esp, 4
	mov	DWORD PTR tv203[ebp], eax
	jmp	SHORT $LN22@R_StudioLo
$LN21@R_StudioLo:
	mov	DWORD PTR tv203[ebp], 255		; 000000ffH
$LN22@R_StudioLo:
	mov	eax, DWORD PTR tv203[ebp]
	mov	DWORD PTR tv204[ebp], eax
	jmp	SHORT $LN24@R_StudioLo
$LN23@R_StudioLo:
	mov	DWORD PTR tv204[ebp], 0
$LN24@R_StudioLo:
	mov	ecx, DWORD PTR _tx$[ebp]
	mov	edx, DWORD PTR tv204[ebp]
	mov	DWORD PTR [ecx+32], edx
$LN6@R_StudioLo:

; 3773 : 		}
; 3774 : 
; 3775 : 		tx->width = ptexture->width;

	mov	eax, DWORD PTR _tx$[ebp]
	mov	ecx, DWORD PTR _ptexture$[ebp]
	mov	edx, DWORD PTR [ecx+68]
	mov	DWORD PTR [eax+16], edx

; 3776 : 		tx->height = ptexture->height;

	mov	eax, DWORD PTR _tx$[ebp]
	mov	ecx, DWORD PTR _ptexture$[ebp]
	mov	edx, DWORD PTR [ecx+72]
	mov	DWORD PTR [eax+20], edx

; 3777 : 
; 3778 : 		// the pixels immediately follow the structures
; 3779 : 		pixels = (byte *)phdr + ptexture->index;

	mov	eax, DWORD PTR _ptexture$[ebp]
	mov	ecx, DWORD PTR _phdr$[ebp]
	add	ecx, DWORD PTR [eax+76]
	mov	DWORD PTR _pixels$1[ebp], ecx

; 3780 : 		memcpy( tx+1, pixels, size );

	mov	edx, DWORD PTR _size$2[ebp]
	push	edx
	mov	eax, DWORD PTR _pixels$1[ebp]
	push	eax
	mov	ecx, DWORD PTR _tx$[ebp]
	add	ecx, 68					; 00000044H
	push	ecx
	call	_memcpy
	add	esp, 12					; 0000000cH

; 3781 : 
; 3782 : 		ptexture->flags |= STUDIO_NF_COLORMAP;	// yes, this is colormap image

	mov	edx, DWORD PTR _ptexture$[ebp]
	mov	eax, DWORD PTR [edx+64]
	or	eax, 1073741824				; 40000000H
	mov	ecx, DWORD PTR _ptexture$[ebp]
	mov	DWORD PTR [ecx+64], eax

; 3783 : 		flags |= TF_FORCE_COLOR;

	mov	edx, DWORD PTR _flags$[ebp]
	or	edx, 131072				; 00020000H
	mov	DWORD PTR _flags$[ebp], edx

; 3784 : 
; 3785 : 		mod->numtextures++;	// done

	mov	eax, DWORD PTR _mod$[ebp]
	mov	ecx, DWORD PTR [eax+368]
	add	ecx, 1
	mov	edx, DWORD PTR _mod$[ebp]
	mov	DWORD PTR [edx+368], ecx
$LN3@R_StudioLo:

; 3786 : 	}
; 3787 : 
; 3788 : 	Q_strncpy( mdlname, mod->name, sizeof( mdlname ));

	push	128					; 00000080H
	mov	eax, DWORD PTR _mod$[ebp]
	push	eax
	lea	ecx, DWORD PTR _mdlname$[ebp]
	push	ecx
	call	_Q_strncpy
	add	esp, 12					; 0000000cH

; 3789 : 	COM_FileBase( ptexture->name, name );

	lea	edx, DWORD PTR _name$[ebp]
	push	edx
	mov	eax, DWORD PTR _ptexture$[ebp]
	push	eax
	call	_COM_FileBase
	add	esp, 8

; 3790 : 	COM_StripExtension( mdlname );

	lea	ecx, DWORD PTR _mdlname$[ebp]
	push	ecx
	call	_COM_StripExtension
	add	esp, 4

; 3791 : 
; 3792 : 	if( FBitSet( ptexture->flags, STUDIO_NF_NOMIPS ))

	mov	edx, DWORD PTR _ptexture$[ebp]
	mov	eax, DWORD PTR [edx+64]
	and	eax, 8
	je	SHORT $LN7@R_StudioLo

; 3793 : 		SetBits( flags, TF_NOMIPMAP );

	mov	ecx, DWORD PTR _flags$[ebp]
	or	ecx, 4096				; 00001000H
	mov	DWORD PTR _flags$[ebp], ecx
$LN7@R_StudioLo:

; 3794 : 
; 3795 : 	// NOTE: replace index with pointer to start of imagebuffer, ImageLib expected it
; 3796 : 	ptexture->index = (int)((byte *)phdr) + ptexture->index;

	mov	edx, DWORD PTR _ptexture$[ebp]
	mov	eax, DWORD PTR _phdr$[ebp]
	add	eax, DWORD PTR [edx+76]
	mov	ecx, DWORD PTR _ptexture$[ebp]
	mov	DWORD PTR [ecx+76], eax

; 3797 : 	size = sizeof( mstudiotexture_t ) + ptexture->width * ptexture->height + 768;

	mov	edx, DWORD PTR _ptexture$[ebp]
	mov	eax, DWORD PTR _ptexture$[ebp]
	mov	ecx, DWORD PTR [edx+68]
	imul	ecx, DWORD PTR [eax+72]
	add	ecx, 848				; 00000350H
	mov	DWORD PTR _size$[ebp], ecx

; 3798 : 
; 3799 : 	if( FBitSet( host.features, ENGINE_IMPROVED_LINETRACE ) && FBitSet( ptexture->flags, STUDIO_NF_MASKED ))

	mov	edx, DWORD PTR _host+34748
	and	edx, 64					; 00000040H
	je	SHORT $LN8@R_StudioLo
	mov	eax, DWORD PTR _ptexture$[ebp]
	mov	ecx, DWORD PTR [eax+64]
	and	ecx, 64					; 00000040H
	je	SHORT $LN8@R_StudioLo

; 3800 : 		flags |= TF_KEEP_SOURCE; // Paranoia2 texture alpha-tracing

	mov	edx, DWORD PTR _flags$[ebp]
	or	edx, 2
	mov	DWORD PTR _flags$[ebp], edx
$LN8@R_StudioLo:

; 3801 : 
; 3802 : 	// build the texname
; 3803 : 	Q_snprintf( texname, sizeof( texname ), "#%s/%s.mdl", mdlname, name );

	lea	eax, DWORD PTR _name$[ebp]
	push	eax
	lea	ecx, DWORD PTR _mdlname$[ebp]
	push	ecx
	push	OFFSET $SG146533
	push	128					; 00000080H
	lea	edx, DWORD PTR _texname$[ebp]
	push	edx
	call	_Q_snprintf
	add	esp, 20					; 00000014H

; 3804 : 	ptexture->index = GL_LoadTexture( texname, (byte *)ptexture, size, flags );

	mov	eax, DWORD PTR _flags$[ebp]
	push	eax
	mov	ecx, DWORD PTR _size$[ebp]
	push	ecx
	mov	edx, DWORD PTR _ptexture$[ebp]
	push	edx
	lea	eax, DWORD PTR _texname$[ebp]
	push	eax
	call	_GL_LoadTexture
	add	esp, 16					; 00000010H
	mov	ecx, DWORD PTR _ptexture$[ebp]
	mov	DWORD PTR [ecx+76], eax

; 3805 : 
; 3806 : 	if( !ptexture->index )

	mov	edx, DWORD PTR _ptexture$[ebp]
	cmp	DWORD PTR [edx+76], 0
	jne	SHORT $LN9@R_StudioLo

; 3807 : 	{
; 3808 : 		ptexture->index = tr.defaultTexture;

	mov	eax, DWORD PTR _ptexture$[ebp]
	mov	ecx, DWORD PTR _tr
	mov	DWORD PTR [eax+76], ecx

; 3809 : 	}

	jmp	SHORT $LN1@R_StudioLo
$LN9@R_StudioLo:

; 3810 : 	else if( tx )

	cmp	DWORD PTR _tx$[ebp], 0
	je	SHORT $LN1@R_StudioLo

; 3811 : 	{
; 3812 : 		// duplicate texnum for easy acess 
; 3813 : 		tx->gl_texturenum = ptexture->index;

	mov	edx, DWORD PTR _tx$[ebp]
	mov	eax, DWORD PTR _ptexture$[ebp]
	mov	ecx, DWORD PTR [eax+76]
	mov	DWORD PTR [edx+24], ecx
$LN1@R_StudioLo:

; 3814 : 	}
; 3815 : }

	mov	ecx, DWORD PTR __$ArrayPad$[ebp]
	xor	ecx, ebp
	call	@__security_check_cookie@4
	mov	esp, ebp
	pop	ebp
	ret	0
_R_StudioLoadTexture ENDP
_TEXT	ENDS
; Function compile flags: /Odtp
; File c:\users\user\downloads\xash_build4529_src\engine\client\gl_studio.c
_TEXT	SEGMENT
_e$ = 8							; size = 4
_flags$ = 12						; size = 4
_R_StudioDrawModelInternal PROC

; 3560 : {

	push	ebp
	mov	ebp, esp

; 3561 : 	if( !RI.drawWorld )

	cmp	DWORD PTR _RI+4, 0
	jne	SHORT $LN2@R_StudioDr

; 3562 : 	{
; 3563 : 		if( e->player )

	mov	eax, DWORD PTR _e$[ebp]
	cmp	DWORD PTR [eax+4], 0
	je	SHORT $LN4@R_StudioDr

; 3564 : 			R_StudioDrawPlayer( flags, &e->curstate );

	mov	ecx, DWORD PTR _e$[ebp]
	add	ecx, 688				; 000002b0H
	push	ecx
	mov	edx, DWORD PTR _flags$[ebp]
	push	edx
	call	_R_StudioDrawPlayer
	add	esp, 8
	jmp	SHORT $LN5@R_StudioDr
$LN4@R_StudioDr:

; 3565 : 		else R_StudioDrawModel( flags );

	mov	eax, DWORD PTR _flags$[ebp]
	push	eax
	call	_R_StudioDrawModel
	add	esp, 4
$LN5@R_StudioDr:

; 3566 : 	}

	jmp	SHORT $LN1@R_StudioDr
$LN2@R_StudioDr:

; 3567 : 	else
; 3568 : 	{
; 3569 : 		// select the properly method
; 3570 : 		if( e->player )

	mov	ecx, DWORD PTR _e$[ebp]
	cmp	DWORD PTR [ecx+4], 0
	je	SHORT $LN6@R_StudioDr

; 3571 : 			pStudioDraw->StudioDrawPlayer( flags, R_StudioGetPlayerState( e->index - 1 ));

	mov	edx, DWORD PTR _e$[ebp]
	mov	eax, DWORD PTR [edx]
	sub	eax, 1
	push	eax
	call	_R_StudioGetPlayerState
	add	esp, 4
	push	eax
	mov	ecx, DWORD PTR _flags$[ebp]
	push	ecx
	mov	edx, DWORD PTR _pStudioDraw
	mov	eax, DWORD PTR [edx+8]
	call	eax
	add	esp, 8
	jmp	SHORT $LN1@R_StudioDr
$LN6@R_StudioDr:

; 3572 : 		else pStudioDraw->StudioDrawModel( flags );

	mov	ecx, DWORD PTR _flags$[ebp]
	push	ecx
	mov	edx, DWORD PTR _pStudioDraw
	mov	eax, DWORD PTR [edx+4]
	call	eax
	add	esp, 4
$LN1@R_StudioDr:

; 3573 : 	}
; 3574 : }

	pop	ebp
	ret	0
_R_StudioDrawModelInternal ENDP
_TEXT	ENDS
; Function compile flags: /Odtp
; File c:\users\user\downloads\xash_build4529_src\engine\client\gl_studio.c
_TEXT	SEGMENT
_ent$1 = -388						; size = 4
_result$2 = -384					; size = 4
_lighting$ = -380					; size = 24
_deadplayer$3 = -356					; size = 340
_dir$ = -16						; size = 12
__$ArrayPad$ = -4					; size = 4
_flags$ = 8						; size = 4
_R_StudioDrawModel PROC

; 3465 : {

	push	ebp
	mov	ebp, esp
	sub	esp, 388				; 00000184H
	mov	eax, DWORD PTR ___security_cookie
	xor	eax, ebp
	mov	DWORD PTR __$ArrayPad$[ebp], eax
	push	esi
	push	edi

; 3466 : 	alight_t	lighting;
; 3467 : 	vec3_t	dir;
; 3468 : 
; 3469 : 	if( RI.currententity->curstate.renderfx == kRenderFxDeadPlayer )

	mov	eax, DWORD PTR _RI+28
	cmp	DWORD PTR [eax+772], 17			; 00000011H
	jne	$LN2@R_StudioDr

; 3470 : 	{
; 3471 : 		entity_state_t	deadplayer;
; 3472 : 		int		result;
; 3473 : 
; 3474 : 		if( RI.currententity->curstate.renderamt <= 0 || RI.currententity->curstate.renderamt > cl.maxclients )

	mov	ecx, DWORD PTR _RI+28
	cmp	DWORD PTR [ecx+764], 0
	jle	SHORT $LN4@R_StudioDr
	mov	edx, DWORD PTR _RI+28
	mov	eax, DWORD PTR [edx+764]
	cmp	eax, DWORD PTR _cl+1568832
	jle	SHORT $LN3@R_StudioDr
$LN4@R_StudioDr:

; 3475 : 			return 0;

	xor	eax, eax
	jmp	$LN1@R_StudioDr
$LN3@R_StudioDr:

; 3476 : 
; 3477 : 		// get copy of player
; 3478 : 		deadplayer = *R_StudioGetPlayerState( RI.currententity->curstate.renderamt - 1 );

	mov	ecx, DWORD PTR _RI+28
	mov	edx, DWORD PTR [ecx+764]
	sub	edx, 1
	push	edx
	call	_R_StudioGetPlayerState
	add	esp, 4
	mov	ecx, 85					; 00000055H
	mov	esi, eax
	lea	edi, DWORD PTR _deadplayer$3[ebp]
	rep movsd

; 3479 : 
; 3480 : 		// clear weapon, movement state
; 3481 : 		deadplayer.number = RI.currententity->curstate.renderamt;

	mov	eax, DWORD PTR _RI+28
	mov	ecx, DWORD PTR [eax+764]
	mov	DWORD PTR _deadplayer$3[ebp+4], ecx

; 3482 : 		deadplayer.weaponmodel = 0;

	mov	DWORD PTR _deadplayer$3[ebp+180], 0

; 3483 : 		deadplayer.gaitsequence = 0;

	mov	DWORD PTR _deadplayer$3[ebp+184], 0

; 3484 : 
; 3485 : 		deadplayer.movetype = MOVETYPE_NONE;

	mov	DWORD PTR _deadplayer$3[ebp+88], 0

; 3486 : 		VectorCopy( RI.currententity->curstate.angles, deadplayer.angles );

	mov	edx, 4
	imul	eax, edx, 0
	mov	ecx, 4
	imul	edx, ecx, 0
	mov	ecx, DWORD PTR _RI+28
	mov	eax, DWORD PTR [ecx+eax+716]
	mov	DWORD PTR _deadplayer$3[ebp+edx+28], eax
	mov	ecx, 4
	shl	ecx, 0
	mov	edx, 4
	shl	edx, 0
	mov	eax, DWORD PTR _RI+28
	mov	ecx, DWORD PTR [eax+ecx+716]
	mov	DWORD PTR _deadplayer$3[ebp+edx+28], ecx
	mov	edx, 4
	shl	edx, 1
	mov	eax, 4
	shl	eax, 1
	mov	ecx, DWORD PTR _RI+28
	mov	edx, DWORD PTR [ecx+edx+716]
	mov	DWORD PTR _deadplayer$3[ebp+eax+28], edx

; 3487 : 		VectorCopy( RI.currententity->curstate.origin, deadplayer.origin );

	mov	eax, 4
	imul	ecx, eax, 0
	mov	edx, 4
	imul	eax, edx, 0
	mov	edx, DWORD PTR _RI+28
	mov	ecx, DWORD PTR [edx+ecx+704]
	mov	DWORD PTR _deadplayer$3[ebp+eax+16], ecx
	mov	edx, 4
	shl	edx, 0
	mov	eax, 4
	shl	eax, 0
	mov	ecx, DWORD PTR _RI+28
	mov	edx, DWORD PTR [ecx+edx+704]
	mov	DWORD PTR _deadplayer$3[ebp+eax+16], edx
	mov	eax, 4
	shl	eax, 1
	mov	ecx, 4
	shl	ecx, 1
	mov	edx, DWORD PTR _RI+28
	mov	eax, DWORD PTR [edx+eax+704]
	mov	DWORD PTR _deadplayer$3[ebp+ecx+16], eax

; 3488 : 
; 3489 : 		g_studio.interpolate = false;

	mov	DWORD PTR _g_studio+20, 0

; 3490 : 		result = R_StudioDrawPlayer( flags, &deadplayer ); // draw as though it were a player

	lea	ecx, DWORD PTR _deadplayer$3[ebp]
	push	ecx
	mov	edx, DWORD PTR _flags$[ebp]
	push	edx
	call	_R_StudioDrawPlayer
	add	esp, 8
	mov	DWORD PTR _result$2[ebp], eax

; 3491 : 		g_studio.interpolate = true;

	mov	DWORD PTR _g_studio+20, 1

; 3492 : 
; 3493 : 		return result;

	mov	eax, DWORD PTR _result$2[ebp]
	jmp	$LN1@R_StudioDr
$LN2@R_StudioDr:

; 3494 : 	}
; 3495 : 
; 3496 : 	R_StudioSetHeader((studiohdr_t *)Mod_StudioExtradata( RI.currentmodel ));

	mov	eax, DWORD PTR _RI+32
	push	eax
	call	_Mod_StudioExtradata
	add	esp, 4
	push	eax
	call	_R_StudioSetHeader
	add	esp, 4

; 3497 : 
; 3498 : 	R_StudioSetUpTransform( RI.currententity );

	mov	ecx, DWORD PTR _RI+28
	push	ecx
	call	_R_StudioSetUpTransform
	add	esp, 4

; 3499 : 
; 3500 : 	if( flags & STUDIO_RENDER )

	mov	edx, DWORD PTR _flags$[ebp]
	and	edx, 1
	je	SHORT $LN7@R_StudioDr

; 3501 : 	{
; 3502 : 		// see if the bounding box lets us trivially reject, also sets
; 3503 : 		if( !R_StudioCheckBBox( ))

	call	_R_StudioCheckBBox
	test	eax, eax
	jne	SHORT $LN6@R_StudioDr

; 3504 : 			return 0;

	xor	eax, eax
	jmp	$LN1@R_StudioDr
$LN6@R_StudioDr:

; 3505 : 
; 3506 : 		r_stats.c_studio_models_drawn++;

	mov	eax, DWORD PTR _r_stats+32
	add	eax, 1
	mov	DWORD PTR _r_stats+32, eax

; 3507 : 		g_studio.framecount++; // render data cache cookie

	mov	ecx, DWORD PTR _g_studio+16
	add	ecx, 1
	mov	DWORD PTR _g_studio+16, ecx

; 3508 : 
; 3509 : 		if( m_pStudioHeader->numbodyparts == 0 )

	mov	edx, DWORD PTR _m_pStudioHeader
	cmp	DWORD PTR [edx+204], 0
	jne	SHORT $LN7@R_StudioDr

; 3510 : 			return 1;

	mov	eax, 1
	jmp	$LN1@R_StudioDr
$LN7@R_StudioDr:

; 3511 : 	}
; 3512 : 
; 3513 : 	if( RI.currententity->curstate.movetype == MOVETYPE_FOLLOW )

	mov	eax, DWORD PTR _RI+28
	cmp	DWORD PTR [eax+776], 12			; 0000000cH
	jne	SHORT $LN8@R_StudioDr

; 3514 : 		R_StudioMergeBones( RI.currententity, RI.currentmodel );

	mov	ecx, DWORD PTR _RI+32
	push	ecx
	mov	edx, DWORD PTR _RI+28
	push	edx
	call	_R_StudioMergeBones
	add	esp, 8
	jmp	SHORT $LN9@R_StudioDr
$LN8@R_StudioDr:

; 3515 : 	else R_StudioSetupBones( RI.currententity );

	mov	eax, DWORD PTR _RI+28
	push	eax
	call	_R_StudioSetupBones
	add	esp, 4
$LN9@R_StudioDr:

; 3516 : 
; 3517 : 	R_StudioSaveBones();

	call	_R_StudioSaveBones

; 3518 : 
; 3519 : 	if( flags & STUDIO_EVENTS )

	mov	ecx, DWORD PTR _flags$[ebp]
	and	ecx, 2
	je	SHORT $LN11@R_StudioDr

; 3520 : 	{
; 3521 : 		R_StudioCalcAttachments( );

	call	_R_StudioCalcAttachments

; 3522 : 		R_StudioClientEvents( );

	call	_R_StudioClientEvents

; 3523 : 
; 3524 : 		// copy attachments into global entity array
; 3525 : 		if( RI.currententity->index > 0 )

	mov	edx, DWORD PTR _RI+28
	cmp	DWORD PTR [edx], 0
	jle	SHORT $LN11@R_StudioDr

; 3526 : 		{
; 3527 : 			cl_entity_t *ent = CL_GetEntityByIndex( RI.currententity->index );

	mov	eax, DWORD PTR _RI+28
	mov	ecx, DWORD PTR [eax]
	push	ecx
	call	_CL_GetEntityByIndex
	add	esp, 4
	mov	DWORD PTR _ent$1[ebp], eax

; 3528 : 			memcpy( ent->attachment, RI.currententity->attachment, sizeof( vec3_t ) * 4 );

	push	48					; 00000030H
	mov	edx, DWORD PTR _RI+28
	add	edx, 2912				; 00000b60H
	push	edx
	mov	eax, DWORD PTR _ent$1[ebp]
	add	eax, 2912				; 00000b60H
	push	eax
	call	_memcpy
	add	esp, 12					; 0000000cH
$LN11@R_StudioDr:

; 3529 : 		}
; 3530 : 	}
; 3531 : 
; 3532 : 	if( flags & STUDIO_RENDER )

	mov	ecx, DWORD PTR _flags$[ebp]
	and	ecx, 1
	je	$LN12@R_StudioDr

; 3533 : 	{
; 3534 : 		lighting.plightvec = dir;

	lea	edx, DWORD PTR _dir$[ebp]
	mov	DWORD PTR _lighting$[ebp+20], edx

; 3535 : 		R_StudioDynamicLight( RI.currententity, &lighting );

	lea	eax, DWORD PTR _lighting$[ebp]
	push	eax
	mov	ecx, DWORD PTR _RI+28
	push	ecx
	call	_R_StudioDynamicLight
	add	esp, 8

; 3536 : 
; 3537 : 		R_StudioEntityLight( &lighting );

	lea	edx, DWORD PTR _lighting$[ebp]
	push	edx
	call	_R_StudioEntityLight
	add	esp, 4

; 3538 : 
; 3539 : 		// model and frame independant
; 3540 : 		R_StudioSetupLighting( &lighting );

	lea	eax, DWORD PTR _lighting$[ebp]
	push	eax
	call	_R_StudioSetupLighting
	add	esp, 4

; 3541 : 
; 3542 : 		// get remap colors
; 3543 : 		g_nTopColor = RI.currententity->curstate.colormap & 0xFF;

	mov	ecx, DWORD PTR _RI+28
	mov	edx, DWORD PTR [ecx+740]
	and	edx, 255				; 000000ffH
	mov	DWORD PTR _g_nTopColor, edx

; 3544 : 		g_nBottomColor = (RI.currententity->curstate.colormap & 0xFF00) >> 8;

	mov	eax, DWORD PTR _RI+28
	mov	ecx, DWORD PTR [eax+740]
	and	ecx, 65280				; 0000ff00H
	sar	ecx, 8
	mov	DWORD PTR _g_nBottomColor, ecx

; 3545 : 
; 3546 : 		R_StudioSetRemapColors( g_nTopColor, g_nBottomColor );

	mov	edx, DWORD PTR _g_nBottomColor
	push	edx
	mov	eax, DWORD PTR _g_nTopColor
	push	eax
	call	_R_StudioSetRemapColors
	add	esp, 8

; 3547 : 
; 3548 : 		R_StudioRenderModel();

	call	_R_StudioRenderModel
$LN12@R_StudioDr:

; 3549 : 	}
; 3550 : 
; 3551 : 	return 1;

	mov	eax, 1
$LN1@R_StudioDr:

; 3552 : }

	pop	edi
	pop	esi
	mov	ecx, DWORD PTR __$ArrayPad$[ebp]
	xor	ecx, ebp
	call	@__security_check_cookie@4
	mov	esp, ebp
	pop	ebp
	ret	0
_R_StudioDrawModel ENDP
_TEXT	ENDS
; Function compile flags: /Odtp
; File c:\users\user\downloads\xash_build4529_src\engine\client\gl_studio.c
_TEXT	SEGMENT
_ent$1 = -3064						; size = 4
_pweaponmodel$2 = -3060					; size = 4
_m_nPlayerIndex$ = -3056				; size = 4
_lighting$ = -3052					; size = 24
_saveent$3 = -3028					; size = 3000
_dir$ = -28						; size = 12
_orig_angles$4 = -16					; size = 12
__$ArrayPad$ = -4					; size = 4
_flags$ = 8						; size = 4
_pplayer$ = 12						; size = 4
_R_StudioDrawPlayer PROC

; 3323 : {

	push	ebp
	mov	ebp, esp
	sub	esp, 3064				; 00000bf8H
	mov	eax, DWORD PTR ___security_cookie
	xor	eax, ebp
	mov	DWORD PTR __$ArrayPad$[ebp], eax
	push	esi
	push	edi

; 3324 : 	int	m_nPlayerIndex;
; 3325 : 	alight_t	lighting;
; 3326 : 	vec3_t	dir;
; 3327 : 
; 3328 : 	m_nPlayerIndex = pplayer->number - 1;

	mov	eax, DWORD PTR _pplayer$[ebp]
	mov	ecx, DWORD PTR [eax+4]
	sub	ecx, 1
	mov	DWORD PTR _m_nPlayerIndex$[ebp], ecx

; 3329 : 
; 3330 : 	if( m_nPlayerIndex < 0 || m_nPlayerIndex >= cl.maxclients )

	js	SHORT $LN3@R_StudioDr
	mov	edx, DWORD PTR _m_nPlayerIndex$[ebp]
	cmp	edx, DWORD PTR _cl+1568832
	jl	SHORT $LN2@R_StudioDr
$LN3@R_StudioDr:

; 3331 : 		return 0;

	xor	eax, eax
	jmp	$LN1@R_StudioDr
$LN2@R_StudioDr:

; 3332 : 
; 3333 : 	RI.currentmodel = R_StudioSetupPlayerModel( m_nPlayerIndex );

	mov	eax, DWORD PTR _m_nPlayerIndex$[ebp]
	push	eax
	call	_R_StudioSetupPlayerModel
	add	esp, 4
	mov	DWORD PTR _RI+32, eax

; 3334 : 	if( RI.currentmodel == NULL )

	cmp	DWORD PTR _RI+32, 0
	jne	SHORT $LN4@R_StudioDr

; 3335 : 		return 0;

	xor	eax, eax
	jmp	$LN1@R_StudioDr
$LN4@R_StudioDr:

; 3336 : 
; 3337 : 	R_StudioSetHeader((studiohdr_t *)Mod_StudioExtradata( RI.currentmodel ));

	mov	ecx, DWORD PTR _RI+32
	push	ecx
	call	_Mod_StudioExtradata
	add	esp, 4
	push	eax
	call	_R_StudioSetHeader
	add	esp, 4

; 3338 : 
; 3339 : 	if( pplayer->gaitsequence )

	mov	edx, DWORD PTR _pplayer$[ebp]
	cmp	DWORD PTR [edx+184], 0
	je	$LN5@R_StudioDr

; 3340 : 	{
; 3341 : 		vec3_t orig_angles;
; 3342 : 
; 3343 : 		m_pPlayerInfo = pfnPlayerInfo( m_nPlayerIndex );

	mov	eax, DWORD PTR _m_nPlayerIndex$[ebp]
	push	eax
	call	_pfnPlayerInfo
	add	esp, 4
	mov	DWORD PTR _m_pPlayerInfo, eax

; 3344 : 		VectorCopy( RI.currententity->angles, orig_angles );

	mov	ecx, 4
	imul	edx, ecx, 0
	mov	eax, 4
	imul	ecx, eax, 0
	mov	eax, DWORD PTR _RI+28
	mov	edx, DWORD PTR [eax+edx+2900]
	mov	DWORD PTR _orig_angles$4[ebp+ecx], edx
	mov	eax, 4
	shl	eax, 0
	mov	ecx, 4
	shl	ecx, 0
	mov	edx, DWORD PTR _RI+28
	mov	eax, DWORD PTR [edx+eax+2900]
	mov	DWORD PTR _orig_angles$4[ebp+ecx], eax
	mov	ecx, 4
	shl	ecx, 1
	mov	edx, 4
	shl	edx, 1
	mov	eax, DWORD PTR _RI+28
	mov	ecx, DWORD PTR [eax+ecx+2900]
	mov	DWORD PTR _orig_angles$4[ebp+edx], ecx

; 3345 : 	
; 3346 : 		R_StudioProcessGait( pplayer );

	mov	edx, DWORD PTR _pplayer$[ebp]
	push	edx
	call	_R_StudioProcessGait
	add	esp, 4

; 3347 : 
; 3348 : 		m_pPlayerInfo->gaitsequence = pplayer->gaitsequence;

	mov	eax, DWORD PTR _m_pPlayerInfo
	mov	ecx, DWORD PTR _pplayer$[ebp]
	mov	edx, DWORD PTR [ecx+184]
	mov	DWORD PTR [eax+380], edx

; 3349 : 		m_pPlayerInfo = NULL;

	mov	DWORD PTR _m_pPlayerInfo, 0

; 3350 : 
; 3351 : 		R_StudioSetUpTransform( RI.currententity );

	mov	eax, DWORD PTR _RI+28
	push	eax
	call	_R_StudioSetUpTransform
	add	esp, 4

; 3352 : 		VectorCopy( orig_angles, RI.currententity->angles );

	mov	ecx, 4
	imul	edx, ecx, 0
	mov	eax, 4
	imul	ecx, eax, 0
	mov	eax, DWORD PTR _RI+28
	mov	edx, DWORD PTR _orig_angles$4[ebp+edx]
	mov	DWORD PTR [eax+ecx+2900], edx
	mov	eax, 4
	shl	eax, 0
	mov	ecx, 4
	shl	ecx, 0
	mov	edx, DWORD PTR _RI+28
	mov	eax, DWORD PTR _orig_angles$4[ebp+eax]
	mov	DWORD PTR [edx+ecx+2900], eax
	mov	ecx, 4
	shl	ecx, 1
	mov	edx, 4
	shl	edx, 1
	mov	eax, DWORD PTR _RI+28
	mov	ecx, DWORD PTR _orig_angles$4[ebp+ecx]
	mov	DWORD PTR [eax+edx+2900], ecx

; 3353 : 	}

	jmp	$LN6@R_StudioDr
$LN5@R_StudioDr:

; 3354 : 	else
; 3355 : 	{
; 3356 : 		RI.currententity->curstate.controller[0] = 127;

	mov	edx, 1
	imul	eax, edx, 0
	mov	ecx, DWORD PTR _RI+28
	mov	BYTE PTR [ecx+eax+792], 127		; 0000007fH

; 3357 : 		RI.currententity->curstate.controller[1] = 127;

	mov	edx, 1
	shl	edx, 0
	mov	eax, DWORD PTR _RI+28
	mov	BYTE PTR [eax+edx+792], 127		; 0000007fH

; 3358 : 		RI.currententity->curstate.controller[2] = 127;

	mov	ecx, 1
	shl	ecx, 1
	mov	edx, DWORD PTR _RI+28
	mov	BYTE PTR [edx+ecx+792], 127		; 0000007fH

; 3359 : 		RI.currententity->curstate.controller[3] = 127;

	mov	eax, 1
	imul	ecx, eax, 3
	mov	edx, DWORD PTR _RI+28
	mov	BYTE PTR [edx+ecx+792], 127		; 0000007fH

; 3360 : 		RI.currententity->latched.prevcontroller[0] = RI.currententity->curstate.controller[0];

	mov	eax, 1
	imul	ecx, eax, 0
	mov	edx, 1
	imul	eax, edx, 0
	mov	edx, DWORD PTR _RI+28
	mov	esi, DWORD PTR _RI+28
	mov	cl, BYTE PTR [esi+ecx+792]
	mov	BYTE PTR [edx+eax+2876], cl

; 3361 : 		RI.currententity->latched.prevcontroller[1] = RI.currententity->curstate.controller[1];

	mov	edx, 1
	shl	edx, 0
	mov	eax, 1
	shl	eax, 0
	mov	ecx, DWORD PTR _RI+28
	mov	esi, DWORD PTR _RI+28
	mov	dl, BYTE PTR [esi+edx+792]
	mov	BYTE PTR [ecx+eax+2876], dl

; 3362 : 		RI.currententity->latched.prevcontroller[2] = RI.currententity->curstate.controller[2];

	mov	eax, 1
	shl	eax, 1
	mov	ecx, 1
	shl	ecx, 1
	mov	edx, DWORD PTR _RI+28
	mov	esi, DWORD PTR _RI+28
	mov	al, BYTE PTR [esi+eax+792]
	mov	BYTE PTR [edx+ecx+2876], al

; 3363 : 		RI.currententity->latched.prevcontroller[3] = RI.currententity->curstate.controller[3];

	mov	ecx, 1
	imul	edx, ecx, 3
	mov	eax, 1
	imul	ecx, eax, 3
	mov	eax, DWORD PTR _RI+28
	mov	esi, DWORD PTR _RI+28
	mov	dl, BYTE PTR [esi+edx+792]
	mov	BYTE PTR [eax+ecx+2876], dl

; 3364 : 		
; 3365 : 		m_pPlayerInfo = pfnPlayerInfo( m_nPlayerIndex );

	mov	eax, DWORD PTR _m_nPlayerIndex$[ebp]
	push	eax
	call	_pfnPlayerInfo
	add	esp, 4
	mov	DWORD PTR _m_pPlayerInfo, eax

; 3366 : 		m_pPlayerInfo->gaitsequence = 0;

	mov	ecx, DWORD PTR _m_pPlayerInfo
	mov	DWORD PTR [ecx+380], 0

; 3367 : 
; 3368 : 		R_StudioSetUpTransform( RI.currententity );

	mov	edx, DWORD PTR _RI+28
	push	edx
	call	_R_StudioSetUpTransform
	add	esp, 4
$LN6@R_StudioDr:

; 3369 : 	}
; 3370 : 
; 3371 : 	if( flags & STUDIO_RENDER )

	mov	eax, DWORD PTR _flags$[ebp]
	and	eax, 1
	je	SHORT $LN9@R_StudioDr

; 3372 : 	{
; 3373 : 		// see if the bounding box lets us trivially reject, also sets
; 3374 : 		if( !R_StudioCheckBBox( ))

	call	_R_StudioCheckBBox
	test	eax, eax
	jne	SHORT $LN8@R_StudioDr

; 3375 : 			return 0;

	xor	eax, eax
	jmp	$LN1@R_StudioDr
$LN8@R_StudioDr:

; 3376 : 
; 3377 : 		r_stats.c_studio_models_drawn++;

	mov	ecx, DWORD PTR _r_stats+32
	add	ecx, 1
	mov	DWORD PTR _r_stats+32, ecx

; 3378 : 		g_studio.framecount++; // render data cache cookie

	mov	edx, DWORD PTR _g_studio+16
	add	edx, 1
	mov	DWORD PTR _g_studio+16, edx

; 3379 : 
; 3380 : 		if( m_pStudioHeader->numbodyparts == 0 )

	mov	eax, DWORD PTR _m_pStudioHeader
	cmp	DWORD PTR [eax+204], 0
	jne	SHORT $LN9@R_StudioDr

; 3381 : 			return 1;

	mov	eax, 1
	jmp	$LN1@R_StudioDr
$LN9@R_StudioDr:

; 3382 : 	}
; 3383 : 
; 3384 : 	m_pPlayerInfo = pfnPlayerInfo( m_nPlayerIndex );

	mov	ecx, DWORD PTR _m_nPlayerIndex$[ebp]
	push	ecx
	call	_pfnPlayerInfo
	add	esp, 4
	mov	DWORD PTR _m_pPlayerInfo, eax

; 3385 : 	R_StudioSetupBones( RI.currententity );

	mov	edx, DWORD PTR _RI+28
	push	edx
	call	_R_StudioSetupBones
	add	esp, 4

; 3386 : 	R_StudioSaveBones( );

	call	_R_StudioSaveBones

; 3387 : 
; 3388 : 	m_pPlayerInfo->renderframe = tr.realframecount;

	mov	eax, DWORD PTR _m_pPlayerInfo
	mov	ecx, DWORD PTR _tr+66676
	mov	DWORD PTR [eax+376], ecx

; 3389 : 	m_pPlayerInfo = NULL;

	mov	DWORD PTR _m_pPlayerInfo, 0

; 3390 : 
; 3391 : 	if( flags & STUDIO_EVENTS )

	mov	edx, DWORD PTR _flags$[ebp]
	and	edx, 2
	je	SHORT $LN11@R_StudioDr

; 3392 : 	{
; 3393 : 		R_StudioCalcAttachments( );

	call	_R_StudioCalcAttachments

; 3394 : 		R_StudioClientEvents( );

	call	_R_StudioClientEvents

; 3395 : 
; 3396 : 		// copy attachments into global entity array
; 3397 : 		if( RI.currententity->index > 0 )

	mov	eax, DWORD PTR _RI+28
	cmp	DWORD PTR [eax], 0
	jle	SHORT $LN11@R_StudioDr

; 3398 : 		{
; 3399 : 			cl_entity_t *ent = CL_GetEntityByIndex( RI.currententity->index );

	mov	ecx, DWORD PTR _RI+28
	mov	edx, DWORD PTR [ecx]
	push	edx
	call	_CL_GetEntityByIndex
	add	esp, 4
	mov	DWORD PTR _ent$1[ebp], eax

; 3400 : 			memcpy( ent->attachment, RI.currententity->attachment, sizeof( vec3_t ) * 4 );

	push	48					; 00000030H
	mov	eax, DWORD PTR _RI+28
	add	eax, 2912				; 00000b60H
	push	eax
	mov	ecx, DWORD PTR _ent$1[ebp]
	add	ecx, 2912				; 00000b60H
	push	ecx
	call	_memcpy
	add	esp, 12					; 0000000cH
$LN11@R_StudioDr:

; 3401 : 		}
; 3402 : 	}
; 3403 : 
; 3404 : 	if( flags & STUDIO_RENDER )

	mov	edx, DWORD PTR _flags$[ebp]
	and	edx, 1
	je	$LN20@R_StudioDr

; 3405 : 	{
; 3406 : 		if( cl_himodels->value && RI.currentmodel != RI.currententity->model  )

	mov	eax, DWORD PTR _cl_himodels
	movss	xmm0, DWORD PTR [eax+12]
	ucomiss	xmm0, DWORD PTR __real@00000000
	lahf
	test	ah, 68					; 00000044H
	jnp	SHORT $LN13@R_StudioDr
	mov	ecx, DWORD PTR _RI+28
	mov	edx, DWORD PTR _RI+32
	cmp	edx, DWORD PTR [ecx+2964]
	je	SHORT $LN13@R_StudioDr

; 3407 : 		{
; 3408 : 			// show highest resolution multiplayer model
; 3409 : 			RI.currententity->curstate.body = 255;

	mov	eax, DWORD PTR _RI+28
	mov	DWORD PTR [eax+788], 255		; 000000ffH
$LN13@R_StudioDr:

; 3410 : 		}
; 3411 : 
; 3412 : 		if( !( !host_developer.value && cl.maxclients == 1 ) && ( RI.currentmodel == RI.currententity->model ))

	movss	xmm0, DWORD PTR _host_developer+12
	ucomiss	xmm0, DWORD PTR __real@00000000
	lahf
	test	ah, 68					; 00000044H
	jp	SHORT $LN15@R_StudioDr
	cmp	DWORD PTR _cl+1568832, 1
	je	SHORT $LN14@R_StudioDr
$LN15@R_StudioDr:
	mov	ecx, DWORD PTR _RI+28
	mov	edx, DWORD PTR _RI+32
	cmp	edx, DWORD PTR [ecx+2964]
	jne	SHORT $LN14@R_StudioDr

; 3413 : 			RI.currententity->curstate.body = 1; // force helmet

	mov	eax, DWORD PTR _RI+28
	mov	DWORD PTR [eax+788], 1
$LN14@R_StudioDr:

; 3414 : 
; 3415 : 		lighting.plightvec = dir;

	lea	ecx, DWORD PTR _dir$[ebp]
	mov	DWORD PTR _lighting$[ebp+20], ecx

; 3416 : 		R_StudioDynamicLight( RI.currententity, &lighting );

	lea	edx, DWORD PTR _lighting$[ebp]
	push	edx
	mov	eax, DWORD PTR _RI+28
	push	eax
	call	_R_StudioDynamicLight
	add	esp, 8

; 3417 : 
; 3418 : 		R_StudioEntityLight( &lighting );

	lea	ecx, DWORD PTR _lighting$[ebp]
	push	ecx
	call	_R_StudioEntityLight
	add	esp, 4

; 3419 : 
; 3420 : 		// model and frame independant
; 3421 : 		R_StudioSetupLighting( &lighting );

	lea	edx, DWORD PTR _lighting$[ebp]
	push	edx
	call	_R_StudioSetupLighting
	add	esp, 4

; 3422 : 
; 3423 : 		m_pPlayerInfo = pfnPlayerInfo( m_nPlayerIndex );

	mov	eax, DWORD PTR _m_nPlayerIndex$[ebp]
	push	eax
	call	_pfnPlayerInfo
	add	esp, 4
	mov	DWORD PTR _m_pPlayerInfo, eax

; 3424 : 
; 3425 : 		// get remap colors
; 3426 : 		g_nTopColor = m_pPlayerInfo->topcolor;

	mov	ecx, DWORD PTR _m_pPlayerInfo
	mov	edx, DWORD PTR [ecx+368]
	mov	DWORD PTR _g_nTopColor, edx

; 3427 : 		g_nBottomColor = m_pPlayerInfo->bottomcolor;

	mov	eax, DWORD PTR _m_pPlayerInfo
	mov	ecx, DWORD PTR [eax+372]
	mov	DWORD PTR _g_nBottomColor, ecx

; 3428 : 
; 3429 : 		if( g_nTopColor < 0 ) g_nTopColor = 0;

	cmp	DWORD PTR _g_nTopColor, 0
	jge	SHORT $LN16@R_StudioDr
	mov	DWORD PTR _g_nTopColor, 0
$LN16@R_StudioDr:

; 3430 : 		if( g_nTopColor > 360 ) g_nTopColor = 360;

	cmp	DWORD PTR _g_nTopColor, 360		; 00000168H
	jle	SHORT $LN17@R_StudioDr
	mov	DWORD PTR _g_nTopColor, 360		; 00000168H
$LN17@R_StudioDr:

; 3431 : 		if( g_nBottomColor < 0 ) g_nBottomColor = 0;

	cmp	DWORD PTR _g_nBottomColor, 0
	jge	SHORT $LN18@R_StudioDr
	mov	DWORD PTR _g_nBottomColor, 0
$LN18@R_StudioDr:

; 3432 : 		if( g_nBottomColor > 360 ) g_nBottomColor = 360;

	cmp	DWORD PTR _g_nBottomColor, 360		; 00000168H
	jle	SHORT $LN19@R_StudioDr
	mov	DWORD PTR _g_nBottomColor, 360		; 00000168H
$LN19@R_StudioDr:

; 3433 : 
; 3434 : 		R_StudioSetRemapColors( g_nTopColor, g_nBottomColor );

	mov	edx, DWORD PTR _g_nBottomColor
	push	edx
	mov	eax, DWORD PTR _g_nTopColor
	push	eax
	call	_R_StudioSetRemapColors
	add	esp, 8

; 3435 : 
; 3436 : 		R_StudioRenderModel( );

	call	_R_StudioRenderModel

; 3437 : 		m_pPlayerInfo = NULL;

	mov	DWORD PTR _m_pPlayerInfo, 0

; 3438 : 
; 3439 : 		if( pplayer->weaponmodel )

	mov	ecx, DWORD PTR _pplayer$[ebp]
	cmp	DWORD PTR [ecx+180], 0
	je	$LN20@R_StudioDr

; 3440 : 		{
; 3441 : 			cl_entity_t	saveent = *RI.currententity;

	mov	ecx, 750				; 000002eeH
	mov	esi, DWORD PTR _RI+28
	lea	edi, DWORD PTR _saveent$3[ebp]
	rep movsd

; 3442 : 			model_t		*pweaponmodel = CL_ModelHandle( pplayer->weaponmodel );

	mov	edx, DWORD PTR _pplayer$[ebp]
	mov	eax, DWORD PTR [edx+180]
	push	eax
	call	_CL_ModelHandle
	add	esp, 4
	mov	DWORD PTR _pweaponmodel$2[ebp], eax

; 3443 : 
; 3444 : 			m_pStudioHeader = (studiohdr_t *)Mod_StudioExtradata( pweaponmodel );

	mov	ecx, DWORD PTR _pweaponmodel$2[ebp]
	push	ecx
	call	_Mod_StudioExtradata
	add	esp, 4
	mov	DWORD PTR _m_pStudioHeader, eax

; 3445 : 
; 3446 : 			R_StudioMergeBones( RI.currententity, pweaponmodel );

	mov	edx, DWORD PTR _pweaponmodel$2[ebp]
	push	edx
	mov	eax, DWORD PTR _RI+28
	push	eax
	call	_R_StudioMergeBones
	add	esp, 8

; 3447 : 			R_StudioSetupLighting( &lighting );

	lea	ecx, DWORD PTR _lighting$[ebp]
	push	ecx
	call	_R_StudioSetupLighting
	add	esp, 4

; 3448 : 			R_StudioRenderModel( );

	call	_R_StudioRenderModel

; 3449 : 			R_StudioCalcAttachments( );

	call	_R_StudioCalcAttachments

; 3450 : 
; 3451 : 			*RI.currententity = saveent;

	mov	ecx, 750				; 000002eeH
	lea	esi, DWORD PTR _saveent$3[ebp]
	mov	edi, DWORD PTR _RI+28
	rep movsd
$LN20@R_StudioDr:

; 3452 : 		}
; 3453 : 	}
; 3454 : 
; 3455 : 	return 1;

	mov	eax, 1
$LN1@R_StudioDr:

; 3456 : }

	pop	edi
	pop	esi
	mov	ecx, DWORD PTR __$ArrayPad$[ebp]
	xor	ecx, ebp
	call	@__security_check_cookie@4
	mov	esp, ebp
	pop	ebp
	ret	0
_R_StudioDrawPlayer ENDP
_TEXT	ENDS
; Function compile flags: /Odtp
; File c:\users\user\downloads\xash_build4529_src\engine\client\gl_studio.c
_TEXT	SEGMENT
tv71 = -32						; size = 8
tv70 = -24						; size = 8
_dt$ = -16						; size = 4
_iBlend$ = -12						; size = 4
_pseqdesc$ = -8						; size = 4
_flYaw$ = -4						; size = 4
_pplayer$ = 8						; size = 4
_R_StudioProcessGait PROC

; 3248 : {

	push	ebp
	mov	ebp, esp
	sub	esp, 32					; 00000020H
	push	esi

; 3249 : 	mstudioseqdesc_t	*pseqdesc;
; 3250 : 	int		iBlend;
; 3251 : 	float		dt, flYaw; // view direction relative to movement
; 3252 : 
; 3253 : 	if( RI.currententity->curstate.sequence >= m_pStudioHeader->numseq ) 

	mov	eax, DWORD PTR _RI+28
	mov	ecx, DWORD PTR _m_pStudioHeader
	mov	edx, DWORD PTR [eax+732]
	cmp	edx, DWORD PTR [ecx+164]
	jl	SHORT $LN2@R_StudioPr

; 3254 : 		RI.currententity->curstate.sequence = 0;

	mov	eax, DWORD PTR _RI+28
	mov	DWORD PTR [eax+732], 0
$LN2@R_StudioPr:

; 3255 : 
; 3256 : 	dt = bound( 0.0f, g_studio.frametime, 1.0f );

	movsd	xmm0, QWORD PTR _g_studio+8
	comisd	xmm0, QWORD PTR __real@0000000000000000
	jb	SHORT $LN16@R_StudioPr
	movsd	xmm0, QWORD PTR __real@3ff0000000000000
	comisd	xmm0, QWORD PTR _g_studio+8
	jbe	SHORT $LN14@R_StudioPr
	movsd	xmm0, QWORD PTR _g_studio+8
	movsd	QWORD PTR tv70[ebp], xmm0
	jmp	SHORT $LN15@R_StudioPr
$LN14@R_StudioPr:
	movsd	xmm0, QWORD PTR __real@3ff0000000000000
	movsd	QWORD PTR tv70[ebp], xmm0
$LN15@R_StudioPr:
	movsd	xmm0, QWORD PTR tv70[ebp]
	movsd	QWORD PTR tv71[ebp], xmm0
	jmp	SHORT $LN17@R_StudioPr
$LN16@R_StudioPr:
	xorps	xmm0, xmm0
	movsd	QWORD PTR tv71[ebp], xmm0
$LN17@R_StudioPr:
	cvtsd2ss xmm0, QWORD PTR tv71[ebp]
	movss	DWORD PTR _dt$[ebp], xmm0

; 3257 : 
; 3258 : 	pseqdesc = (mstudioseqdesc_t *)((byte *)m_pStudioHeader + m_pStudioHeader->seqindex) + RI.currententity->curstate.sequence;

	mov	ecx, DWORD PTR _m_pStudioHeader
	mov	edx, DWORD PTR _m_pStudioHeader
	add	edx, DWORD PTR [ecx+168]
	mov	eax, DWORD PTR _RI+28
	imul	ecx, DWORD PTR [eax+732], 176
	add	edx, ecx
	mov	DWORD PTR _pseqdesc$[ebp], edx

; 3259 : 
; 3260 : 	R_StudioPlayerBlend( pseqdesc, &iBlend, &RI.currententity->angles[PITCH] );

	mov	edx, 4
	imul	eax, edx, 0
	mov	ecx, DWORD PTR _RI+28
	lea	edx, DWORD PTR [ecx+eax+2900]
	push	edx
	lea	eax, DWORD PTR _iBlend$[ebp]
	push	eax
	mov	ecx, DWORD PTR _pseqdesc$[ebp]
	push	ecx
	call	_R_StudioPlayerBlend
	add	esp, 12					; 0000000cH

; 3261 : 
; 3262 : 	RI.currententity->latched.prevangles[PITCH] = RI.currententity->angles[PITCH];

	mov	edx, 4
	imul	eax, edx, 0
	mov	ecx, 4
	imul	edx, ecx, 0
	mov	ecx, DWORD PTR _RI+28
	mov	esi, DWORD PTR _RI+28
	mov	eax, DWORD PTR [esi+eax+2900]
	mov	DWORD PTR [ecx+edx+2856], eax

; 3263 : 	RI.currententity->curstate.blending[0] = iBlend;

	mov	ecx, 1
	imul	edx, ecx, 0
	mov	eax, DWORD PTR _RI+28
	mov	cl, BYTE PTR _iBlend$[ebp]
	mov	BYTE PTR [eax+edx+796], cl

; 3264 : 	RI.currententity->latched.prevblending[0] = RI.currententity->curstate.blending[0];

	mov	edx, 1
	imul	eax, edx, 0
	mov	ecx, 1
	imul	edx, ecx, 0
	mov	ecx, DWORD PTR _RI+28
	mov	esi, DWORD PTR _RI+28
	mov	al, BYTE PTR [esi+eax+796]
	mov	BYTE PTR [ecx+edx+2880], al

; 3265 : 	RI.currententity->latched.prevseqblending[0] = RI.currententity->curstate.blending[0];

	mov	ecx, 1
	imul	edx, ecx, 0
	mov	eax, 1
	imul	ecx, eax, 0
	mov	eax, DWORD PTR _RI+28
	mov	esi, DWORD PTR _RI+28
	mov	dl, BYTE PTR [esi+edx+796]
	mov	BYTE PTR [eax+ecx+2840], dl

; 3266 : 	R_StudioEstimateGait( pplayer );

	mov	eax, DWORD PTR _pplayer$[ebp]
	push	eax
	call	_R_StudioEstimateGait
	add	esp, 4

; 3267 : 
; 3268 : 	// calc side to side turning
; 3269 : 	flYaw = RI.currententity->angles[YAW] - m_pPlayerInfo->gaityaw;

	mov	ecx, 4
	shl	ecx, 0
	mov	edx, DWORD PTR _RI+28
	mov	eax, DWORD PTR _m_pPlayerInfo
	movss	xmm0, DWORD PTR [edx+ecx+2900]
	subss	xmm0, DWORD PTR [eax+388]
	movss	DWORD PTR _flYaw$[ebp], xmm0

; 3270 : 	flYaw = flYaw - (int)(flYaw / 360) * 360;

	movss	xmm0, DWORD PTR _flYaw$[ebp]
	divss	xmm0, DWORD PTR __real@43b40000
	cvttss2si ecx, xmm0
	imul	edx, ecx, 360
	cvtsi2ss xmm0, edx
	movss	xmm1, DWORD PTR _flYaw$[ebp]
	subss	xmm1, xmm0
	movss	DWORD PTR _flYaw$[ebp], xmm1

; 3271 : 	if( flYaw < -180.0f ) flYaw = flYaw + 360.0f;

	movss	xmm0, DWORD PTR __real@c3340000
	comiss	xmm0, DWORD PTR _flYaw$[ebp]
	jbe	SHORT $LN3@R_StudioPr
	movss	xmm0, DWORD PTR _flYaw$[ebp]
	addss	xmm0, DWORD PTR __real@43b40000
	movss	DWORD PTR _flYaw$[ebp], xmm0
$LN3@R_StudioPr:

; 3272 : 	if( flYaw > 180.0f ) flYaw = flYaw - 360.0f;

	movss	xmm0, DWORD PTR _flYaw$[ebp]
	comiss	xmm0, DWORD PTR __real@43340000
	jbe	SHORT $LN4@R_StudioPr
	movss	xmm0, DWORD PTR _flYaw$[ebp]
	subss	xmm0, DWORD PTR __real@43b40000
	movss	DWORD PTR _flYaw$[ebp], xmm0
$LN4@R_StudioPr:

; 3273 : 
; 3274 : 	if( flYaw > 120.0f )

	movss	xmm0, DWORD PTR _flYaw$[ebp]
	comiss	xmm0, DWORD PTR __real@42f00000
	jbe	SHORT $LN5@R_StudioPr

; 3275 : 	{
; 3276 : 		m_pPlayerInfo->gaityaw = m_pPlayerInfo->gaityaw - 180.0f;

	mov	eax, DWORD PTR _m_pPlayerInfo
	movss	xmm0, DWORD PTR [eax+388]
	subss	xmm0, DWORD PTR __real@43340000
	mov	ecx, DWORD PTR _m_pPlayerInfo
	movss	DWORD PTR [ecx+388], xmm0

; 3277 : 		m_flGaitMovement = -m_flGaitMovement;

	movss	xmm0, DWORD PTR _m_flGaitMovement
	xorps	xmm0, DWORD PTR __xmm@80000000800000008000000080000000
	movss	DWORD PTR _m_flGaitMovement, xmm0

; 3278 : 		flYaw = flYaw - 180.0f;

	movss	xmm0, DWORD PTR _flYaw$[ebp]
	subss	xmm0, DWORD PTR __real@43340000
	movss	DWORD PTR _flYaw$[ebp], xmm0

; 3279 : 	}

	jmp	SHORT $LN7@R_StudioPr
$LN5@R_StudioPr:

; 3280 : 	else if( flYaw < -120.0f )

	movss	xmm0, DWORD PTR __real@c2f00000
	comiss	xmm0, DWORD PTR _flYaw$[ebp]
	jbe	SHORT $LN7@R_StudioPr

; 3281 : 	{
; 3282 : 		m_pPlayerInfo->gaityaw = m_pPlayerInfo->gaityaw + 180.0f;

	mov	edx, DWORD PTR _m_pPlayerInfo
	movss	xmm0, DWORD PTR [edx+388]
	addss	xmm0, DWORD PTR __real@43340000
	mov	eax, DWORD PTR _m_pPlayerInfo
	movss	DWORD PTR [eax+388], xmm0

; 3283 : 		m_flGaitMovement = -m_flGaitMovement;

	movss	xmm0, DWORD PTR _m_flGaitMovement
	xorps	xmm0, DWORD PTR __xmm@80000000800000008000000080000000
	movss	DWORD PTR _m_flGaitMovement, xmm0

; 3284 : 		flYaw = flYaw + 180.0f;

	movss	xmm0, DWORD PTR _flYaw$[ebp]
	addss	xmm0, DWORD PTR __real@43340000
	movss	DWORD PTR _flYaw$[ebp], xmm0
$LN7@R_StudioPr:

; 3285 : 	}
; 3286 : 
; 3287 : 	// adjust torso
; 3288 : 	RI.currententity->curstate.controller[0] = ((flYaw / 4.0f) + 30.0f) / (60.0f / 255.0f);

	movss	xmm0, DWORD PTR _flYaw$[ebp]
	divss	xmm0, DWORD PTR __real@40800000
	addss	xmm0, DWORD PTR __real@41f00000
	divss	xmm0, DWORD PTR __real@3e70f0f1
	mov	ecx, 1
	imul	edx, ecx, 0
	cvttss2si eax, xmm0
	mov	ecx, DWORD PTR _RI+28
	mov	BYTE PTR [ecx+edx+792], al

; 3289 : 	RI.currententity->curstate.controller[1] = ((flYaw / 4.0f) + 30.0f) / (60.0f / 255.0f);

	movss	xmm0, DWORD PTR _flYaw$[ebp]
	divss	xmm0, DWORD PTR __real@40800000
	addss	xmm0, DWORD PTR __real@41f00000
	divss	xmm0, DWORD PTR __real@3e70f0f1
	mov	edx, 1
	shl	edx, 0
	cvttss2si eax, xmm0
	mov	ecx, DWORD PTR _RI+28
	mov	BYTE PTR [ecx+edx+792], al

; 3290 : 	RI.currententity->curstate.controller[2] = ((flYaw / 4.0f) + 30.0f) / (60.0f / 255.0f);

	movss	xmm0, DWORD PTR _flYaw$[ebp]
	divss	xmm0, DWORD PTR __real@40800000
	addss	xmm0, DWORD PTR __real@41f00000
	divss	xmm0, DWORD PTR __real@3e70f0f1
	mov	edx, 1
	shl	edx, 1
	cvttss2si eax, xmm0
	mov	ecx, DWORD PTR _RI+28
	mov	BYTE PTR [ecx+edx+792], al

; 3291 : 	RI.currententity->curstate.controller[3] = ((flYaw / 4.0f) + 30.0f) / (60.0f / 255.0f);

	movss	xmm0, DWORD PTR _flYaw$[ebp]
	divss	xmm0, DWORD PTR __real@40800000
	addss	xmm0, DWORD PTR __real@41f00000
	divss	xmm0, DWORD PTR __real@3e70f0f1
	mov	edx, 1
	imul	eax, edx, 3
	cvttss2si ecx, xmm0
	mov	edx, DWORD PTR _RI+28
	mov	BYTE PTR [edx+eax+792], cl

; 3292 : 	RI.currententity->latched.prevcontroller[0] = RI.currententity->curstate.controller[0];

	mov	eax, 1
	imul	ecx, eax, 0
	mov	edx, 1
	imul	eax, edx, 0
	mov	edx, DWORD PTR _RI+28
	mov	esi, DWORD PTR _RI+28
	mov	cl, BYTE PTR [esi+ecx+792]
	mov	BYTE PTR [edx+eax+2876], cl

; 3293 : 	RI.currententity->latched.prevcontroller[1] = RI.currententity->curstate.controller[1];

	mov	edx, 1
	shl	edx, 0
	mov	eax, 1
	shl	eax, 0
	mov	ecx, DWORD PTR _RI+28
	mov	esi, DWORD PTR _RI+28
	mov	dl, BYTE PTR [esi+edx+792]
	mov	BYTE PTR [ecx+eax+2876], dl

; 3294 : 	RI.currententity->latched.prevcontroller[2] = RI.currententity->curstate.controller[2];

	mov	eax, 1
	shl	eax, 1
	mov	ecx, 1
	shl	ecx, 1
	mov	edx, DWORD PTR _RI+28
	mov	esi, DWORD PTR _RI+28
	mov	al, BYTE PTR [esi+eax+792]
	mov	BYTE PTR [edx+ecx+2876], al

; 3295 : 	RI.currententity->latched.prevcontroller[3] = RI.currententity->curstate.controller[3];

	mov	ecx, 1
	imul	edx, ecx, 3
	mov	eax, 1
	imul	ecx, eax, 3
	mov	eax, DWORD PTR _RI+28
	mov	esi, DWORD PTR _RI+28
	mov	dl, BYTE PTR [esi+edx+792]
	mov	BYTE PTR [eax+ecx+2876], dl

; 3296 : 
; 3297 : 	RI.currententity->angles[YAW] = m_pPlayerInfo->gaityaw;

	mov	eax, 4
	shl	eax, 0
	mov	ecx, DWORD PTR _RI+28
	mov	edx, DWORD PTR _m_pPlayerInfo
	mov	edx, DWORD PTR [edx+388]
	mov	DWORD PTR [ecx+eax+2900], edx

; 3298 : 	if( RI.currententity->angles[YAW] < -0 ) RI.currententity->angles[YAW] += 360.0f;

	mov	eax, 4
	shl	eax, 0
	mov	ecx, DWORD PTR _RI+28
	xorps	xmm0, xmm0
	comiss	xmm0, DWORD PTR [ecx+eax+2900]
	jbe	SHORT $LN8@R_StudioPr
	mov	edx, 4
	shl	edx, 0
	mov	eax, DWORD PTR _RI+28
	movss	xmm0, DWORD PTR [eax+edx+2900]
	addss	xmm0, DWORD PTR __real@43b40000
	mov	ecx, 4
	shl	ecx, 0
	mov	edx, DWORD PTR _RI+28
	movss	DWORD PTR [edx+ecx+2900], xmm0
$LN8@R_StudioPr:

; 3299 : 	RI.currententity->latched.prevangles[YAW] = RI.currententity->angles[YAW];

	mov	eax, 4
	shl	eax, 0
	mov	ecx, 4
	shl	ecx, 0
	mov	edx, DWORD PTR _RI+28
	mov	esi, DWORD PTR _RI+28
	mov	eax, DWORD PTR [esi+eax+2900]
	mov	DWORD PTR [edx+ecx+2856], eax

; 3300 : 
; 3301 : 	if( pplayer->gaitsequence >= m_pStudioHeader->numseq ) 

	mov	ecx, DWORD PTR _pplayer$[ebp]
	mov	edx, DWORD PTR _m_pStudioHeader
	mov	eax, DWORD PTR [ecx+184]
	cmp	eax, DWORD PTR [edx+164]
	jl	SHORT $LN9@R_StudioPr

; 3302 : 		pplayer->gaitsequence = 0;

	mov	ecx, DWORD PTR _pplayer$[ebp]
	mov	DWORD PTR [ecx+184], 0
$LN9@R_StudioPr:

; 3303 : 
; 3304 : 	pseqdesc = (mstudioseqdesc_t *)((byte *)m_pStudioHeader + m_pStudioHeader->seqindex) + pplayer->gaitsequence;

	mov	edx, DWORD PTR _m_pStudioHeader
	mov	eax, DWORD PTR _m_pStudioHeader
	add	eax, DWORD PTR [edx+168]
	mov	ecx, DWORD PTR _pplayer$[ebp]
	imul	edx, DWORD PTR [ecx+184], 176
	add	eax, edx
	mov	DWORD PTR _pseqdesc$[ebp], eax

; 3305 : 
; 3306 : 	// calc gait frame
; 3307 : 	if( pseqdesc->linearmovement[0] > 0 )

	mov	eax, 4
	imul	ecx, eax, 0
	mov	edx, DWORD PTR _pseqdesc$[ebp]
	movss	xmm0, DWORD PTR [edx+ecx+76]
	comiss	xmm0, DWORD PTR __real@00000000
	jbe	SHORT $LN10@R_StudioPr

; 3308 : 		m_pPlayerInfo->gaitframe += (m_flGaitMovement / pseqdesc->linearmovement[0]) * pseqdesc->numframes;

	mov	eax, 4
	imul	ecx, eax, 0
	mov	edx, DWORD PTR _pseqdesc$[ebp]
	movss	xmm0, DWORD PTR _m_flGaitMovement
	divss	xmm0, DWORD PTR [edx+ecx+76]
	mov	eax, DWORD PTR _pseqdesc$[ebp]
	cvtsi2ss xmm1, DWORD PTR [eax+56]
	mulss	xmm0, xmm1
	mov	ecx, DWORD PTR _m_pPlayerInfo
	addss	xmm0, DWORD PTR [ecx+384]
	mov	edx, DWORD PTR _m_pPlayerInfo
	movss	DWORD PTR [edx+384], xmm0
	jmp	SHORT $LN11@R_StudioPr
$LN10@R_StudioPr:

; 3309 : 	else m_pPlayerInfo->gaitframe += pseqdesc->fps * dt;

	mov	eax, DWORD PTR _pseqdesc$[ebp]
	movss	xmm0, DWORD PTR [eax+32]
	mulss	xmm0, DWORD PTR _dt$[ebp]
	mov	ecx, DWORD PTR _m_pPlayerInfo
	addss	xmm0, DWORD PTR [ecx+384]
	mov	edx, DWORD PTR _m_pPlayerInfo
	movss	DWORD PTR [edx+384], xmm0
$LN11@R_StudioPr:

; 3310 : 
; 3311 : 	// do modulo
; 3312 : 	m_pPlayerInfo->gaitframe = m_pPlayerInfo->gaitframe - (int)(m_pPlayerInfo->gaitframe / pseqdesc->numframes) * pseqdesc->numframes;

	mov	eax, DWORD PTR _pseqdesc$[ebp]
	cvtsi2ss xmm0, DWORD PTR [eax+56]
	mov	ecx, DWORD PTR _m_pPlayerInfo
	movss	xmm1, DWORD PTR [ecx+384]
	divss	xmm1, xmm0
	cvttss2si edx, xmm1
	mov	eax, DWORD PTR _pseqdesc$[ebp]
	imul	edx, DWORD PTR [eax+56]
	cvtsi2ss xmm0, edx
	mov	ecx, DWORD PTR _m_pPlayerInfo
	movss	xmm1, DWORD PTR [ecx+384]
	subss	xmm1, xmm0
	mov	edx, DWORD PTR _m_pPlayerInfo
	movss	DWORD PTR [edx+384], xmm1

; 3313 : 	if( m_pPlayerInfo->gaitframe < 0 ) m_pPlayerInfo->gaitframe += pseqdesc->numframes;

	mov	eax, DWORD PTR _m_pPlayerInfo
	xorps	xmm0, xmm0
	comiss	xmm0, DWORD PTR [eax+384]
	jbe	SHORT $LN12@R_StudioPr
	mov	ecx, DWORD PTR _pseqdesc$[ebp]
	cvtsi2ss xmm0, DWORD PTR [ecx+56]
	mov	edx, DWORD PTR _m_pPlayerInfo
	addss	xmm0, DWORD PTR [edx+384]
	mov	eax, DWORD PTR _m_pPlayerInfo
	movss	DWORD PTR [eax+384], xmm0
$LN12@R_StudioPr:

; 3314 : }

	pop	esi
	mov	esp, ebp
	pop	ebp
	ret	0
_R_StudioProcessGait ENDP
_TEXT	ENDS
; Function compile flags: /Odtp
; File c:\users\user\downloads\xash_build4529_src\engine\client\gl_studio.c
_TEXT	SEGMENT
tv347 = -52						; size = 8
tv67 = -44						; size = 8
tv66 = -36						; size = 8
tv130 = -28						; size = 4
_dt$ = -24						; size = 4
_flYawDiff$1 = -20					; size = 4
_est_velocity$ = -16					; size = 12
__$ArrayPad$ = -4					; size = 4
_pplayer$ = 8						; size = 4
_R_StudioEstimateGait PROC

; 3192 : {

	push	ebp
	mov	ebp, esp
	sub	esp, 52					; 00000034H
	mov	eax, DWORD PTR ___security_cookie
	xor	eax, ebp
	mov	DWORD PTR __$ArrayPad$[ebp], eax
	push	esi

; 3193 : 	vec3_t	est_velocity;
; 3194 : 	float	dt;
; 3195 : 
; 3196 : 	dt = bound( 0.0f, g_studio.frametime, 1.0f );

	movsd	xmm0, QWORD PTR _g_studio+8
	comisd	xmm0, QWORD PTR __real@0000000000000000
	jb	SHORT $LN17@R_StudioEs
	movsd	xmm0, QWORD PTR __real@3ff0000000000000
	comisd	xmm0, QWORD PTR _g_studio+8
	jbe	SHORT $LN15@R_StudioEs
	movsd	xmm0, QWORD PTR _g_studio+8
	movsd	QWORD PTR tv66[ebp], xmm0
	jmp	SHORT $LN16@R_StudioEs
$LN15@R_StudioEs:
	movsd	xmm0, QWORD PTR __real@3ff0000000000000
	movsd	QWORD PTR tv66[ebp], xmm0
$LN16@R_StudioEs:
	movsd	xmm0, QWORD PTR tv66[ebp]
	movsd	QWORD PTR tv67[ebp], xmm0
	jmp	SHORT $LN18@R_StudioEs
$LN17@R_StudioEs:
	xorps	xmm0, xmm0
	movsd	QWORD PTR tv67[ebp], xmm0
$LN18@R_StudioEs:
	cvtsd2ss xmm0, QWORD PTR tv67[ebp]
	movss	DWORD PTR _dt$[ebp], xmm0

; 3197 : 
; 3198 : 	if( dt == 0.0f || m_pPlayerInfo->renderframe == tr.realframecount )

	movss	xmm0, DWORD PTR _dt$[ebp]
	ucomiss	xmm0, DWORD PTR __real@00000000
	lahf
	test	ah, 68					; 00000044H
	jnp	SHORT $LN3@R_StudioEs
	mov	eax, DWORD PTR _m_pPlayerInfo
	mov	ecx, DWORD PTR [eax+376]
	cmp	ecx, DWORD PTR _tr+66676
	jne	SHORT $LN2@R_StudioEs
$LN3@R_StudioEs:

; 3199 : 	{
; 3200 : 		m_flGaitMovement = 0;

	xorps	xmm0, xmm0
	movss	DWORD PTR _m_flGaitMovement, xmm0

; 3201 : 		return;

	jmp	$LN13@R_StudioEs
$LN2@R_StudioEs:

; 3202 : 	}
; 3203 : 
; 3204 : 	VectorSubtract( RI.currententity->origin, m_pPlayerInfo->prevgaitorigin, est_velocity );

	mov	edx, 4
	imul	eax, edx, 0
	mov	ecx, 4
	imul	edx, ecx, 0
	mov	ecx, DWORD PTR _RI+28
	mov	esi, DWORD PTR _m_pPlayerInfo
	movss	xmm0, DWORD PTR [ecx+eax+2888]
	subss	xmm0, DWORD PTR [esi+edx+392]
	mov	edx, 4
	imul	eax, edx, 0
	movss	DWORD PTR _est_velocity$[ebp+eax], xmm0
	mov	ecx, 4
	shl	ecx, 0
	mov	edx, 4
	shl	edx, 0
	mov	eax, DWORD PTR _RI+28
	mov	esi, DWORD PTR _m_pPlayerInfo
	movss	xmm0, DWORD PTR [eax+ecx+2888]
	subss	xmm0, DWORD PTR [esi+edx+392]
	mov	ecx, 4
	shl	ecx, 0
	movss	DWORD PTR _est_velocity$[ebp+ecx], xmm0
	mov	edx, 4
	shl	edx, 1
	mov	eax, 4
	shl	eax, 1
	mov	ecx, DWORD PTR _RI+28
	mov	esi, DWORD PTR _m_pPlayerInfo
	movss	xmm0, DWORD PTR [ecx+edx+2888]
	subss	xmm0, DWORD PTR [esi+eax+392]
	movss	DWORD PTR tv130[ebp], xmm0
	mov	edx, 4
	shl	edx, 1
	movss	xmm0, DWORD PTR tv130[ebp]
	movss	DWORD PTR _est_velocity$[ebp+edx], xmm0

; 3205 : 	VectorCopy( RI.currententity->origin, m_pPlayerInfo->prevgaitorigin );

	mov	eax, 4
	imul	ecx, eax, 0
	mov	edx, 4
	imul	eax, edx, 0
	mov	edx, DWORD PTR _m_pPlayerInfo
	mov	esi, DWORD PTR _RI+28
	mov	ecx, DWORD PTR [esi+ecx+2888]
	mov	DWORD PTR [edx+eax+392], ecx
	mov	edx, 4
	shl	edx, 0
	mov	eax, 4
	shl	eax, 0
	mov	ecx, DWORD PTR _m_pPlayerInfo
	mov	esi, DWORD PTR _RI+28
	mov	edx, DWORD PTR [esi+edx+2888]
	mov	DWORD PTR [ecx+eax+392], edx
	mov	eax, 4
	shl	eax, 1
	mov	ecx, 4
	shl	ecx, 1
	mov	edx, DWORD PTR _m_pPlayerInfo
	mov	esi, DWORD PTR _RI+28
	mov	eax, DWORD PTR [esi+eax+2888]
	mov	DWORD PTR [edx+ecx+392], eax

; 3206 : 	m_flGaitMovement = VectorLength( est_velocity );

	mov	ecx, 4
	imul	edx, ecx, 0
	mov	eax, 4
	imul	ecx, eax, 0
	movss	xmm0, DWORD PTR _est_velocity$[ebp+edx]
	mulss	xmm0, DWORD PTR _est_velocity$[ebp+ecx]
	mov	edx, 4
	shl	edx, 0
	mov	eax, 4
	shl	eax, 0
	movss	xmm1, DWORD PTR _est_velocity$[ebp+edx]
	mulss	xmm1, DWORD PTR _est_velocity$[ebp+eax]
	addss	xmm0, xmm1
	mov	ecx, 4
	shl	ecx, 1
	mov	edx, 4
	shl	edx, 1
	movss	xmm1, DWORD PTR _est_velocity$[ebp+ecx]
	mulss	xmm1, DWORD PTR _est_velocity$[ebp+edx]
	addss	xmm0, xmm1
	cvtss2sd xmm0, xmm0
	sub	esp, 8
	movsd	QWORD PTR [esp], xmm0
	call	_sqrt
	add	esp, 8
	fstp	DWORD PTR _m_flGaitMovement

; 3207 : 
; 3208 : 	if( dt <= 0.0f || m_flGaitMovement / dt < 5.0f )

	xorps	xmm0, xmm0
	comiss	xmm0, DWORD PTR _dt$[ebp]
	jae	SHORT $LN5@R_StudioEs
	movss	xmm0, DWORD PTR _m_flGaitMovement
	divss	xmm0, DWORD PTR _dt$[ebp]
	movss	xmm1, DWORD PTR __real@40a00000
	comiss	xmm1, xmm0
	jbe	SHORT $LN4@R_StudioEs
$LN5@R_StudioEs:

; 3209 : 	{
; 3210 : 		m_flGaitMovement = 0.0f;

	xorps	xmm0, xmm0
	movss	DWORD PTR _m_flGaitMovement, xmm0

; 3211 : 		est_velocity[0] = 0.0f;

	mov	eax, 4
	imul	ecx, eax, 0
	xorps	xmm0, xmm0
	movss	DWORD PTR _est_velocity$[ebp+ecx], xmm0

; 3212 : 		est_velocity[1] = 0.0f;

	mov	edx, 4
	shl	edx, 0
	xorps	xmm0, xmm0
	movss	DWORD PTR _est_velocity$[ebp+edx], xmm0
$LN4@R_StudioEs:

; 3213 : 	}
; 3214 : 
; 3215 : 	if( est_velocity[1] == 0.0f && est_velocity[0] == 0.0f )

	mov	eax, 4
	shl	eax, 0
	movss	xmm0, DWORD PTR _est_velocity$[ebp+eax]
	ucomiss	xmm0, DWORD PTR __real@00000000
	lahf
	test	ah, 68					; 00000044H
	jp	$LN6@R_StudioEs
	mov	ecx, 4
	imul	edx, ecx, 0
	movss	xmm0, DWORD PTR _est_velocity$[ebp+edx]
	ucomiss	xmm0, DWORD PTR __real@00000000
	lahf
	test	ah, 68					; 00000044H
	jp	$LN6@R_StudioEs

; 3216 : 	{
; 3217 : 		float	flYawDiff = RI.currententity->angles[YAW] - m_pPlayerInfo->gaityaw;

	mov	eax, 4
	shl	eax, 0
	mov	ecx, DWORD PTR _RI+28
	mov	edx, DWORD PTR _m_pPlayerInfo
	movss	xmm0, DWORD PTR [ecx+eax+2900]
	subss	xmm0, DWORD PTR [edx+388]
	movss	DWORD PTR _flYawDiff$1[ebp], xmm0

; 3218 : 
; 3219 : 		flYawDiff = flYawDiff - (int)(flYawDiff / 360) * 360;

	movss	xmm0, DWORD PTR _flYawDiff$1[ebp]
	divss	xmm0, DWORD PTR __real@43b40000
	cvttss2si eax, xmm0
	imul	ecx, eax, 360
	cvtsi2ss xmm0, ecx
	movss	xmm1, DWORD PTR _flYawDiff$1[ebp]
	subss	xmm1, xmm0
	movss	DWORD PTR _flYawDiff$1[ebp], xmm1

; 3220 : 		if( flYawDiff > 180.0f ) flYawDiff -= 360.0f;

	movss	xmm0, DWORD PTR _flYawDiff$1[ebp]
	comiss	xmm0, DWORD PTR __real@43340000
	jbe	SHORT $LN8@R_StudioEs
	movss	xmm0, DWORD PTR _flYawDiff$1[ebp]
	subss	xmm0, DWORD PTR __real@43b40000
	movss	DWORD PTR _flYawDiff$1[ebp], xmm0
$LN8@R_StudioEs:

; 3221 : 		if( flYawDiff < -180.0f ) flYawDiff += 360.0f;

	movss	xmm0, DWORD PTR __real@c3340000
	comiss	xmm0, DWORD PTR _flYawDiff$1[ebp]
	jbe	SHORT $LN9@R_StudioEs
	movss	xmm0, DWORD PTR _flYawDiff$1[ebp]
	addss	xmm0, DWORD PTR __real@43b40000
	movss	DWORD PTR _flYawDiff$1[ebp], xmm0
$LN9@R_StudioEs:

; 3222 : 
; 3223 : 		if( dt < 0.25f )

	movss	xmm0, DWORD PTR __real@3e800000
	comiss	xmm0, DWORD PTR _dt$[ebp]
	jbe	SHORT $LN10@R_StudioEs

; 3224 : 			flYawDiff *= dt * 4.0f;

	movss	xmm0, DWORD PTR _dt$[ebp]
	mulss	xmm0, DWORD PTR __real@40800000
	mulss	xmm0, DWORD PTR _flYawDiff$1[ebp]
	movss	DWORD PTR _flYawDiff$1[ebp], xmm0
	jmp	SHORT $LN11@R_StudioEs
$LN10@R_StudioEs:

; 3225 : 		else flYawDiff *= dt;

	movss	xmm0, DWORD PTR _flYawDiff$1[ebp]
	mulss	xmm0, DWORD PTR _dt$[ebp]
	movss	DWORD PTR _flYawDiff$1[ebp], xmm0
$LN11@R_StudioEs:

; 3226 : 
; 3227 : 		m_pPlayerInfo->gaityaw += flYawDiff;

	mov	edx, DWORD PTR _m_pPlayerInfo
	movss	xmm0, DWORD PTR [edx+388]
	addss	xmm0, DWORD PTR _flYawDiff$1[ebp]
	mov	eax, DWORD PTR _m_pPlayerInfo
	movss	DWORD PTR [eax+388], xmm0

; 3228 : 		m_pPlayerInfo->gaityaw = m_pPlayerInfo->gaityaw - (int)(m_pPlayerInfo->gaityaw / 360) * 360;

	mov	ecx, DWORD PTR _m_pPlayerInfo
	movss	xmm0, DWORD PTR [ecx+388]
	divss	xmm0, DWORD PTR __real@43b40000
	cvttss2si edx, xmm0
	imul	eax, edx, 360
	cvtsi2ss xmm0, eax
	mov	ecx, DWORD PTR _m_pPlayerInfo
	movss	xmm1, DWORD PTR [ecx+388]
	subss	xmm1, xmm0
	mov	edx, DWORD PTR _m_pPlayerInfo
	movss	DWORD PTR [edx+388], xmm1

; 3229 : 
; 3230 : 		m_flGaitMovement = 0.0f;

	xorps	xmm0, xmm0
	movss	DWORD PTR _m_flGaitMovement, xmm0

; 3231 : 	}

	jmp	$LN13@R_StudioEs
$LN6@R_StudioEs:

; 3232 : 	else
; 3233 : 	{
; 3234 : 		m_pPlayerInfo->gaityaw = ( atan2( est_velocity[1], est_velocity[0] ) * 180 / M_PI );

	mov	eax, 4
	imul	ecx, eax, 0
	cvtss2sd xmm0, DWORD PTR _est_velocity$[ebp+ecx]
	sub	esp, 8
	movsd	QWORD PTR [esp], xmm0
	mov	edx, 4
	shl	edx, 0
	cvtss2sd xmm0, DWORD PTR _est_velocity$[ebp+edx]
	sub	esp, 8
	movsd	QWORD PTR [esp], xmm0
	call	_atan2
	add	esp, 16					; 00000010H
	fstp	QWORD PTR tv347[ebp]
	movsd	xmm0, QWORD PTR tv347[ebp]
	mulsd	xmm0, QWORD PTR __real@4066800000000000
	divsd	xmm0, QWORD PTR __real@400921fb60000000
	cvtsd2ss xmm0, xmm0
	mov	eax, DWORD PTR _m_pPlayerInfo
	movss	DWORD PTR [eax+388], xmm0

; 3235 : 		if( m_pPlayerInfo->gaityaw > 180.0f ) m_pPlayerInfo->gaityaw = 180.0f;

	mov	ecx, DWORD PTR _m_pPlayerInfo
	movss	xmm0, DWORD PTR [ecx+388]
	comiss	xmm0, DWORD PTR __real@43340000
	jbe	SHORT $LN12@R_StudioEs
	mov	edx, DWORD PTR _m_pPlayerInfo
	movss	xmm0, DWORD PTR __real@43340000
	movss	DWORD PTR [edx+388], xmm0
$LN12@R_StudioEs:

; 3236 : 		if( m_pPlayerInfo->gaityaw < -180.0f ) m_pPlayerInfo->gaityaw = -180.0f;

	mov	eax, DWORD PTR _m_pPlayerInfo
	movss	xmm0, DWORD PTR __real@c3340000
	comiss	xmm0, DWORD PTR [eax+388]
	jbe	SHORT $LN13@R_StudioEs
	mov	ecx, DWORD PTR _m_pPlayerInfo
	movss	xmm0, DWORD PTR __real@c3340000
	movss	DWORD PTR [ecx+388], xmm0
$LN13@R_StudioEs:

; 3237 : 	}
; 3238 : 
; 3239 : }

	pop	esi
	mov	ecx, DWORD PTR __$ArrayPad$[ebp]
	xor	ecx, ebp
	call	@__security_check_cookie@4
	mov	esp, ebp
	pop	ebp
	ret	0
_R_StudioEstimateGait ENDP
_TEXT	ENDS
; Function compile flags: /Odtp
; File c:\users\user\downloads\xash_build4529_src\engine\client\gl_studio.c
_TEXT	SEGMENT
_R_StudioRenderModel PROC

; 3163 : {

	push	ebp
	mov	ebp, esp

; 3164 : 	R_StudioSetChromeOrigin();

	call	_R_StudioSetChromeOrigin

; 3165 : 	R_StudioSetForceFaceFlags( 0 );

	push	0
	call	_R_StudioSetForceFaceFlags
	add	esp, 4

; 3166 : 
; 3167 : 	if( RI.currententity->curstate.renderfx == kRenderFxGlowShell )

	mov	eax, DWORD PTR _RI+28
	cmp	DWORD PTR [eax+772], 19			; 00000013H
	jne	SHORT $LN2@R_StudioRe

; 3168 : 	{
; 3169 : 		RI.currententity->curstate.renderfx = kRenderFxNone;

	mov	ecx, DWORD PTR _RI+28
	mov	DWORD PTR [ecx+772], 0

; 3170 : 
; 3171 : 		R_StudioRenderFinal( );

	call	_R_StudioRenderFinal

; 3172 : 
; 3173 : 		R_StudioSetForceFaceFlags( STUDIO_NF_CHROME );

	push	2
	call	_R_StudioSetForceFaceFlags
	add	esp, 4

; 3174 : 		TriSpriteTexture( R_GetChromeSprite(), 0 );

	push	0
	call	_R_GetChromeSprite
	push	eax
	call	_TriSpriteTexture
	add	esp, 8

; 3175 : 		RI.currententity->curstate.renderfx = kRenderFxGlowShell;

	mov	edx, DWORD PTR _RI+28
	mov	DWORD PTR [edx+772], 19			; 00000013H

; 3176 : 
; 3177 : 		R_StudioRenderFinal( );

	call	_R_StudioRenderFinal

; 3178 : 	}

	jmp	SHORT $LN1@R_StudioRe
$LN2@R_StudioRe:

; 3179 : 	else
; 3180 : 	{
; 3181 : 		R_StudioRenderFinal( );

	call	_R_StudioRenderFinal
$LN1@R_StudioRe:

; 3182 : 	}
; 3183 : }

	pop	ebp
	ret	0
_R_StudioRenderModel ENDP
_TEXT	ENDS
; Function compile flags: /Odtp
; File c:\users\user\downloads\xash_build4529_src\engine\client\gl_studio.c
_TEXT	SEGMENT
tv159 = -32						; size = 4
_rendermode$ = -28					; size = 4
tv67 = -24						; size = 4
_i$ = -20						; size = 4
_origin$1 = -16						; size = 12
__$ArrayPad$ = -4					; size = 4
_R_StudioRenderFinal PROC

; 3077 : {

	push	ebp
	mov	ebp, esp
	sub	esp, 32					; 00000020H
	mov	eax, DWORD PTR ___security_cookie
	xor	eax, ebp
	mov	DWORD PTR __$ArrayPad$[ebp], eax

; 3078 : 	int	i, rendermode;
; 3079 : 
; 3080 : 	rendermode = R_StudioGetForceFaceFlags() ? kRenderTransAdd : RI.currententity->curstate.rendermode;

	call	_R_StudioGetForceFaceFlags
	test	eax, eax
	je	SHORT $LN14@R_StudioRe
	mov	DWORD PTR tv67[ebp], 5
	jmp	SHORT $LN15@R_StudioRe
$LN14@R_StudioRe:
	mov	eax, DWORD PTR _RI+28
	mov	ecx, DWORD PTR [eax+760]
	mov	DWORD PTR tv67[ebp], ecx
$LN15@R_StudioRe:
	mov	edx, DWORD PTR tv67[ebp]
	mov	DWORD PTR _rendermode$[ebp], edx

; 3081 : 	R_StudioSetupRenderer( rendermode );

	mov	eax, DWORD PTR _rendermode$[ebp]
	push	eax
	call	_R_StudioSetupRenderer
	add	esp, 4

; 3082 : 	
; 3083 : 	if( r_drawentities->value == 2 )

	mov	ecx, DWORD PTR _r_drawentities
	movss	xmm0, DWORD PTR [ecx+12]
	ucomiss	xmm0, DWORD PTR __real@40000000
	lahf
	test	ah, 68					; 00000044H
	jp	SHORT $LN5@R_StudioRe

; 3084 : 	{
; 3085 : 		R_StudioDrawBones();

	call	_R_StudioDrawBones

; 3086 : 	}

	jmp	SHORT $LN3@R_StudioRe
$LN5@R_StudioRe:

; 3087 : 	else if( r_drawentities->value == 3 )

	mov	edx, DWORD PTR _r_drawentities
	movss	xmm0, DWORD PTR [edx+12]
	ucomiss	xmm0, DWORD PTR __real@40400000
	lahf
	test	ah, 68					; 00000044H
	jp	SHORT $LN7@R_StudioRe

; 3088 : 	{
; 3089 : 		R_StudioDrawHulls();

	call	_R_StudioDrawHulls

; 3090 : 	}

	jmp	SHORT $LN3@R_StudioRe
$LN7@R_StudioRe:

; 3091 : 	else
; 3092 : 	{
; 3093 : 		for( i = 0; i < m_pStudioHeader->numbodyparts; i++ )

	mov	DWORD PTR _i$[ebp], 0
	jmp	SHORT $LN4@R_StudioRe
$LN2@R_StudioRe:
	mov	eax, DWORD PTR _i$[ebp]
	add	eax, 1
	mov	DWORD PTR _i$[ebp], eax
$LN4@R_StudioRe:
	mov	ecx, DWORD PTR _m_pStudioHeader
	mov	edx, DWORD PTR _i$[ebp]
	cmp	edx, DWORD PTR [ecx+204]
	jge	SHORT $LN3@R_StudioRe

; 3094 : 		{
; 3095 : 			R_StudioSetupModel( i, &m_pBodyPart, &m_pSubModel );

	push	OFFSET _m_pSubModel
	push	OFFSET _m_pBodyPart
	mov	eax, DWORD PTR _i$[ebp]
	push	eax
	call	_R_StudioSetupModel
	add	esp, 12					; 0000000cH

; 3096 : 
; 3097 : 			GL_StudioSetRenderMode( rendermode );

	mov	ecx, DWORD PTR _rendermode$[ebp]
	push	ecx
	call	_GL_StudioSetRenderMode
	add	esp, 4

; 3098 : 			R_StudioDrawPoints();

	call	_R_StudioDrawPoints

; 3099 : 			GL_StudioDrawShadow();

	call	_GL_StudioDrawShadow

; 3100 : 		}

	jmp	SHORT $LN2@R_StudioRe
$LN3@R_StudioRe:

; 3101 : 	}
; 3102 : 
; 3103 : 	if( r_drawentities->value == 4 )

	mov	edx, DWORD PTR _r_drawentities
	movss	xmm0, DWORD PTR [edx+12]
	ucomiss	xmm0, DWORD PTR __real@40800000
	lahf
	test	ah, 68					; 00000044H
	jp	SHORT $LN9@R_StudioRe

; 3104 : 	{
; 3105 : 		TriRenderMode( kRenderTransAdd );

	push	5
	call	_TriRenderMode
	add	esp, 4

; 3106 : 		R_StudioDrawHulls( );

	call	_R_StudioDrawHulls

; 3107 : 		TriRenderMode( kRenderNormal );

	push	0
	call	_TriRenderMode
	add	esp, 4
$LN9@R_StudioRe:

; 3108 : 	}
; 3109 : 
; 3110 : 	if( r_drawentities->value == 5 )

	mov	eax, DWORD PTR _r_drawentities
	movss	xmm0, DWORD PTR [eax+12]
	ucomiss	xmm0, DWORD PTR __real@40a00000
	lahf
	test	ah, 68					; 00000044H
	jp	SHORT $LN10@R_StudioRe

; 3111 : 	{
; 3112 : 		R_StudioDrawAbsBBox( );

	call	_R_StudioDrawAbsBBox
$LN10@R_StudioRe:

; 3113 : 	}
; 3114 : 
; 3115 : 	if( r_drawentities->value == 6 )

	mov	ecx, DWORD PTR _r_drawentities
	movss	xmm0, DWORD PTR [ecx+12]
	ucomiss	xmm0, DWORD PTR __real@40c00000
	lahf
	test	ah, 68					; 00000044H
	jp	SHORT $LN11@R_StudioRe

; 3116 : 	{
; 3117 : 		R_StudioDrawAttachments();

	call	_R_StudioDrawAttachments
$LN11@R_StudioRe:

; 3118 : 	}
; 3119 : 
; 3120 : 	if( r_drawentities->value == 7 )

	mov	edx, DWORD PTR _r_drawentities
	movss	xmm0, DWORD PTR [edx+12]
	ucomiss	xmm0, DWORD PTR __real@40e00000
	lahf
	test	ah, 68					; 00000044H
	jp	$LN12@R_StudioRe

; 3121 : 	{
; 3122 : 		vec3_t	origin;
; 3123 : 
; 3124 : 		pglDisable( GL_TEXTURE_2D );

	push	3553					; 00000de1H
	call	DWORD PTR _pglDisable

; 3125 : 		pglDisable( GL_DEPTH_TEST );

	push	2929					; 00000b71H
	call	DWORD PTR _pglDisable

; 3126 : 
; 3127 : 		Matrix3x4_OriginFromMatrix( g_studio.rotationmatrix, origin );

	lea	eax, DWORD PTR _origin$1[ebp]
	push	eax
	push	OFFSET _g_studio+32
	call	_Matrix3x4_OriginFromMatrix
	add	esp, 8

; 3128 : 
; 3129 : 		pglBegin( GL_LINES );

	push	1
	call	DWORD PTR _pglBegin

; 3130 : 		pglColor3f( 1, 0.5, 0 );

	push	ecx
	xorps	xmm0, xmm0
	movss	DWORD PTR [esp], xmm0
	push	ecx
	movss	xmm0, DWORD PTR __real@3f000000
	movss	DWORD PTR [esp], xmm0
	push	ecx
	movss	xmm0, DWORD PTR __real@3f800000
	movss	DWORD PTR [esp], xmm0
	call	DWORD PTR _pglColor3f

; 3131 : 		pglVertex3fv( origin );

	lea	ecx, DWORD PTR _origin$1[ebp]
	push	ecx
	call	DWORD PTR _pglVertex3fv

; 3132 : 		pglVertex3fv( g_studio.lightspot );

	push	OFFSET _g_studio+430184
	call	DWORD PTR _pglVertex3fv

; 3133 : 		pglEnd();

	call	DWORD PTR _pglEnd

; 3134 : 
; 3135 : 		pglBegin( GL_LINES );

	push	1
	call	DWORD PTR _pglBegin

; 3136 : 		pglColor3f( 0, 0.5, 1 );

	push	ecx
	movss	xmm0, DWORD PTR __real@3f800000
	movss	DWORD PTR [esp], xmm0
	push	ecx
	movss	xmm0, DWORD PTR __real@3f000000
	movss	DWORD PTR [esp], xmm0
	push	ecx
	xorps	xmm0, xmm0
	movss	DWORD PTR [esp], xmm0
	call	DWORD PTR _pglColor3f

; 3137 : 		VectorMA( g_studio.lightspot, -64.0f, g_studio.lightvec, origin );

	mov	edx, 4
	imul	eax, edx, 0
	mov	ecx, 4
	imul	edx, ecx, 0
	movss	xmm0, DWORD PTR __real@c2800000
	mulss	xmm0, DWORD PTR _g_studio[edx+430172]
	addss	xmm0, DWORD PTR _g_studio[eax+430184]
	mov	eax, 4
	imul	ecx, eax, 0
	movss	DWORD PTR _origin$1[ebp+ecx], xmm0
	mov	edx, 4
	shl	edx, 0
	mov	eax, 4
	shl	eax, 0
	movss	xmm0, DWORD PTR __real@c2800000
	mulss	xmm0, DWORD PTR _g_studio[eax+430172]
	addss	xmm0, DWORD PTR _g_studio[edx+430184]
	mov	ecx, 4
	shl	ecx, 0
	movss	DWORD PTR _origin$1[ebp+ecx], xmm0
	mov	edx, 4
	shl	edx, 1
	mov	eax, 4
	shl	eax, 1
	movss	xmm0, DWORD PTR __real@c2800000
	mulss	xmm0, DWORD PTR _g_studio[eax+430172]
	movss	xmm1, DWORD PTR _g_studio[edx+430184]
	addss	xmm1, xmm0
	movss	DWORD PTR tv159[ebp], xmm1
	mov	ecx, 4
	shl	ecx, 1
	movss	xmm0, DWORD PTR tv159[ebp]
	movss	DWORD PTR _origin$1[ebp+ecx], xmm0

; 3138 : 		pglVertex3fv( g_studio.lightspot );

	push	OFFSET _g_studio+430184
	call	DWORD PTR _pglVertex3fv

; 3139 : 		pglVertex3fv( origin );

	lea	edx, DWORD PTR _origin$1[ebp]
	push	edx
	call	DWORD PTR _pglVertex3fv

; 3140 : 		pglEnd();

	call	DWORD PTR _pglEnd

; 3141 : 
; 3142 : 		pglPointSize( 5.0f );

	push	ecx
	movss	xmm0, DWORD PTR __real@40a00000
	movss	DWORD PTR [esp], xmm0
	call	DWORD PTR _pglPointSize

; 3143 : 		pglColor3f( 1, 0, 0 );

	push	ecx
	xorps	xmm0, xmm0
	movss	DWORD PTR [esp], xmm0
	push	ecx
	xorps	xmm0, xmm0
	movss	DWORD PTR [esp], xmm0
	push	ecx
	movss	xmm0, DWORD PTR __real@3f800000
	movss	DWORD PTR [esp], xmm0
	call	DWORD PTR _pglColor3f

; 3144 : 		pglBegin( GL_POINTS );

	push	0
	call	DWORD PTR _pglBegin

; 3145 : 		pglVertex3fv( g_studio.lightspot );

	push	OFFSET _g_studio+430184
	call	DWORD PTR _pglVertex3fv

; 3146 : 		pglEnd();

	call	DWORD PTR _pglEnd

; 3147 : 		pglPointSize( 1.0f );

	push	ecx
	movss	xmm0, DWORD PTR __real@3f800000
	movss	DWORD PTR [esp], xmm0
	call	DWORD PTR _pglPointSize

; 3148 : 
; 3149 : 		pglEnable( GL_DEPTH_TEST );

	push	2929					; 00000b71H
	call	DWORD PTR _pglEnable

; 3150 : 		pglEnable( GL_TEXTURE_2D );

	push	3553					; 00000de1H
	call	DWORD PTR _pglEnable
$LN12@R_StudioRe:

; 3151 : 	}
; 3152 : 
; 3153 : 	R_StudioRestoreRenderer();

	call	_R_StudioRestoreRenderer

; 3154 : }

	mov	ecx, DWORD PTR __$ArrayPad$[ebp]
	xor	ecx, ebp
	call	@__security_check_cookie@4
	mov	esp, ebp
	pop	ebp
	ret	0
_R_StudioRenderFinal ENDP
_TEXT	ENDS
; Function compile flags: /Odtp
; File c:\users\user\downloads\xash_build4529_src\engine\client\gl_studio.c
_TEXT	SEGMENT
_color$1 = -4						; size = 4
_GL_StudioDrawShadow PROC

; 3047 : {

	push	ebp
	mov	ebp, esp
	push	ecx

; 3048 : 	pglDepthMask( GL_TRUE );

	push	1
	call	DWORD PTR _pglDepthMask

; 3049 : 
; 3050 : 	if( r_shadows.value && g_studio.rendermode != kRenderTransAdd && !FBitSet( RI.currentmodel->flags, STUDIO_AMBIENT_LIGHT ))

	movss	xmm0, DWORD PTR _r_shadows+12
	ucomiss	xmm0, DWORD PTR __real@00000000
	lahf
	test	ah, 68					; 00000044H
	jnp	$LN2@GL_StudioD
	cmp	DWORD PTR _g_studio+24, 5
	je	$LN2@GL_StudioD
	mov	eax, DWORD PTR _RI+32
	mov	ecx, DWORD PTR [eax+80]
	and	ecx, 256				; 00000100H
	jne	$LN2@GL_StudioD

; 3051 : 	{
; 3052 : 		float	color = 1.0 - (tr.blend * 0.5);

	cvtss2sd xmm0, DWORD PTR _tr+66976
	mulsd	xmm0, QWORD PTR __real@3fe0000000000000
	movsd	xmm1, QWORD PTR __real@3ff0000000000000
	subsd	xmm1, xmm0
	cvtsd2ss xmm0, xmm1
	movss	DWORD PTR _color$1[ebp], xmm0

; 3053 : 
; 3054 : 		pglDisable( GL_TEXTURE_2D );

	push	3553					; 00000de1H
	call	DWORD PTR _pglDisable

; 3055 : 		pglBlendFunc( GL_SRC_ALPHA, GL_ONE_MINUS_SRC_ALPHA );

	push	771					; 00000303H
	push	770					; 00000302H
	call	DWORD PTR _pglBlendFunc

; 3056 : 		pglEnable( GL_BLEND );

	push	3042					; 00000be2H
	call	DWORD PTR _pglEnable

; 3057 : 		pglColor4f( 0.0f, 0.0f, 0.0f, 1.0f - color );

	movss	xmm0, DWORD PTR __real@3f800000
	subss	xmm0, DWORD PTR _color$1[ebp]
	push	ecx
	movss	DWORD PTR [esp], xmm0
	push	ecx
	xorps	xmm0, xmm0
	movss	DWORD PTR [esp], xmm0
	push	ecx
	xorps	xmm0, xmm0
	movss	DWORD PTR [esp], xmm0
	push	ecx
	xorps	xmm0, xmm0
	movss	DWORD PTR [esp], xmm0
	call	DWORD PTR _pglColor4f

; 3058 : 
; 3059 : 		pglDepthFunc( GL_LESS );

	push	513					; 00000201H
	call	DWORD PTR _pglDepthFunc

; 3060 : 		R_StudioDrawPointsShadow();

	call	_R_StudioDrawPointsShadow

; 3061 : 		pglDepthFunc( GL_LEQUAL );

	push	515					; 00000203H
	call	DWORD PTR _pglDepthFunc

; 3062 : 
; 3063 : 		pglEnable( GL_TEXTURE_2D );

	push	3553					; 00000de1H
	call	DWORD PTR _pglEnable

; 3064 : 		pglDisable( GL_BLEND );

	push	3042					; 00000be2H
	call	DWORD PTR _pglDisable

; 3065 : 		pglColor4f( 1.0f, 1.0f, 1.0f, 1.0f );

	push	ecx
	movss	xmm0, DWORD PTR __real@3f800000
	movss	DWORD PTR [esp], xmm0
	push	ecx
	movss	xmm0, DWORD PTR __real@3f800000
	movss	DWORD PTR [esp], xmm0
	push	ecx
	movss	xmm0, DWORD PTR __real@3f800000
	movss	DWORD PTR [esp], xmm0
	push	ecx
	movss	xmm0, DWORD PTR __real@3f800000
	movss	DWORD PTR [esp], xmm0
	call	DWORD PTR _pglColor4f

; 3066 : 		pglShadeModel( GL_SMOOTH );

	push	7425					; 00001d01H
	call	DWORD PTR _pglShadeModel
$LN2@GL_StudioD:

; 3067 : 	}
; 3068 : }

	mov	esp, ebp
	pop	ebp
	ret	0
_GL_StudioDrawShadow ENDP
_TEXT	ENDS
; Function compile flags: /Odtp
; File c:\users\user\downloads\xash_build4529_src\engine\client\gl_studio.c
_TEXT	SEGMENT
tv64 = -4						; size = 4
_rendermode$ = 8					; size = 4
_GL_StudioSetRenderMode PROC

; 3010 : {

	push	ebp
	mov	ebp, esp
	push	ecx

; 3011 : 	switch( rendermode )

	mov	eax, DWORD PTR _rendermode$[ebp]
	mov	DWORD PTR tv64[ebp], eax
	cmp	DWORD PTR tv64[ebp], 0
	je	SHORT $LN4@GL_StudioS
	cmp	DWORD PTR tv64[ebp], 1
	je	SHORT $LN5@GL_StudioS
	cmp	DWORD PTR tv64[ebp], 5
	je	SHORT $LN6@GL_StudioS
	jmp	$LN7@GL_StudioS
$LN4@GL_StudioS:

; 3012 : 	{
; 3013 : 	case kRenderNormal:
; 3014 : 		break;

	jmp	$LN2@GL_StudioS
$LN5@GL_StudioS:

; 3015 : 	case kRenderTransColor:
; 3016 : 		pglBlendFunc( GL_SRC_ALPHA, GL_ONE_MINUS_SRC_ALPHA );

	push	771					; 00000303H
	push	770					; 00000302H
	call	DWORD PTR _pglBlendFunc

; 3017 : 		pglTexEnvi( GL_TEXTURE_ENV, GL_TEXTURE_ENV_MODE, GL_MODULATE );

	push	8448					; 00002100H
	push	8704					; 00002200H
	push	8960					; 00002300H
	call	DWORD PTR _pglTexEnvi

; 3018 : 		pglEnable( GL_BLEND );

	push	3042					; 00000be2H
	call	DWORD PTR _pglEnable

; 3019 : 		break;

	jmp	$LN2@GL_StudioS
$LN6@GL_StudioS:

; 3020 : 	case kRenderTransAdd:
; 3021 : 		pglTexEnvf( GL_TEXTURE_ENV, GL_TEXTURE_ENV_MODE, GL_MODULATE );

	push	ecx
	movss	xmm0, DWORD PTR __real@46040000
	movss	DWORD PTR [esp], xmm0
	push	8704					; 00002200H
	push	8960					; 00002300H
	call	DWORD PTR _pglTexEnvf

; 3022 : 		pglColor4f( tr.blend, tr.blend, tr.blend, 1.0f );

	push	ecx
	movss	xmm0, DWORD PTR __real@3f800000
	movss	DWORD PTR [esp], xmm0
	push	ecx
	movss	xmm0, DWORD PTR _tr+66976
	movss	DWORD PTR [esp], xmm0
	push	ecx
	movss	xmm0, DWORD PTR _tr+66976
	movss	DWORD PTR [esp], xmm0
	push	ecx
	movss	xmm0, DWORD PTR _tr+66976
	movss	DWORD PTR [esp], xmm0
	call	DWORD PTR _pglColor4f

; 3023 : 		pglBlendFunc( GL_ONE, GL_ONE );

	push	1
	push	1
	call	DWORD PTR _pglBlendFunc

; 3024 : 		pglDepthMask( GL_FALSE );

	push	0
	call	DWORD PTR _pglDepthMask

; 3025 : 		pglEnable( GL_BLEND );

	push	3042					; 00000be2H
	call	DWORD PTR _pglEnable

; 3026 : 		break;

	jmp	SHORT $LN2@GL_StudioS
$LN7@GL_StudioS:

; 3027 : 	default:
; 3028 : 		pglTexEnvf( GL_TEXTURE_ENV, GL_TEXTURE_ENV_MODE, GL_MODULATE );

	push	ecx
	movss	xmm0, DWORD PTR __real@46040000
	movss	DWORD PTR [esp], xmm0
	push	8704					; 00002200H
	push	8960					; 00002300H
	call	DWORD PTR _pglTexEnvf

; 3029 : 		pglBlendFunc( GL_SRC_ALPHA, GL_ONE_MINUS_SRC_ALPHA );

	push	771					; 00000303H
	push	770					; 00000302H
	call	DWORD PTR _pglBlendFunc

; 3030 : 		pglColor4f( 1.0f, 1.0f, 1.0f, tr.blend );

	push	ecx
	movss	xmm0, DWORD PTR _tr+66976
	movss	DWORD PTR [esp], xmm0
	push	ecx
	movss	xmm0, DWORD PTR __real@3f800000
	movss	DWORD PTR [esp], xmm0
	push	ecx
	movss	xmm0, DWORD PTR __real@3f800000
	movss	DWORD PTR [esp], xmm0
	push	ecx
	movss	xmm0, DWORD PTR __real@3f800000
	movss	DWORD PTR [esp], xmm0
	call	DWORD PTR _pglColor4f

; 3031 : 		pglDepthMask( GL_TRUE );

	push	1
	call	DWORD PTR _pglDepthMask

; 3032 : 		pglEnable( GL_BLEND );

	push	3042					; 00000be2H
	call	DWORD PTR _pglEnable
$LN2@GL_StudioS:

; 3033 : 		break;
; 3034 : 	}
; 3035 : }

	mov	esp, ebp
	pop	ebp
	ret	0
_GL_StudioSetRenderMode ENDP
_TEXT	ENDS
; Function compile flags: /Odtp
; File c:\users\user\downloads\xash_build4529_src\engine\client\gl_studio.c
_TEXT	SEGMENT
_height$ = -52						; size = 4
_vec_y$ = -48						; size = 4
_vec_x$ = -44						; size = 4
tv94 = -40						; size = 4
_pmesh$ = -36						; size = 4
_av$ = -32						; size = 4
_k$ = -28						; size = 4
_ptricmds$1 = -24					; size = 4
_i$ = -20						; size = 4
_point$ = -16						; size = 12
__$ArrayPad$ = -4					; size = 4
_R_StudioDrawPointsShadow PROC

; 2945 : {

	push	ebp
	mov	ebp, esp
	sub	esp, 52					; 00000034H
	mov	eax, DWORD PTR ___security_cookie
	xor	eax, ebp
	mov	DWORD PTR __$ArrayPad$[ebp], eax
	push	esi

; 2946 : 	float		*av, height;
; 2947 : 	float		vec_x, vec_y;
; 2948 : 	mstudiomesh_t	*pmesh;
; 2949 : 	vec3_t		point;
; 2950 : 	int		i, k;
; 2951 : 
; 2952 : 	if( FBitSet( RI.currententity->curstate.effects, EF_NOSHADOW ))

	mov	eax, DWORD PTR _RI+28
	mov	ecx, DWORD PTR [eax+748]
	and	ecx, 268435456				; 10000000H
	je	SHORT $LN10@R_StudioDr

; 2953 : 		return;

	jmp	$LN14@R_StudioDr
$LN10@R_StudioDr:

; 2954 : 
; 2955 : 	if( glState.stencilEnabled )

	cmp	DWORD PTR _glState+572, 0
	je	SHORT $LN11@R_StudioDr

; 2956 : 		pglEnable( GL_STENCIL_TEST );

	push	2960					; 00000b90H
	call	DWORD PTR _pglEnable
$LN11@R_StudioDr:

; 2957 : 
; 2958 : 	height = g_studio.lightspot[2] + 1.0f;

	mov	edx, 4
	shl	edx, 1
	movss	xmm0, DWORD PTR _g_studio[edx+430184]
	addss	xmm0, DWORD PTR __real@3f800000
	movss	DWORD PTR _height$[ebp], xmm0

; 2959 : 	vec_x = -g_studio.lightvec[0] * 8.0f;

	mov	eax, 4
	imul	ecx, eax, 0
	movss	xmm0, DWORD PTR _g_studio[ecx+430172]
	xorps	xmm0, DWORD PTR __xmm@80000000800000008000000080000000
	mulss	xmm0, DWORD PTR __real@41000000
	movss	DWORD PTR _vec_x$[ebp], xmm0

; 2960 : 	vec_y = -g_studio.lightvec[1] * 8.0f;

	mov	edx, 4
	shl	edx, 0
	movss	xmm0, DWORD PTR _g_studio[edx+430172]
	xorps	xmm0, DWORD PTR __xmm@80000000800000008000000080000000
	mulss	xmm0, DWORD PTR __real@41000000
	movss	DWORD PTR _vec_y$[ebp], xmm0

; 2961 : 
; 2962 : 	for( k = 0; k < m_pSubModel->nummesh; k++ )

	mov	DWORD PTR _k$[ebp], 0
	jmp	SHORT $LN4@R_StudioDr
$LN2@R_StudioDr:
	mov	eax, DWORD PTR _k$[ebp]
	add	eax, 1
	mov	DWORD PTR _k$[ebp], eax
$LN4@R_StudioDr:
	mov	ecx, DWORD PTR _m_pSubModel
	mov	edx, DWORD PTR _k$[ebp]
	cmp	edx, DWORD PTR [ecx+72]
	jge	$LN3@R_StudioDr

; 2963 : 	{
; 2964 : 		short	*ptricmds;
; 2965 : 
; 2966 : 		pmesh = (mstudiomesh_t *)((byte *)m_pStudioHeader + m_pSubModel->meshindex) + k;

	mov	eax, DWORD PTR _m_pSubModel
	mov	ecx, DWORD PTR _m_pStudioHeader
	add	ecx, DWORD PTR [eax+76]
	imul	edx, DWORD PTR _k$[ebp], 20
	add	ecx, edx
	mov	DWORD PTR _pmesh$[ebp], ecx

; 2967 : 		ptricmds = (short *)((byte *)m_pStudioHeader + pmesh->triindex);

	mov	eax, DWORD PTR _pmesh$[ebp]
	mov	ecx, DWORD PTR _m_pStudioHeader
	add	ecx, DWORD PTR [eax+4]
	mov	DWORD PTR _ptricmds$1[ebp], ecx

; 2968 : 
; 2969 : 		r_stats.c_studio_polys += pmesh->numtris;

	mov	edx, DWORD PTR _pmesh$[ebp]
	mov	eax, DWORD PTR _r_stats+4
	add	eax, DWORD PTR [edx]
	mov	DWORD PTR _r_stats+4, eax
$LN5@R_StudioDr:

; 2970 : 
; 2971 : 		while( i = *( ptricmds++ ))

	mov	ecx, DWORD PTR _ptricmds$1[ebp]
	movsx	edx, WORD PTR [ecx]
	mov	DWORD PTR _i$[ebp], edx
	mov	eax, DWORD PTR _i$[ebp]
	mov	DWORD PTR tv94[ebp], eax
	mov	ecx, DWORD PTR _ptricmds$1[ebp]
	add	ecx, 2
	mov	DWORD PTR _ptricmds$1[ebp], ecx
	cmp	DWORD PTR tv94[ebp], 0
	je	$LN6@R_StudioDr

; 2972 : 		{
; 2973 : 			if( i < 0 )

	cmp	DWORD PTR _i$[ebp], 0
	jge	SHORT $LN12@R_StudioDr

; 2974 : 			{
; 2975 : 				pglBegin( GL_TRIANGLE_FAN );

	push	6
	call	DWORD PTR _pglBegin

; 2976 : 				i = -i;

	mov	edx, DWORD PTR _i$[ebp]
	neg	edx
	mov	DWORD PTR _i$[ebp], edx

; 2977 : 			}

	jmp	SHORT $LN13@R_StudioDr
$LN12@R_StudioDr:

; 2978 : 			else
; 2979 : 			{
; 2980 : 				pglBegin( GL_TRIANGLE_STRIP );

	push	5
	call	DWORD PTR _pglBegin
$LN13@R_StudioDr:

; 2981 : 			}
; 2982 : 
; 2983 : 
; 2984 : 			for( ; i > 0; i--, ptricmds += 4 )

	jmp	SHORT $LN9@R_StudioDr
$LN7@R_StudioDr:
	mov	eax, DWORD PTR _i$[ebp]
	sub	eax, 1
	mov	DWORD PTR _i$[ebp], eax
	mov	ecx, DWORD PTR _ptricmds$1[ebp]
	add	ecx, 8
	mov	DWORD PTR _ptricmds$1[ebp], ecx
$LN9@R_StudioDr:
	cmp	DWORD PTR _i$[ebp], 0
	jle	$LN8@R_StudioDr

; 2985 : 			{
; 2986 : 				av = g_studio.verts[ptricmds[0]];

	mov	edx, 2
	imul	eax, edx, 0
	mov	ecx, DWORD PTR _ptricmds$1[ebp]
	movsx	edx, WORD PTR [ecx+eax]
	imul	eax, edx, 12
	add	eax, OFFSET _g_studio+36948
	mov	DWORD PTR _av$[ebp], eax

; 2987 : 				point[0] = av[0] - (vec_x * ( av[2] - g_studio.lightspot[2] ));

	mov	ecx, 4
	imul	edx, ecx, 0
	mov	eax, 4
	shl	eax, 1
	mov	ecx, 4
	shl	ecx, 1
	mov	esi, DWORD PTR _av$[ebp]
	movss	xmm0, DWORD PTR [esi+eax]
	subss	xmm0, DWORD PTR _g_studio[ecx+430184]
	mulss	xmm0, DWORD PTR _vec_x$[ebp]
	mov	eax, DWORD PTR _av$[ebp]
	movss	xmm1, DWORD PTR [eax+edx]
	subss	xmm1, xmm0
	mov	ecx, 4
	imul	edx, ecx, 0
	movss	DWORD PTR _point$[ebp+edx], xmm1

; 2988 : 				point[1] = av[1] - (vec_y * ( av[2] - g_studio.lightspot[2] ));

	mov	eax, 4
	shl	eax, 0
	mov	ecx, 4
	shl	ecx, 1
	mov	edx, 4
	shl	edx, 1
	mov	esi, DWORD PTR _av$[ebp]
	movss	xmm0, DWORD PTR [esi+ecx]
	subss	xmm0, DWORD PTR _g_studio[edx+430184]
	mulss	xmm0, DWORD PTR _vec_y$[ebp]
	mov	ecx, DWORD PTR _av$[ebp]
	movss	xmm1, DWORD PTR [ecx+eax]
	subss	xmm1, xmm0
	mov	edx, 4
	shl	edx, 0
	movss	DWORD PTR _point$[ebp+edx], xmm1

; 2989 : 				point[2] = g_studio.lightspot[2] + 1.0f;

	mov	eax, 4
	shl	eax, 1
	movss	xmm0, DWORD PTR _g_studio[eax+430184]
	addss	xmm0, DWORD PTR __real@3f800000
	mov	ecx, 4
	shl	ecx, 1
	movss	DWORD PTR _point$[ebp+ecx], xmm0

; 2990 : 
; 2991 : 				pglVertex3fv( point );

	lea	edx, DWORD PTR _point$[ebp]
	push	edx
	call	DWORD PTR _pglVertex3fv

; 2992 : 			}

	jmp	$LN7@R_StudioDr
$LN8@R_StudioDr:

; 2993 : 
; 2994 : 			pglEnd();	

	call	DWORD PTR _pglEnd

; 2995 : 		}

	jmp	$LN5@R_StudioDr
$LN6@R_StudioDr:

; 2996 : 	}

	jmp	$LN2@R_StudioDr
$LN3@R_StudioDr:

; 2997 : 
; 2998 : 	if( glState.stencilEnabled )

	cmp	DWORD PTR _glState+572, 0
	je	SHORT $LN14@R_StudioDr

; 2999 : 		pglDisable( GL_STENCIL_TEST );

	push	2960					; 00000b90H
	call	DWORD PTR _pglDisable
$LN14@R_StudioDr:

; 3000 : }

	pop	esi
	mov	ecx, DWORD PTR __$ArrayPad$[ebp]
	xor	ecx, ebp
	call	@__security_check_cookie@4
	mov	esp, ebp
	pop	ebp
	ret	0
_R_StudioDrawPointsShadow ENDP
_TEXT	ENDS
; Function compile flags: /Odtp
; File c:\users\user\downloads\xash_build4529_src\engine\client\gl_studio.c
_TEXT	SEGMENT
_pfnIsHardware PROC

; 2934 : {

	push	ebp
	mov	ebp, esp

; 2935 : 	return 1;	// 0 is Software, 1 is OpenGL, 2 is Direct3D

	mov	eax, 1

; 2936 : }

	pop	ebp
	ret	0
_pfnIsHardware ENDP
_TEXT	ENDS
; Function compile flags: /Odtp
; File c:\users\user\downloads\xash_build4529_src\engine\client\gl_studio.c
_TEXT	SEGMENT
_R_StudioSetChromeOrigin PROC

; 2922 : {

	push	ebp
	mov	ebp, esp

; 2923 : 	VectorCopy( RI.vieworg, g_studio.chrome_origin );

	mov	eax, 4
	imul	ecx, eax, 0
	mov	edx, 4
	imul	eax, edx, 0
	mov	ecx, DWORD PTR _RI[ecx+200]
	mov	DWORD PTR _g_studio[eax+628352], ecx
	mov	edx, 4
	shl	edx, 0
	mov	eax, 4
	shl	eax, 0
	mov	ecx, DWORD PTR _RI[edx+200]
	mov	DWORD PTR _g_studio[eax+628352], ecx
	mov	edx, 4
	shl	edx, 1
	mov	eax, 4
	shl	eax, 1
	mov	ecx, DWORD PTR _RI[edx+200]
	mov	DWORD PTR _g_studio[eax+628352], ecx

; 2924 : }

	pop	ebp
	ret	0
_R_StudioSetChromeOrigin ENDP
_TEXT	ENDS
; Function compile flags: /Odtp
; File c:\users\user\downloads\xash_build4529_src\engine\client\gl_studio.c
_TEXT	SEGMENT
_R_StudioRestoreRenderer PROC

; 2906 : {

	push	ebp
	mov	ebp, esp

; 2907 : 	if( g_studio.rendermode != kRenderNormal )

	cmp	DWORD PTR _g_studio+24, 0
	je	SHORT $LN2@R_StudioRe

; 2908 : 		pglDisable( GL_BLEND );

	push	3042					; 00000be2H
	call	DWORD PTR _pglDisable
$LN2@R_StudioRe:

; 2909 : 
; 2910 : 	pglTexEnvf( GL_TEXTURE_ENV, GL_TEXTURE_ENV_MODE, GL_REPLACE );

	push	ecx
	movss	xmm0, DWORD PTR __real@45f00800
	movss	DWORD PTR [esp], xmm0
	push	8704					; 00002200H
	push	8960					; 00002300H
	call	DWORD PTR _pglTexEnvf

; 2911 : 	pglShadeModel( GL_FLAT );

	push	7424					; 00001d00H
	call	DWORD PTR _pglShadeModel

; 2912 : 	m_fDoRemap = false;

	mov	DWORD PTR _m_fDoRemap, 0

; 2913 : }

	pop	ebp
	ret	0
_R_StudioRestoreRenderer ENDP
_TEXT	ENDS
; Function compile flags: /Odtp
; File c:\users\user\downloads\xash_build4529_src\engine\client\gl_studio.c
_TEXT	SEGMENT
_boneinfo$1 = -20					; size = 4
tv68 = -16						; size = 4
tv67 = -12						; size = 4
_i$ = -8						; size = 4
_phdr$ = -4						; size = 4
_rendermode$ = 8					; size = 4
_R_StudioSetupRenderer PROC

; 2877 : {

	push	ebp
	mov	ebp, esp
	sub	esp, 20					; 00000014H

; 2878 : 	studiohdr_t	*phdr = m_pStudioHeader;

	mov	eax, DWORD PTR _m_pStudioHeader
	mov	DWORD PTR _phdr$[ebp], eax

; 2879 : 	int		i;
; 2880 : 
; 2881 : 	if( rendermode > kRenderTransAdd ) rendermode = 0;

	cmp	DWORD PTR _rendermode$[ebp], 5
	jle	SHORT $LN5@R_StudioSe
	mov	DWORD PTR _rendermode$[ebp], 0
$LN5@R_StudioSe:

; 2882 : 	g_studio.rendermode = bound( 0, rendermode, kRenderTransAdd );

	cmp	DWORD PTR _rendermode$[ebp], 0
	jl	SHORT $LN10@R_StudioSe
	cmp	DWORD PTR _rendermode$[ebp], 5
	jge	SHORT $LN8@R_StudioSe
	mov	ecx, DWORD PTR _rendermode$[ebp]
	mov	DWORD PTR tv67[ebp], ecx
	jmp	SHORT $LN9@R_StudioSe
$LN8@R_StudioSe:
	mov	DWORD PTR tv67[ebp], 5
$LN9@R_StudioSe:
	mov	edx, DWORD PTR tv67[ebp]
	mov	DWORD PTR tv68[ebp], edx
	jmp	SHORT $LN11@R_StudioSe
$LN10@R_StudioSe:
	mov	DWORD PTR tv68[ebp], 0
$LN11@R_StudioSe:
	mov	eax, DWORD PTR tv68[ebp]
	mov	DWORD PTR _g_studio+24, eax

; 2883 : 
; 2884 : 	pglTexEnvf( GL_TEXTURE_ENV, GL_TEXTURE_ENV_MODE, GL_MODULATE );

	push	ecx
	movss	xmm0, DWORD PTR __real@46040000
	movss	DWORD PTR [esp], xmm0
	push	8704					; 00002200H
	push	8960					; 00002300H
	call	DWORD PTR _pglTexEnvf

; 2885 : 	pglDisable( GL_ALPHA_TEST );

	push	3008					; 00000bc0H
	call	DWORD PTR _pglDisable

; 2886 : 	pglShadeModel( GL_SMOOTH );

	push	7425					; 00001d01H
	call	DWORD PTR _pglShadeModel

; 2887 : 
; 2888 : 	// a point to setup local to world transform for boneweighted models
; 2889 : 	if( phdr && FBitSet( phdr->flags, STUDIO_HAS_BONEINFO ))

	cmp	DWORD PTR _phdr$[ebp], 0
	je	SHORT $LN3@R_StudioSe
	mov	ecx, DWORD PTR _phdr$[ebp]
	mov	edx, DWORD PTR [ecx+136]
	and	edx, 1073741824				; 40000000H
	je	SHORT $LN3@R_StudioSe

; 2890 : 	{
; 2891 : 		// NOTE: extended boneinfo goes immediately after bones
; 2892 : 		mstudioboneinfo_t *boneinfo = (mstudioboneinfo_t *)((byte *)phdr + phdr->boneindex + phdr->numbones * sizeof( mstudiobone_t ));

	mov	eax, DWORD PTR _phdr$[ebp]
	mov	ecx, DWORD PTR _phdr$[ebp]
	add	ecx, DWORD PTR [eax+144]
	mov	edx, DWORD PTR _phdr$[ebp]
	imul	eax, DWORD PTR [edx+140], 112
	add	ecx, eax
	mov	DWORD PTR _boneinfo$1[ebp], ecx

; 2893 : 
; 2894 : 		for( i = 0; i < phdr->numbones; i++ )

	mov	DWORD PTR _i$[ebp], 0
	jmp	SHORT $LN4@R_StudioSe
$LN2@R_StudioSe:
	mov	ecx, DWORD PTR _i$[ebp]
	add	ecx, 1
	mov	DWORD PTR _i$[ebp], ecx
$LN4@R_StudioSe:
	mov	edx, DWORD PTR _phdr$[ebp]
	mov	eax, DWORD PTR _i$[ebp]
	cmp	eax, DWORD PTR [edx+140]
	jge	SHORT $LN3@R_StudioSe

; 2895 : 			Matrix3x4_ConcatTransforms( g_studio.worldtransform[i], g_studio.bonestransform[i], boneinfo[i].poseToBone );

	mov	ecx, DWORD PTR _i$[ebp]
	shl	ecx, 7
	add	ecx, DWORD PTR _boneinfo$1[ebp]
	push	ecx
	imul	edx, DWORD PTR _i$[ebp], 48
	add	edx, OFFSET _g_studio+80
	push	edx
	imul	eax, DWORD PTR _i$[ebp], 48
	add	eax, OFFSET _g_studio+12368
	push	eax
	call	_Matrix3x4_ConcatTransforms
	add	esp, 12					; 0000000cH
	jmp	SHORT $LN2@R_StudioSe
$LN3@R_StudioSe:

; 2896 : 	}
; 2897 : }

	mov	esp, ebp
	pop	ebp
	ret	0
_R_StudioSetupRenderer ENDP
_TEXT	ENDS
; Function compile flags: /Odtp
; File c:\users\user\downloads\xash_build4529_src\engine\client\gl_studio.c
_TEXT	SEGMENT
_model$ = 8						; size = 4
_R_StudioSetRenderModel PROC

; 2866 : {

	push	ebp
	mov	ebp, esp

; 2867 : 	RI.currentmodel = model;

	mov	eax, DWORD PTR _model$[ebp]
	mov	DWORD PTR _RI+32, eax

; 2868 : }

	pop	ebp
	ret	0
_R_StudioSetRenderModel ENDP
_TEXT	ENDS
; Function compile flags: /Odtp
; File c:\users\user\downloads\xash_build4529_src\engine\client\gl_studio.c
_TEXT	SEGMENT
_pheader$ = 8						; size = 4
_R_StudioSetHeader PROC

; 2854 : {

	push	ebp
	mov	ebp, esp

; 2855 : 	m_pStudioHeader = pheader;

	mov	eax, DWORD PTR _pheader$[ebp]
	mov	DWORD PTR _m_pStudioHeader, eax

; 2856 : 	m_fDoRemap = false;

	mov	DWORD PTR _m_fDoRemap, 0

; 2857 : }

	pop	ebp
	ret	0
_R_StudioSetHeader ENDP
_TEXT	ENDS
; Function compile flags: /Odtp
; File c:\users\user\downloads\xash_build4529_src\engine\client\gl_studio.c
_TEXT	SEGMENT
_flags$ = 8						; size = 4
_R_StudioSetForceFaceFlags PROC

; 2843 : {

	push	ebp
	mov	ebp, esp

; 2844 : 	g_nForceFaceFlags = flags;

	mov	eax, DWORD PTR _flags$[ebp]
	mov	DWORD PTR _g_nForceFaceFlags, eax

; 2845 : }

	pop	ebp
	ret	0
_R_StudioSetForceFaceFlags ENDP
_TEXT	ENDS
; Function compile flags: /Odtp
; File c:\users\user\downloads\xash_build4529_src\engine\client\gl_studio.c
_TEXT	SEGMENT
_R_StudioGetForceFaceFlags PROC

; 2832 : {

	push	ebp
	mov	ebp, esp

; 2833 : 	return g_nForceFaceFlags;

	mov	eax, DWORD PTR _g_nForceFaceFlags

; 2834 : }

	pop	ebp
	ret	0
_R_StudioGetForceFaceFlags ENDP
_TEXT	ENDS
; Function compile flags: /Odtp
; File c:\users\user\downloads\xash_build4529_src\engine\client\gl_studio.c
_TEXT	SEGMENT
_sequence$ = -40					; size = 4
_end$ = -36						; size = 4
_start$ = -32						; size = 4
tv169 = -28						; size = 4
tv168 = -24						; size = 4
_pevent$ = -20						; size = 4
_pseqdesc$ = -16					; size = 4
_i$ = -12						; size = 4
_el$1 = -8						; size = 4
_e$ = -4						; size = 4
_R_StudioClientEvents PROC

; 2764 : {

	push	ebp
	mov	ebp, esp
	sub	esp, 40					; 00000028H
	push	esi

; 2765 : 	mstudioseqdesc_t	*pseqdesc;
; 2766 : 	mstudioevent_t	*pevent;
; 2767 : 	cl_entity_t	*e = RI.currententity;

	mov	eax, DWORD PTR _RI+28
	mov	DWORD PTR _e$[ebp], eax

; 2768 : 	int		i, sequence;
; 2769 : 	float		end, start;
; 2770 : 
; 2771 : 	if( g_studio.frametime == 0.0 )

	movsd	xmm0, QWORD PTR _g_studio+8
	ucomisd	xmm0, QWORD PTR __real@0000000000000000
	lahf
	test	ah, 68					; 00000044H
	jp	SHORT $LN5@R_StudioCl

; 2772 : 		return; // gamepaused

	jmp	$LN3@R_StudioCl
$LN5@R_StudioCl:

; 2773 : 
; 2774 : 	// fill attachments with interpolated origin
; 2775 : 	if( m_pStudioHeader->numattachments <= 0 )

	mov	ecx, DWORD PTR _m_pStudioHeader
	cmp	DWORD PTR [ecx+212], 0
	jg	SHORT $LN6@R_StudioCl

; 2776 : 	{
; 2777 : 		Matrix3x4_OriginFromMatrix( g_studio.rotationmatrix, e->attachment[0] );

	mov	edx, 12					; 0000000cH
	imul	eax, edx, 0
	mov	ecx, DWORD PTR _e$[ebp]
	lea	edx, DWORD PTR [ecx+eax+2912]
	push	edx
	push	OFFSET _g_studio+32
	call	_Matrix3x4_OriginFromMatrix
	add	esp, 8

; 2778 : 		Matrix3x4_OriginFromMatrix( g_studio.rotationmatrix, e->attachment[1] );

	mov	eax, 12					; 0000000cH
	shl	eax, 0
	mov	ecx, DWORD PTR _e$[ebp]
	lea	edx, DWORD PTR [ecx+eax+2912]
	push	edx
	push	OFFSET _g_studio+32
	call	_Matrix3x4_OriginFromMatrix
	add	esp, 8

; 2779 : 		Matrix3x4_OriginFromMatrix( g_studio.rotationmatrix, e->attachment[2] );

	mov	eax, 12					; 0000000cH
	shl	eax, 1
	mov	ecx, DWORD PTR _e$[ebp]
	lea	edx, DWORD PTR [ecx+eax+2912]
	push	edx
	push	OFFSET _g_studio+32
	call	_Matrix3x4_OriginFromMatrix
	add	esp, 8

; 2780 : 		Matrix3x4_OriginFromMatrix( g_studio.rotationmatrix, e->attachment[3] );

	mov	eax, 12					; 0000000cH
	imul	ecx, eax, 3
	mov	edx, DWORD PTR _e$[ebp]
	lea	eax, DWORD PTR [edx+ecx+2912]
	push	eax
	push	OFFSET _g_studio+32
	call	_Matrix3x4_OriginFromMatrix
	add	esp, 8
$LN6@R_StudioCl:

; 2781 : 	}
; 2782 : 
; 2783 : 	if( FBitSet( e->curstate.effects, EF_MUZZLEFLASH ))

	mov	ecx, DWORD PTR _e$[ebp]
	mov	edx, DWORD PTR [ecx+748]
	and	edx, 2
	je	$LN7@R_StudioCl

; 2784 : 	{
; 2785 : 		dlight_t	*el = CL_AllocElight( 0 );

	push	0
	call	_CL_AllocElight
	add	esp, 4
	mov	DWORD PTR _el$1[ebp], eax

; 2786 : 
; 2787 : 		ClearBits( e->curstate.effects, EF_MUZZLEFLASH );

	mov	eax, DWORD PTR _e$[ebp]
	mov	ecx, DWORD PTR [eax+748]
	and	ecx, -3					; fffffffdH
	mov	edx, DWORD PTR _e$[ebp]
	mov	DWORD PTR [edx+748], ecx

; 2788 : 		VectorCopy( e->attachment[0], el->origin );

	mov	eax, 12					; 0000000cH
	imul	ecx, eax, 0
	mov	edx, DWORD PTR _e$[ebp]
	lea	eax, DWORD PTR [edx+ecx+2912]
	mov	ecx, 4
	imul	edx, ecx, 0
	mov	ecx, 4
	imul	ecx, ecx, 0
	mov	esi, DWORD PTR _el$1[ebp]
	mov	edx, DWORD PTR [eax+edx]
	mov	DWORD PTR [esi+ecx], edx
	mov	eax, 12					; 0000000cH
	imul	ecx, eax, 0
	mov	edx, DWORD PTR _e$[ebp]
	lea	eax, DWORD PTR [edx+ecx+2912]
	mov	ecx, 4
	shl	ecx, 0
	mov	edx, 4
	shl	edx, 0
	mov	esi, DWORD PTR _el$1[ebp]
	mov	eax, DWORD PTR [eax+ecx]
	mov	DWORD PTR [esi+edx], eax
	mov	ecx, 12					; 0000000cH
	imul	edx, ecx, 0
	mov	eax, DWORD PTR _e$[ebp]
	lea	ecx, DWORD PTR [eax+edx+2912]
	mov	edx, 4
	shl	edx, 1
	mov	eax, 4
	shl	eax, 1
	mov	esi, DWORD PTR _el$1[ebp]
	mov	ecx, DWORD PTR [ecx+edx]
	mov	DWORD PTR [esi+eax], ecx

; 2789 : 		el->die = cl.time + 0.05f;

	movsd	xmm0, QWORD PTR _cl+1525848
	addsd	xmm0, QWORD PTR __real@3fa99999a0000000
	cvtsd2ss xmm0, xmm0
	mov	edx, DWORD PTR _el$1[ebp]
	movss	DWORD PTR [edx+20], xmm0

; 2790 : 		el->color.r = 255;

	mov	eax, DWORD PTR _el$1[ebp]
	mov	BYTE PTR [eax+16], 255			; 000000ffH

; 2791 : 		el->color.g = 192;

	mov	ecx, DWORD PTR _el$1[ebp]
	mov	BYTE PTR [ecx+17], 192			; 000000c0H

; 2792 : 		el->color.b = 64;

	mov	edx, DWORD PTR _el$1[ebp]
	mov	BYTE PTR [edx+18], 64			; 00000040H

; 2793 : 		el->decay = 320;

	mov	eax, DWORD PTR _el$1[ebp]
	movss	xmm0, DWORD PTR __real@43a00000
	movss	DWORD PTR [eax+24], xmm0

; 2794 : 		el->radius = 24;

	mov	ecx, DWORD PTR _el$1[ebp]
	movss	xmm0, DWORD PTR __real@41c00000
	movss	DWORD PTR [ecx+12], xmm0
$LN7@R_StudioCl:

; 2795 : 	}
; 2796 : 
; 2797 : 	sequence = bound( 0, e->curstate.sequence, m_pStudioHeader->numseq - 1 );

	mov	edx, DWORD PTR _e$[ebp]
	cmp	DWORD PTR [edx+732], 0
	jl	SHORT $LN16@R_StudioCl
	mov	eax, DWORD PTR _m_pStudioHeader
	mov	ecx, DWORD PTR [eax+164]
	sub	ecx, 1
	mov	edx, DWORD PTR _e$[ebp]
	cmp	DWORD PTR [edx+732], ecx
	jge	SHORT $LN14@R_StudioCl
	mov	eax, DWORD PTR _e$[ebp]
	mov	ecx, DWORD PTR [eax+732]
	mov	DWORD PTR tv168[ebp], ecx
	jmp	SHORT $LN15@R_StudioCl
$LN14@R_StudioCl:
	mov	edx, DWORD PTR _m_pStudioHeader
	mov	eax, DWORD PTR [edx+164]
	sub	eax, 1
	mov	DWORD PTR tv168[ebp], eax
$LN15@R_StudioCl:
	mov	ecx, DWORD PTR tv168[ebp]
	mov	DWORD PTR tv169[ebp], ecx
	jmp	SHORT $LN17@R_StudioCl
$LN16@R_StudioCl:
	mov	DWORD PTR tv169[ebp], 0
$LN17@R_StudioCl:
	mov	edx, DWORD PTR tv169[ebp]
	mov	DWORD PTR _sequence$[ebp], edx

; 2798 : 	pseqdesc = (mstudioseqdesc_t *)((byte *)m_pStudioHeader + m_pStudioHeader->seqindex) + sequence;

	mov	eax, DWORD PTR _m_pStudioHeader
	mov	ecx, DWORD PTR _m_pStudioHeader
	add	ecx, DWORD PTR [eax+168]
	imul	edx, DWORD PTR _sequence$[ebp], 176
	add	ecx, edx
	mov	DWORD PTR _pseqdesc$[ebp], ecx

; 2799 : 
; 2800 : 	// no events for this animation
; 2801 : 	if( pseqdesc->numevents == 0 )

	mov	eax, DWORD PTR _pseqdesc$[ebp]
	cmp	DWORD PTR [eax+48], 0
	jne	SHORT $LN8@R_StudioCl

; 2802 : 		return;

	jmp	$LN3@R_StudioCl
$LN8@R_StudioCl:

; 2803 : 
; 2804 : 	end = R_StudioEstimateFrame( e, pseqdesc );

	mov	ecx, DWORD PTR _pseqdesc$[ebp]
	push	ecx
	mov	edx, DWORD PTR _e$[ebp]
	push	edx
	call	_R_StudioEstimateFrame
	add	esp, 8
	fstp	DWORD PTR _end$[ebp]

; 2805 : 	start = end - e->curstate.framerate * host.frametime * pseqdesc->fps;

	cvtss2sd xmm0, DWORD PTR _end$[ebp]
	mov	eax, DWORD PTR _e$[ebp]
	cvtss2sd xmm1, DWORD PTR [eax+784]
	mulsd	xmm1, QWORD PTR _host+1448
	mov	ecx, DWORD PTR _pseqdesc$[ebp]
	cvtss2sd xmm2, DWORD PTR [ecx+32]
	mulsd	xmm1, xmm2
	subsd	xmm0, xmm1
	cvtsd2ss xmm0, xmm0
	movss	DWORD PTR _start$[ebp], xmm0

; 2806 : 	pevent = (mstudioevent_t *)((byte *)m_pStudioHeader + pseqdesc->eventindex);

	mov	edx, DWORD PTR _pseqdesc$[ebp]
	mov	eax, DWORD PTR _m_pStudioHeader
	add	eax, DWORD PTR [edx+52]
	mov	DWORD PTR _pevent$[ebp], eax

; 2807 : 
; 2808 : 	if( e->latched.sequencetime == e->curstate.animtime )

	mov	ecx, DWORD PTR _e$[ebp]
	mov	edx, DWORD PTR _e$[ebp]
	movss	xmm0, DWORD PTR [ecx+2836]
	ucomiss	xmm0, DWORD PTR [edx+780]
	lahf
	test	ah, 68					; 00000044H
	jp	SHORT $LN10@R_StudioCl

; 2809 : 	{
; 2810 : 		if( !FBitSet( pseqdesc->flags, STUDIO_LOOPING ))

	mov	eax, DWORD PTR _pseqdesc$[ebp]
	mov	ecx, DWORD PTR [eax+36]
	and	ecx, 1
	jne	SHORT $LN10@R_StudioCl

; 2811 : 			start = -0.01f;

	movss	xmm0, DWORD PTR __real@bc23d70a
	movss	DWORD PTR _start$[ebp], xmm0
$LN10@R_StudioCl:

; 2812 : 	}
; 2813 : 
; 2814 : 	for( i = 0; i < pseqdesc->numevents; i++ )

	mov	DWORD PTR _i$[ebp], 0
	jmp	SHORT $LN4@R_StudioCl
$LN2@R_StudioCl:
	mov	edx, DWORD PTR _i$[ebp]
	add	edx, 1
	mov	DWORD PTR _i$[ebp], edx
$LN4@R_StudioCl:
	mov	eax, DWORD PTR _pseqdesc$[ebp]
	mov	ecx, DWORD PTR _i$[ebp]
	cmp	ecx, DWORD PTR [eax+48]
	jge	SHORT $LN3@R_StudioCl

; 2815 : 	{
; 2816 : 		// ignore all non-client-side events
; 2817 : 		if( pevent[i].event < EVENT_CLIENT )

	imul	edx, DWORD PTR _i$[ebp], 76
	mov	eax, DWORD PTR _pevent$[ebp]
	cmp	DWORD PTR [eax+edx+4], 5000		; 00001388H
	jge	SHORT $LN11@R_StudioCl

; 2818 : 			continue;

	jmp	SHORT $LN2@R_StudioCl
$LN11@R_StudioCl:

; 2819 : 
; 2820 : 		if( (float)pevent[i].frame > start && pevent[i].frame <= end )

	imul	ecx, DWORD PTR _i$[ebp], 76
	mov	edx, DWORD PTR _pevent$[ebp]
	cvtsi2ss xmm0, DWORD PTR [edx+ecx]
	comiss	xmm0, DWORD PTR _start$[ebp]
	jbe	SHORT $LN12@R_StudioCl
	imul	eax, DWORD PTR _i$[ebp], 76
	mov	ecx, DWORD PTR _pevent$[ebp]
	cvtsi2ss xmm0, DWORD PTR [ecx+eax]
	movss	xmm1, DWORD PTR _end$[ebp]
	comiss	xmm1, xmm0
	jb	SHORT $LN12@R_StudioCl

; 2821 : 			clgame.dllFuncs.pfnStudioEvent( &pevent[i], e );

	mov	edx, DWORD PTR _e$[ebp]
	push	edx
	imul	eax, DWORD PTR _i$[ebp], 76
	add	eax, DWORD PTR _pevent$[ebp]
	push	eax
	call	DWORD PTR _clgame+100
	add	esp, 8
$LN12@R_StudioCl:

; 2822 : 	}

	jmp	SHORT $LN2@R_StudioCl
$LN3@R_StudioCl:

; 2823 : }

	pop	esi
	mov	esp, ebp
	pop	ebp
	ret	0
_R_StudioClientEvents ENDP
_TEXT	ENDS
; Function compile flags: /Odtp
; File c:\users\user\downloads\xash_build4529_src\engine\client\gl_studio.c
_TEXT	SEGMENT
_info$ = -8						; size = 4
_state$ = -4						; size = 4
_index$ = 8						; size = 4
_R_StudioSetupPlayerModel PROC

; 2661 : {

	push	ebp
	mov	ebp, esp
	sub	esp, 8

; 2662 : 	player_info_t	*info;
; 2663 : 	player_model_t	*state;
; 2664 : 
; 2665 : 	if( !RI.drawWorld )

	cmp	DWORD PTR _RI+4, 0
	jne	SHORT $LN2@R_StudioSe

; 2666 : 	{
; 2667 : 		// we are in gameui.
; 2668 : 		info = &gameui.playerinfo;

	mov	DWORD PTR _info$[ebp], OFFSET _gameui+3072

; 2669 : 	}

	jmp	SHORT $LN3@R_StudioSe
$LN2@R_StudioSe:

; 2670 : 	else
; 2671 : 	{
; 2672 : 		if( index < 0 || index >= cl.maxclients )

	cmp	DWORD PTR _index$[ebp], 0
	jl	SHORT $LN5@R_StudioSe
	mov	eax, DWORD PTR _index$[ebp]
	cmp	eax, DWORD PTR _cl+1568832
	jl	SHORT $LN4@R_StudioSe
$LN5@R_StudioSe:

; 2673 : 			return NULL; // bad client ?

	xor	eax, eax
	jmp	$LN1@R_StudioSe
$LN4@R_StudioSe:

; 2674 : 		info = &cl.players[index];

	imul	ecx, DWORD PTR _index$[ebp], 584
	add	ecx, OFFSET _cl+1543148
	mov	DWORD PTR _info$[ebp], ecx
$LN3@R_StudioSe:

; 2675 : 	}
; 2676 : 
; 2677 : 	state = &cl.player_models[index];

	imul	edx, DWORD PTR _index$[ebp], 524
	add	edx, OFFSET _cl+1526380
	mov	DWORD PTR _state$[ebp], edx

; 2678 : 
; 2679 : 	// g-cont: force for "dev-mode", non-local games and menu preview
; 2680 : 	if(( host_developer.value || !Host_IsLocalGame( ) || !RI.drawWorld ) && info->model[0] )

	movss	xmm0, DWORD PTR _host_developer+12
	ucomiss	xmm0, DWORD PTR __real@00000000
	lahf
	test	ah, 68					; 00000044H
	jp	SHORT $LN8@R_StudioSe
	call	_Host_IsLocalGame
	test	eax, eax
	je	SHORT $LN8@R_StudioSe
	cmp	DWORD PTR _RI+4, 0
	jne	$LN6@R_StudioSe
$LN8@R_StudioSe:
	mov	eax, 1
	imul	ecx, eax, 0
	mov	edx, DWORD PTR _info$[ebp]
	movsx	eax, BYTE PTR [edx+ecx+304]
	test	eax, eax
	je	$LN6@R_StudioSe

; 2681 : 	{
; 2682 : 		if( Q_strcmp( state->name, info->model ))

	push	99999					; 0001869fH
	mov	ecx, DWORD PTR _info$[ebp]
	add	ecx, 304				; 00000130H
	push	ecx
	mov	edx, DWORD PTR _state$[ebp]
	push	edx
	call	_Q_strncmp
	add	esp, 12					; 0000000cH
	test	eax, eax
	je	$LN12@R_StudioSe

; 2683 : 		{
; 2684 : 			Q_strncpy( state->name, info->model, sizeof( state->name ));

	push	260					; 00000104H
	mov	eax, DWORD PTR _info$[ebp]
	add	eax, 304				; 00000130H
	push	eax
	mov	ecx, DWORD PTR _state$[ebp]
	push	ecx
	call	_Q_strncpy
	add	esp, 12					; 0000000cH

; 2685 : 			state->name[sizeof( state->name ) - 1] = 0;

	mov	edx, 1
	imul	eax, edx, 259
	mov	ecx, DWORD PTR _state$[ebp]
	mov	BYTE PTR [ecx+eax], 0

; 2686 : 
; 2687 : 			Q_snprintf( state->modelname, sizeof( state->modelname ), "models/player/%s/%s.mdl", info->model, info->model );

	mov	edx, DWORD PTR _info$[ebp]
	add	edx, 304				; 00000130H
	push	edx
	mov	eax, DWORD PTR _info$[ebp]
	add	eax, 304				; 00000130H
	push	eax
	push	OFFSET $SG146169
	push	260					; 00000104H
	mov	ecx, DWORD PTR _state$[ebp]
	add	ecx, 260				; 00000104H
	push	ecx
	call	_Q_snprintf
	add	esp, 20					; 00000014H

; 2688 : 
; 2689 : 			if( FS_FileExists( state->modelname, false ))

	push	0
	mov	edx, DWORD PTR _state$[ebp]
	add	edx, 260				; 00000104H
	push	edx
	call	_FS_FileExists
	add	esp, 8
	test	eax, eax
	je	SHORT $LN10@R_StudioSe

; 2690 : 				state->model = Mod_ForName( state->modelname, false, true );

	push	1
	push	0
	mov	eax, DWORD PTR _state$[ebp]
	add	eax, 260				; 00000104H
	push	eax
	call	_Mod_ForName
	add	esp, 12					; 0000000cH
	mov	ecx, DWORD PTR _state$[ebp]
	mov	DWORD PTR [ecx+520], eax
	jmp	SHORT $LN11@R_StudioSe
$LN10@R_StudioSe:

; 2691 : 			else state->model = NULL;

	mov	edx, DWORD PTR _state$[ebp]
	mov	DWORD PTR [edx+520], 0
$LN11@R_StudioSe:

; 2692 : 
; 2693 : 			if( !state->model )

	mov	eax, DWORD PTR _state$[ebp]
	cmp	DWORD PTR [eax+520], 0
	jne	SHORT $LN12@R_StudioSe

; 2694 : 				state->model = RI.currententity->model;

	mov	ecx, DWORD PTR _state$[ebp]
	mov	edx, DWORD PTR _RI+28
	mov	eax, DWORD PTR [edx+2964]
	mov	DWORD PTR [ecx+520], eax
$LN12@R_StudioSe:

; 2695 : 		}
; 2696 : 	}

	jmp	SHORT $LN7@R_StudioSe
$LN6@R_StudioSe:

; 2697 : 	else
; 2698 : 	{
; 2699 : 		if( state->model != RI.currententity->model )

	mov	ecx, DWORD PTR _state$[ebp]
	mov	edx, DWORD PTR _RI+28
	mov	eax, DWORD PTR [ecx+520]
	cmp	eax, DWORD PTR [edx+2964]
	je	SHORT $LN13@R_StudioSe

; 2700 : 			state->model = RI.currententity->model;

	mov	ecx, DWORD PTR _state$[ebp]
	mov	edx, DWORD PTR _RI+28
	mov	eax, DWORD PTR [edx+2964]
	mov	DWORD PTR [ecx+520], eax
$LN13@R_StudioSe:

; 2701 : 		state->name[0] = 0;

	mov	ecx, 1
	imul	edx, ecx, 0
	mov	eax, DWORD PTR _state$[ebp]
	mov	BYTE PTR [eax+edx], 0
$LN7@R_StudioSe:

; 2702 : 	}
; 2703 : 
; 2704 : 	return state->model;

	mov	ecx, DWORD PTR _state$[ebp]
	mov	eax, DWORD PTR [ecx+520]
$LN1@R_StudioSe:

; 2705 : }

	mov	esp, ebp
	pop	ebp
	ret	0
_R_StudioSetupPlayerModel ENDP
_TEXT	ENDS
; Function compile flags: /Odtp
; File c:\users\user\downloads\xash_build4529_src\engine\client\gl_studio.c
_TEXT	SEGMENT
_pattachments$1 = -60					; size = 4
_i$ = -56						; size = 4
_v$2 = -52						; size = 48
__$ArrayPad$ = -4					; size = 4
_R_StudioDrawAttachments PROC

; 2593 : {

	push	ebp
	mov	ebp, esp
	sub	esp, 60					; 0000003cH
	mov	eax, DWORD PTR ___security_cookie
	xor	eax, ebp
	mov	DWORD PTR __$ArrayPad$[ebp], eax

; 2594 : 	int	i;
; 2595 : 	
; 2596 : 	pglDisable( GL_TEXTURE_2D );

	push	3553					; 00000de1H
	call	DWORD PTR _pglDisable

; 2597 : 	pglDisable( GL_DEPTH_TEST );

	push	2929					; 00000b71H
	call	DWORD PTR _pglDisable

; 2598 : 	
; 2599 : 	for( i = 0; i < m_pStudioHeader->numattachments; i++ )

	mov	DWORD PTR _i$[ebp], 0
	jmp	SHORT $LN4@R_StudioDr
$LN2@R_StudioDr:
	mov	eax, DWORD PTR _i$[ebp]
	add	eax, 1
	mov	DWORD PTR _i$[ebp], eax
$LN4@R_StudioDr:
	mov	ecx, DWORD PTR _m_pStudioHeader
	mov	edx, DWORD PTR _i$[ebp]
	cmp	edx, DWORD PTR [ecx+212]
	jge	$LN3@R_StudioDr

; 2600 : 	{
; 2601 : 		mstudioattachment_t	*pattachments;
; 2602 : 		vec3_t		v[4];
; 2603 : 
; 2604 : 		pattachments = (mstudioattachment_t *)((byte *)m_pStudioHeader + m_pStudioHeader->attachmentindex);		

	mov	eax, DWORD PTR _m_pStudioHeader
	mov	ecx, DWORD PTR _m_pStudioHeader
	add	ecx, DWORD PTR [eax+216]
	mov	DWORD PTR _pattachments$1[ebp], ecx

; 2605 : 		Matrix3x4_VectorTransform( g_studio.bonestransform[pattachments[i].bone], pattachments[i].org, v[0] );

	mov	edx, 12					; 0000000cH
	imul	eax, edx, 0
	lea	ecx, DWORD PTR _v$2[ebp+eax]
	push	ecx
	imul	edx, DWORD PTR _i$[ebp], 88
	mov	eax, DWORD PTR _pattachments$1[ebp]
	lea	ecx, DWORD PTR [eax+edx+40]
	push	ecx
	imul	edx, DWORD PTR _i$[ebp], 88
	mov	eax, DWORD PTR _pattachments$1[ebp]
	imul	ecx, DWORD PTR [eax+edx+36], 48
	add	ecx, OFFSET _g_studio+80
	push	ecx
	call	_Matrix3x4_VectorTransform
	add	esp, 12					; 0000000cH

; 2606 : 		Matrix3x4_VectorTransform( g_studio.bonestransform[pattachments[i].bone], pattachments[i].vectors[0], v[1] );

	mov	edx, 12					; 0000000cH
	shl	edx, 0
	lea	eax, DWORD PTR _v$2[ebp+edx]
	push	eax
	imul	ecx, DWORD PTR _i$[ebp], 88
	add	ecx, DWORD PTR _pattachments$1[ebp]
	mov	edx, 12					; 0000000cH
	imul	eax, edx, 0
	lea	ecx, DWORD PTR [ecx+eax+52]
	push	ecx
	imul	edx, DWORD PTR _i$[ebp], 88
	mov	eax, DWORD PTR _pattachments$1[ebp]
	imul	ecx, DWORD PTR [eax+edx+36], 48
	add	ecx, OFFSET _g_studio+80
	push	ecx
	call	_Matrix3x4_VectorTransform
	add	esp, 12					; 0000000cH

; 2607 : 		Matrix3x4_VectorTransform( g_studio.bonestransform[pattachments[i].bone], pattachments[i].vectors[1], v[2] );

	mov	edx, 12					; 0000000cH
	shl	edx, 1
	lea	eax, DWORD PTR _v$2[ebp+edx]
	push	eax
	imul	ecx, DWORD PTR _i$[ebp], 88
	add	ecx, DWORD PTR _pattachments$1[ebp]
	mov	edx, 12					; 0000000cH
	shl	edx, 0
	lea	eax, DWORD PTR [ecx+edx+52]
	push	eax
	imul	ecx, DWORD PTR _i$[ebp], 88
	mov	edx, DWORD PTR _pattachments$1[ebp]
	imul	eax, DWORD PTR [edx+ecx+36], 48
	add	eax, OFFSET _g_studio+80
	push	eax
	call	_Matrix3x4_VectorTransform
	add	esp, 12					; 0000000cH

; 2608 : 		Matrix3x4_VectorTransform( g_studio.bonestransform[pattachments[i].bone], pattachments[i].vectors[2], v[3] );

	mov	ecx, 12					; 0000000cH
	imul	edx, ecx, 3
	lea	eax, DWORD PTR _v$2[ebp+edx]
	push	eax
	imul	ecx, DWORD PTR _i$[ebp], 88
	add	ecx, DWORD PTR _pattachments$1[ebp]
	mov	edx, 12					; 0000000cH
	shl	edx, 1
	lea	eax, DWORD PTR [ecx+edx+52]
	push	eax
	imul	ecx, DWORD PTR _i$[ebp], 88
	mov	edx, DWORD PTR _pattachments$1[ebp]
	imul	eax, DWORD PTR [edx+ecx+36], 48
	add	eax, OFFSET _g_studio+80
	push	eax
	call	_Matrix3x4_VectorTransform
	add	esp, 12					; 0000000cH

; 2609 : 		
; 2610 : 		pglBegin( GL_LINES );

	push	1
	call	DWORD PTR _pglBegin

; 2611 : 		pglColor3f( 1, 0, 0 );

	push	ecx
	xorps	xmm0, xmm0
	movss	DWORD PTR [esp], xmm0
	push	ecx
	xorps	xmm0, xmm0
	movss	DWORD PTR [esp], xmm0
	push	ecx
	movss	xmm0, DWORD PTR __real@3f800000
	movss	DWORD PTR [esp], xmm0
	call	DWORD PTR _pglColor3f

; 2612 : 		pglVertex3fv( v[0] );

	mov	ecx, 12					; 0000000cH
	imul	edx, ecx, 0
	lea	eax, DWORD PTR _v$2[ebp+edx]
	push	eax
	call	DWORD PTR _pglVertex3fv

; 2613 : 		pglColor3f( 1, 1, 1 );

	push	ecx
	movss	xmm0, DWORD PTR __real@3f800000
	movss	DWORD PTR [esp], xmm0
	push	ecx
	movss	xmm0, DWORD PTR __real@3f800000
	movss	DWORD PTR [esp], xmm0
	push	ecx
	movss	xmm0, DWORD PTR __real@3f800000
	movss	DWORD PTR [esp], xmm0
	call	DWORD PTR _pglColor3f

; 2614 : 		pglVertex3fv (v[1] );

	mov	ecx, 12					; 0000000cH
	shl	ecx, 0
	lea	edx, DWORD PTR _v$2[ebp+ecx]
	push	edx
	call	DWORD PTR _pglVertex3fv

; 2615 : 		pglColor3f( 1, 0, 0 );

	push	ecx
	xorps	xmm0, xmm0
	movss	DWORD PTR [esp], xmm0
	push	ecx
	xorps	xmm0, xmm0
	movss	DWORD PTR [esp], xmm0
	push	ecx
	movss	xmm0, DWORD PTR __real@3f800000
	movss	DWORD PTR [esp], xmm0
	call	DWORD PTR _pglColor3f

; 2616 : 		pglVertex3fv (v[0] );

	mov	eax, 12					; 0000000cH
	imul	ecx, eax, 0
	lea	edx, DWORD PTR _v$2[ebp+ecx]
	push	edx
	call	DWORD PTR _pglVertex3fv

; 2617 : 		pglColor3f( 1, 1, 1 );

	push	ecx
	movss	xmm0, DWORD PTR __real@3f800000
	movss	DWORD PTR [esp], xmm0
	push	ecx
	movss	xmm0, DWORD PTR __real@3f800000
	movss	DWORD PTR [esp], xmm0
	push	ecx
	movss	xmm0, DWORD PTR __real@3f800000
	movss	DWORD PTR [esp], xmm0
	call	DWORD PTR _pglColor3f

; 2618 : 		pglVertex3fv (v[2] );

	mov	eax, 12					; 0000000cH
	shl	eax, 1
	lea	ecx, DWORD PTR _v$2[ebp+eax]
	push	ecx
	call	DWORD PTR _pglVertex3fv

; 2619 : 		pglColor3f( 1, 0, 0 );

	push	ecx
	xorps	xmm0, xmm0
	movss	DWORD PTR [esp], xmm0
	push	ecx
	xorps	xmm0, xmm0
	movss	DWORD PTR [esp], xmm0
	push	ecx
	movss	xmm0, DWORD PTR __real@3f800000
	movss	DWORD PTR [esp], xmm0
	call	DWORD PTR _pglColor3f

; 2620 : 		pglVertex3fv (v[0] );

	mov	edx, 12					; 0000000cH
	imul	eax, edx, 0
	lea	ecx, DWORD PTR _v$2[ebp+eax]
	push	ecx
	call	DWORD PTR _pglVertex3fv

; 2621 : 		pglColor3f( 1, 1, 1 );

	push	ecx
	movss	xmm0, DWORD PTR __real@3f800000
	movss	DWORD PTR [esp], xmm0
	push	ecx
	movss	xmm0, DWORD PTR __real@3f800000
	movss	DWORD PTR [esp], xmm0
	push	ecx
	movss	xmm0, DWORD PTR __real@3f800000
	movss	DWORD PTR [esp], xmm0
	call	DWORD PTR _pglColor3f

; 2622 : 		pglVertex3fv( v[3] );

	mov	edx, 12					; 0000000cH
	imul	eax, edx, 3
	lea	ecx, DWORD PTR _v$2[ebp+eax]
	push	ecx
	call	DWORD PTR _pglVertex3fv

; 2623 : 		pglEnd();

	call	DWORD PTR _pglEnd

; 2624 : 
; 2625 : 		pglPointSize( 5.0f );

	push	ecx
	movss	xmm0, DWORD PTR __real@40a00000
	movss	DWORD PTR [esp], xmm0
	call	DWORD PTR _pglPointSize

; 2626 : 		pglColor3f( 0, 1, 0 );

	push	ecx
	xorps	xmm0, xmm0
	movss	DWORD PTR [esp], xmm0
	push	ecx
	movss	xmm0, DWORD PTR __real@3f800000
	movss	DWORD PTR [esp], xmm0
	push	ecx
	xorps	xmm0, xmm0
	movss	DWORD PTR [esp], xmm0
	call	DWORD PTR _pglColor3f

; 2627 : 		pglBegin( GL_POINTS );

	push	0
	call	DWORD PTR _pglBegin

; 2628 : 		pglVertex3fv( v[0] );

	mov	edx, 12					; 0000000cH
	imul	eax, edx, 0
	lea	ecx, DWORD PTR _v$2[ebp+eax]
	push	ecx
	call	DWORD PTR _pglVertex3fv

; 2629 : 		pglEnd();

	call	DWORD PTR _pglEnd

; 2630 : 		pglPointSize( 1.0f );

	push	ecx
	movss	xmm0, DWORD PTR __real@3f800000
	movss	DWORD PTR [esp], xmm0
	call	DWORD PTR _pglPointSize

; 2631 : 	}

	jmp	$LN2@R_StudioDr
$LN3@R_StudioDr:

; 2632 : 
; 2633 : 	pglEnable( GL_TEXTURE_2D );

	push	3553					; 00000de1H
	call	DWORD PTR _pglEnable

; 2634 : 	pglEnable( GL_DEPTH_TEST );

	push	2929					; 00000b71H
	call	DWORD PTR _pglEnable

; 2635 : }

	mov	ecx, DWORD PTR __$ArrayPad$[ebp]
	xor	ecx, ebp
	call	@__security_check_cookie@4
	mov	esp, ebp
	pop	ebp
	ret	0
_R_StudioDrawAttachments ENDP
_TEXT	ENDS
; Function compile flags: /Odtp
; File c:\users\user\downloads\xash_build4529_src\engine\client\gl_studio.c
_TEXT	SEGMENT
_pbones$ = -24						; size = 4
_i$ = -20						; size = 4
_point$ = -16						; size = 12
__$ArrayPad$ = -4					; size = 4
_R_StudioDrawBones PROC

; 2543 : {

	push	ebp
	mov	ebp, esp
	sub	esp, 24					; 00000018H
	mov	eax, DWORD PTR ___security_cookie
	xor	eax, ebp
	mov	DWORD PTR __$ArrayPad$[ebp], eax

; 2544 : 	mstudiobone_t	*pbones = (mstudiobone_t *) ((byte *)m_pStudioHeader + m_pStudioHeader->boneindex);

	mov	eax, DWORD PTR _m_pStudioHeader
	mov	ecx, DWORD PTR _m_pStudioHeader
	add	ecx, DWORD PTR [eax+144]
	mov	DWORD PTR _pbones$[ebp], ecx

; 2545 : 	vec3_t		point;
; 2546 : 	int		i;
; 2547 : 
; 2548 : 	pglDisable( GL_TEXTURE_2D );

	push	3553					; 00000de1H
	call	DWORD PTR _pglDisable

; 2549 : 
; 2550 : 	for( i = 0; i < m_pStudioHeader->numbones; i++ )

	mov	DWORD PTR _i$[ebp], 0
	jmp	SHORT $LN4@R_StudioDr
$LN2@R_StudioDr:
	mov	edx, DWORD PTR _i$[ebp]
	add	edx, 1
	mov	DWORD PTR _i$[ebp], edx
$LN4@R_StudioDr:
	mov	eax, DWORD PTR _m_pStudioHeader
	mov	ecx, DWORD PTR _i$[ebp]
	cmp	ecx, DWORD PTR [eax+140]
	jge	$LN3@R_StudioDr

; 2551 : 	{
; 2552 : 		if( pbones[i].parent >= 0 )

	imul	edx, DWORD PTR _i$[ebp], 112
	mov	eax, DWORD PTR _pbones$[ebp]
	cmp	DWORD PTR [eax+edx+32], 0
	jl	$LN5@R_StudioDr

; 2553 : 		{
; 2554 : 			pglPointSize( 3.0f );

	push	ecx
	movss	xmm0, DWORD PTR __real@40400000
	movss	DWORD PTR [esp], xmm0
	call	DWORD PTR _pglPointSize

; 2555 : 			pglColor3f( 1, 0.7f, 0 );

	push	ecx
	xorps	xmm0, xmm0
	movss	DWORD PTR [esp], xmm0
	push	ecx
	movss	xmm0, DWORD PTR __real@3f333333
	movss	DWORD PTR [esp], xmm0
	push	ecx
	movss	xmm0, DWORD PTR __real@3f800000
	movss	DWORD PTR [esp], xmm0
	call	DWORD PTR _pglColor3f

; 2556 : 			pglBegin( GL_LINES );

	push	1
	call	DWORD PTR _pglBegin

; 2557 : 			
; 2558 : 			Matrix3x4_OriginFromMatrix( g_studio.bonestransform[pbones[i].parent], point );

	lea	ecx, DWORD PTR _point$[ebp]
	push	ecx
	imul	edx, DWORD PTR _i$[ebp], 112
	mov	eax, DWORD PTR _pbones$[ebp]
	imul	ecx, DWORD PTR [eax+edx+32], 48
	add	ecx, OFFSET _g_studio+80
	push	ecx
	call	_Matrix3x4_OriginFromMatrix
	add	esp, 8

; 2559 : 			pglVertex3fv( point );

	lea	edx, DWORD PTR _point$[ebp]
	push	edx
	call	DWORD PTR _pglVertex3fv

; 2560 : 			Matrix3x4_OriginFromMatrix( g_studio.bonestransform[i], point );

	lea	eax, DWORD PTR _point$[ebp]
	push	eax
	imul	ecx, DWORD PTR _i$[ebp], 48
	add	ecx, OFFSET _g_studio+80
	push	ecx
	call	_Matrix3x4_OriginFromMatrix
	add	esp, 8

; 2561 : 			pglVertex3fv( point );

	lea	edx, DWORD PTR _point$[ebp]
	push	edx
	call	DWORD PTR _pglVertex3fv

; 2562 : 			
; 2563 : 			pglEnd();

	call	DWORD PTR _pglEnd

; 2564 : 
; 2565 : 			pglColor3f( 0, 0, 0.8f );

	push	ecx
	movss	xmm0, DWORD PTR __real@3f4ccccd
	movss	DWORD PTR [esp], xmm0
	push	ecx
	xorps	xmm0, xmm0
	movss	DWORD PTR [esp], xmm0
	push	ecx
	xorps	xmm0, xmm0
	movss	DWORD PTR [esp], xmm0
	call	DWORD PTR _pglColor3f

; 2566 : 			pglBegin( GL_POINTS );

	push	0
	call	DWORD PTR _pglBegin

; 2567 : 			if( pbones[pbones[i].parent].parent != -1 )

	imul	eax, DWORD PTR _i$[ebp], 112
	mov	ecx, DWORD PTR _pbones$[ebp]
	imul	edx, DWORD PTR [ecx+eax+32], 112
	mov	eax, DWORD PTR _pbones$[ebp]
	cmp	DWORD PTR [eax+edx+32], -1
	je	SHORT $LN7@R_StudioDr

; 2568 : 			{
; 2569 : 				Matrix3x4_OriginFromMatrix( g_studio.bonestransform[pbones[i].parent], point );

	lea	ecx, DWORD PTR _point$[ebp]
	push	ecx
	imul	edx, DWORD PTR _i$[ebp], 112
	mov	eax, DWORD PTR _pbones$[ebp]
	imul	ecx, DWORD PTR [eax+edx+32], 48
	add	ecx, OFFSET _g_studio+80
	push	ecx
	call	_Matrix3x4_OriginFromMatrix
	add	esp, 8

; 2570 : 				pglVertex3fv( point );

	lea	edx, DWORD PTR _point$[ebp]
	push	edx
	call	DWORD PTR _pglVertex3fv
$LN7@R_StudioDr:

; 2571 : 			}
; 2572 : 			Matrix3x4_OriginFromMatrix( g_studio.bonestransform[i], point );

	lea	eax, DWORD PTR _point$[ebp]
	push	eax
	imul	ecx, DWORD PTR _i$[ebp], 48
	add	ecx, OFFSET _g_studio+80
	push	ecx
	call	_Matrix3x4_OriginFromMatrix
	add	esp, 8

; 2573 : 			pglVertex3fv( point );

	lea	edx, DWORD PTR _point$[ebp]
	push	edx
	call	DWORD PTR _pglVertex3fv

; 2574 : 			pglEnd();

	call	DWORD PTR _pglEnd

; 2575 : 		}

	jmp	SHORT $LN6@R_StudioDr
$LN5@R_StudioDr:

; 2576 : 		else
; 2577 : 		{
; 2578 : 			// draw parent bone node
; 2579 : 			pglPointSize( 5.0f );

	push	ecx
	movss	xmm0, DWORD PTR __real@40a00000
	movss	DWORD PTR [esp], xmm0
	call	DWORD PTR _pglPointSize

; 2580 : 			pglColor3f( 0.8f, 0, 0 );

	push	ecx
	xorps	xmm0, xmm0
	movss	DWORD PTR [esp], xmm0
	push	ecx
	xorps	xmm0, xmm0
	movss	DWORD PTR [esp], xmm0
	push	ecx
	movss	xmm0, DWORD PTR __real@3f4ccccd
	movss	DWORD PTR [esp], xmm0
	call	DWORD PTR _pglColor3f

; 2581 : 			pglBegin( GL_POINTS );

	push	0
	call	DWORD PTR _pglBegin

; 2582 : 			Matrix3x4_OriginFromMatrix( g_studio.bonestransform[i], point );

	lea	eax, DWORD PTR _point$[ebp]
	push	eax
	imul	ecx, DWORD PTR _i$[ebp], 48
	add	ecx, OFFSET _g_studio+80
	push	ecx
	call	_Matrix3x4_OriginFromMatrix
	add	esp, 8

; 2583 : 			pglVertex3fv( point );

	lea	edx, DWORD PTR _point$[ebp]
	push	edx
	call	DWORD PTR _pglVertex3fv

; 2584 : 			pglEnd();

	call	DWORD PTR _pglEnd
$LN6@R_StudioDr:

; 2585 : 		}
; 2586 : 	}

	jmp	$LN2@R_StudioDr
$LN3@R_StudioDr:

; 2587 : 
; 2588 : 	pglPointSize( 1.0f );

	push	ecx
	movss	xmm0, DWORD PTR __real@3f800000
	movss	DWORD PTR [esp], xmm0
	call	DWORD PTR _pglPointSize

; 2589 : 	pglEnable( GL_TEXTURE_2D );

	push	3553					; 00000de1H
	call	DWORD PTR _pglEnable

; 2590 : }

	mov	ecx, DWORD PTR __$ArrayPad$[ebp]
	xor	ecx, ebp
	call	@__security_check_cookie@4
	mov	esp, ebp
	pop	ebp
	ret	0
_R_StudioDrawBones ENDP
_TEXT	ENDS
; Function compile flags: /Odtp
; File c:\users\user\downloads\xash_build4529_src\engine\client\gl_studio.c
_TEXT	SEGMENT
_lv$ = -124						; size = 4
tv88 = -120						; size = 4
_i$ = -116						; size = 4
_p$ = -112						; size = 96
_tmp$ = -16						; size = 12
__$ArrayPad$ = -4					; size = 4
_R_StudioDrawAbsBBox PROC

; 2503 : {

	push	ebp
	mov	ebp, esp
	sub	esp, 124				; 0000007cH
	mov	eax, DWORD PTR ___security_cookie
	xor	eax, ebp
	mov	DWORD PTR __$ArrayPad$[ebp], eax

; 2504 : 	vec3_t	p[8], tmp;
; 2505 : 	float	lv;
; 2506 : 	int	i;
; 2507 : 
; 2508 : 	// looks ugly, skip
; 2509 : 	if( RI.currententity == &clgame.viewent )

	cmp	DWORD PTR _RI+28, OFFSET _clgame+149800
	jne	SHORT $LN5@R_StudioDr

; 2510 : 		return;

	jmp	$LN1@R_StudioDr
$LN5@R_StudioDr:

; 2511 : 
; 2512 : 	if( !R_StudioComputeBBox( p ))

	lea	eax, DWORD PTR _p$[ebp]
	push	eax
	call	_R_StudioComputeBBox
	add	esp, 4
	test	eax, eax
	jne	SHORT $LN6@R_StudioDr

; 2513 : 		return;

	jmp	$LN1@R_StudioDr
$LN6@R_StudioDr:

; 2514 : 
; 2515 : 	GL_Bind( GL_TEXTURE0, tr.whiteTexture );

	mov	ecx, DWORD PTR _tr+8
	push	ecx
	push	0
	call	_GL_Bind

; 2516 : 	TriColor4f( 0.5f, 0.5f, 1.0f, 0.5f );

	add	esp, 4
	movss	xmm0, DWORD PTR __real@3f000000
	movss	DWORD PTR [esp], xmm0
	push	ecx
	movss	xmm0, DWORD PTR __real@3f800000
	movss	DWORD PTR [esp], xmm0
	push	ecx
	movss	xmm0, DWORD PTR __real@3f000000
	movss	DWORD PTR [esp], xmm0
	push	ecx
	movss	xmm0, DWORD PTR __real@3f000000
	movss	DWORD PTR [esp], xmm0
	call	_TriColor4f
	add	esp, 16					; 00000010H

; 2517 : 	TriRenderMode( kRenderTransAdd );

	push	5
	call	_TriRenderMode
	add	esp, 4

; 2518 : 
; 2519 : 	TriBegin( TRI_QUADS );

	push	2
	call	_TriBegin
	add	esp, 4

; 2520 : 	for( i = 0; i < 6; i++ )

	mov	DWORD PTR _i$[ebp], 0
	jmp	SHORT $LN4@R_StudioDr
$LN2@R_StudioDr:
	mov	edx, DWORD PTR _i$[ebp]
	add	edx, 1
	mov	DWORD PTR _i$[ebp], edx
$LN4@R_StudioDr:
	cmp	DWORD PTR _i$[ebp], 6
	jge	$LN3@R_StudioDr

; 2521 : 	{
; 2522 : 		VectorClear( tmp );

	mov	eax, 4
	shl	eax, 1
	xorps	xmm0, xmm0
	movss	DWORD PTR _tmp$[ebp+eax], xmm0
	mov	ecx, 4
	shl	ecx, 0
	xorps	xmm0, xmm0
	movss	DWORD PTR _tmp$[ebp+ecx], xmm0
	mov	edx, 4
	imul	eax, edx, 0
	xorps	xmm0, xmm0
	movss	DWORD PTR _tmp$[ebp+eax], xmm0

; 2523 : 		tmp[i % 3] = (i < 3) ? 1.0f : -1.0f;

	cmp	DWORD PTR _i$[ebp], 3
	jge	SHORT $LN8@R_StudioDr
	movss	xmm0, DWORD PTR __real@3f800000
	movss	DWORD PTR tv88[ebp], xmm0
	jmp	SHORT $LN9@R_StudioDr
$LN8@R_StudioDr:
	movss	xmm0, DWORD PTR __real@bf800000
	movss	DWORD PTR tv88[ebp], xmm0
$LN9@R_StudioDr:
	mov	eax, DWORD PTR _i$[ebp]
	cdq
	mov	ecx, 3
	idiv	ecx
	movss	xmm0, DWORD PTR tv88[ebp]
	movss	DWORD PTR _tmp$[ebp+edx*4], xmm0

; 2524 : 		R_StudioLighting( &lv, -1, 0, tmp );

	lea	edx, DWORD PTR _tmp$[ebp]
	push	edx
	push	0
	push	-1
	lea	eax, DWORD PTR _lv$[ebp]
	push	eax
	call	_R_StudioLighting

; 2525 : 
; 2526 : 		TriBrightness( lv );

	add	esp, 12					; 0000000cH
	movss	xmm0, DWORD PTR _lv$[ebp]
	movss	DWORD PTR [esp], xmm0
	call	_TriBrightness
	add	esp, 4

; 2527 : 		TriVertex3fv( p[boxpnt[i][0]] );

	mov	ecx, DWORD PTR _i$[ebp]
	shl	ecx, 4
	mov	edx, 4
	imul	eax, edx, 0
	imul	ecx, DWORD PTR _boxpnt[ecx+eax], 12
	lea	edx, DWORD PTR _p$[ebp+ecx]
	push	edx
	call	_TriVertex3fv
	add	esp, 4

; 2528 : 		TriVertex3fv( p[boxpnt[i][1]] );

	mov	eax, DWORD PTR _i$[ebp]
	shl	eax, 4
	mov	ecx, 4
	shl	ecx, 0
	imul	edx, DWORD PTR _boxpnt[eax+ecx], 12
	lea	eax, DWORD PTR _p$[ebp+edx]
	push	eax
	call	_TriVertex3fv
	add	esp, 4

; 2529 : 		TriVertex3fv( p[boxpnt[i][2]] );

	mov	ecx, DWORD PTR _i$[ebp]
	shl	ecx, 4
	mov	edx, 4
	shl	edx, 1
	imul	eax, DWORD PTR _boxpnt[ecx+edx], 12
	lea	ecx, DWORD PTR _p$[ebp+eax]
	push	ecx
	call	_TriVertex3fv
	add	esp, 4

; 2530 : 		TriVertex3fv( p[boxpnt[i][3]] );

	mov	edx, DWORD PTR _i$[ebp]
	shl	edx, 4
	mov	eax, 4
	imul	ecx, eax, 3
	imul	edx, DWORD PTR _boxpnt[edx+ecx], 12
	lea	eax, DWORD PTR _p$[ebp+edx]
	push	eax
	call	_TriVertex3fv
	add	esp, 4

; 2531 : 	}

	jmp	$LN2@R_StudioDr
$LN3@R_StudioDr:

; 2532 : 	TriEnd();

	call	_TriEnd

; 2533 : 	TriRenderMode( kRenderNormal );

	push	0
	call	_TriRenderMode
	add	esp, 4
$LN1@R_StudioDr:

; 2534 : }

	mov	ecx, DWORD PTR __$ArrayPad$[ebp]
	xor	ecx, ebp
	call	@__security_check_cookie@4
	mov	esp, ebp
	pop	ebp
	ret	0
_R_StudioDrawAbsBBox ENDP
_TEXT	ENDS
; Function compile flags: /Odtp
; File c:\users\user\downloads\xash_build4529_src\engine\client\gl_studio.c
_TEXT	SEGMENT
_lv$ = -148						; size = 4
tv198 = -144						; size = 4
_alpha$ = -140						; size = 4
tv154 = -136						; size = 4
tv139 = -132						; size = 4
tv92 = -128						; size = 4
_pbbox$1 = -124						; size = 4
_i$ = -120						; size = 4
_j$ = -116						; size = 4
_p$2 = -112						; size = 96
_tmp$3 = -16						; size = 12
__$ArrayPad$ = -4					; size = 4
_R_StudioDrawHulls PROC

; 2450 : {

	push	ebp
	mov	ebp, esp
	sub	esp, 148				; 00000094H
	mov	eax, DWORD PTR ___security_cookie
	xor	eax, ebp
	mov	DWORD PTR __$ArrayPad$[ebp], eax

; 2451 : 	float	alpha, lv;
; 2452 : 	int	i, j;
; 2453 : 
; 2454 : 	if( r_drawentities->value == 4 )

	mov	eax, DWORD PTR _r_drawentities
	movss	xmm0, DWORD PTR [eax+12]
	ucomiss	xmm0, DWORD PTR __real@40800000
	lahf
	test	ah, 68					; 00000044H
	jp	SHORT $LN11@R_StudioDr

; 2455 : 		alpha = 0.5f;

	movss	xmm0, DWORD PTR __real@3f000000
	movss	DWORD PTR _alpha$[ebp], xmm0
	jmp	SHORT $LN12@R_StudioDr
$LN11@R_StudioDr:

; 2456 : 	else alpha = 1.0f;

	movss	xmm0, DWORD PTR __real@3f800000
	movss	DWORD PTR _alpha$[ebp], xmm0
$LN12@R_StudioDr:

; 2457 : 
; 2458 : 	GL_Bind( GL_TEXTURE0, tr.whiteTexture );

	mov	ecx, DWORD PTR _tr+8
	push	ecx
	push	0
	call	_GL_Bind

; 2459 : 	pglTexEnvf( GL_TEXTURE_ENV, GL_TEXTURE_ENV_MODE, GL_MODULATE );

	add	esp, 4
	movss	xmm0, DWORD PTR __real@46040000
	movss	DWORD PTR [esp], xmm0
	push	8704					; 00002200H
	push	8960					; 00002300H
	call	DWORD PTR _pglTexEnvf

; 2460 : 
; 2461 : 	for( i = 0; i < m_pStudioHeader->numhitboxes; i++ )

	mov	DWORD PTR _i$[ebp], 0
	jmp	SHORT $LN4@R_StudioDr
$LN2@R_StudioDr:
	mov	edx, DWORD PTR _i$[ebp]
	add	edx, 1
	mov	DWORD PTR _i$[ebp], edx
$LN4@R_StudioDr:
	mov	eax, DWORD PTR _m_pStudioHeader
	mov	ecx, DWORD PTR _i$[ebp]
	cmp	ecx, DWORD PTR [eax+156]
	jge	$LN3@R_StudioDr

; 2462 : 	{
; 2463 : 		mstudiobbox_t	*pbbox = (mstudiobbox_t *)((byte *)m_pStudioHeader + m_pStudioHeader->hitboxindex);

	mov	edx, DWORD PTR _m_pStudioHeader
	mov	eax, DWORD PTR _m_pStudioHeader
	add	eax, DWORD PTR [edx+160]
	mov	DWORD PTR _pbbox$1[ebp], eax

; 2464 : 		vec3_t		tmp, p[8];
; 2465 : 
; 2466 : 		for( j = 0; j < 8; j++ )

	mov	DWORD PTR _j$[ebp], 0
	jmp	SHORT $LN7@R_StudioDr
$LN5@R_StudioDr:
	mov	ecx, DWORD PTR _j$[ebp]
	add	ecx, 1
	mov	DWORD PTR _j$[ebp], ecx
$LN7@R_StudioDr:
	cmp	DWORD PTR _j$[ebp], 8
	jge	$LN6@R_StudioDr

; 2467 : 		{
; 2468 : 			tmp[0] = (j & 1) ? pbbox[i].bbmin[0] : pbbox[i].bbmax[0];

	mov	edx, DWORD PTR _j$[ebp]
	and	edx, 1
	je	SHORT $LN14@R_StudioDr
	mov	eax, DWORD PTR _i$[ebp]
	shl	eax, 5
	add	eax, DWORD PTR _pbbox$1[ebp]
	mov	ecx, 4
	imul	edx, ecx, 0
	movss	xmm0, DWORD PTR [eax+edx+8]
	movss	DWORD PTR tv92[ebp], xmm0
	jmp	SHORT $LN15@R_StudioDr
$LN14@R_StudioDr:
	mov	eax, DWORD PTR _i$[ebp]
	shl	eax, 5
	add	eax, DWORD PTR _pbbox$1[ebp]
	mov	ecx, 4
	imul	edx, ecx, 0
	movss	xmm0, DWORD PTR [eax+edx+20]
	movss	DWORD PTR tv92[ebp], xmm0
$LN15@R_StudioDr:
	mov	eax, 4
	imul	ecx, eax, 0
	movss	xmm0, DWORD PTR tv92[ebp]
	movss	DWORD PTR _tmp$3[ebp+ecx], xmm0

; 2469 : 			tmp[1] = (j & 2) ? pbbox[i].bbmin[1] : pbbox[i].bbmax[1];

	mov	edx, DWORD PTR _j$[ebp]
	and	edx, 2
	je	SHORT $LN16@R_StudioDr
	mov	eax, DWORD PTR _i$[ebp]
	shl	eax, 5
	add	eax, DWORD PTR _pbbox$1[ebp]
	mov	ecx, 4
	shl	ecx, 0
	movss	xmm0, DWORD PTR [eax+ecx+8]
	movss	DWORD PTR tv139[ebp], xmm0
	jmp	SHORT $LN17@R_StudioDr
$LN16@R_StudioDr:
	mov	edx, DWORD PTR _i$[ebp]
	shl	edx, 5
	add	edx, DWORD PTR _pbbox$1[ebp]
	mov	eax, 4
	shl	eax, 0
	movss	xmm0, DWORD PTR [edx+eax+20]
	movss	DWORD PTR tv139[ebp], xmm0
$LN17@R_StudioDr:
	mov	ecx, 4
	shl	ecx, 0
	movss	xmm0, DWORD PTR tv139[ebp]
	movss	DWORD PTR _tmp$3[ebp+ecx], xmm0

; 2470 : 			tmp[2] = (j & 4) ? pbbox[i].bbmin[2] : pbbox[i].bbmax[2];

	mov	edx, DWORD PTR _j$[ebp]
	and	edx, 4
	je	SHORT $LN18@R_StudioDr
	mov	eax, DWORD PTR _i$[ebp]
	shl	eax, 5
	add	eax, DWORD PTR _pbbox$1[ebp]
	mov	ecx, 4
	shl	ecx, 1
	movss	xmm0, DWORD PTR [eax+ecx+8]
	movss	DWORD PTR tv154[ebp], xmm0
	jmp	SHORT $LN19@R_StudioDr
$LN18@R_StudioDr:
	mov	edx, DWORD PTR _i$[ebp]
	shl	edx, 5
	add	edx, DWORD PTR _pbbox$1[ebp]
	mov	eax, 4
	shl	eax, 1
	movss	xmm0, DWORD PTR [edx+eax+20]
	movss	DWORD PTR tv154[ebp], xmm0
$LN19@R_StudioDr:
	mov	ecx, 4
	shl	ecx, 1
	movss	xmm0, DWORD PTR tv154[ebp]
	movss	DWORD PTR _tmp$3[ebp+ecx], xmm0

; 2471 : 
; 2472 : 			Matrix3x4_VectorTransform( g_studio.bonestransform[pbbox[i].bone], tmp, p[j] );

	imul	edx, DWORD PTR _j$[ebp], 12
	lea	eax, DWORD PTR _p$2[ebp+edx]
	push	eax
	lea	ecx, DWORD PTR _tmp$3[ebp]
	push	ecx
	mov	edx, DWORD PTR _i$[ebp]
	shl	edx, 5
	mov	eax, DWORD PTR _pbbox$1[ebp]
	imul	ecx, DWORD PTR [eax+edx], 48
	add	ecx, OFFSET _g_studio+80
	push	ecx
	call	_Matrix3x4_VectorTransform
	add	esp, 12					; 0000000cH

; 2473 : 		}

	jmp	$LN5@R_StudioDr
$LN6@R_StudioDr:

; 2474 : 
; 2475 : 		j = (pbbox[i].group % 8);

	mov	edx, DWORD PTR _i$[ebp]
	shl	edx, 5
	mov	eax, DWORD PTR _pbbox$1[ebp]
	mov	ecx, DWORD PTR [eax+edx+4]
	and	ecx, -2147483641			; 80000007H
	jns	SHORT $LN22@R_StudioDr
	dec	ecx
	or	ecx, -8					; fffffff8H
	inc	ecx
$LN22@R_StudioDr:
	mov	DWORD PTR _j$[ebp], ecx

; 2476 : 
; 2477 : 		TriBegin( TRI_QUADS );

	push	2
	call	_TriBegin

; 2478 : 		TriColor4f( hullcolor[j][0], hullcolor[j][1], hullcolor[j][2], alpha );

	movss	xmm0, DWORD PTR _alpha$[ebp]
	movss	DWORD PTR [esp], xmm0
	imul	edx, DWORD PTR _j$[ebp], 12
	mov	eax, 4
	shl	eax, 1
	push	ecx
	movss	xmm0, DWORD PTR _hullcolor[edx+eax]
	movss	DWORD PTR [esp], xmm0
	imul	ecx, DWORD PTR _j$[ebp], 12
	mov	edx, 4
	shl	edx, 0
	push	ecx
	movss	xmm0, DWORD PTR _hullcolor[ecx+edx]
	movss	DWORD PTR [esp], xmm0
	imul	eax, DWORD PTR _j$[ebp], 12
	mov	ecx, 4
	imul	edx, ecx, 0
	push	ecx
	movss	xmm0, DWORD PTR _hullcolor[eax+edx]
	movss	DWORD PTR [esp], xmm0
	call	_TriColor4f
	add	esp, 16					; 00000010H

; 2479 : 
; 2480 : 		for( j = 0; j < 6; j++ )

	mov	DWORD PTR _j$[ebp], 0
	jmp	SHORT $LN10@R_StudioDr
$LN8@R_StudioDr:
	mov	eax, DWORD PTR _j$[ebp]
	add	eax, 1
	mov	DWORD PTR _j$[ebp], eax
$LN10@R_StudioDr:
	cmp	DWORD PTR _j$[ebp], 6
	jge	$LN9@R_StudioDr

; 2481 : 		{
; 2482 : 			VectorClear( tmp );

	mov	ecx, 4
	shl	ecx, 1
	xorps	xmm0, xmm0
	movss	DWORD PTR _tmp$3[ebp+ecx], xmm0
	mov	edx, 4
	shl	edx, 0
	xorps	xmm0, xmm0
	movss	DWORD PTR _tmp$3[ebp+edx], xmm0
	mov	eax, 4
	imul	ecx, eax, 0
	xorps	xmm0, xmm0
	movss	DWORD PTR _tmp$3[ebp+ecx], xmm0

; 2483 : 			tmp[j % 3] = (j < 3) ? 1.0f : -1.0f;

	cmp	DWORD PTR _j$[ebp], 3
	jge	SHORT $LN20@R_StudioDr
	movss	xmm0, DWORD PTR __real@3f800000
	movss	DWORD PTR tv198[ebp], xmm0
	jmp	SHORT $LN21@R_StudioDr
$LN20@R_StudioDr:
	movss	xmm0, DWORD PTR __real@bf800000
	movss	DWORD PTR tv198[ebp], xmm0
$LN21@R_StudioDr:
	mov	eax, DWORD PTR _j$[ebp]
	cdq
	mov	ecx, 3
	idiv	ecx
	movss	xmm0, DWORD PTR tv198[ebp]
	movss	DWORD PTR _tmp$3[ebp+edx*4], xmm0

; 2484 : 			R_StudioLighting( &lv, pbbox[i].bone, 0, tmp );

	lea	edx, DWORD PTR _tmp$3[ebp]
	push	edx
	push	0
	mov	eax, DWORD PTR _i$[ebp]
	shl	eax, 5
	mov	ecx, DWORD PTR _pbbox$1[ebp]
	mov	edx, DWORD PTR [ecx+eax]
	push	edx
	lea	eax, DWORD PTR _lv$[ebp]
	push	eax
	call	_R_StudioLighting

; 2485 : 
; 2486 : 			TriBrightness( lv );

	add	esp, 12					; 0000000cH
	movss	xmm0, DWORD PTR _lv$[ebp]
	movss	DWORD PTR [esp], xmm0
	call	_TriBrightness
	add	esp, 4

; 2487 : 			TriVertex3fv( p[boxpnt[j][0]] );

	mov	ecx, DWORD PTR _j$[ebp]
	shl	ecx, 4
	mov	edx, 4
	imul	eax, edx, 0
	imul	ecx, DWORD PTR _boxpnt[ecx+eax], 12
	lea	edx, DWORD PTR _p$2[ebp+ecx]
	push	edx
	call	_TriVertex3fv
	add	esp, 4

; 2488 : 			TriVertex3fv( p[boxpnt[j][1]] );

	mov	eax, DWORD PTR _j$[ebp]
	shl	eax, 4
	mov	ecx, 4
	shl	ecx, 0
	imul	edx, DWORD PTR _boxpnt[eax+ecx], 12
	lea	eax, DWORD PTR _p$2[ebp+edx]
	push	eax
	call	_TriVertex3fv
	add	esp, 4

; 2489 : 			TriVertex3fv( p[boxpnt[j][2]] );

	mov	ecx, DWORD PTR _j$[ebp]
	shl	ecx, 4
	mov	edx, 4
	shl	edx, 1
	imul	eax, DWORD PTR _boxpnt[ecx+edx], 12
	lea	ecx, DWORD PTR _p$2[ebp+eax]
	push	ecx
	call	_TriVertex3fv
	add	esp, 4

; 2490 : 			TriVertex3fv( p[boxpnt[j][3]] );

	mov	edx, DWORD PTR _j$[ebp]
	shl	edx, 4
	mov	eax, 4
	imul	ecx, eax, 3
	imul	edx, DWORD PTR _boxpnt[edx+ecx], 12
	lea	eax, DWORD PTR _p$2[ebp+edx]
	push	eax
	call	_TriVertex3fv
	add	esp, 4

; 2491 : 		}

	jmp	$LN8@R_StudioDr
$LN9@R_StudioDr:

; 2492 : 		TriEnd();

	call	_TriEnd

; 2493 : 	}

	jmp	$LN2@R_StudioDr
$LN3@R_StudioDr:

; 2494 : }

	mov	ecx, DWORD PTR __$ArrayPad$[ebp]
	xor	ecx, ebp
	call	@__security_check_cookie@4
	mov	esp, ebp
	pop	ebp
	ret	0
_R_StudioDrawHulls ENDP
_TEXT	ENDS
; Function compile flags: /Odtp
; File c:\users\user\downloads\xash_build4529_src\engine\client\gl_studio.c
_TEXT	SEGMENT
_oldblend$1 = -152					; size = 4
tv319 = -148						; size = 4
_pnormweight$2 = -144					; size = 4
_pvertweight$3 = -140					; size = 4
_s$4 = -136						; size = 4
_t$5 = -132						; size = 4
_shellscale$ = -128					; size = 4
_need_sort$ = -124					; size = 4
tv215 = -120						; size = 4
_m_skinnum$ = -116					; size = 4
tv78 = -112						; size = 4
tv77 = -108						; size = 4
_ptricmds$6 = -104					; size = 4
_pvertbone$ = -100					; size = 4
_ptexture$ = -96					; size = 4
_lv_tmp$ = -92						; size = 4
_factor$7 = -88						; size = 4
_pstudioverts$ = -84					; size = 4
_pskinref$ = -80					; size = 4
_pnormbone$ = -76					; size = 4
_pmesh$ = -72						; size = 4
_pstudionorms$ = -68					; size = 4
_j$ = -64						; size = 4
_k$ = -60						; size = 4
_i$ = -56						; size = 4
_skinMat$8 = -52					; size = 48
__$ArrayPad$ = -4					; size = 4
_R_StudioDrawPoints PROC

; 2275 : {

	push	ebp
	mov	ebp, esp
	sub	esp, 152				; 00000098H
	mov	eax, DWORD PTR ___security_cookie
	xor	eax, ebp
	mov	DWORD PTR __$ArrayPad$[ebp], eax

; 2276 : 	int		i, j, k, m_skinnum;
; 2277 : 	float		shellscale = 0.0f;

	xorps	xmm0, xmm0
	movss	DWORD PTR _shellscale$[ebp], xmm0

; 2278 : 	qboolean		need_sort = false;

	mov	DWORD PTR _need_sort$[ebp], 0

; 2279 : 	byte		*pvertbone;
; 2280 : 	byte		*pnormbone;
; 2281 : 	vec3_t		*pstudioverts;
; 2282 : 	vec3_t		*pstudionorms;
; 2283 : 	mstudiotexture_t	*ptexture;
; 2284 : 	mstudiomesh_t	*pmesh;
; 2285 : 	short		*pskinref;
; 2286 : 	float		lv_tmp;
; 2287 : 
; 2288 : 	if( !m_pStudioHeader ) return;

	cmp	DWORD PTR _m_pStudioHeader, 0
	jne	SHORT $LN23@R_StudioDr
	jmp	$LN21@R_StudioDr
$LN23@R_StudioDr:

; 2289 : 
; 2290 : 	// safety bounding the skinnum
; 2291 : 	m_skinnum = bound( 0, RI.currententity->curstate.skin, ( m_pStudioHeader->numskinfamilies - 1 ));	    

	mov	eax, DWORD PTR _RI+28
	movsx	ecx, WORD PTR [eax+744]
	test	ecx, ecx
	jl	SHORT $LN52@R_StudioDr
	mov	edx, DWORD PTR _RI+28
	movsx	eax, WORD PTR [edx+744]
	mov	ecx, DWORD PTR _m_pStudioHeader
	mov	edx, DWORD PTR [ecx+196]
	sub	edx, 1
	cmp	eax, edx
	jge	SHORT $LN50@R_StudioDr
	mov	eax, DWORD PTR _RI+28
	movsx	ecx, WORD PTR [eax+744]
	mov	DWORD PTR tv77[ebp], ecx
	jmp	SHORT $LN51@R_StudioDr
$LN50@R_StudioDr:
	mov	edx, DWORD PTR _m_pStudioHeader
	mov	eax, DWORD PTR [edx+196]
	sub	eax, 1
	mov	DWORD PTR tv77[ebp], eax
$LN51@R_StudioDr:
	mov	ecx, DWORD PTR tv77[ebp]
	mov	DWORD PTR tv78[ebp], ecx
	jmp	SHORT $LN53@R_StudioDr
$LN52@R_StudioDr:
	mov	DWORD PTR tv78[ebp], 0
$LN53@R_StudioDr:
	mov	edx, DWORD PTR tv78[ebp]
	mov	DWORD PTR _m_skinnum$[ebp], edx

; 2292 : 	ptexture = (mstudiotexture_t *)((byte *)m_pStudioHeader + m_pStudioHeader->textureindex);

	mov	eax, DWORD PTR _m_pStudioHeader
	mov	ecx, DWORD PTR _m_pStudioHeader
	add	ecx, DWORD PTR [eax+184]
	mov	DWORD PTR _ptexture$[ebp], ecx

; 2293 : 	pvertbone = ((byte *)m_pStudioHeader + m_pSubModel->vertinfoindex);

	mov	edx, DWORD PTR _m_pSubModel
	mov	eax, DWORD PTR _m_pStudioHeader
	add	eax, DWORD PTR [edx+84]
	mov	DWORD PTR _pvertbone$[ebp], eax

; 2294 : 	pnormbone = ((byte *)m_pStudioHeader + m_pSubModel->norminfoindex);

	mov	ecx, DWORD PTR _m_pSubModel
	mov	edx, DWORD PTR _m_pStudioHeader
	add	edx, DWORD PTR [ecx+96]
	mov	DWORD PTR _pnormbone$[ebp], edx

; 2295 : 
; 2296 : 	pmesh = (mstudiomesh_t *)((byte *)m_pStudioHeader + m_pSubModel->meshindex);

	mov	eax, DWORD PTR _m_pSubModel
	mov	ecx, DWORD PTR _m_pStudioHeader
	add	ecx, DWORD PTR [eax+76]
	mov	DWORD PTR _pmesh$[ebp], ecx

; 2297 : 	pstudioverts = (vec3_t *)((byte *)m_pStudioHeader + m_pSubModel->vertindex);

	mov	edx, DWORD PTR _m_pSubModel
	mov	eax, DWORD PTR _m_pStudioHeader
	add	eax, DWORD PTR [edx+88]
	mov	DWORD PTR _pstudioverts$[ebp], eax

; 2298 : 	pstudionorms = (vec3_t *)((byte *)m_pStudioHeader + m_pSubModel->normindex);

	mov	ecx, DWORD PTR _m_pSubModel
	mov	edx, DWORD PTR _m_pStudioHeader
	add	edx, DWORD PTR [ecx+100]
	mov	DWORD PTR _pstudionorms$[ebp], edx

; 2299 : 
; 2300 : 	pskinref = (short *)((byte *)m_pStudioHeader + m_pStudioHeader->skinindex);

	mov	eax, DWORD PTR _m_pStudioHeader
	mov	ecx, DWORD PTR _m_pStudioHeader
	add	ecx, DWORD PTR [eax+200]
	mov	DWORD PTR _pskinref$[ebp], ecx

; 2301 : 	if( m_skinnum != 0 ) pskinref += (m_skinnum * m_pStudioHeader->numskinref);

	cmp	DWORD PTR _m_skinnum$[ebp], 0
	je	SHORT $LN24@R_StudioDr
	mov	edx, DWORD PTR _m_pStudioHeader
	mov	eax, DWORD PTR _m_skinnum$[ebp]
	imul	eax, DWORD PTR [edx+192]
	mov	ecx, DWORD PTR _pskinref$[ebp]
	lea	edx, DWORD PTR [ecx+eax*2]
	mov	DWORD PTR _pskinref$[ebp], edx
$LN24@R_StudioDr:

; 2302 : 
; 2303 : 	if( FBitSet( m_pStudioHeader->flags, STUDIO_HAS_BONEWEIGHTS ) && m_pSubModel->blendvertinfoindex != 0 && m_pSubModel->blendnorminfoindex != 0 )

	mov	eax, DWORD PTR _m_pStudioHeader
	mov	ecx, DWORD PTR [eax+136]
	and	ecx, -2147483648			; 80000000H
	je	$LN25@R_StudioDr
	mov	edx, DWORD PTR _m_pSubModel
	cmp	DWORD PTR [edx+104], 0
	je	$LN25@R_StudioDr
	mov	eax, DWORD PTR _m_pSubModel
	cmp	DWORD PTR [eax+108], 0
	je	$LN25@R_StudioDr

; 2304 : 	{
; 2305 : 		mstudioboneweight_t	*pvertweight = (mstudioboneweight_t *)((byte *)m_pStudioHeader + m_pSubModel->blendvertinfoindex);

	mov	ecx, DWORD PTR _m_pSubModel
	mov	edx, DWORD PTR _m_pStudioHeader
	add	edx, DWORD PTR [ecx+104]
	mov	DWORD PTR _pvertweight$3[ebp], edx

; 2306 : 		mstudioboneweight_t	*pnormweight = (mstudioboneweight_t *)((byte *)m_pStudioHeader + m_pSubModel->blendnorminfoindex);

	mov	eax, DWORD PTR _m_pSubModel
	mov	ecx, DWORD PTR _m_pStudioHeader
	add	ecx, DWORD PTR [eax+108]
	mov	DWORD PTR _pnormweight$2[ebp], ecx

; 2307 : 		matrix3x4		skinMat;
; 2308 : 
; 2309 : 		for( i = 0; i < m_pSubModel->numverts; i++ )

	mov	DWORD PTR _i$[ebp], 0
	jmp	SHORT $LN4@R_StudioDr
$LN2@R_StudioDr:
	mov	edx, DWORD PTR _i$[ebp]
	add	edx, 1
	mov	DWORD PTR _i$[ebp], edx
$LN4@R_StudioDr:
	mov	eax, DWORD PTR _m_pSubModel
	mov	ecx, DWORD PTR _i$[ebp]
	cmp	ecx, DWORD PTR [eax+80]
	jge	SHORT $LN3@R_StudioDr

; 2310 : 		{
; 2311 : 			R_StudioComputeSkinMatrix( &pvertweight[i], skinMat );

	lea	edx, DWORD PTR _skinMat$8[ebp]
	push	edx
	mov	eax, DWORD PTR _i$[ebp]
	mov	ecx, DWORD PTR _pvertweight$3[ebp]
	lea	edx, DWORD PTR [ecx+eax*8]
	push	edx
	call	_R_StudioComputeSkinMatrix
	add	esp, 8

; 2312 : 			Matrix3x4_VectorTransform( skinMat, pstudioverts[i], g_studio.verts[i] );

	imul	eax, DWORD PTR _i$[ebp], 12
	add	eax, OFFSET _g_studio+36948
	push	eax
	imul	ecx, DWORD PTR _i$[ebp], 12
	add	ecx, DWORD PTR _pstudioverts$[ebp]
	push	ecx
	lea	edx, DWORD PTR _skinMat$8[ebp]
	push	edx
	call	_Matrix3x4_VectorTransform
	add	esp, 12					; 0000000cH

; 2313 : 			R_LightStrength( pvertbone[i], pstudioverts[i], g_studio.lightpos[i] );

	mov	eax, DWORD PTR _i$[ebp]
	shl	eax, 6
	add	eax, OFFSET _g_studio+829100
	push	eax
	imul	ecx, DWORD PTR _i$[ebp], 12
	add	ecx, DWORD PTR _pstudioverts$[ebp]
	push	ecx
	mov	edx, DWORD PTR _pvertbone$[ebp]
	add	edx, DWORD PTR _i$[ebp]
	movzx	eax, BYTE PTR [edx]
	push	eax
	call	_R_LightStrength
	add	esp, 12					; 0000000cH

; 2314 : 		}

	jmp	SHORT $LN2@R_StudioDr
$LN3@R_StudioDr:

; 2315 : 
; 2316 : 		for( i = 0; i < m_pSubModel->numnorms; i++ )

	mov	DWORD PTR _i$[ebp], 0
	jmp	SHORT $LN7@R_StudioDr
$LN5@R_StudioDr:
	mov	ecx, DWORD PTR _i$[ebp]
	add	ecx, 1
	mov	DWORD PTR _i$[ebp], ecx
$LN7@R_StudioDr:
	mov	edx, DWORD PTR _m_pSubModel
	mov	eax, DWORD PTR _i$[ebp]
	cmp	eax, DWORD PTR [edx+92]
	jge	SHORT $LN6@R_StudioDr

; 2317 : 		{
; 2318 : 			R_StudioComputeSkinMatrix( &pnormweight[i], skinMat );

	lea	ecx, DWORD PTR _skinMat$8[ebp]
	push	ecx
	mov	edx, DWORD PTR _i$[ebp]
	mov	eax, DWORD PTR _pnormweight$2[ebp]
	lea	ecx, DWORD PTR [eax+edx*8]
	push	ecx
	call	_R_StudioComputeSkinMatrix
	add	esp, 8

; 2319 : 			Matrix3x4_VectorRotate( skinMat, pstudionorms[i], g_studio.norms[i] );

	imul	edx, DWORD PTR _i$[ebp], 12
	add	edx, OFFSET _g_studio+233556
	push	edx
	imul	eax, DWORD PTR _i$[ebp], 12
	add	eax, DWORD PTR _pstudionorms$[ebp]
	push	eax
	lea	ecx, DWORD PTR _skinMat$8[ebp]
	push	ecx
	call	_Matrix3x4_VectorRotate
	add	esp, 12					; 0000000cH

; 2320 : 		}

	jmp	SHORT $LN5@R_StudioDr
$LN6@R_StudioDr:

; 2321 : 	}

	jmp	SHORT $LN9@R_StudioDr
$LN25@R_StudioDr:

; 2322 : 	else
; 2323 : 	{
; 2324 : 		for( i = 0; i < m_pSubModel->numverts; i++ )

	mov	DWORD PTR _i$[ebp], 0
	jmp	SHORT $LN10@R_StudioDr
$LN8@R_StudioDr:
	mov	edx, DWORD PTR _i$[ebp]
	add	edx, 1
	mov	DWORD PTR _i$[ebp], edx
$LN10@R_StudioDr:
	mov	eax, DWORD PTR _m_pSubModel
	mov	ecx, DWORD PTR _i$[ebp]
	cmp	ecx, DWORD PTR [eax+80]
	jge	SHORT $LN9@R_StudioDr

; 2325 : 		{
; 2326 : 			Matrix3x4_VectorTransform( g_studio.bonestransform[pvertbone[i]], pstudioverts[i], g_studio.verts[i] );

	imul	edx, DWORD PTR _i$[ebp], 12
	add	edx, OFFSET _g_studio+36948
	push	edx
	imul	eax, DWORD PTR _i$[ebp], 12
	add	eax, DWORD PTR _pstudioverts$[ebp]
	push	eax
	mov	ecx, DWORD PTR _pvertbone$[ebp]
	add	ecx, DWORD PTR _i$[ebp]
	movzx	edx, BYTE PTR [ecx]
	imul	eax, edx, 48
	add	eax, OFFSET _g_studio+80
	push	eax
	call	_Matrix3x4_VectorTransform
	add	esp, 12					; 0000000cH

; 2327 : 			R_LightStrength( pvertbone[i], pstudioverts[i], g_studio.lightpos[i] );

	mov	ecx, DWORD PTR _i$[ebp]
	shl	ecx, 6
	add	ecx, OFFSET _g_studio+829100
	push	ecx
	imul	edx, DWORD PTR _i$[ebp], 12
	add	edx, DWORD PTR _pstudioverts$[ebp]
	push	edx
	mov	eax, DWORD PTR _pvertbone$[ebp]
	add	eax, DWORD PTR _i$[ebp]
	movzx	ecx, BYTE PTR [eax]
	push	ecx
	call	_R_LightStrength
	add	esp, 12					; 0000000cH

; 2328 : 		}

	jmp	SHORT $LN8@R_StudioDr
$LN9@R_StudioDr:

; 2329 : 	}
; 2330 : 
; 2331 : 	// generate shared normals for properly scaling glowing shell
; 2332 : 	if( RI.currententity->curstate.renderfx == kRenderFxGlowShell )

	mov	edx, DWORD PTR _RI+28
	cmp	DWORD PTR [edx+772], 19			; 00000013H
	jne	SHORT $LN27@R_StudioDr

; 2333 : 	{
; 2334 : 		float factor = (1.0f / 128.0f);

	movss	xmm0, DWORD PTR __real@3c000000
	movss	DWORD PTR _factor$7[ebp], xmm0

; 2335 : 		shellscale = Q_max( factor, RI.currententity->curstate.renderamt * factor );

	mov	eax, DWORD PTR _RI+28
	cvtsi2ss xmm0, DWORD PTR [eax+764]
	mulss	xmm0, DWORD PTR _factor$7[ebp]
	movss	xmm1, DWORD PTR _factor$7[ebp]
	comiss	xmm1, xmm0
	jbe	SHORT $LN54@R_StudioDr
	movss	xmm0, DWORD PTR _factor$7[ebp]
	movss	DWORD PTR tv215[ebp], xmm0
	jmp	SHORT $LN55@R_StudioDr
$LN54@R_StudioDr:
	mov	ecx, DWORD PTR _RI+28
	cvtsi2ss xmm0, DWORD PTR [ecx+764]
	mulss	xmm0, DWORD PTR _factor$7[ebp]
	movss	DWORD PTR tv215[ebp], xmm0
$LN55@R_StudioDr:
	movss	xmm0, DWORD PTR tv215[ebp]
	movss	DWORD PTR _shellscale$[ebp], xmm0

; 2336 : 		R_StudioBuildNormalTable();

	call	_R_StudioBuildNormalTable

; 2337 : 		R_StudioGenerateNormals();

	call	_R_StudioGenerateNormals
$LN27@R_StudioDr:

; 2338 : 	}
; 2339 : 
; 2340 : 	for( j = k = 0; j < m_pSubModel->nummesh; j++ ) 

	mov	DWORD PTR _k$[ebp], 0
	mov	edx, DWORD PTR _k$[ebp]
	mov	DWORD PTR _j$[ebp], edx
	jmp	SHORT $LN13@R_StudioDr
$LN11@R_StudioDr:
	mov	eax, DWORD PTR _j$[ebp]
	add	eax, 1
	mov	DWORD PTR _j$[ebp], eax
$LN13@R_StudioDr:
	mov	ecx, DWORD PTR _m_pSubModel
	mov	edx, DWORD PTR _j$[ebp]
	cmp	edx, DWORD PTR [ecx+72]
	jge	$LN12@R_StudioDr

; 2341 : 	{
; 2342 : 		g_nFaceFlags = ptexture[pskinref[pmesh[j].skinref]].flags | g_nForceFaceFlags;

	imul	eax, DWORD PTR _j$[ebp], 20
	mov	ecx, DWORD PTR _pmesh$[ebp]
	mov	edx, DWORD PTR [ecx+eax+8]
	mov	eax, DWORD PTR _pskinref$[ebp]
	movsx	ecx, WORD PTR [eax+edx*2]
	imul	edx, ecx, 80
	mov	eax, DWORD PTR _ptexture$[ebp]
	mov	ecx, DWORD PTR [eax+edx+64]
	or	ecx, DWORD PTR _g_nForceFaceFlags
	mov	DWORD PTR _g_nFaceFlags, ecx

; 2343 : 
; 2344 : 		// fill in sortedmesh info
; 2345 : 		g_studio.meshes[j].flags = g_nFaceFlags;

	mov	edx, DWORD PTR _j$[ebp]
	mov	eax, DWORD PTR _g_nFaceFlags
	mov	DWORD PTR _g_studio[edx*8+34904], eax

; 2346 : 		g_studio.meshes[j].mesh = &pmesh[j];

	imul	ecx, DWORD PTR _j$[ebp], 20
	add	ecx, DWORD PTR _pmesh$[ebp]
	mov	edx, DWORD PTR _j$[ebp]
	mov	DWORD PTR _g_studio[edx*8+34900], ecx

; 2347 : 
; 2348 : 		if( FBitSet( g_nFaceFlags, STUDIO_NF_MASKED|STUDIO_NF_ADDITIVE ))

	mov	eax, DWORD PTR _g_nFaceFlags
	and	eax, 96					; 00000060H
	je	SHORT $LN28@R_StudioDr

; 2349 : 			need_sort = true;

	mov	DWORD PTR _need_sort$[ebp], 1
$LN28@R_StudioDr:

; 2350 : 
; 2351 : 		if( RI.currententity->curstate.rendermode == kRenderTransAdd )

	mov	ecx, DWORD PTR _RI+28
	cmp	DWORD PTR [ecx+760], 5
	jne	$LN29@R_StudioDr

; 2352 : 		{
; 2353 : 			for( i = 0; i < pmesh[j].numnorms; i++, k++, pstudionorms++, pnormbone++ )

	mov	DWORD PTR _i$[ebp], 0
	jmp	SHORT $LN16@R_StudioDr
$LN14@R_StudioDr:
	mov	edx, DWORD PTR _i$[ebp]
	add	edx, 1
	mov	DWORD PTR _i$[ebp], edx
	mov	eax, DWORD PTR _k$[ebp]
	add	eax, 1
	mov	DWORD PTR _k$[ebp], eax
	mov	ecx, DWORD PTR _pstudionorms$[ebp]
	add	ecx, 12					; 0000000cH
	mov	DWORD PTR _pstudionorms$[ebp], ecx
	mov	edx, DWORD PTR _pnormbone$[ebp]
	add	edx, 1
	mov	DWORD PTR _pnormbone$[ebp], edx
$LN16@R_StudioDr:
	imul	eax, DWORD PTR _j$[ebp], 20
	mov	ecx, DWORD PTR _pmesh$[ebp]
	mov	edx, DWORD PTR _i$[ebp]
	cmp	edx, DWORD PTR [ecx+eax+12]
	jge	$LN15@R_StudioDr

; 2354 : 			{
; 2355 : 				if( FBitSet( g_nFaceFlags, STUDIO_NF_CHROME ))

	mov	eax, DWORD PTR _g_nFaceFlags
	and	eax, 2
	je	SHORT $LN31@R_StudioDr

; 2356 : 					R_StudioSetupChrome( g_studio.chrome[k], *pnormbone, (float *)pstudionorms );

	mov	ecx, DWORD PTR _pstudionorms$[ebp]
	push	ecx
	mov	edx, DWORD PTR _pnormbone$[ebp]
	movzx	eax, BYTE PTR [edx]
	push	eax
	mov	ecx, DWORD PTR _k$[ebp]
	lea	edx, DWORD PTR _g_studio[ecx*8+628364]
	push	edx
	call	_R_StudioSetupChrome
	add	esp, 12					; 0000000cH
$LN31@R_StudioDr:

; 2357 : 				VectorSet( g_studio.lightvalues[k], tr.blend, tr.blend, tr.blend );

	imul	eax, DWORD PTR _k$[ebp], 12
	mov	ecx, 4
	imul	edx, ecx, 0
	movss	xmm0, DWORD PTR _tr+66976
	movss	DWORD PTR _g_studio[eax+edx+431744], xmm0
	imul	eax, DWORD PTR _k$[ebp], 12
	mov	ecx, 4
	shl	ecx, 0
	movss	xmm0, DWORD PTR _tr+66976
	movss	DWORD PTR _g_studio[eax+ecx+431744], xmm0
	imul	edx, DWORD PTR _k$[ebp], 12
	mov	eax, 4
	shl	eax, 1
	movss	xmm0, DWORD PTR _tr+66976
	movss	DWORD PTR _g_studio[edx+eax+431744], xmm0

; 2358 : 			}

	jmp	$LN14@R_StudioDr
$LN15@R_StudioDr:

; 2359 : 		}

	jmp	$LN18@R_StudioDr
$LN29@R_StudioDr:

; 2360 : 		else
; 2361 : 		{
; 2362 : 			for( i = 0; i < pmesh[j].numnorms; i++, k++, pstudionorms++, pnormbone++ )

	mov	DWORD PTR _i$[ebp], 0
	jmp	SHORT $LN19@R_StudioDr
$LN17@R_StudioDr:
	mov	ecx, DWORD PTR _i$[ebp]
	add	ecx, 1
	mov	DWORD PTR _i$[ebp], ecx
	mov	edx, DWORD PTR _k$[ebp]
	add	edx, 1
	mov	DWORD PTR _k$[ebp], edx
	mov	eax, DWORD PTR _pstudionorms$[ebp]
	add	eax, 12					; 0000000cH
	mov	DWORD PTR _pstudionorms$[ebp], eax
	mov	ecx, DWORD PTR _pnormbone$[ebp]
	add	ecx, 1
	mov	DWORD PTR _pnormbone$[ebp], ecx
$LN19@R_StudioDr:
	imul	edx, DWORD PTR _j$[ebp], 20
	mov	eax, DWORD PTR _pmesh$[ebp]
	mov	ecx, DWORD PTR _i$[ebp]
	cmp	ecx, DWORD PTR [eax+edx+12]
	jge	$LN18@R_StudioDr

; 2363 : 			{
; 2364 : 				if( FBitSet( m_pStudioHeader->flags, STUDIO_HAS_BONEWEIGHTS ))

	mov	edx, DWORD PTR _m_pStudioHeader
	mov	eax, DWORD PTR [edx+136]
	and	eax, -2147483648			; 80000000H
	je	SHORT $LN32@R_StudioDr

; 2365 : 					R_StudioLighting( &lv_tmp, -1, g_nFaceFlags, g_studio.norms[k] );

	imul	ecx, DWORD PTR _k$[ebp], 12
	add	ecx, OFFSET _g_studio+233556
	push	ecx
	mov	edx, DWORD PTR _g_nFaceFlags
	push	edx
	push	-1
	lea	eax, DWORD PTR _lv_tmp$[ebp]
	push	eax
	call	_R_StudioLighting
	add	esp, 16					; 00000010H
	jmp	SHORT $LN33@R_StudioDr
$LN32@R_StudioDr:

; 2366 : 				else R_StudioLighting( &lv_tmp, *pnormbone, g_nFaceFlags, (float *)pstudionorms );

	mov	ecx, DWORD PTR _pstudionorms$[ebp]
	push	ecx
	mov	edx, DWORD PTR _g_nFaceFlags
	push	edx
	mov	eax, DWORD PTR _pnormbone$[ebp]
	movzx	ecx, BYTE PTR [eax]
	push	ecx
	lea	edx, DWORD PTR _lv_tmp$[ebp]
	push	edx
	call	_R_StudioLighting
	add	esp, 16					; 00000010H
$LN33@R_StudioDr:

; 2367 : 
; 2368 : 				if( FBitSet( g_nFaceFlags, STUDIO_NF_CHROME ))

	mov	eax, DWORD PTR _g_nFaceFlags
	and	eax, 2
	je	SHORT $LN34@R_StudioDr

; 2369 : 					R_StudioSetupChrome( g_studio.chrome[k], *pnormbone, (float *)pstudionorms );

	mov	ecx, DWORD PTR _pstudionorms$[ebp]
	push	ecx
	mov	edx, DWORD PTR _pnormbone$[ebp]
	movzx	eax, BYTE PTR [edx]
	push	eax
	mov	ecx, DWORD PTR _k$[ebp]
	lea	edx, DWORD PTR _g_studio[ecx*8+628364]
	push	edx
	call	_R_StudioSetupChrome
	add	esp, 12					; 0000000cH
$LN34@R_StudioDr:

; 2370 : 				VectorScale( g_studio.lightcolor, lv_tmp, g_studio.lightvalues[k] );

	mov	eax, 4
	imul	ecx, eax, 0
	movss	xmm0, DWORD PTR _g_studio[ecx+430196]
	mulss	xmm0, DWORD PTR _lv_tmp$[ebp]
	imul	edx, DWORD PTR _k$[ebp], 12
	mov	eax, 4
	imul	ecx, eax, 0
	movss	DWORD PTR _g_studio[edx+ecx+431744], xmm0
	mov	edx, 4
	shl	edx, 0
	movss	xmm0, DWORD PTR _g_studio[edx+430196]
	mulss	xmm0, DWORD PTR _lv_tmp$[ebp]
	imul	eax, DWORD PTR _k$[ebp], 12
	mov	ecx, 4
	shl	ecx, 0
	movss	DWORD PTR _g_studio[eax+ecx+431744], xmm0
	mov	edx, 4
	shl	edx, 1
	movss	xmm0, DWORD PTR _g_studio[edx+430196]
	mulss	xmm0, DWORD PTR _lv_tmp$[ebp]
	movss	DWORD PTR tv319[ebp], xmm0
	imul	eax, DWORD PTR _k$[ebp], 12
	mov	ecx, 4
	shl	ecx, 1
	movss	xmm0, DWORD PTR tv319[ebp]
	movss	DWORD PTR _g_studio[eax+ecx+431744], xmm0

; 2371 : 			}

	jmp	$LN17@R_StudioDr
$LN18@R_StudioDr:

; 2372 : 		}
; 2373 : 	}

	jmp	$LN11@R_StudioDr
$LN12@R_StudioDr:

; 2374 : 
; 2375 : 	if( r_studio_sort_textures->value && need_sort )

	mov	edx, DWORD PTR _r_studio_sort_textures
	movss	xmm0, DWORD PTR [edx+12]
	ucomiss	xmm0, DWORD PTR __real@00000000
	lahf
	test	ah, 68					; 00000044H
	jnp	SHORT $LN35@R_StudioDr
	cmp	DWORD PTR _need_sort$[ebp], 0
	je	SHORT $LN35@R_StudioDr

; 2376 : 	{
; 2377 : 		// resort opaque and translucent meshes draw order
; 2378 : 		qsort( g_studio.meshes, m_pSubModel->nummesh, sizeof( sortedmesh_t ), R_StudioMeshCompare );

	push	OFFSET _R_StudioMeshCompare
	push	8
	mov	eax, DWORD PTR _m_pSubModel
	mov	ecx, DWORD PTR [eax+72]
	push	ecx
	push	OFFSET _g_studio+34900
	call	DWORD PTR __imp__qsort
	add	esp, 16					; 00000010H
$LN35@R_StudioDr:

; 2379 : 	}
; 2380 : 
; 2381 : 	// NOTE: rewind normals at start
; 2382 : 	pstudionorms = (vec3_t *)((byte *)m_pStudioHeader + m_pSubModel->normindex);

	mov	edx, DWORD PTR _m_pSubModel
	mov	eax, DWORD PTR _m_pStudioHeader
	add	eax, DWORD PTR [edx+100]
	mov	DWORD PTR _pstudionorms$[ebp], eax

; 2383 : 
; 2384 : 	for( j = 0; j < m_pSubModel->nummesh; j++ ) 

	mov	DWORD PTR _j$[ebp], 0
	jmp	SHORT $LN22@R_StudioDr
$LN20@R_StudioDr:
	mov	ecx, DWORD PTR _j$[ebp]
	add	ecx, 1
	mov	DWORD PTR _j$[ebp], ecx
$LN22@R_StudioDr:
	mov	edx, DWORD PTR _m_pSubModel
	mov	eax, DWORD PTR _j$[ebp]
	cmp	eax, DWORD PTR [edx+72]
	jge	$LN21@R_StudioDr

; 2385 : 	{
; 2386 : 		float	oldblend = tr.blend;

	movss	xmm0, DWORD PTR _tr+66976
	movss	DWORD PTR _oldblend$1[ebp], xmm0

; 2387 : 		short	*ptricmds;
; 2388 : 		float	s, t;
; 2389 : 
; 2390 : 		pmesh = g_studio.meshes[j].mesh;

	mov	ecx, DWORD PTR _j$[ebp]
	mov	edx, DWORD PTR _g_studio[ecx*8+34900]
	mov	DWORD PTR _pmesh$[ebp], edx

; 2391 : 		ptricmds = (short *)((byte *)m_pStudioHeader + pmesh->triindex);

	mov	eax, DWORD PTR _pmesh$[ebp]
	mov	ecx, DWORD PTR _m_pStudioHeader
	add	ecx, DWORD PTR [eax+4]
	mov	DWORD PTR _ptricmds$6[ebp], ecx

; 2392 : 
; 2393 : 		g_nFaceFlags = ptexture[pskinref[pmesh->skinref]].flags | g_nForceFaceFlags;

	mov	edx, DWORD PTR _pmesh$[ebp]
	mov	eax, DWORD PTR [edx+8]
	mov	ecx, DWORD PTR _pskinref$[ebp]
	movsx	edx, WORD PTR [ecx+eax*2]
	imul	eax, edx, 80
	mov	ecx, DWORD PTR _ptexture$[ebp]
	mov	edx, DWORD PTR [ecx+eax+64]
	or	edx, DWORD PTR _g_nForceFaceFlags
	mov	DWORD PTR _g_nFaceFlags, edx

; 2394 : 
; 2395 : 		s = 1.0f / (float)ptexture[pskinref[pmesh->skinref]].width;

	mov	eax, DWORD PTR _pmesh$[ebp]
	mov	ecx, DWORD PTR [eax+8]
	mov	edx, DWORD PTR _pskinref$[ebp]
	movsx	eax, WORD PTR [edx+ecx*2]
	imul	ecx, eax, 80
	mov	edx, DWORD PTR _ptexture$[ebp]
	cvtsi2ss xmm0, DWORD PTR [edx+ecx+68]
	movss	xmm1, DWORD PTR __real@3f800000
	divss	xmm1, xmm0
	movss	DWORD PTR _s$4[ebp], xmm1

; 2396 : 		t = 1.0f / (float)ptexture[pskinref[pmesh->skinref]].height;

	mov	eax, DWORD PTR _pmesh$[ebp]
	mov	ecx, DWORD PTR [eax+8]
	mov	edx, DWORD PTR _pskinref$[ebp]
	movsx	eax, WORD PTR [edx+ecx*2]
	imul	ecx, eax, 80
	mov	edx, DWORD PTR _ptexture$[ebp]
	cvtsi2ss xmm0, DWORD PTR [edx+ecx+72]
	movss	xmm1, DWORD PTR __real@3f800000
	divss	xmm1, xmm0
	movss	DWORD PTR _t$5[ebp], xmm1

; 2397 : 
; 2398 : 		if( FBitSet( g_nFaceFlags, STUDIO_NF_MASKED ))

	mov	eax, DWORD PTR _g_nFaceFlags
	and	eax, 64					; 00000040H
	je	SHORT $LN36@R_StudioDr

; 2399 : 		{
; 2400 : 			pglEnable( GL_ALPHA_TEST );

	push	3008					; 00000bc0H
	call	DWORD PTR _pglEnable

; 2401 : 			pglAlphaFunc( GL_GREATER, 0.5f );

	push	ecx
	movss	xmm0, DWORD PTR __real@3f000000
	movss	DWORD PTR [esp], xmm0
	push	516					; 00000204H
	call	DWORD PTR _pglAlphaFunc

; 2402 : 			pglDepthMask( GL_TRUE );

	push	1
	call	DWORD PTR _pglDepthMask

; 2403 : 			if( R_ModelOpaque( RI.currententity->curstate.rendermode ))

	mov	ecx, DWORD PTR _RI+28
	cmp	DWORD PTR [ecx+760], 0
	jne	SHORT $LN38@R_StudioDr

; 2404 : 				tr.blend = 1.0f;

	movss	xmm0, DWORD PTR __real@3f800000
	movss	DWORD PTR _tr+66976, xmm0
$LN38@R_StudioDr:

; 2405 : 		}

	jmp	SHORT $LN41@R_StudioDr
$LN36@R_StudioDr:

; 2406 : 		else if( FBitSet( g_nFaceFlags, STUDIO_NF_ADDITIVE ))

	mov	edx, DWORD PTR _g_nFaceFlags
	and	edx, 32					; 00000020H
	je	SHORT $LN41@R_StudioDr

; 2407 : 		{
; 2408 : 			if( R_ModelOpaque( RI.currententity->curstate.rendermode ))

	mov	eax, DWORD PTR _RI+28
	cmp	DWORD PTR [eax+760], 0
	jne	SHORT $LN40@R_StudioDr

; 2409 : 			{
; 2410 : 				pglBlendFunc( GL_ONE, GL_ONE );

	push	1
	push	1
	call	DWORD PTR _pglBlendFunc

; 2411 : 				pglDepthMask( GL_FALSE );

	push	0
	call	DWORD PTR _pglDepthMask

; 2412 : 				pglEnable( GL_BLEND );

	push	3042					; 00000be2H
	call	DWORD PTR _pglEnable

; 2413 : 				R_AllowFog( false );

	push	0
	call	_R_AllowFog
	add	esp, 4

; 2414 : 			}

	jmp	SHORT $LN41@R_StudioDr
$LN40@R_StudioDr:

; 2415 : 			else pglBlendFunc( GL_SRC_ALPHA, GL_ONE );

	push	1
	push	770					; 00000302H
	call	DWORD PTR _pglBlendFunc
$LN41@R_StudioDr:

; 2416 : 		}
; 2417 : 
; 2418 : 		R_StudioSetupSkin( m_pStudioHeader, pskinref[pmesh->skinref] );

	mov	ecx, DWORD PTR _pmesh$[ebp]
	mov	edx, DWORD PTR [ecx+8]
	mov	eax, DWORD PTR _pskinref$[ebp]
	movsx	ecx, WORD PTR [eax+edx*2]
	push	ecx
	mov	edx, DWORD PTR _m_pStudioHeader
	push	edx
	call	_R_StudioSetupSkin
	add	esp, 8

; 2419 : 
; 2420 : 		if( FBitSet( g_nFaceFlags, STUDIO_NF_CHROME ))

	mov	eax, DWORD PTR _g_nFaceFlags
	and	eax, 2
	je	SHORT $LN42@R_StudioDr

; 2421 : 			R_StudioDrawChromeMesh( ptricmds, pstudionorms, s, t, shellscale );

	push	ecx
	movss	xmm0, DWORD PTR _shellscale$[ebp]
	movss	DWORD PTR [esp], xmm0
	push	ecx
	movss	xmm0, DWORD PTR _t$5[ebp]
	movss	DWORD PTR [esp], xmm0
	push	ecx
	movss	xmm0, DWORD PTR _s$4[ebp]
	movss	DWORD PTR [esp], xmm0
	mov	ecx, DWORD PTR _pstudionorms$[ebp]
	push	ecx
	mov	edx, DWORD PTR _ptricmds$6[ebp]
	push	edx
	call	_R_StudioDrawChromeMesh
	add	esp, 20					; 00000014H
	jmp	SHORT $LN45@R_StudioDr
$LN42@R_StudioDr:

; 2422 : 		else if( FBitSet( g_nFaceFlags, STUDIO_NF_UV_COORDS ))

	mov	eax, DWORD PTR _g_nFaceFlags
	and	eax, -2147483648			; 80000000H
	je	SHORT $LN44@R_StudioDr

; 2423 : 			R_StudioDrawFloatMesh( ptricmds, pstudionorms );

	mov	ecx, DWORD PTR _pstudionorms$[ebp]
	push	ecx
	mov	edx, DWORD PTR _ptricmds$6[ebp]
	push	edx
	call	_R_StudioDrawFloatMesh
	add	esp, 8
	jmp	SHORT $LN45@R_StudioDr
$LN44@R_StudioDr:

; 2424 : 		else R_StudioDrawNormalMesh( ptricmds, pstudionorms, s, t );

	push	ecx
	movss	xmm0, DWORD PTR _t$5[ebp]
	movss	DWORD PTR [esp], xmm0
	push	ecx
	movss	xmm0, DWORD PTR _s$4[ebp]
	movss	DWORD PTR [esp], xmm0
	mov	eax, DWORD PTR _pstudionorms$[ebp]
	push	eax
	mov	ecx, DWORD PTR _ptricmds$6[ebp]
	push	ecx
	call	_R_StudioDrawNormalMesh
	add	esp, 16					; 00000010H
$LN45@R_StudioDr:

; 2425 : 
; 2426 : 		if( FBitSet( g_nFaceFlags, STUDIO_NF_MASKED ))

	mov	edx, DWORD PTR _g_nFaceFlags
	and	edx, 64					; 00000040H
	je	SHORT $LN46@R_StudioDr

; 2427 : 		{
; 2428 : 			pglAlphaFunc( GL_GREATER, DEFAULT_ALPHATEST );

	push	ecx
	xorps	xmm0, xmm0
	movss	DWORD PTR [esp], xmm0
	push	516					; 00000204H
	call	DWORD PTR _pglAlphaFunc

; 2429 : 			pglDisable( GL_ALPHA_TEST );

	push	3008					; 00000bc0H
	call	DWORD PTR _pglDisable

; 2430 : 		}

	jmp	SHORT $LN48@R_StudioDr
$LN46@R_StudioDr:

; 2431 : 		else if( FBitSet( g_nFaceFlags, STUDIO_NF_ADDITIVE ) && R_ModelOpaque( RI.currententity->curstate.rendermode ))

	mov	eax, DWORD PTR _g_nFaceFlags
	and	eax, 32					; 00000020H
	je	SHORT $LN48@R_StudioDr
	mov	ecx, DWORD PTR _RI+28
	cmp	DWORD PTR [ecx+760], 0
	jne	SHORT $LN48@R_StudioDr

; 2432 : 		{
; 2433 : 			pglDepthMask( GL_TRUE );

	push	1
	call	DWORD PTR _pglDepthMask

; 2434 : 			pglDisable( GL_BLEND );

	push	3042					; 00000be2H
	call	DWORD PTR _pglDisable

; 2435 : 			R_AllowFog( true );

	push	1
	call	_R_AllowFog
	add	esp, 4
$LN48@R_StudioDr:

; 2436 : 		}
; 2437 : 
; 2438 : 		r_stats.c_studio_polys += pmesh->numtris;

	mov	edx, DWORD PTR _pmesh$[ebp]
	mov	eax, DWORD PTR _r_stats+4
	add	eax, DWORD PTR [edx]
	mov	DWORD PTR _r_stats+4, eax

; 2439 : 		tr.blend = oldblend;

	movss	xmm0, DWORD PTR _oldblend$1[ebp]
	movss	DWORD PTR _tr+66976, xmm0

; 2440 : 	}

	jmp	$LN20@R_StudioDr
$LN21@R_StudioDr:

; 2441 : }

	mov	ecx, DWORD PTR __$ArrayPad$[ebp]
	xor	ecx, ebp
	call	@__security_check_cookie@4
	mov	esp, ebp
	pop	ebp
	ret	0
_R_StudioDrawPoints ENDP
_TEXT	ENDS
; Function compile flags: /Odtp
; File c:\users\user\downloads\xash_build4529_src\engine\client\gl_studio.c
_TEXT	SEGMENT
tv148 = -48						; size = 4
_glowShell$ = -44					; size = 4
tv69 = -40						; size = 4
tv65 = -36						; size = 4
_av$ = -32						; size = 4
_idx$ = -28						; size = 4
_i$ = -24						; size = 4
_lv$ = -20						; size = 4
_vert$ = -16						; size = 12
__$ArrayPad$ = -4					; size = 4
_ptricmds$ = 8						; size = 4
_pstudionorms$ = 12					; size = 4
_s$ = 16						; size = 4
_t$ = 20						; size = 4
_scale$ = 24						; size = 4
_R_StudioDrawChromeMesh PROC

; 2226 : {

	push	ebp
	mov	ebp, esp
	sub	esp, 48					; 00000030H
	mov	eax, DWORD PTR ___security_cookie
	xor	eax, ebp
	mov	DWORD PTR __$ArrayPad$[ebp], eax

; 2227 : 	float	*lv, *av;
; 2228 : 	int	i, idx;
; 2229 : 	qboolean	glowShell = (scale > 0.0f) ? true : false;

	movss	xmm0, DWORD PTR _scale$[ebp]
	comiss	xmm0, DWORD PTR __real@00000000
	jbe	SHORT $LN14@R_StudioDr
	mov	DWORD PTR tv65[ebp], 1
	jmp	SHORT $LN15@R_StudioDr
$LN14@R_StudioDr:
	mov	DWORD PTR tv65[ebp], 0
$LN15@R_StudioDr:
	mov	eax, DWORD PTR tv65[ebp]
	mov	DWORD PTR _glowShell$[ebp], eax
$LN2@R_StudioDr:

; 2230 : 	vec3_t	vert;
; 2231 : 
; 2232 : 	while( i = *( ptricmds++ ))

	mov	ecx, DWORD PTR _ptricmds$[ebp]
	movsx	edx, WORD PTR [ecx]
	mov	DWORD PTR _i$[ebp], edx
	mov	eax, DWORD PTR _i$[ebp]
	mov	DWORD PTR tv69[ebp], eax
	mov	ecx, DWORD PTR _ptricmds$[ebp]
	add	ecx, 2
	mov	DWORD PTR _ptricmds$[ebp], ecx
	cmp	DWORD PTR tv69[ebp], 0
	je	$LN3@R_StudioDr

; 2233 : 	{
; 2234 : 		if( i < 0 )

	cmp	DWORD PTR _i$[ebp], 0
	jge	SHORT $LN7@R_StudioDr

; 2235 : 		{
; 2236 : 			pglBegin( GL_TRIANGLE_FAN );

	push	6
	call	DWORD PTR _pglBegin

; 2237 : 			i = -i;

	mov	edx, DWORD PTR _i$[ebp]
	neg	edx
	mov	DWORD PTR _i$[ebp], edx

; 2238 : 		}

	jmp	SHORT $LN8@R_StudioDr
$LN7@R_StudioDr:

; 2239 : 		else pglBegin( GL_TRIANGLE_STRIP );

	push	5
	call	DWORD PTR _pglBegin
$LN8@R_StudioDr:

; 2240 : 
; 2241 : 		for( ; i > 0; i--, ptricmds += 4 )

	jmp	SHORT $LN6@R_StudioDr
$LN4@R_StudioDr:
	mov	eax, DWORD PTR _i$[ebp]
	sub	eax, 1
	mov	DWORD PTR _i$[ebp], eax
	mov	ecx, DWORD PTR _ptricmds$[ebp]
	add	ecx, 8
	mov	DWORD PTR _ptricmds$[ebp], ecx
$LN6@R_StudioDr:
	cmp	DWORD PTR _i$[ebp], 0
	jle	$LN5@R_StudioDr

; 2242 : 		{
; 2243 : 			if( glowShell )

	cmp	DWORD PTR _glowShell$[ebp], 0
	je	$LN9@R_StudioDr

; 2244 : 			{
; 2245 : 				idx = g_studio.normaltable[ptricmds[0]];

	mov	edx, 2
	imul	eax, edx, 0
	mov	ecx, DWORD PTR _ptricmds$[ebp]
	movsx	edx, WORD PTR [ecx+eax]
	mov	eax, DWORD PTR _g_studio[edx*4+763020]
	mov	DWORD PTR _idx$[ebp], eax

; 2246 : 				av = g_studio.verts[ptricmds[0]];

	mov	ecx, 2
	imul	edx, ecx, 0
	mov	eax, DWORD PTR _ptricmds$[ebp]
	movsx	ecx, WORD PTR [eax+edx]
	imul	edx, ecx, 12
	add	edx, OFFSET _g_studio+36948
	mov	DWORD PTR _av$[ebp], edx

; 2247 : 				lv = g_studio.norms[ptricmds[0]];

	mov	eax, 2
	imul	ecx, eax, 0
	mov	edx, DWORD PTR _ptricmds$[ebp]
	movsx	eax, WORD PTR [edx+ecx]
	imul	ecx, eax, 12
	add	ecx, OFFSET _g_studio+233556
	mov	DWORD PTR _lv$[ebp], ecx

; 2248 : 				VectorMA( av, scale, lv, vert );

	mov	edx, 4
	imul	eax, edx, 0
	mov	ecx, 4
	imul	edx, ecx, 0
	mov	ecx, DWORD PTR _lv$[ebp]
	movss	xmm0, DWORD PTR _scale$[ebp]
	mulss	xmm0, DWORD PTR [ecx+edx]
	mov	edx, DWORD PTR _av$[ebp]
	addss	xmm0, DWORD PTR [edx+eax]
	mov	eax, 4
	imul	ecx, eax, 0
	movss	DWORD PTR _vert$[ebp+ecx], xmm0
	mov	edx, 4
	shl	edx, 0
	mov	eax, 4
	shl	eax, 0
	mov	ecx, DWORD PTR _lv$[ebp]
	movss	xmm0, DWORD PTR _scale$[ebp]
	mulss	xmm0, DWORD PTR [ecx+eax]
	mov	eax, DWORD PTR _av$[ebp]
	addss	xmm0, DWORD PTR [eax+edx]
	mov	ecx, 4
	shl	ecx, 0
	movss	DWORD PTR _vert$[ebp+ecx], xmm0
	mov	edx, 4
	shl	edx, 1
	mov	eax, 4
	shl	eax, 1
	mov	ecx, DWORD PTR _lv$[ebp]
	movss	xmm0, DWORD PTR _scale$[ebp]
	mulss	xmm0, DWORD PTR [ecx+eax]
	mov	eax, DWORD PTR _av$[ebp]
	movss	xmm1, DWORD PTR [eax+edx]
	addss	xmm1, xmm0
	movss	DWORD PTR tv148[ebp], xmm1
	mov	ecx, 4
	shl	ecx, 1
	movss	xmm0, DWORD PTR tv148[ebp]
	movss	DWORD PTR _vert$[ebp+ecx], xmm0

; 2249 : 				pglTexCoord2f( g_studio.chrome[idx][0] * s, g_studio.chrome[idx][1] * t );

	mov	edx, 4
	shl	edx, 0
	mov	eax, DWORD PTR _idx$[ebp]
	movss	xmm0, DWORD PTR _g_studio[edx+eax*8+628364]
	mulss	xmm0, DWORD PTR _t$[ebp]
	push	ecx
	movss	DWORD PTR [esp], xmm0
	mov	ecx, 4
	imul	edx, ecx, 0
	mov	eax, DWORD PTR _idx$[ebp]
	movss	xmm0, DWORD PTR _g_studio[edx+eax*8+628364]
	mulss	xmm0, DWORD PTR _s$[ebp]
	push	ecx
	movss	DWORD PTR [esp], xmm0
	call	DWORD PTR _pglTexCoord2f

; 2250 : 				pglVertex3fv( vert );

	lea	ecx, DWORD PTR _vert$[ebp]
	push	ecx
	call	DWORD PTR _pglVertex3fv

; 2251 : 			}

	jmp	$LN10@R_StudioDr
$LN9@R_StudioDr:

; 2252 : 			else
; 2253 : 			{
; 2254 : 				idx = ptricmds[1];

	mov	edx, 2
	shl	edx, 0
	mov	eax, DWORD PTR _ptricmds$[ebp]
	movsx	ecx, WORD PTR [eax+edx]
	mov	DWORD PTR _idx$[ebp], ecx

; 2255 : 				lv = (float *)g_studio.lightvalues[ptricmds[1]];

	mov	edx, 2
	shl	edx, 0
	mov	eax, DWORD PTR _ptricmds$[ebp]
	movsx	ecx, WORD PTR [eax+edx]
	imul	edx, ecx, 12
	add	edx, OFFSET _g_studio+431744
	mov	DWORD PTR _lv$[ebp], edx

; 2256 : 				if( g_studio.numlocallights )

	cmp	DWORD PTR _g_studio+828556, 0
	je	SHORT $LN11@R_StudioDr

; 2257 : 					R_LightLambert( g_studio.lightpos[ptricmds[0]], pstudionorms[ptricmds[1]], lv );

	mov	eax, DWORD PTR _lv$[ebp]
	push	eax
	mov	ecx, 2
	shl	ecx, 0
	mov	edx, DWORD PTR _ptricmds$[ebp]
	movsx	eax, WORD PTR [edx+ecx]
	imul	ecx, eax, 12
	add	ecx, DWORD PTR _pstudionorms$[ebp]
	push	ecx
	mov	edx, 2
	imul	eax, edx, 0
	mov	ecx, DWORD PTR _ptricmds$[ebp]
	movsx	edx, WORD PTR [ecx+eax]
	shl	edx, 6
	add	edx, OFFSET _g_studio+829100
	push	edx
	call	_R_LightLambert
	add	esp, 12					; 0000000cH
	jmp	SHORT $LN12@R_StudioDr
$LN11@R_StudioDr:

; 2258 : 				else pglColor4f( lv[0], lv[1], lv[2], tr.blend );

	push	ecx
	movss	xmm0, DWORD PTR _tr+66976
	movss	DWORD PTR [esp], xmm0
	mov	eax, 4
	shl	eax, 1
	mov	ecx, DWORD PTR _lv$[ebp]
	push	ecx
	movss	xmm0, DWORD PTR [ecx+eax]
	movss	DWORD PTR [esp], xmm0
	mov	edx, 4
	shl	edx, 0
	mov	eax, DWORD PTR _lv$[ebp]
	push	ecx
	movss	xmm0, DWORD PTR [eax+edx]
	movss	DWORD PTR [esp], xmm0
	mov	ecx, 4
	imul	edx, ecx, 0
	mov	eax, DWORD PTR _lv$[ebp]
	push	ecx
	movss	xmm0, DWORD PTR [eax+edx]
	movss	DWORD PTR [esp], xmm0
	call	DWORD PTR _pglColor4f
$LN12@R_StudioDr:

; 2259 : 				pglTexCoord2f( g_studio.chrome[idx][0] * s, g_studio.chrome[idx][1] * t );

	mov	ecx, 4
	shl	ecx, 0
	mov	edx, DWORD PTR _idx$[ebp]
	movss	xmm0, DWORD PTR _g_studio[ecx+edx*8+628364]
	mulss	xmm0, DWORD PTR _t$[ebp]
	push	ecx
	movss	DWORD PTR [esp], xmm0
	mov	eax, 4
	imul	ecx, eax, 0
	mov	edx, DWORD PTR _idx$[ebp]
	movss	xmm0, DWORD PTR _g_studio[ecx+edx*8+628364]
	mulss	xmm0, DWORD PTR _s$[ebp]
	push	ecx
	movss	DWORD PTR [esp], xmm0
	call	DWORD PTR _pglTexCoord2f

; 2260 : 				pglVertex3fv( g_studio.verts[ptricmds[0]] );

	mov	eax, 2
	imul	ecx, eax, 0
	mov	edx, DWORD PTR _ptricmds$[ebp]
	movsx	eax, WORD PTR [edx+ecx]
	imul	ecx, eax, 12
	add	ecx, OFFSET _g_studio+36948
	push	ecx
	call	DWORD PTR _pglVertex3fv
$LN10@R_StudioDr:

; 2261 : 			}
; 2262 : 		}

	jmp	$LN4@R_StudioDr
$LN5@R_StudioDr:

; 2263 : 
; 2264 : 		pglEnd();

	call	DWORD PTR _pglEnd

; 2265 : 	}

	jmp	$LN2@R_StudioDr
$LN3@R_StudioDr:

; 2266 : }

	mov	ecx, DWORD PTR __$ArrayPad$[ebp]
	xor	ecx, ebp
	call	@__security_check_cookie@4
	mov	esp, ebp
	pop	ebp
	ret	0
_R_StudioDrawChromeMesh ENDP
_TEXT	ENDS
; Function compile flags: /Odtp
; File c:\users\user\downloads\xash_build4529_src\engine\client\gl_studio.c
_TEXT	SEGMENT
tv67 = -12						; size = 4
_lv$ = -8						; size = 4
_i$ = -4						; size = 4
_ptricmds$ = 8						; size = 4
_pstudionorms$ = 12					; size = 4
_R_StudioDrawFloatMesh PROC

; 2191 : {

	push	ebp
	mov	ebp, esp
	sub	esp, 12					; 0000000cH
$LN2@R_StudioDr:

; 2192 : 	float	*lv;
; 2193 : 	int	i;
; 2194 : 
; 2195 : 	while( i = *( ptricmds++ ))

	mov	eax, DWORD PTR _ptricmds$[ebp]
	movsx	ecx, WORD PTR [eax]
	mov	DWORD PTR _i$[ebp], ecx
	mov	edx, DWORD PTR _i$[ebp]
	mov	DWORD PTR tv67[ebp], edx
	mov	eax, DWORD PTR _ptricmds$[ebp]
	add	eax, 2
	mov	DWORD PTR _ptricmds$[ebp], eax
	cmp	DWORD PTR tv67[ebp], 0
	je	$LN3@R_StudioDr

; 2196 : 	{
; 2197 : 		if( i < 0 )

	cmp	DWORD PTR _i$[ebp], 0
	jge	SHORT $LN7@R_StudioDr

; 2198 : 		{
; 2199 : 			pglBegin( GL_TRIANGLE_FAN );

	push	6
	call	DWORD PTR _pglBegin

; 2200 : 			i = -i;

	mov	ecx, DWORD PTR _i$[ebp]
	neg	ecx
	mov	DWORD PTR _i$[ebp], ecx

; 2201 : 		}

	jmp	SHORT $LN8@R_StudioDr
$LN7@R_StudioDr:

; 2202 : 		else pglBegin( GL_TRIANGLE_STRIP );

	push	5
	call	DWORD PTR _pglBegin
$LN8@R_StudioDr:

; 2203 : 
; 2204 : 		for( ; i > 0; i--, ptricmds += 4 )

	jmp	SHORT $LN6@R_StudioDr
$LN4@R_StudioDr:
	mov	edx, DWORD PTR _i$[ebp]
	sub	edx, 1
	mov	DWORD PTR _i$[ebp], edx
	mov	eax, DWORD PTR _ptricmds$[ebp]
	add	eax, 8
	mov	DWORD PTR _ptricmds$[ebp], eax
$LN6@R_StudioDr:
	cmp	DWORD PTR _i$[ebp], 0
	jle	$LN5@R_StudioDr

; 2205 : 		{
; 2206 : 			lv = (float *)g_studio.lightvalues[ptricmds[1]];

	mov	ecx, 2
	shl	ecx, 0
	mov	edx, DWORD PTR _ptricmds$[ebp]
	movsx	eax, WORD PTR [edx+ecx]
	imul	ecx, eax, 12
	add	ecx, OFFSET _g_studio+431744
	mov	DWORD PTR _lv$[ebp], ecx

; 2207 : 			if( g_studio.numlocallights )

	cmp	DWORD PTR _g_studio+828556, 0
	je	SHORT $LN9@R_StudioDr

; 2208 : 				R_LightLambert( g_studio.lightpos[ptricmds[0]], pstudionorms[ptricmds[1]], lv );

	mov	edx, DWORD PTR _lv$[ebp]
	push	edx
	mov	eax, 2
	shl	eax, 0
	mov	ecx, DWORD PTR _ptricmds$[ebp]
	movsx	edx, WORD PTR [ecx+eax]
	imul	eax, edx, 12
	add	eax, DWORD PTR _pstudionorms$[ebp]
	push	eax
	mov	ecx, 2
	imul	edx, ecx, 0
	mov	eax, DWORD PTR _ptricmds$[ebp]
	movsx	ecx, WORD PTR [eax+edx]
	shl	ecx, 6
	add	ecx, OFFSET _g_studio+829100
	push	ecx
	call	_R_LightLambert
	add	esp, 12					; 0000000cH
	jmp	SHORT $LN10@R_StudioDr
$LN9@R_StudioDr:

; 2209 : 			else pglColor4f( lv[0], lv[1], lv[2], tr.blend );

	push	ecx
	movss	xmm0, DWORD PTR _tr+66976
	movss	DWORD PTR [esp], xmm0
	mov	edx, 4
	shl	edx, 1
	mov	eax, DWORD PTR _lv$[ebp]
	push	ecx
	movss	xmm0, DWORD PTR [eax+edx]
	movss	DWORD PTR [esp], xmm0
	mov	ecx, 4
	shl	ecx, 0
	mov	edx, DWORD PTR _lv$[ebp]
	push	ecx
	movss	xmm0, DWORD PTR [edx+ecx]
	movss	DWORD PTR [esp], xmm0
	mov	eax, 4
	imul	ecx, eax, 0
	mov	edx, DWORD PTR _lv$[ebp]
	push	ecx
	movss	xmm0, DWORD PTR [edx+ecx]
	movss	DWORD PTR [esp], xmm0
	call	DWORD PTR _pglColor4f
$LN10@R_StudioDr:

; 2210 : 			pglTexCoord2f( HalfToFloat( ptricmds[2] ), HalfToFloat( ptricmds[3] ));

	mov	eax, 2
	imul	ecx, eax, 3
	mov	edx, DWORD PTR _ptricmds$[ebp]
	movzx	eax, WORD PTR [edx+ecx]
	push	eax
	call	_HalfToFloat
	fstp	DWORD PTR [esp]
	mov	ecx, 2
	shl	ecx, 1
	mov	edx, DWORD PTR _ptricmds$[ebp]
	movzx	eax, WORD PTR [edx+ecx]
	push	eax
	call	_HalfToFloat
	fstp	DWORD PTR [esp]
	call	DWORD PTR _pglTexCoord2f

; 2211 : 			pglVertex3fv( g_studio.verts[ptricmds[0]] );

	mov	ecx, 2
	imul	edx, ecx, 0
	mov	eax, DWORD PTR _ptricmds$[ebp]
	movsx	ecx, WORD PTR [eax+edx]
	imul	edx, ecx, 12
	add	edx, OFFSET _g_studio+36948
	push	edx
	call	DWORD PTR _pglVertex3fv

; 2212 : 		}

	jmp	$LN4@R_StudioDr
$LN5@R_StudioDr:

; 2213 : 
; 2214 : 		pglEnd();

	call	DWORD PTR _pglEnd

; 2215 : 	}

	jmp	$LN2@R_StudioDr
$LN3@R_StudioDr:

; 2216 : }

	mov	esp, ebp
	pop	ebp
	ret	0
_R_StudioDrawFloatMesh ENDP
_TEXT	ENDS
; Function compile flags: /Odtp
; File c:\users\user\downloads\xash_build4529_src\engine\client\gl_studio.c
_TEXT	SEGMENT
tv67 = -12						; size = 4
_lv$ = -8						; size = 4
_i$ = -4						; size = 4
_ptricmds$ = 8						; size = 4
_pstudionorms$ = 12					; size = 4
_s$ = 16						; size = 4
_t$ = 20						; size = 4
_R_StudioDrawNormalMesh PROC

; 2155 : {

	push	ebp
	mov	ebp, esp
	sub	esp, 12					; 0000000cH
$LN2@R_StudioDr:

; 2156 : 	float	*lv;
; 2157 : 	int	i;
; 2158 : 
; 2159 : 	while( i = *( ptricmds++ ))

	mov	eax, DWORD PTR _ptricmds$[ebp]
	movsx	ecx, WORD PTR [eax]
	mov	DWORD PTR _i$[ebp], ecx
	mov	edx, DWORD PTR _i$[ebp]
	mov	DWORD PTR tv67[ebp], edx
	mov	eax, DWORD PTR _ptricmds$[ebp]
	add	eax, 2
	mov	DWORD PTR _ptricmds$[ebp], eax
	cmp	DWORD PTR tv67[ebp], 0
	je	$LN3@R_StudioDr

; 2160 : 	{
; 2161 : 		if( i < 0 )

	cmp	DWORD PTR _i$[ebp], 0
	jge	SHORT $LN7@R_StudioDr

; 2162 : 		{
; 2163 : 			pglBegin( GL_TRIANGLE_FAN );

	push	6
	call	DWORD PTR _pglBegin

; 2164 : 			i = -i;

	mov	ecx, DWORD PTR _i$[ebp]
	neg	ecx
	mov	DWORD PTR _i$[ebp], ecx

; 2165 : 		}

	jmp	SHORT $LN8@R_StudioDr
$LN7@R_StudioDr:

; 2166 : 		else pglBegin( GL_TRIANGLE_STRIP );

	push	5
	call	DWORD PTR _pglBegin
$LN8@R_StudioDr:

; 2167 : 
; 2168 : 		for( ; i > 0; i--, ptricmds += 4 )

	jmp	SHORT $LN6@R_StudioDr
$LN4@R_StudioDr:
	mov	edx, DWORD PTR _i$[ebp]
	sub	edx, 1
	mov	DWORD PTR _i$[ebp], edx
	mov	eax, DWORD PTR _ptricmds$[ebp]
	add	eax, 8
	mov	DWORD PTR _ptricmds$[ebp], eax
$LN6@R_StudioDr:
	cmp	DWORD PTR _i$[ebp], 0
	jle	$LN5@R_StudioDr

; 2169 : 		{
; 2170 : 			lv = (float *)g_studio.lightvalues[ptricmds[1]];

	mov	ecx, 2
	shl	ecx, 0
	mov	edx, DWORD PTR _ptricmds$[ebp]
	movsx	eax, WORD PTR [edx+ecx]
	imul	ecx, eax, 12
	add	ecx, OFFSET _g_studio+431744
	mov	DWORD PTR _lv$[ebp], ecx

; 2171 : 
; 2172 : 			if( g_studio.numlocallights )

	cmp	DWORD PTR _g_studio+828556, 0
	je	SHORT $LN9@R_StudioDr

; 2173 : 				R_LightLambert( g_studio.lightpos[ptricmds[0]], pstudionorms[ptricmds[1]], lv );

	mov	edx, DWORD PTR _lv$[ebp]
	push	edx
	mov	eax, 2
	shl	eax, 0
	mov	ecx, DWORD PTR _ptricmds$[ebp]
	movsx	edx, WORD PTR [ecx+eax]
	imul	eax, edx, 12
	add	eax, DWORD PTR _pstudionorms$[ebp]
	push	eax
	mov	ecx, 2
	imul	edx, ecx, 0
	mov	eax, DWORD PTR _ptricmds$[ebp]
	movsx	ecx, WORD PTR [eax+edx]
	shl	ecx, 6
	add	ecx, OFFSET _g_studio+829100
	push	ecx
	call	_R_LightLambert
	add	esp, 12					; 0000000cH
	jmp	SHORT $LN10@R_StudioDr
$LN9@R_StudioDr:

; 2174 : 			else pglColor4f( lv[0], lv[1], lv[2], tr.blend );

	push	ecx
	movss	xmm0, DWORD PTR _tr+66976
	movss	DWORD PTR [esp], xmm0
	mov	edx, 4
	shl	edx, 1
	mov	eax, DWORD PTR _lv$[ebp]
	push	ecx
	movss	xmm0, DWORD PTR [eax+edx]
	movss	DWORD PTR [esp], xmm0
	mov	ecx, 4
	shl	ecx, 0
	mov	edx, DWORD PTR _lv$[ebp]
	push	ecx
	movss	xmm0, DWORD PTR [edx+ecx]
	movss	DWORD PTR [esp], xmm0
	mov	eax, 4
	imul	ecx, eax, 0
	mov	edx, DWORD PTR _lv$[ebp]
	push	ecx
	movss	xmm0, DWORD PTR [edx+ecx]
	movss	DWORD PTR [esp], xmm0
	call	DWORD PTR _pglColor4f
$LN10@R_StudioDr:

; 2175 : 			pglTexCoord2f( ptricmds[2] * s, ptricmds[3] * t );

	mov	eax, 2
	imul	ecx, eax, 3
	mov	edx, DWORD PTR _ptricmds$[ebp]
	movsx	eax, WORD PTR [edx+ecx]
	cvtsi2ss xmm0, eax
	mulss	xmm0, DWORD PTR _t$[ebp]
	push	ecx
	movss	DWORD PTR [esp], xmm0
	mov	ecx, 2
	shl	ecx, 1
	mov	edx, DWORD PTR _ptricmds$[ebp]
	movsx	eax, WORD PTR [edx+ecx]
	cvtsi2ss xmm0, eax
	mulss	xmm0, DWORD PTR _s$[ebp]
	push	ecx
	movss	DWORD PTR [esp], xmm0
	call	DWORD PTR _pglTexCoord2f

; 2176 : 			pglVertex3fv( g_studio.verts[ptricmds[0]] );

	mov	ecx, 2
	imul	edx, ecx, 0
	mov	eax, DWORD PTR _ptricmds$[ebp]
	movsx	ecx, WORD PTR [eax+edx]
	imul	edx, ecx, 12
	add	edx, OFFSET _g_studio+36948
	push	edx
	call	DWORD PTR _pglVertex3fv

; 2177 : 		}

	jmp	$LN4@R_StudioDr
$LN5@R_StudioDr:

; 2178 : 
; 2179 : 		pglEnd();

	call	DWORD PTR _pglEnd

; 2180 : 	}

	jmp	$LN2@R_StudioDr
$LN3@R_StudioDr:

; 2181 : }

	mov	esp, ebp
	pop	ebp
	ret	0
_R_StudioDrawNormalMesh ENDP
_TEXT	ENDS
; Function compile flags: /Odtp
; File c:\users\user\downloads\xash_build4529_src\engine\client\gl_studio.c
_TEXT	SEGMENT
_a$ = 8							; size = 4
_b$ = 12						; size = 4
_R_StudioMeshCompare PROC

; 2137 : {

	push	ebp
	mov	ebp, esp

; 2138 : 	if( FBitSet( a->flags, STUDIO_NF_ADDITIVE ))

	mov	eax, DWORD PTR _a$[ebp]
	mov	ecx, DWORD PTR [eax+4]
	and	ecx, 32					; 00000020H
	je	SHORT $LN2@R_StudioMe

; 2139 : 		return 1;

	mov	eax, 1
	jmp	SHORT $LN1@R_StudioMe
$LN2@R_StudioMe:

; 2140 : 
; 2141 : 	if( FBitSet( a->flags, STUDIO_NF_MASKED ))

	mov	edx, DWORD PTR _a$[ebp]
	mov	eax, DWORD PTR [edx+4]
	and	eax, 64					; 00000040H
	je	SHORT $LN3@R_StudioMe

; 2142 : 		return -1;

	or	eax, -1
	jmp	SHORT $LN1@R_StudioMe
$LN3@R_StudioMe:

; 2143 : 
; 2144 : 	return 0;

	xor	eax, eax
$LN1@R_StudioMe:

; 2145 : }

	pop	ebp
	ret	0
_R_StudioMeshCompare ENDP
_TEXT	ENDS
; Function compile flags: /Odtp
; File c:\users\user\downloads\xash_build4529_src\engine\client\gl_studio.c
_TEXT	SEGMENT
_iSprite$ = 8						; size = 4
_p1$ = 12						; size = 4
_p2$ = 16						; size = 4
_p3$ = 20						; size = 4
_p4$ = 24						; size = 4
_R_StudioRenderShadow PROC

; 2105 : {

	push	ebp
	mov	ebp, esp

; 2106 : 	if( !p1 || !p2 || !p3 || !p4 )

	cmp	DWORD PTR _p1$[ebp], 0
	je	SHORT $LN3@R_StudioRe
	cmp	DWORD PTR _p2$[ebp], 0
	je	SHORT $LN3@R_StudioRe
	cmp	DWORD PTR _p3$[ebp], 0
	je	SHORT $LN3@R_StudioRe
	cmp	DWORD PTR _p4$[ebp], 0
	jne	SHORT $LN2@R_StudioRe
$LN3@R_StudioRe:

; 2107 : 		return;

	jmp	$LN4@R_StudioRe
$LN2@R_StudioRe:

; 2108 : 
; 2109 : 	if( TriSpriteTexture( CL_ModelHandle( iSprite ), 0 ))

	push	0
	mov	eax, DWORD PTR _iSprite$[ebp]
	push	eax
	call	_CL_ModelHandle
	add	esp, 4
	push	eax
	call	_TriSpriteTexture
	add	esp, 8
	test	eax, eax
	je	$LN4@R_StudioRe

; 2110 : 	{
; 2111 : 		TriRenderMode( kRenderTransAlpha );

	push	4
	call	_TriRenderMode

; 2112 : 		TriColor4f( 0.0f, 0.0f, 0.0f, 1.0f );

	movss	xmm0, DWORD PTR __real@3f800000
	movss	DWORD PTR [esp], xmm0
	push	ecx
	xorps	xmm0, xmm0
	movss	DWORD PTR [esp], xmm0
	push	ecx
	xorps	xmm0, xmm0
	movss	DWORD PTR [esp], xmm0
	push	ecx
	xorps	xmm0, xmm0
	movss	DWORD PTR [esp], xmm0
	call	_TriColor4f
	add	esp, 16					; 00000010H

; 2113 : 
; 2114 : 		pglBegin( GL_QUADS );

	push	7
	call	DWORD PTR _pglBegin

; 2115 : 			pglTexCoord2f( 0.0f, 0.0f );

	push	ecx
	xorps	xmm0, xmm0
	movss	DWORD PTR [esp], xmm0
	push	ecx
	xorps	xmm0, xmm0
	movss	DWORD PTR [esp], xmm0
	call	DWORD PTR _pglTexCoord2f

; 2116 : 			pglVertex3fv( p1 );

	mov	ecx, DWORD PTR _p1$[ebp]
	push	ecx
	call	DWORD PTR _pglVertex3fv

; 2117 : 			pglTexCoord2f( 0.0f, 1.0f );

	push	ecx
	movss	xmm0, DWORD PTR __real@3f800000
	movss	DWORD PTR [esp], xmm0
	push	ecx
	xorps	xmm0, xmm0
	movss	DWORD PTR [esp], xmm0
	call	DWORD PTR _pglTexCoord2f

; 2118 : 			pglVertex3fv( p2 );

	mov	edx, DWORD PTR _p2$[ebp]
	push	edx
	call	DWORD PTR _pglVertex3fv

; 2119 : 			pglTexCoord2f( 1.0f, 1.0f );

	push	ecx
	movss	xmm0, DWORD PTR __real@3f800000
	movss	DWORD PTR [esp], xmm0
	push	ecx
	movss	xmm0, DWORD PTR __real@3f800000
	movss	DWORD PTR [esp], xmm0
	call	DWORD PTR _pglTexCoord2f

; 2120 : 			pglVertex3fv( p3 );

	mov	eax, DWORD PTR _p3$[ebp]
	push	eax
	call	DWORD PTR _pglVertex3fv

; 2121 : 			pglTexCoord2f( 1.0f, 0.0f );

	push	ecx
	xorps	xmm0, xmm0
	movss	DWORD PTR [esp], xmm0
	push	ecx
	movss	xmm0, DWORD PTR __real@3f800000
	movss	DWORD PTR [esp], xmm0
	call	DWORD PTR _pglTexCoord2f

; 2122 : 			pglVertex3fv( p4 );

	mov	ecx, DWORD PTR _p4$[ebp]
	push	ecx
	call	DWORD PTR _pglVertex3fv

; 2123 : 		pglEnd();

	call	DWORD PTR _pglEnd

; 2124 : 
; 2125 : 		TriRenderMode( kRenderNormal );

	push	0
	call	_TriRenderMode
	add	esp, 4
$LN4@R_StudioRe:

; 2126 : 	}
; 2127 : }

	pop	ebp
	ret	0
_R_StudioRenderShadow ENDP
_TEXT	ENDS
; Function compile flags: /Odtp
; File c:\users\user\downloads\xash_build4529_src\engine\client\gl_studio.c
_TEXT	SEGMENT
_iCull$ = 8						; size = 4
_R_StudioSetCullState PROC

; 2093 : {

	push	ebp
	mov	ebp, esp

; 2094 : 	g_iBackFaceCull = iCull;

	mov	eax, DWORD PTR _iCull$[ebp]
	mov	DWORD PTR _g_iBackFaceCull, eax

; 2095 : }

	pop	ebp
	ret	0
_R_StudioSetCullState ENDP
_TEXT	ENDS
; Function compile flags: /Odtp
; File c:\users\user\downloads\xash_build4529_src\engine\client\gl_studio.c
_TEXT	SEGMENT
_iRenderamt$ = 8					; size = 4
_R_StudioSetRenderamt PROC

; 2078 : {

	push	ebp
	mov	ebp, esp

; 2079 : 	if( !RI.currententity ) return;

	cmp	DWORD PTR _RI+28, 0
	jne	SHORT $LN2@R_StudioSe
	jmp	SHORT $LN1@R_StudioSe
$LN2@R_StudioSe:

; 2080 : 
; 2081 : 	RI.currententity->curstate.renderamt = iRenderamt;

	mov	eax, DWORD PTR _RI+28
	mov	ecx, DWORD PTR _iRenderamt$[ebp]
	mov	DWORD PTR [eax+764], ecx

; 2082 : 	tr.blend = CL_FxBlend( RI.currententity ) / 255.0f;

	mov	edx, DWORD PTR _RI+28
	push	edx
	call	_CL_FxBlend
	add	esp, 4
	cvtsi2ss xmm0, eax
	divss	xmm0, DWORD PTR __real@437f0000
	movss	DWORD PTR _tr+66976, xmm0
$LN1@R_StudioSe:

; 2083 : }

	pop	ebp
	ret	0
_R_StudioSetRenderamt ENDP
_TEXT	ENDS
; Function compile flags: /Odtp
; File c:\users\user\downloads\xash_build4529_src\engine\client\gl_studio.c
_TEXT	SEGMENT
_ptexture$ = -4						; size = 4
_ptexturehdr$ = 8					; size = 4
_index$ = 12						; size = 4
_R_StudioSetupSkin PROC

; 2035 : {

	push	ebp
	mov	ebp, esp
	push	ecx

; 2036 : 	mstudiotexture_t	*ptexture = NULL;

	mov	DWORD PTR _ptexture$[ebp], 0

; 2037 : 
; 2038 : 	if( FBitSet( g_nForceFaceFlags, STUDIO_NF_CHROME ))

	mov	eax, DWORD PTR _g_nForceFaceFlags
	and	eax, 2
	je	SHORT $LN2@R_StudioSe

; 2039 : 		return;

	jmp	$LN7@R_StudioSe
$LN2@R_StudioSe:

; 2040 : 
; 2041 : 	if( ptexturehdr == NULL )

	cmp	DWORD PTR _ptexturehdr$[ebp], 0
	jne	SHORT $LN3@R_StudioSe

; 2042 : 		return;

	jmp	$LN7@R_StudioSe
$LN3@R_StudioSe:

; 2043 : 
; 2044 : 	// NOTE: user may ignore to call StudioRemapColors and remap_info will be unavailable
; 2045 : 	if( m_fDoRemap ) ptexture = CL_GetRemapInfoForEntity( RI.currententity )->ptexture;

	cmp	DWORD PTR _m_fDoRemap, 0
	je	SHORT $LN4@R_StudioSe
	mov	ecx, DWORD PTR _RI+28
	push	ecx
	call	_CL_GetRemapInfoForEntity
	add	esp, 4
	mov	edx, DWORD PTR [eax+64]
	mov	DWORD PTR _ptexture$[ebp], edx
$LN4@R_StudioSe:

; 2046 : 	if( !ptexture ) ptexture = (mstudiotexture_t *)((byte *)ptexturehdr + ptexturehdr->textureindex); // fallback

	cmp	DWORD PTR _ptexture$[ebp], 0
	jne	SHORT $LN5@R_StudioSe
	mov	eax, DWORD PTR _ptexturehdr$[ebp]
	mov	ecx, DWORD PTR _ptexturehdr$[ebp]
	add	ecx, DWORD PTR [eax+184]
	mov	DWORD PTR _ptexture$[ebp], ecx
$LN5@R_StudioSe:

; 2047 : 
; 2048 : 	if( r_lightmap->value && !r_fullbright->value )

	mov	edx, DWORD PTR _r_lightmap
	movss	xmm0, DWORD PTR [edx+12]
	ucomiss	xmm0, DWORD PTR __real@00000000
	lahf
	test	ah, 68					; 00000044H
	jnp	SHORT $LN6@R_StudioSe
	mov	eax, DWORD PTR _r_fullbright
	movss	xmm0, DWORD PTR [eax+12]
	ucomiss	xmm0, DWORD PTR __real@00000000
	lahf
	test	ah, 68					; 00000044H
	jp	SHORT $LN6@R_StudioSe

; 2049 : 		GL_Bind( GL_TEXTURE0, tr.whiteTexture );

	mov	ecx, DWORD PTR _tr+8
	push	ecx
	push	0
	call	_GL_Bind
	add	esp, 8
	jmp	SHORT $LN7@R_StudioSe
$LN6@R_StudioSe:

; 2050 : 	else GL_Bind( GL_TEXTURE0, ptexture[index].index );

	imul	edx, DWORD PTR _index$[ebp], 80
	mov	eax, DWORD PTR _ptexture$[ebp]
	mov	ecx, DWORD PTR [eax+edx+76]
	push	ecx
	push	0
	call	_GL_Bind
	add	esp, 8
$LN7@R_StudioSe:

; 2051 : }

	mov	esp, ebp
	pop	ebp
	ret	0
_R_StudioSetupSkin ENDP
_TEXT	ENDS
; Function compile flags: /Odtp
; File c:\users\user\downloads\xash_build4529_src\engine\client\gl_studio.c
_TEXT	SEGMENT
tv155 = -12						; size = 4
_el$1 = -8						; size = 4
_i$ = -4						; size = 4
_bone$ = 8						; size = 4
_localpos$ = 12						; size = 4
_light$ = 16						; size = 4
_R_LightStrength PROC

; 2007 : {

	push	ebp
	mov	ebp, esp
	sub	esp, 12					; 0000000cH
	push	esi

; 2008 : 	int	i;
; 2009 : 
; 2010 : 	if( g_studio.lightage[bone] != g_studio.framecount )

	mov	eax, DWORD PTR _bone$[ebp]
	mov	ecx, DWORD PTR _g_studio[eax*4+828560]
	cmp	ecx, DWORD PTR _g_studio+16
	je	SHORT $LN8@R_LightStr

; 2011 : 	{
; 2012 : 		for( i = 0; i < g_studio.numlocallights; i++ )

	mov	DWORD PTR _i$[ebp], 0
	jmp	SHORT $LN4@R_LightStr
$LN2@R_LightStr:
	mov	edx, DWORD PTR _i$[ebp]
	add	edx, 1
	mov	DWORD PTR _i$[ebp], edx
$LN4@R_LightStr:
	mov	eax, DWORD PTR _i$[ebp]
	cmp	eax, DWORD PTR _g_studio+828556
	jge	SHORT $LN3@R_LightStr

; 2013 : 		{
; 2014 : 			dlight_t *el = g_studio.locallight[i];

	mov	ecx, DWORD PTR _i$[ebp]
	mov	edx, DWORD PTR _g_studio[ecx*4+829072]
	mov	DWORD PTR _el$1[ebp], edx

; 2015 : 			Matrix3x4_VectorITransform( g_studio.lighttransform[bone], el->origin, g_studio.lightbonepos[bone][i] );

	imul	eax, DWORD PTR _bone$[ebp], 48
	imul	ecx, DWORD PTR _i$[ebp], 12
	lea	edx, DWORD PTR _g_studio[eax+ecx+1877676]
	push	edx
	mov	eax, DWORD PTR _el$1[ebp]
	push	eax
	imul	ecx, DWORD PTR _bone$[ebp], 48
	add	ecx, OFFSET _g_studio+6224
	push	ecx
	call	_Matrix3x4_VectorITransform
	add	esp, 12					; 0000000cH

; 2016 : 		}

	jmp	SHORT $LN2@R_LightStr
$LN3@R_LightStr:

; 2017 : 
; 2018 : 		g_studio.lightage[bone] = g_studio.framecount;

	mov	edx, DWORD PTR _bone$[ebp]
	mov	eax, DWORD PTR _g_studio+16
	mov	DWORD PTR _g_studio[edx*4+828560], eax
$LN8@R_LightStr:

; 2019 : 	}
; 2020 : 
; 2021 : 	for( i = 0; i < g_studio.numlocallights; i++ )

	mov	DWORD PTR _i$[ebp], 0
	jmp	SHORT $LN7@R_LightStr
$LN5@R_LightStr:
	mov	ecx, DWORD PTR _i$[ebp]
	add	ecx, 1
	mov	DWORD PTR _i$[ebp], ecx
$LN7@R_LightStr:
	mov	edx, DWORD PTR _i$[ebp]
	cmp	edx, DWORD PTR _g_studio+828556
	jge	$LN6@R_LightStr

; 2022 : 	{
; 2023 : 		VectorSubtract( localpos, g_studio.lightbonepos[bone][i], light[i] );

	mov	eax, 4
	imul	ecx, eax, 0
	imul	edx, DWORD PTR _bone$[ebp], 48
	imul	eax, DWORD PTR _i$[ebp], 12
	lea	edx, DWORD PTR _g_studio[edx+eax+1877676]
	mov	eax, 4
	imul	eax, eax, 0
	mov	esi, DWORD PTR _localpos$[ebp]
	movss	xmm0, DWORD PTR [esi+ecx]
	subss	xmm0, DWORD PTR [edx+eax]
	mov	ecx, DWORD PTR _i$[ebp]
	shl	ecx, 4
	add	ecx, DWORD PTR _light$[ebp]
	mov	edx, 4
	imul	eax, edx, 0
	movss	DWORD PTR [ecx+eax], xmm0
	mov	ecx, 4
	shl	ecx, 0
	imul	edx, DWORD PTR _bone$[ebp], 48
	imul	eax, DWORD PTR _i$[ebp], 12
	lea	edx, DWORD PTR _g_studio[edx+eax+1877676]
	mov	eax, 4
	shl	eax, 0
	mov	esi, DWORD PTR _localpos$[ebp]
	movss	xmm0, DWORD PTR [esi+ecx]
	subss	xmm0, DWORD PTR [edx+eax]
	mov	ecx, DWORD PTR _i$[ebp]
	shl	ecx, 4
	add	ecx, DWORD PTR _light$[ebp]
	mov	edx, 4
	shl	edx, 0
	movss	DWORD PTR [ecx+edx], xmm0
	mov	eax, 4
	shl	eax, 1
	imul	ecx, DWORD PTR _bone$[ebp], 48
	imul	edx, DWORD PTR _i$[ebp], 12
	lea	ecx, DWORD PTR _g_studio[ecx+edx+1877676]
	mov	edx, 4
	shl	edx, 1
	mov	esi, DWORD PTR _localpos$[ebp]
	movss	xmm0, DWORD PTR [esi+eax]
	subss	xmm0, DWORD PTR [ecx+edx]
	movss	DWORD PTR tv155[ebp], xmm0
	mov	eax, DWORD PTR _i$[ebp]
	shl	eax, 4
	add	eax, DWORD PTR _light$[ebp]
	mov	ecx, 4
	shl	ecx, 1
	movss	xmm0, DWORD PTR tv155[ebp]
	movss	DWORD PTR [eax+ecx], xmm0

; 2024 : 		light[i][3] = 0.0f;

	mov	edx, DWORD PTR _i$[ebp]
	shl	edx, 4
	add	edx, DWORD PTR _light$[ebp]
	mov	eax, 4
	imul	ecx, eax, 3
	xorps	xmm0, xmm0
	movss	DWORD PTR [edx+ecx], xmm0

; 2025 : 	}

	jmp	$LN5@R_LightStr
$LN6@R_LightStr:

; 2026 : }

	pop	esi
	mov	esp, ebp
	pop	ebp
	ret	0
_R_LightStrength ENDP
_TEXT	ENDS
; Function compile flags: /Odtp
; File c:\users\user\downloads\xash_build4529_src\engine\client\gl_studio.c
_TEXT	SEGMENT
tv535 = -92						; size = 8
tv451 = -84						; size = 8
tv537 = -76						; size = 8
tv314 = -68						; size = 4
tv362 = -64						; size = 4
tv346 = -60						; size = 4
tv330 = -56						; size = 4
tv299 = -52						; size = 4
tv271 = -48						; size = 4
tv243 = -44						; size = 4
_r2$1 = -40						; size = 4
_r$2 = -36						; size = 4
_i$ = -32						; size = 4
_finalLight$ = -28					; size = 12
_localLight$ = -16					; size = 12
__$ArrayPad$ = -4					; size = 4
_light$ = 8						; size = 4
_normal$ = 12						; size = 4
_color$ = 16						; size = 4
_R_LightLambert PROC

; 1960 : {

	push	ebp
	mov	ebp, esp
	sub	esp, 92					; 0000005cH
	mov	eax, DWORD PTR ___security_cookie
	xor	eax, ebp
	mov	DWORD PTR __$ArrayPad$[ebp], eax
	push	esi

; 1961 : 	vec3_t	finalLight;
; 1962 : 	vec3_t	localLight;
; 1963 : 	int	i;
; 1964 : 
; 1965 : 	VectorCopy( color, finalLight );

	mov	eax, 4
	imul	ecx, eax, 0
	mov	edx, 4
	imul	eax, edx, 0
	mov	edx, DWORD PTR _color$[ebp]
	mov	ecx, DWORD PTR [edx+ecx]
	mov	DWORD PTR _finalLight$[ebp+eax], ecx
	mov	edx, 4
	shl	edx, 0
	mov	eax, 4
	shl	eax, 0
	mov	ecx, DWORD PTR _color$[ebp]
	mov	edx, DWORD PTR [ecx+edx]
	mov	DWORD PTR _finalLight$[ebp+eax], edx
	mov	eax, 4
	shl	eax, 1
	mov	ecx, 4
	shl	ecx, 1
	mov	edx, DWORD PTR _color$[ebp]
	mov	eax, DWORD PTR [edx+eax]
	mov	DWORD PTR _finalLight$[ebp+ecx], eax

; 1966 : 
; 1967 : 	for( i = 0; i < g_studio.numlocallights; i++ )

	mov	DWORD PTR _i$[ebp], 0
	jmp	SHORT $LN4@R_LightLam
$LN2@R_LightLam:
	mov	ecx, DWORD PTR _i$[ebp]
	add	ecx, 1
	mov	DWORD PTR _i$[ebp], ecx
$LN4@R_LightLam:
	mov	edx, DWORD PTR _i$[ebp]
	cmp	edx, DWORD PTR _g_studio+828556
	jge	$LN3@R_LightLam

; 1968 : 	{
; 1969 : 		float	r, r2;
; 1970 : 
; 1971 : 		if( tr.fFlipViewModel )

	cmp	DWORD PTR _tr+66696, 0
	je	$LN5@R_LightLam

; 1972 : 			r = DotProduct( normal, light[i] );

	mov	eax, 4
	imul	ecx, eax, 0
	mov	edx, DWORD PTR _i$[ebp]
	shl	edx, 4
	add	edx, DWORD PTR _light$[ebp]
	mov	eax, 4
	imul	eax, eax, 0
	mov	esi, DWORD PTR _normal$[ebp]
	movss	xmm0, DWORD PTR [esi+ecx]
	mulss	xmm0, DWORD PTR [edx+eax]
	mov	ecx, 4
	shl	ecx, 0
	mov	edx, DWORD PTR _i$[ebp]
	shl	edx, 4
	add	edx, DWORD PTR _light$[ebp]
	mov	eax, 4
	shl	eax, 0
	mov	esi, DWORD PTR _normal$[ebp]
	movss	xmm1, DWORD PTR [esi+ecx]
	mulss	xmm1, DWORD PTR [edx+eax]
	addss	xmm0, xmm1
	mov	ecx, 4
	shl	ecx, 1
	mov	edx, DWORD PTR _i$[ebp]
	shl	edx, 4
	add	edx, DWORD PTR _light$[ebp]
	mov	eax, 4
	shl	eax, 1
	mov	esi, DWORD PTR _normal$[ebp]
	movss	xmm1, DWORD PTR [esi+ecx]
	mulss	xmm1, DWORD PTR [edx+eax]
	addss	xmm0, xmm1
	movss	DWORD PTR _r$2[ebp], xmm0
	jmp	$LN6@R_LightLam
$LN5@R_LightLam:

; 1973 : 		else r = -DotProduct( normal, light[i] );

	mov	ecx, 4
	imul	edx, ecx, 0
	mov	eax, DWORD PTR _i$[ebp]
	shl	eax, 4
	add	eax, DWORD PTR _light$[ebp]
	mov	ecx, 4
	imul	ecx, ecx, 0
	mov	esi, DWORD PTR _normal$[ebp]
	movss	xmm0, DWORD PTR [esi+edx]
	mulss	xmm0, DWORD PTR [eax+ecx]
	mov	edx, 4
	shl	edx, 0
	mov	eax, DWORD PTR _i$[ebp]
	shl	eax, 4
	add	eax, DWORD PTR _light$[ebp]
	mov	ecx, 4
	shl	ecx, 0
	mov	esi, DWORD PTR _normal$[ebp]
	movss	xmm1, DWORD PTR [esi+edx]
	mulss	xmm1, DWORD PTR [eax+ecx]
	addss	xmm0, xmm1
	mov	edx, 4
	shl	edx, 1
	mov	eax, DWORD PTR _i$[ebp]
	shl	eax, 4
	add	eax, DWORD PTR _light$[ebp]
	mov	ecx, 4
	shl	ecx, 1
	mov	esi, DWORD PTR _normal$[ebp]
	movss	xmm1, DWORD PTR [esi+edx]
	mulss	xmm1, DWORD PTR [eax+ecx]
	addss	xmm0, xmm1
	xorps	xmm0, DWORD PTR __xmm@80000000800000008000000080000000
	movss	DWORD PTR _r$2[ebp], xmm0
$LN6@R_LightLam:

; 1974 : 
; 1975 : 		if( r > 0.0f )

	movss	xmm0, DWORD PTR _r$2[ebp]
	comiss	xmm0, DWORD PTR __real@00000000
	jbe	$LN7@R_LightLam

; 1976 : 		{
; 1977 : 			if( light[i][3] == 0.0f )

	mov	edx, DWORD PTR _i$[ebp]
	shl	edx, 4
	add	edx, DWORD PTR _light$[ebp]
	mov	eax, 4
	imul	ecx, eax, 3
	movss	xmm0, DWORD PTR [edx+ecx]
	ucomiss	xmm0, DWORD PTR __real@00000000
	lahf
	test	ah, 68					; 00000044H
	jp	$LN10@R_LightLam

; 1978 : 			{
; 1979 : 				r2 = DotProduct( light[i], light[i] );

	mov	edx, DWORD PTR _i$[ebp]
	shl	edx, 4
	add	edx, DWORD PTR _light$[ebp]
	mov	eax, 4
	imul	ecx, eax, 0
	mov	eax, DWORD PTR _i$[ebp]
	shl	eax, 4
	add	eax, DWORD PTR _light$[ebp]
	mov	esi, 4
	imul	esi, esi, 0
	movss	xmm0, DWORD PTR [edx+ecx]
	mulss	xmm0, DWORD PTR [eax+esi]
	mov	ecx, DWORD PTR _i$[ebp]
	shl	ecx, 4
	add	ecx, DWORD PTR _light$[ebp]
	mov	edx, 4
	shl	edx, 0
	mov	eax, DWORD PTR _i$[ebp]
	shl	eax, 4
	add	eax, DWORD PTR _light$[ebp]
	mov	esi, 4
	shl	esi, 0
	movss	xmm1, DWORD PTR [ecx+edx]
	mulss	xmm1, DWORD PTR [eax+esi]
	addss	xmm0, xmm1
	mov	ecx, DWORD PTR _i$[ebp]
	shl	ecx, 4
	add	ecx, DWORD PTR _light$[ebp]
	mov	edx, 4
	shl	edx, 1
	mov	eax, DWORD PTR _i$[ebp]
	shl	eax, 4
	add	eax, DWORD PTR _light$[ebp]
	mov	esi, 4
	shl	esi, 1
	movss	xmm1, DWORD PTR [ecx+edx]
	mulss	xmm1, DWORD PTR [eax+esi]
	addss	xmm0, xmm1
	movss	DWORD PTR _r2$1[ebp], xmm0

; 1980 : 
; 1981 : 				if( r2 > 0.0f )

	movss	xmm0, DWORD PTR _r2$1[ebp]
	comiss	xmm0, DWORD PTR __real@00000000
	jbe	SHORT $LN9@R_LightLam

; 1982 : 					light[i][3] = g_studio.locallightR2[i] / ( r2 * sqrt( r2 ));

	mov	ecx, DWORD PTR _i$[ebp]
	cvtss2sd xmm0, DWORD PTR _g_studio[ecx*4+1883820]
	cvtss2sd xmm1, DWORD PTR _r2$1[ebp]
	cvtss2sd xmm2, DWORD PTR _r2$1[ebp]
	sub	esp, 8
	movsd	QWORD PTR [esp], xmm2
	movsd	QWORD PTR tv535[ebp], xmm0
	movsd	QWORD PTR tv537[ebp], xmm1
	call	_sqrt
	add	esp, 8
	fstp	QWORD PTR tv451[ebp]
	movsd	xmm0, QWORD PTR tv537[ebp]
	mulsd	xmm0, QWORD PTR tv451[ebp]
	movsd	xmm1, QWORD PTR tv535[ebp]
	divsd	xmm1, xmm0
	mov	edx, DWORD PTR _i$[ebp]
	shl	edx, 4
	add	edx, DWORD PTR _light$[ebp]
	mov	eax, 4
	imul	ecx, eax, 3
	cvtsd2ss xmm0, xmm1
	movss	DWORD PTR [edx+ecx], xmm0
	jmp	SHORT $LN10@R_LightLam
$LN9@R_LightLam:

; 1983 : 				else light[i][3] = 0.0001f;

	mov	edx, DWORD PTR _i$[ebp]
	shl	edx, 4
	add	edx, DWORD PTR _light$[ebp]
	mov	eax, 4
	imul	ecx, eax, 3
	movss	xmm0, DWORD PTR __real@38d1b717
	movss	DWORD PTR [edx+ecx], xmm0
$LN10@R_LightLam:

; 1984 : 			}
; 1985 : 
; 1986 : 			localLight[0] = Q_min( g_studio.locallightcolor[i].r * r * light[i][3], 255.0f );

	imul	edx, DWORD PTR _i$[ebp], 3
	movzx	eax, BYTE PTR _g_studio[edx+829088]
	cvtsi2ss xmm0, eax
	mulss	xmm0, DWORD PTR _r$2[ebp]
	mov	ecx, DWORD PTR _i$[ebp]
	shl	ecx, 4
	add	ecx, DWORD PTR _light$[ebp]
	mov	edx, 4
	imul	eax, edx, 3
	mulss	xmm0, DWORD PTR [ecx+eax]
	movss	xmm1, DWORD PTR __real@437f0000
	comiss	xmm1, xmm0
	jbe	SHORT $LN12@R_LightLam
	imul	ecx, DWORD PTR _i$[ebp], 3
	movzx	edx, BYTE PTR _g_studio[ecx+829088]
	cvtsi2ss xmm0, edx
	mulss	xmm0, DWORD PTR _r$2[ebp]
	mov	eax, DWORD PTR _i$[ebp]
	shl	eax, 4
	add	eax, DWORD PTR _light$[ebp]
	mov	ecx, 4
	imul	edx, ecx, 3
	mulss	xmm0, DWORD PTR [eax+edx]
	movss	DWORD PTR tv243[ebp], xmm0
	jmp	SHORT $LN13@R_LightLam
$LN12@R_LightLam:
	movss	xmm0, DWORD PTR __real@437f0000
	movss	DWORD PTR tv243[ebp], xmm0
$LN13@R_LightLam:
	mov	eax, 4
	imul	ecx, eax, 0
	movss	xmm0, DWORD PTR tv243[ebp]
	movss	DWORD PTR _localLight$[ebp+ecx], xmm0

; 1987 : 			localLight[1] = Q_min( g_studio.locallightcolor[i].g * r * light[i][3], 255.0f );

	imul	edx, DWORD PTR _i$[ebp], 3
	movzx	eax, BYTE PTR _g_studio[edx+829089]
	cvtsi2ss xmm0, eax
	mulss	xmm0, DWORD PTR _r$2[ebp]
	mov	ecx, DWORD PTR _i$[ebp]
	shl	ecx, 4
	add	ecx, DWORD PTR _light$[ebp]
	mov	edx, 4
	imul	eax, edx, 3
	mulss	xmm0, DWORD PTR [ecx+eax]
	movss	xmm1, DWORD PTR __real@437f0000
	comiss	xmm1, xmm0
	jbe	SHORT $LN14@R_LightLam
	imul	ecx, DWORD PTR _i$[ebp], 3
	movzx	edx, BYTE PTR _g_studio[ecx+829089]
	cvtsi2ss xmm0, edx
	mulss	xmm0, DWORD PTR _r$2[ebp]
	mov	eax, DWORD PTR _i$[ebp]
	shl	eax, 4
	add	eax, DWORD PTR _light$[ebp]
	mov	ecx, 4
	imul	edx, ecx, 3
	mulss	xmm0, DWORD PTR [eax+edx]
	movss	DWORD PTR tv271[ebp], xmm0
	jmp	SHORT $LN15@R_LightLam
$LN14@R_LightLam:
	movss	xmm0, DWORD PTR __real@437f0000
	movss	DWORD PTR tv271[ebp], xmm0
$LN15@R_LightLam:
	mov	eax, 4
	shl	eax, 0
	movss	xmm0, DWORD PTR tv271[ebp]
	movss	DWORD PTR _localLight$[ebp+eax], xmm0

; 1988 : 			localLight[2] = Q_min( g_studio.locallightcolor[i].b * r * light[i][3], 255.0f );

	imul	ecx, DWORD PTR _i$[ebp], 3
	movzx	edx, BYTE PTR _g_studio[ecx+829090]
	cvtsi2ss xmm0, edx
	mulss	xmm0, DWORD PTR _r$2[ebp]
	mov	eax, DWORD PTR _i$[ebp]
	shl	eax, 4
	add	eax, DWORD PTR _light$[ebp]
	mov	ecx, 4
	imul	edx, ecx, 3
	mulss	xmm0, DWORD PTR [eax+edx]
	movss	xmm1, DWORD PTR __real@437f0000
	comiss	xmm1, xmm0
	jbe	SHORT $LN16@R_LightLam
	imul	eax, DWORD PTR _i$[ebp], 3
	movzx	ecx, BYTE PTR _g_studio[eax+829090]
	cvtsi2ss xmm0, ecx
	mulss	xmm0, DWORD PTR _r$2[ebp]
	mov	edx, DWORD PTR _i$[ebp]
	shl	edx, 4
	add	edx, DWORD PTR _light$[ebp]
	mov	eax, 4
	imul	ecx, eax, 3
	mulss	xmm0, DWORD PTR [edx+ecx]
	movss	DWORD PTR tv299[ebp], xmm0
	jmp	SHORT $LN17@R_LightLam
$LN16@R_LightLam:
	movss	xmm0, DWORD PTR __real@437f0000
	movss	DWORD PTR tv299[ebp], xmm0
$LN17@R_LightLam:
	mov	edx, 4
	shl	edx, 1
	movss	xmm0, DWORD PTR tv299[ebp]
	movss	DWORD PTR _localLight$[ebp+edx], xmm0

; 1989 : 			VectorScale( localLight, ( 1.0f / 255.0f ), localLight );

	mov	eax, 4
	imul	ecx, eax, 0
	movss	xmm0, DWORD PTR _localLight$[ebp+ecx]
	mulss	xmm0, DWORD PTR __real@3b808081
	mov	edx, 4
	imul	eax, edx, 0
	movss	DWORD PTR _localLight$[ebp+eax], xmm0
	mov	ecx, 4
	shl	ecx, 0
	movss	xmm0, DWORD PTR _localLight$[ebp+ecx]
	mulss	xmm0, DWORD PTR __real@3b808081
	mov	edx, 4
	shl	edx, 0
	movss	DWORD PTR _localLight$[ebp+edx], xmm0
	mov	eax, 4
	shl	eax, 1
	movss	xmm0, DWORD PTR _localLight$[ebp+eax]
	mulss	xmm0, DWORD PTR __real@3b808081
	movss	DWORD PTR tv314[ebp], xmm0
	mov	ecx, 4
	shl	ecx, 1
	movss	xmm0, DWORD PTR tv314[ebp]
	movss	DWORD PTR _localLight$[ebp+ecx], xmm0

; 1990 : 
; 1991 : 			finalLight[0] = Q_min( finalLight[0] + localLight[0], 1.0f );

	mov	edx, 4
	imul	eax, edx, 0
	mov	ecx, 4
	imul	edx, ecx, 0
	movss	xmm0, DWORD PTR _finalLight$[ebp+eax]
	addss	xmm0, DWORD PTR _localLight$[ebp+edx]
	movss	xmm1, DWORD PTR __real@3f800000
	comiss	xmm1, xmm0
	jbe	SHORT $LN18@R_LightLam
	mov	eax, 4
	imul	ecx, eax, 0
	mov	edx, 4
	imul	eax, edx, 0
	movss	xmm0, DWORD PTR _finalLight$[ebp+ecx]
	addss	xmm0, DWORD PTR _localLight$[ebp+eax]
	movss	DWORD PTR tv330[ebp], xmm0
	jmp	SHORT $LN19@R_LightLam
$LN18@R_LightLam:
	movss	xmm0, DWORD PTR __real@3f800000
	movss	DWORD PTR tv330[ebp], xmm0
$LN19@R_LightLam:
	mov	ecx, 4
	imul	edx, ecx, 0
	movss	xmm0, DWORD PTR tv330[ebp]
	movss	DWORD PTR _finalLight$[ebp+edx], xmm0

; 1992 : 			finalLight[1] = Q_min( finalLight[1] + localLight[1], 1.0f );

	mov	eax, 4
	shl	eax, 0
	mov	ecx, 4
	shl	ecx, 0
	movss	xmm0, DWORD PTR _finalLight$[ebp+eax]
	addss	xmm0, DWORD PTR _localLight$[ebp+ecx]
	movss	xmm1, DWORD PTR __real@3f800000
	comiss	xmm1, xmm0
	jbe	SHORT $LN20@R_LightLam
	mov	edx, 4
	shl	edx, 0
	mov	eax, 4
	shl	eax, 0
	movss	xmm0, DWORD PTR _finalLight$[ebp+edx]
	addss	xmm0, DWORD PTR _localLight$[ebp+eax]
	movss	DWORD PTR tv346[ebp], xmm0
	jmp	SHORT $LN21@R_LightLam
$LN20@R_LightLam:
	movss	xmm0, DWORD PTR __real@3f800000
	movss	DWORD PTR tv346[ebp], xmm0
$LN21@R_LightLam:
	mov	ecx, 4
	shl	ecx, 0
	movss	xmm0, DWORD PTR tv346[ebp]
	movss	DWORD PTR _finalLight$[ebp+ecx], xmm0

; 1993 : 			finalLight[2] = Q_min( finalLight[2] + localLight[2], 1.0f );

	mov	edx, 4
	shl	edx, 1
	mov	eax, 4
	shl	eax, 1
	movss	xmm0, DWORD PTR _finalLight$[ebp+edx]
	addss	xmm0, DWORD PTR _localLight$[ebp+eax]
	movss	xmm1, DWORD PTR __real@3f800000
	comiss	xmm1, xmm0
	jbe	SHORT $LN22@R_LightLam
	mov	ecx, 4
	shl	ecx, 1
	mov	edx, 4
	shl	edx, 1
	movss	xmm0, DWORD PTR _finalLight$[ebp+ecx]
	addss	xmm0, DWORD PTR _localLight$[ebp+edx]
	movss	DWORD PTR tv362[ebp], xmm0
	jmp	SHORT $LN23@R_LightLam
$LN22@R_LightLam:
	movss	xmm0, DWORD PTR __real@3f800000
	movss	DWORD PTR tv362[ebp], xmm0
$LN23@R_LightLam:
	mov	eax, 4
	shl	eax, 1
	movss	xmm0, DWORD PTR tv362[ebp]
	movss	DWORD PTR _finalLight$[ebp+eax], xmm0
$LN7@R_LightLam:

; 1994 : 		}
; 1995 : 	}

	jmp	$LN2@R_LightLam
$LN3@R_LightLam:

; 1996 : 
; 1997 : 	pglColor4f( finalLight[0], finalLight[1], finalLight[2], tr.blend );

	push	ecx
	movss	xmm0, DWORD PTR _tr+66976
	movss	DWORD PTR [esp], xmm0
	mov	ecx, 4
	shl	ecx, 1
	push	ecx
	movss	xmm0, DWORD PTR _finalLight$[ebp+ecx]
	movss	DWORD PTR [esp], xmm0
	mov	edx, 4
	shl	edx, 0
	push	ecx
	movss	xmm0, DWORD PTR _finalLight$[ebp+edx]
	movss	DWORD PTR [esp], xmm0
	mov	eax, 4
	imul	ecx, eax, 0
	push	ecx
	movss	xmm0, DWORD PTR _finalLight$[ebp+ecx]
	movss	DWORD PTR [esp], xmm0
	call	DWORD PTR _pglColor4f

; 1998 : }

	pop	esi
	mov	ecx, DWORD PTR __$ArrayPad$[ebp]
	xor	ecx, ebp
	call	@__security_check_cookie@4
	mov	esp, ebp
	pop	ebp
	ret	0
_R_LightLambert ENDP
_TEXT	ENDS
; Function compile flags: /Odtp
; File c:\users\user\downloads\xash_build4529_src\engine\client\gl_studio.c
_TEXT	SEGMENT
tv168 = -20						; size = 4
tv166 = -16						; size = 4
_r$1 = -12						; size = 4
_lightcos$2 = -8					; size = 4
_illum$ = -4						; size = 4
_lv$ = 8						; size = 4
_bone$ = 12						; size = 4
_flags$ = 16						; size = 4
_normal$ = 20						; size = 4
_R_StudioLighting PROC

; 1904 : {

	push	ebp
	mov	ebp, esp
	sub	esp, 20					; 00000014H
	push	esi

; 1905 : 	float 	illum;
; 1906 : 
; 1907 : 	if( FBitSet( flags, STUDIO_NF_FULLBRIGHT ))

	mov	eax, DWORD PTR _flags$[ebp]
	and	eax, 4
	je	SHORT $LN2@R_StudioLi

; 1908 : 	{
; 1909 : 		*lv = 1.0f;

	mov	ecx, DWORD PTR _lv$[ebp]
	movss	xmm0, DWORD PTR __real@3f800000
	movss	DWORD PTR [ecx], xmm0

; 1910 : 		return;

	jmp	$LN1@R_StudioLi
$LN2@R_StudioLi:

; 1911 : 	}
; 1912 : 
; 1913 : 	illum = g_studio.ambientlight;

	movss	xmm0, DWORD PTR _g_studio+430164
	movss	DWORD PTR _illum$[ebp], xmm0

; 1914 : 
; 1915 : 	if( FBitSet( flags, STUDIO_NF_FLATSHADE ))

	mov	edx, DWORD PTR _flags$[ebp]
	and	edx, 1
	je	SHORT $LN3@R_StudioLi

; 1916 : 	{
; 1917 : 		illum += g_studio.shadelight * 0.8f;

	movss	xmm0, DWORD PTR _g_studio+430168
	mulss	xmm0, DWORD PTR __real@3f4ccccd
	addss	xmm0, DWORD PTR _illum$[ebp]
	movss	DWORD PTR _illum$[ebp], xmm0

; 1918 : 	} 

	jmp	$LN4@R_StudioLi
$LN3@R_StudioLi:

; 1919 : 	else 
; 1920 : 	{
; 1921 : 		float	r, lightcos;
; 1922 : 
; 1923 : 		if( bone != -1 ) lightcos = DotProduct( normal, g_studio.blightvec[bone] );

	cmp	DWORD PTR _bone$[ebp], -1
	je	SHORT $LN5@R_StudioLi
	mov	eax, 4
	imul	ecx, eax, 0
	imul	edx, DWORD PTR _bone$[ebp], 12
	mov	eax, 4
	imul	eax, eax, 0
	mov	esi, DWORD PTR _normal$[ebp]
	movss	xmm0, DWORD PTR [esi+ecx]
	mulss	xmm0, DWORD PTR _g_studio[edx+eax+430208]
	mov	ecx, 4
	shl	ecx, 0
	imul	edx, DWORD PTR _bone$[ebp], 12
	mov	eax, 4
	shl	eax, 0
	mov	esi, DWORD PTR _normal$[ebp]
	movss	xmm1, DWORD PTR [esi+ecx]
	mulss	xmm1, DWORD PTR _g_studio[edx+eax+430208]
	addss	xmm0, xmm1
	mov	ecx, 4
	shl	ecx, 1
	imul	edx, DWORD PTR _bone$[ebp], 12
	mov	eax, 4
	shl	eax, 1
	mov	esi, DWORD PTR _normal$[ebp]
	movss	xmm1, DWORD PTR [esi+ecx]
	mulss	xmm1, DWORD PTR _g_studio[edx+eax+430208]
	addss	xmm0, xmm1
	movss	DWORD PTR _lightcos$2[ebp], xmm0
	jmp	SHORT $LN6@R_StudioLi
$LN5@R_StudioLi:

; 1924 : 		else lightcos = DotProduct( normal, g_studio.lightvec ); // -1 colinear, 1 opposite

	mov	ecx, 4
	imul	edx, ecx, 0
	mov	eax, 4
	imul	ecx, eax, 0
	mov	eax, DWORD PTR _normal$[ebp]
	movss	xmm0, DWORD PTR [eax+edx]
	mulss	xmm0, DWORD PTR _g_studio[ecx+430172]
	mov	ecx, 4
	shl	ecx, 0
	mov	edx, 4
	shl	edx, 0
	mov	eax, DWORD PTR _normal$[ebp]
	movss	xmm1, DWORD PTR [eax+ecx]
	mulss	xmm1, DWORD PTR _g_studio[edx+430172]
	addss	xmm0, xmm1
	mov	ecx, 4
	shl	ecx, 1
	mov	edx, 4
	shl	edx, 1
	mov	eax, DWORD PTR _normal$[ebp]
	movss	xmm1, DWORD PTR [eax+ecx]
	mulss	xmm1, DWORD PTR _g_studio[edx+430172]
	addss	xmm0, xmm1
	movss	DWORD PTR _lightcos$2[ebp], xmm0
$LN6@R_StudioLi:

; 1925 : 		if( lightcos > 1.0f ) lightcos = 1.0f;

	movss	xmm0, DWORD PTR _lightcos$2[ebp]
	comiss	xmm0, DWORD PTR __real@3f800000
	jbe	SHORT $LN7@R_StudioLi
	movss	xmm0, DWORD PTR __real@3f800000
	movss	DWORD PTR _lightcos$2[ebp], xmm0
$LN7@R_StudioLi:

; 1926 : 
; 1927 : 		illum += g_studio.shadelight;

	movss	xmm0, DWORD PTR _illum$[ebp]
	addss	xmm0, DWORD PTR _g_studio+430168
	movss	DWORD PTR _illum$[ebp], xmm0

; 1928 : 
; 1929 : 		r = SHADE_LAMBERT;

	movss	xmm0, DWORD PTR __real@3fbf5c29
	movss	DWORD PTR _r$1[ebp], xmm0

; 1930 : 
; 1931 :  		// do modified hemispherical lighting
; 1932 : 		if( r <= 1.0f )

	movss	xmm0, DWORD PTR __real@3f800000
	comiss	xmm0, DWORD PTR _r$1[ebp]
	jb	SHORT $LN8@R_StudioLi

; 1933 : 		{
; 1934 : 			r += 1.0f;

	movss	xmm0, DWORD PTR _r$1[ebp]
	addss	xmm0, DWORD PTR __real@3f800000
	movss	DWORD PTR _r$1[ebp], xmm0

; 1935 : 			lightcos = (( r - 1.0f ) - lightcos) / r;

	movss	xmm0, DWORD PTR _r$1[ebp]
	subss	xmm0, DWORD PTR __real@3f800000
	subss	xmm0, DWORD PTR _lightcos$2[ebp]
	divss	xmm0, DWORD PTR _r$1[ebp]
	movss	DWORD PTR _lightcos$2[ebp], xmm0

; 1936 : 			if( lightcos > 0.0f ) 

	movss	xmm0, DWORD PTR _lightcos$2[ebp]
	comiss	xmm0, DWORD PTR __real@00000000
	jbe	SHORT $LN10@R_StudioLi

; 1937 : 				illum += g_studio.shadelight * lightcos; 

	movss	xmm0, DWORD PTR _g_studio+430168
	mulss	xmm0, DWORD PTR _lightcos$2[ebp]
	addss	xmm0, DWORD PTR _illum$[ebp]
	movss	DWORD PTR _illum$[ebp], xmm0
$LN10@R_StudioLi:

; 1938 : 		}

	jmp	SHORT $LN11@R_StudioLi
$LN8@R_StudioLi:

; 1939 : 		else
; 1940 : 		{
; 1941 : 			lightcos = (lightcos + ( r - 1.0f )) / r;

	movss	xmm0, DWORD PTR _r$1[ebp]
	subss	xmm0, DWORD PTR __real@3f800000
	addss	xmm0, DWORD PTR _lightcos$2[ebp]
	divss	xmm0, DWORD PTR _r$1[ebp]
	movss	DWORD PTR _lightcos$2[ebp], xmm0

; 1942 : 			if( lightcos > 0.0f )

	movss	xmm0, DWORD PTR _lightcos$2[ebp]
	comiss	xmm0, DWORD PTR __real@00000000
	jbe	SHORT $LN11@R_StudioLi

; 1943 : 				illum -= g_studio.shadelight * lightcos; 

	movss	xmm0, DWORD PTR _g_studio+430168
	mulss	xmm0, DWORD PTR _lightcos$2[ebp]
	movss	xmm1, DWORD PTR _illum$[ebp]
	subss	xmm1, xmm0
	movss	DWORD PTR _illum$[ebp], xmm1
$LN11@R_StudioLi:

; 1944 : 		}
; 1945 : 
; 1946 : 		illum = Q_max( illum, 0.0f );

	movss	xmm0, DWORD PTR _illum$[ebp]
	comiss	xmm0, DWORD PTR __real@00000000
	jbe	SHORT $LN13@R_StudioLi
	movss	xmm0, DWORD PTR _illum$[ebp]
	movss	DWORD PTR tv166[ebp], xmm0
	jmp	SHORT $LN14@R_StudioLi
$LN13@R_StudioLi:
	xorps	xmm0, xmm0
	movss	DWORD PTR tv166[ebp], xmm0
$LN14@R_StudioLi:
	movss	xmm0, DWORD PTR tv166[ebp]
	movss	DWORD PTR _illum$[ebp], xmm0
$LN4@R_StudioLi:

; 1947 : 	}
; 1948 : 
; 1949 : 	illum = Q_min( illum, 255.0f );

	movss	xmm0, DWORD PTR __real@437f0000
	comiss	xmm0, DWORD PTR _illum$[ebp]
	jbe	SHORT $LN15@R_StudioLi
	movss	xmm0, DWORD PTR _illum$[ebp]
	movss	DWORD PTR tv168[ebp], xmm0
	jmp	SHORT $LN16@R_StudioLi
$LN15@R_StudioLi:
	movss	xmm0, DWORD PTR __real@437f0000
	movss	DWORD PTR tv168[ebp], xmm0
$LN16@R_StudioLi:
	movss	xmm0, DWORD PTR tv168[ebp]
	movss	DWORD PTR _illum$[ebp], xmm0

; 1950 : 	*lv = illum * (1.0f / 255.0f);

	movss	xmm0, DWORD PTR _illum$[ebp]
	mulss	xmm0, DWORD PTR __real@3b808081
	mov	ecx, DWORD PTR _lv$[ebp]
	movss	DWORD PTR [ecx], xmm0
$LN1@R_StudioLi:

; 1951 : }

	pop	esi
	mov	esp, ebp
	pop	ebp
	ret	0
_R_StudioLighting ENDP
_TEXT	ENDS
; Function compile flags: /Odtp
; File c:\users\user\downloads\xash_build4529_src\engine\client\gl_studio.c
_TEXT	SEGMENT
_scale$ = -12						; size = 4
_ilength$1 = -8						; size = 4
_i$ = -4						; size = 4
_plight$ = 8						; size = 4
_R_StudioSetupLighting PROC

; 1874 : {

	push	ebp
	mov	ebp, esp
	sub	esp, 12					; 0000000cH
	push	esi

; 1875 : 	float	scale = 1.0f;

	movss	xmm0, DWORD PTR __real@3f800000
	movss	DWORD PTR _scale$[ebp], xmm0

; 1876 : 	int	i;
; 1877 : 
; 1878 : 	if( !m_pStudioHeader || !plight )

	cmp	DWORD PTR _m_pStudioHeader, 0
	je	SHORT $LN6@R_StudioSe
	cmp	DWORD PTR _plight$[ebp], 0
	jne	SHORT $LN5@R_StudioSe
$LN6@R_StudioSe:

; 1879 : 		return;

	jmp	$LN1@R_StudioSe
$LN5@R_StudioSe:

; 1880 : 
; 1881 : 	if( RI.currententity != NULL )

	cmp	DWORD PTR _RI+28, 0
	je	SHORT $LN7@R_StudioSe

; 1882 : 		scale = RI.currententity->curstate.scale;

	mov	eax, DWORD PTR _RI+28
	movss	xmm0, DWORD PTR [eax+752]
	movss	DWORD PTR _scale$[ebp], xmm0
$LN7@R_StudioSe:

; 1883 : 
; 1884 : 	g_studio.ambientlight = plight->ambientlight;

	mov	ecx, DWORD PTR _plight$[ebp]
	cvtsi2ss xmm0, DWORD PTR [ecx]
	movss	DWORD PTR _g_studio+430164, xmm0

; 1885 : 	g_studio.shadelight = plight->shadelight;

	mov	edx, DWORD PTR _plight$[ebp]
	cvtsi2ss xmm0, DWORD PTR [edx+4]
	movss	DWORD PTR _g_studio+430168, xmm0

; 1886 : 	VectorCopy( plight->plightvec, g_studio.lightvec );

	mov	eax, 4
	imul	ecx, eax, 0
	mov	edx, DWORD PTR _plight$[ebp]
	mov	eax, DWORD PTR [edx+20]
	mov	edx, 4
	imul	edx, edx, 0
	mov	eax, DWORD PTR [ecx+eax]
	mov	DWORD PTR _g_studio[edx+430172], eax
	mov	ecx, 4
	shl	ecx, 0
	mov	edx, DWORD PTR _plight$[ebp]
	mov	eax, DWORD PTR [edx+20]
	mov	edx, 4
	shl	edx, 0
	mov	eax, DWORD PTR [ecx+eax]
	mov	DWORD PTR _g_studio[edx+430172], eax
	mov	ecx, 4
	shl	ecx, 1
	mov	edx, DWORD PTR _plight$[ebp]
	mov	eax, DWORD PTR [edx+20]
	mov	edx, 4
	shl	edx, 1
	mov	eax, DWORD PTR [ecx+eax]
	mov	DWORD PTR _g_studio[edx+430172], eax

; 1887 : 
; 1888 : 	for( i = 0; i < m_pStudioHeader->numbones; i++ )

	mov	DWORD PTR _i$[ebp], 0
	jmp	SHORT $LN4@R_StudioSe
$LN2@R_StudioSe:
	mov	ecx, DWORD PTR _i$[ebp]
	add	ecx, 1
	mov	DWORD PTR _i$[ebp], ecx
$LN4@R_StudioSe:
	mov	edx, DWORD PTR _m_pStudioHeader
	mov	eax, DWORD PTR _i$[ebp]
	cmp	eax, DWORD PTR [edx+140]
	jge	$LN3@R_StudioSe

; 1889 : 	{
; 1890 : 		Matrix3x4_VectorIRotate( g_studio.lighttransform[i], plight->plightvec, g_studio.blightvec[i] );

	imul	ecx, DWORD PTR _i$[ebp], 12
	add	ecx, OFFSET _g_studio+430208
	push	ecx
	mov	edx, DWORD PTR _plight$[ebp]
	mov	eax, DWORD PTR [edx+20]
	push	eax
	imul	ecx, DWORD PTR _i$[ebp], 48
	add	ecx, OFFSET _g_studio+6224
	push	ecx
	call	_Matrix3x4_VectorIRotate
	add	esp, 12					; 0000000cH

; 1891 : 		if( scale > 1.0f ) VectorNormalize( g_studio.blightvec[i] ); // in case model may be scaled

	movss	xmm0, DWORD PTR _scale$[ebp]
	comiss	xmm0, DWORD PTR __real@3f800000
	jbe	$LN8@R_StudioSe
	imul	edx, DWORD PTR _i$[ebp], 12
	mov	eax, 4
	imul	ecx, eax, 0
	imul	eax, DWORD PTR _i$[ebp], 12
	mov	esi, 4
	imul	esi, esi, 0
	movss	xmm0, DWORD PTR _g_studio[edx+ecx+430208]
	mulss	xmm0, DWORD PTR _g_studio[eax+esi+430208]
	imul	ecx, DWORD PTR _i$[ebp], 12
	mov	edx, 4
	shl	edx, 0
	imul	eax, DWORD PTR _i$[ebp], 12
	mov	esi, 4
	shl	esi, 0
	movss	xmm1, DWORD PTR _g_studio[ecx+edx+430208]
	mulss	xmm1, DWORD PTR _g_studio[eax+esi+430208]
	addss	xmm0, xmm1
	imul	ecx, DWORD PTR _i$[ebp], 12
	mov	edx, 4
	shl	edx, 1
	imul	eax, DWORD PTR _i$[ebp], 12
	mov	esi, 4
	shl	esi, 1
	movss	xmm1, DWORD PTR _g_studio[ecx+edx+430208]
	mulss	xmm1, DWORD PTR _g_studio[eax+esi+430208]
	addss	xmm0, xmm1
	cvtss2sd xmm0, xmm0
	sub	esp, 8
	movsd	QWORD PTR [esp], xmm0
	call	_sqrt
	add	esp, 8
	fstp	DWORD PTR _ilength$1[ebp]
	movss	xmm0, DWORD PTR _ilength$1[ebp]
	ucomiss	xmm0, DWORD PTR __real@00000000
	lahf
	test	ah, 68					; 00000044H
	jnp	SHORT $LN9@R_StudioSe
	movss	xmm0, DWORD PTR __real@3f800000
	divss	xmm0, DWORD PTR _ilength$1[ebp]
	movss	DWORD PTR _ilength$1[ebp], xmm0
$LN9@R_StudioSe:
	imul	ecx, DWORD PTR _i$[ebp], 12
	mov	edx, 4
	imul	eax, edx, 0
	movss	xmm0, DWORD PTR _g_studio[ecx+eax+430208]
	mulss	xmm0, DWORD PTR _ilength$1[ebp]
	mov	ecx, 4
	imul	edx, ecx, 0
	imul	eax, DWORD PTR _i$[ebp], 12
	movss	DWORD PTR _g_studio[eax+edx+430208], xmm0
	imul	ecx, DWORD PTR _i$[ebp], 12
	mov	edx, 4
	shl	edx, 0
	movss	xmm0, DWORD PTR _g_studio[ecx+edx+430208]
	mulss	xmm0, DWORD PTR _ilength$1[ebp]
	mov	eax, 4
	shl	eax, 0
	imul	ecx, DWORD PTR _i$[ebp], 12
	movss	DWORD PTR _g_studio[ecx+eax+430208], xmm0
	imul	edx, DWORD PTR _i$[ebp], 12
	mov	eax, 4
	shl	eax, 1
	movss	xmm0, DWORD PTR _g_studio[edx+eax+430208]
	mulss	xmm0, DWORD PTR _ilength$1[ebp]
	mov	ecx, 4
	shl	ecx, 1
	imul	edx, DWORD PTR _i$[ebp], 12
	movss	DWORD PTR _g_studio[edx+ecx+430208], xmm0
$LN8@R_StudioSe:

; 1892 : 	}

	jmp	$LN2@R_StudioSe
$LN3@R_StudioSe:

; 1893 : 
; 1894 : 	VectorCopy( plight->color, g_studio.lightcolor );

	mov	eax, 4
	imul	ecx, eax, 0
	mov	edx, 4
	imul	eax, edx, 0
	mov	edx, DWORD PTR _plight$[ebp]
	mov	ecx, DWORD PTR [edx+ecx+8]
	mov	DWORD PTR _g_studio[eax+430196], ecx
	mov	edx, 4
	shl	edx, 0
	mov	eax, 4
	shl	eax, 0
	mov	ecx, DWORD PTR _plight$[ebp]
	mov	edx, DWORD PTR [ecx+edx+8]
	mov	DWORD PTR _g_studio[eax+430196], edx
	mov	eax, 4
	shl	eax, 1
	mov	ecx, 4
	shl	ecx, 1
	mov	edx, DWORD PTR _plight$[ebp]
	mov	eax, DWORD PTR [edx+eax+8]
	mov	DWORD PTR _g_studio[ecx+430196], eax
$LN1@R_StudioSe:

; 1895 : }

	pop	esi
	mov	esp, ebp
	pop	ebp
	ret	0
_R_StudioSetupLighting ENDP
_TEXT	ENDS
; Function compile flags: /Odtp
; File c:\users\user\downloads\xash_build4529_src\engine\client\gl_studio.c
_TEXT	SEGMENT
tv201 = -104						; size = 4
_dist2$ = -100						; size = 4
_f$ = -96						; size = 4
_r2$ = -92						; size = 4
_lnum$ = -88						; size = 4
_minstrength$ = -84					; size = 4
_att$1 = -80						; size = 4
_i$ = -76						; size = 4
_j$ = -72						; size = 4
_ent$ = -68						; size = 4
_k$ = -64						; size = 4
_el$ = -60						; size = 4
_pos$ = -56						; size = 12
_lstrength$ = -44					; size = 16
_origin$ = -28						; size = 12
_mid$ = -16						; size = 12
__$ArrayPad$ = -4					; size = 4
_lightinfo$ = 8						; size = 4
_R_StudioEntityLight PROC

; 1794 : {

	push	ebp
	mov	ebp, esp
	sub	esp, 104				; 00000068H
	mov	eax, DWORD PTR ___security_cookie
	xor	eax, ebp
	mov	DWORD PTR __$ArrayPad$[ebp], eax
	push	esi

; 1795 : 	int		lnum, i, j, k;
; 1796 : 	float		minstrength, dist2, f, r2;
; 1797 : 	float		lstrength[MAX_LOCALLIGHTS];
; 1798 : 	cl_entity_t	*ent = RI.currententity;

	mov	eax, DWORD PTR _RI+28
	mov	DWORD PTR _ent$[ebp], eax

; 1799 : 	vec3_t		mid, origin, pos;
; 1800 : 	dlight_t		*el;
; 1801 : 
; 1802 : 	g_studio.numlocallights = 0;

	mov	DWORD PTR _g_studio+828556, 0

; 1803 : 
; 1804 : 	if( !ent || !r_dynamic->value )

	cmp	DWORD PTR _ent$[ebp], 0
	je	SHORT $LN12@R_StudioEn
	mov	ecx, DWORD PTR _r_dynamic
	movss	xmm0, DWORD PTR [ecx+12]
	ucomiss	xmm0, DWORD PTR __real@00000000
	lahf
	test	ah, 68					; 00000044H
	jp	SHORT $LN11@R_StudioEn
$LN12@R_StudioEn:

; 1805 : 		return;

	jmp	$LN6@R_StudioEn
$LN11@R_StudioEn:

; 1806 : 
; 1807 : 	for( i = 0; i < MAX_LOCALLIGHTS; i++ )

	mov	DWORD PTR _i$[ebp], 0
	jmp	SHORT $LN4@R_StudioEn
$LN2@R_StudioEn:
	mov	edx, DWORD PTR _i$[ebp]
	add	edx, 1
	mov	DWORD PTR _i$[ebp], edx
$LN4@R_StudioEn:
	cmp	DWORD PTR _i$[ebp], 4
	jge	SHORT $LN3@R_StudioEn

; 1808 : 		lstrength[i] = 0;

	mov	eax, DWORD PTR _i$[ebp]
	xorps	xmm0, xmm0
	movss	DWORD PTR _lstrength$[ebp+eax*4], xmm0
	jmp	SHORT $LN2@R_StudioEn
$LN3@R_StudioEn:

; 1809 : 
; 1810 : 	Matrix3x4_OriginFromMatrix( g_studio.rotationmatrix, origin );

	lea	ecx, DWORD PTR _origin$[ebp]
	push	ecx
	push	OFFSET _g_studio+32
	call	_Matrix3x4_OriginFromMatrix
	add	esp, 8

; 1811 : 	dist2 = 1000000.0f;

	movss	xmm0, DWORD PTR __real@49742400
	movss	DWORD PTR _dist2$[ebp], xmm0

; 1812 : 	k = 0;

	mov	DWORD PTR _k$[ebp], 0

; 1813 : 
; 1814 : 	for( lnum = 0, el = cl_elights; lnum < MAX_ELIGHTS; lnum++, el++ )

	mov	DWORD PTR _lnum$[ebp], 0
	mov	DWORD PTR _el$[ebp], OFFSET _cl_elights
	jmp	SHORT $LN7@R_StudioEn
$LN5@R_StudioEn:
	mov	edx, DWORD PTR _lnum$[ebp]
	add	edx, 1
	mov	DWORD PTR _lnum$[ebp], edx
	mov	eax, DWORD PTR _el$[ebp]
	add	eax, 40					; 00000028H
	mov	DWORD PTR _el$[ebp], eax
$LN7@R_StudioEn:
	cmp	DWORD PTR _lnum$[ebp], 64		; 00000040H
	jge	$LN6@R_StudioEn

; 1815 : 	{
; 1816 : 		if( el->die < g_studio.time || el->radius <= 0.0f )

	mov	ecx, DWORD PTR _el$[ebp]
	cvtss2sd xmm0, DWORD PTR [ecx+20]
	movsd	xmm1, QWORD PTR _g_studio
	comisd	xmm1, xmm0
	ja	SHORT $LN14@R_StudioEn
	mov	edx, DWORD PTR _el$[ebp]
	xorps	xmm0, xmm0
	comiss	xmm0, DWORD PTR [edx+12]
	jb	SHORT $LN13@R_StudioEn
$LN14@R_StudioEn:

; 1817 : 			continue;

	jmp	SHORT $LN5@R_StudioEn
$LN13@R_StudioEn:

; 1818 : 
; 1819 : 		if(( el->key & 0xFFF ) == ent->index )

	mov	eax, DWORD PTR _el$[ebp]
	mov	ecx, DWORD PTR [eax+32]
	and	ecx, 4095				; 00000fffH
	mov	edx, DWORD PTR _ent$[ebp]
	cmp	ecx, DWORD PTR [edx]
	jne	$LN17@R_StudioEn

; 1820 : 		{
; 1821 : 			int	att = (el->key >> 12) & 0xF;

	mov	eax, DWORD PTR _el$[ebp]
	mov	ecx, DWORD PTR [eax+32]
	sar	ecx, 12					; 0000000cH
	and	ecx, 15					; 0000000fH
	mov	DWORD PTR _att$1[ebp], ecx

; 1822 : 
; 1823 : 			if( att ) VectorCopy( ent->attachment[att], el->origin );

	je	SHORT $LN16@R_StudioEn
	imul	edx, DWORD PTR _att$1[ebp], 12
	mov	eax, DWORD PTR _ent$[ebp]
	lea	ecx, DWORD PTR [eax+edx+2912]
	mov	edx, 4
	imul	eax, edx, 0
	mov	edx, 4
	imul	edx, edx, 0
	mov	esi, DWORD PTR _el$[ebp]
	mov	eax, DWORD PTR [ecx+eax]
	mov	DWORD PTR [esi+edx], eax
	imul	ecx, DWORD PTR _att$1[ebp], 12
	mov	edx, DWORD PTR _ent$[ebp]
	lea	eax, DWORD PTR [edx+ecx+2912]
	mov	ecx, 4
	shl	ecx, 0
	mov	edx, 4
	shl	edx, 0
	mov	esi, DWORD PTR _el$[ebp]
	mov	eax, DWORD PTR [eax+ecx]
	mov	DWORD PTR [esi+edx], eax
	imul	ecx, DWORD PTR _att$1[ebp], 12
	mov	edx, DWORD PTR _ent$[ebp]
	lea	eax, DWORD PTR [edx+ecx+2912]
	mov	ecx, 4
	shl	ecx, 1
	mov	edx, 4
	shl	edx, 1
	mov	esi, DWORD PTR _el$[ebp]
	mov	eax, DWORD PTR [eax+ecx]
	mov	DWORD PTR [esi+edx], eax
	jmp	SHORT $LN17@R_StudioEn
$LN16@R_StudioEn:

; 1824 : 			else VectorCopy( ent->origin, el->origin );

	mov	ecx, 4
	imul	edx, ecx, 0
	mov	eax, 4
	imul	ecx, eax, 0
	mov	eax, DWORD PTR _el$[ebp]
	mov	esi, DWORD PTR _ent$[ebp]
	mov	edx, DWORD PTR [esi+edx+2888]
	mov	DWORD PTR [eax+ecx], edx
	mov	eax, 4
	shl	eax, 0
	mov	ecx, 4
	shl	ecx, 0
	mov	edx, DWORD PTR _el$[ebp]
	mov	esi, DWORD PTR _ent$[ebp]
	mov	eax, DWORD PTR [esi+eax+2888]
	mov	DWORD PTR [edx+ecx], eax
	mov	ecx, 4
	shl	ecx, 1
	mov	edx, 4
	shl	edx, 1
	mov	eax, DWORD PTR _el$[ebp]
	mov	esi, DWORD PTR _ent$[ebp]
	mov	ecx, DWORD PTR [esi+ecx+2888]
	mov	DWORD PTR [eax+edx], ecx
$LN17@R_StudioEn:

; 1825 : 		}
; 1826 : 
; 1827 : 		VectorCopy( el->origin, pos );

	mov	edx, 4
	imul	eax, edx, 0
	mov	ecx, 4
	imul	edx, ecx, 0
	mov	ecx, DWORD PTR _el$[ebp]
	mov	eax, DWORD PTR [ecx+eax]
	mov	DWORD PTR _pos$[ebp+edx], eax
	mov	ecx, 4
	shl	ecx, 0
	mov	edx, 4
	shl	edx, 0
	mov	eax, DWORD PTR _el$[ebp]
	mov	ecx, DWORD PTR [eax+ecx]
	mov	DWORD PTR _pos$[ebp+edx], ecx
	mov	edx, 4
	shl	edx, 1
	mov	eax, 4
	shl	eax, 1
	mov	ecx, DWORD PTR _el$[ebp]
	mov	edx, DWORD PTR [ecx+edx]
	mov	DWORD PTR _pos$[ebp+eax], edx

; 1828 : 		VectorSubtract( origin, el->origin, mid );

	mov	eax, 4
	imul	ecx, eax, 0
	mov	edx, 4
	imul	eax, edx, 0
	mov	edx, DWORD PTR _el$[ebp]
	movss	xmm0, DWORD PTR _origin$[ebp+ecx]
	subss	xmm0, DWORD PTR [edx+eax]
	mov	eax, 4
	imul	ecx, eax, 0
	movss	DWORD PTR _mid$[ebp+ecx], xmm0
	mov	edx, 4
	shl	edx, 0
	mov	eax, 4
	shl	eax, 0
	mov	ecx, DWORD PTR _el$[ebp]
	movss	xmm0, DWORD PTR _origin$[ebp+edx]
	subss	xmm0, DWORD PTR [ecx+eax]
	mov	edx, 4
	shl	edx, 0
	movss	DWORD PTR _mid$[ebp+edx], xmm0
	mov	eax, 4
	shl	eax, 1
	mov	ecx, 4
	shl	ecx, 1
	mov	edx, DWORD PTR _el$[ebp]
	movss	xmm0, DWORD PTR _origin$[ebp+eax]
	subss	xmm0, DWORD PTR [edx+ecx]
	movss	DWORD PTR tv201[ebp], xmm0
	mov	eax, 4
	shl	eax, 1
	movss	xmm0, DWORD PTR tv201[ebp]
	movss	DWORD PTR _mid$[ebp+eax], xmm0

; 1829 : 
; 1830 : 		f = DotProduct( mid, mid );

	mov	ecx, 4
	imul	edx, ecx, 0
	mov	eax, 4
	imul	ecx, eax, 0
	movss	xmm0, DWORD PTR _mid$[ebp+edx]
	mulss	xmm0, DWORD PTR _mid$[ebp+ecx]
	mov	edx, 4
	shl	edx, 0
	mov	eax, 4
	shl	eax, 0
	movss	xmm1, DWORD PTR _mid$[ebp+edx]
	mulss	xmm1, DWORD PTR _mid$[ebp+eax]
	addss	xmm0, xmm1
	mov	ecx, 4
	shl	ecx, 1
	mov	edx, 4
	shl	edx, 1
	movss	xmm1, DWORD PTR _mid$[ebp+ecx]
	mulss	xmm1, DWORD PTR _mid$[ebp+edx]
	addss	xmm0, xmm1
	movss	DWORD PTR _f$[ebp], xmm0

; 1831 : 		r2 = el->radius * el->radius;

	mov	eax, DWORD PTR _el$[ebp]
	mov	ecx, DWORD PTR _el$[ebp]
	movss	xmm0, DWORD PTR [eax+12]
	mulss	xmm0, DWORD PTR [ecx+12]
	movss	DWORD PTR _r2$[ebp], xmm0

; 1832 : 
; 1833 : 		if( f > r2 ) minstrength = r2 / f;

	movss	xmm0, DWORD PTR _f$[ebp]
	comiss	xmm0, DWORD PTR _r2$[ebp]
	jbe	SHORT $LN18@R_StudioEn
	movss	xmm0, DWORD PTR _r2$[ebp]
	divss	xmm0, DWORD PTR _f$[ebp]
	movss	DWORD PTR _minstrength$[ebp], xmm0
	jmp	SHORT $LN19@R_StudioEn
$LN18@R_StudioEn:

; 1834 : 		else minstrength = 1.0f;

	movss	xmm0, DWORD PTR __real@3f800000
	movss	DWORD PTR _minstrength$[ebp], xmm0
$LN19@R_StudioEn:

; 1835 : 
; 1836 : 		if( minstrength > 0.05f )

	movss	xmm0, DWORD PTR _minstrength$[ebp]
	comiss	xmm0, DWORD PTR __real@3d4ccccd
	jbe	$LN25@R_StudioEn

; 1837 : 		{
; 1838 : 			if( g_studio.numlocallights >= MAX_LOCALLIGHTS )

	cmp	DWORD PTR _g_studio+828556, 4
	jl	SHORT $LN21@R_StudioEn

; 1839 : 			{
; 1840 : 				for( j = 0, k = -1; j < g_studio.numlocallights; j++ )

	mov	DWORD PTR _j$[ebp], 0
	mov	DWORD PTR _k$[ebp], -1
	jmp	SHORT $LN10@R_StudioEn
$LN8@R_StudioEn:
	mov	edx, DWORD PTR _j$[ebp]
	add	edx, 1
	mov	DWORD PTR _j$[ebp], edx
$LN10@R_StudioEn:
	mov	eax, DWORD PTR _j$[ebp]
	cmp	eax, DWORD PTR _g_studio+828556
	jge	SHORT $LN9@R_StudioEn

; 1841 : 				{
; 1842 : 					if( lstrength[j] < dist2 && lstrength[j] < minstrength )

	mov	ecx, DWORD PTR _j$[ebp]
	movss	xmm0, DWORD PTR _dist2$[ebp]
	comiss	xmm0, DWORD PTR _lstrength$[ebp+ecx*4]
	jbe	SHORT $LN23@R_StudioEn
	mov	edx, DWORD PTR _j$[ebp]
	movss	xmm0, DWORD PTR _minstrength$[ebp]
	comiss	xmm0, DWORD PTR _lstrength$[ebp+edx*4]
	jbe	SHORT $LN23@R_StudioEn

; 1843 : 					{
; 1844 : 						dist2 = lstrength[j];

	mov	eax, DWORD PTR _j$[ebp]
	movss	xmm0, DWORD PTR _lstrength$[ebp+eax*4]
	movss	DWORD PTR _dist2$[ebp], xmm0

; 1845 : 						k = j;

	mov	ecx, DWORD PTR _j$[ebp]
	mov	DWORD PTR _k$[ebp], ecx
$LN23@R_StudioEn:

; 1846 : 					}
; 1847 : 				}

	jmp	SHORT $LN8@R_StudioEn
$LN9@R_StudioEn:

; 1848 : 			}

	jmp	SHORT $LN22@R_StudioEn
$LN21@R_StudioEn:

; 1849 : 			else k = g_studio.numlocallights;

	mov	edx, DWORD PTR _g_studio+828556
	mov	DWORD PTR _k$[ebp], edx
$LN22@R_StudioEn:

; 1850 : 
; 1851 : 			if( k != -1 )

	cmp	DWORD PTR _k$[ebp], -1
	je	$LN25@R_StudioEn

; 1852 : 			{
; 1853 : 				g_studio.locallightcolor[k].r = LightToTexGamma( el->color.r );

	mov	eax, DWORD PTR _el$[ebp]
	movzx	ecx, BYTE PTR [eax+16]
	push	ecx
	call	_LightToTexGamma
	add	esp, 4
	imul	edx, DWORD PTR _k$[ebp], 3
	mov	BYTE PTR _g_studio[edx+829088], al

; 1854 : 				g_studio.locallightcolor[k].g = LightToTexGamma( el->color.g );

	mov	eax, DWORD PTR _el$[ebp]
	movzx	ecx, BYTE PTR [eax+17]
	push	ecx
	call	_LightToTexGamma
	add	esp, 4
	imul	edx, DWORD PTR _k$[ebp], 3
	mov	BYTE PTR _g_studio[edx+829089], al

; 1855 : 				g_studio.locallightcolor[k].b = LightToTexGamma( el->color.b );

	mov	eax, DWORD PTR _el$[ebp]
	movzx	ecx, BYTE PTR [eax+18]
	push	ecx
	call	_LightToTexGamma
	add	esp, 4
	imul	edx, DWORD PTR _k$[ebp], 3
	mov	BYTE PTR _g_studio[edx+829090], al

; 1856 : 				g_studio.locallightR2[k] = r2;

	mov	eax, DWORD PTR _k$[ebp]
	movss	xmm0, DWORD PTR _r2$[ebp]
	movss	DWORD PTR _g_studio[eax*4+1883820], xmm0

; 1857 : 				g_studio.locallight[k] = el;

	mov	ecx, DWORD PTR _k$[ebp]
	mov	edx, DWORD PTR _el$[ebp]
	mov	DWORD PTR _g_studio[ecx*4+829072], edx

; 1858 : 				lstrength[k] = minstrength;

	mov	eax, DWORD PTR _k$[ebp]
	movss	xmm0, DWORD PTR _minstrength$[ebp]
	movss	DWORD PTR _lstrength$[ebp+eax*4], xmm0

; 1859 : 
; 1860 : 				if( k >= g_studio.numlocallights )

	mov	ecx, DWORD PTR _k$[ebp]
	cmp	ecx, DWORD PTR _g_studio+828556
	jl	SHORT $LN25@R_StudioEn

; 1861 : 					g_studio.numlocallights = k + 1;

	mov	edx, DWORD PTR _k$[ebp]
	add	edx, 1
	mov	DWORD PTR _g_studio+828556, edx
$LN25@R_StudioEn:

; 1862 : 			}
; 1863 : 		}
; 1864 : 	}

	jmp	$LN5@R_StudioEn
$LN6@R_StudioEn:

; 1865 : }

	pop	esi
	mov	ecx, DWORD PTR __$ArrayPad$[ebp]
	xor	ecx, ebp
	call	@__security_check_cookie@4
	mov	esp, ebp
	pop	ebp
	ret	0
_R_StudioEntityLight ENDP
_TEXT	ENDS
; Function compile flags: /Odtp
; File c:\users\user\downloads\xash_build4529_src\engine\client\gl_studio.c
_TEXT	SEGMENT
$T1 = -564						; size = 68
$T2 = -496						; size = 16
$T3 = -480						; size = 16
$T4 = -464						; size = 16
$T5 = -448						; size = 16
$T6 = -432						; size = 16
tv1279 = -416						; size = 8
tv1249 = -408						; size = 8
tv1419 = -400						; size = 8
tv1219 = -392						; size = 8
tv1386 = -384						; size = 8
tv1377 = -376						; size = 8
tv1367 = -368						; size = 8
tv1309 = -360						; size = 8
tv729 = -352						; size = 4
tv708 = -348						; size = 4
tv693 = -344						; size = 4
tv640 = -340						; size = 4
tv605 = -336						; size = 4
tv581 = -332						; size = 4
tv345 = -328						; size = 4
tv324 = -324						; size = 4
tv264 = -320						; size = 4
tv174 = -316						; size = 4
tv790 = -312						; size = 4
tv1363 = -308						; size = 4
tv275 = -304						; size = 4
tv288 = -300						; size = 4
tv289 = -296						; size = 4
tv302 = -292						; size = 4
tv303 = -288						; size = 4
tv1216 = -284						; size = 4
tv1246 = -280						; size = 4
tv1276 = -276						; size = 4
tv1306 = -272						; size = 4
tv855 = -268						; size = 4
tv851 = -264						; size = 4
tv833 = -260						; size = 4
tv1415 = -256						; size = 4
tv588 = -252						; size = 4
tv587 = -248						; size = 4
tv584 = -244						; size = 4
tv1382 = -240						; size = 4
tv1373 = -236						; size = 4
tv274 = -232						; size = 4
_lnum$ = -228						; size = 4
_psurf$7 = -224						; size = 4
_radius$ = -220						; size = 4
_ilength$8 = -216					; size = 4
_ilength$9 = -212					; size = 4
_dl$ = -208						; size = 4
_total$ = -204						; size = 4
_add$ = -200						; size = 4
_mv$ = -196						; size = 4
_trace$10 = -192					; size = 68
_gcolor$11 = -124					; size = 16
_light$ = -108						; size = 16
_grad$12 = -92						; size = 16
_origin$ = -76						; size = 12
_finalLight$ = -64					; size = 12
_vecSrc$ = -52						; size = 12
_dist$ = -40						; size = 12
_vecEnd$ = -28						; size = 12
_lightDir$ = -16					; size = 12
__$ArrayPad$ = -4					; size = 4
_ent$ = 8						; size = 4
_plight$ = 12						; size = 4
_R_StudioDynamicLight PROC

; 1612 : {

	push	ebp
	mov	ebp, esp
	sub	esp, 564				; 00000234H
	mov	eax, DWORD PTR ___security_cookie
	xor	eax, ebp
	mov	DWORD PTR __$ArrayPad$[ebp], eax
	push	esi
	push	edi

; 1613 : 	movevars_t	*mv = &clgame.movevars;

