; Listing generated by Microsoft (R) Optimizing Compiler Version 19.16.27045.0 

	TITLE	C:\Users\USER\Downloads\XashXT_v0.81_rev.1_with_sources\XashXT_v0.81_rev.1_src\game_shared\ikcontext.cpp
	.686P
	.XMM
	include listing.inc
	.model	flat

INCLUDELIB LIBCMT
INCLUDELIB OLDNAMES

CONST	SEGMENT
$SG17308 DB	'^2Warning:^7 AutoIKRelease (%s) out of range bone %d (%d'
	DB	')', 0aH, 00H
	ORG $+1
$SG17309 DB	'^2Warning:^7 AutoIKRelease (%s) got a NULL pchain %d', 0aH
	DB	00H
	ORG $+2
$SG18092 DB	'n', 00H, 'u', 00H, 'm', 00H, ' ', 00H, '>', 00H, ' ', 00H
	DB	'0', 00H, 00H, 00H
$SG18095 DB	'0', 00H, 00H, 00H
$SG17310 DB	'^2Warning:^7 AutoIKRelease (%s) got an out of range chai'
	DB	'n %d (%d)', 0aH, 00H
	ORG $+1
$SG18101 DB	'0', 00H, 00H, 00H
$SG17790 DB	'c', 00H, ':', 00H, '\', 00H, 'u', 00H, 's', 00H, 'e', 00H
	DB	'r', 00H, 's', 00H, '\', 00H, 'u', 00H, 's', 00H, 'e', 00H, 'r'
	DB	00H, '\', 00H, 'd', 00H, 'o', 00H, 'w', 00H, 'n', 00H, 'l', 00H
	DB	'o', 00H, 'a', 00H, 'd', 00H, 's', 00H, '\', 00H, 'x', 00H, 'a'
	DB	00H, 's', 00H, 'h', 00H, 'x', 00H, 't', 00H, '_', 00H, 'v', 00H
	DB	'0', 00H, '.', 00H, '8', 00H, '1', 00H, '_', 00H, 'r', 00H, 'e'
	DB	00H, 'v', 00H, '.', 00H, '1', 00H, '_', 00H, 'w', 00H, 'i', 00H
	DB	't', 00H, 'h', 00H, '_', 00H, 's', 00H, 'o', 00H, 'u', 00H, 'r'
	DB	00H, 'c', 00H, 'e', 00H, 's', 00H, '\', 00H, 'x', 00H, 'a', 00H
	DB	's', 00H, 'h', 00H, 'x', 00H, 't', 00H, '_', 00H, 'v', 00H, '0'
	DB	00H, '.', 00H, '8', 00H, '1', 00H, '_', 00H, 'r', 00H, 'e', 00H
	DB	'v', 00H, '.', 00H, '1', 00H, '_', 00H, 's', 00H, 'r', 00H, 'c'
	DB	00H, '\', 00H, 'g', 00H, 'a', 00H, 'm', 00H, 'e', 00H, '_', 00H
	DB	's', 00H, 'h', 00H, 'a', 00H, 'r', 00H, 'e', 00H, 'd', 00H, '\'
	DB	00H, 'u', 00H, 't', 00H, 'l', 00H, 'm', 00H, 'e', 00H, 'm', 00H
	DB	'o', 00H, 'r', 00H, 'y', 00H, '.', 00H, 'h', 00H, 00H, 00H
	ORG $+2
$SG17791 DB	'n', 00H, 'G', 00H, 'r', 00H, 'o', 00H, 'w', 00H, 'S', 00H
	DB	'i', 00H, 'z', 00H, 'e', 00H, ' ', 00H, '>', 00H, '=', 00H, ' '
	DB	00H, '0', 00H, 00H, 00H
	ORG $+2
$SG17828 DB	'c', 00H, ':', 00H, '\', 00H, 'u', 00H, 's', 00H, 'e', 00H
	DB	'r', 00H, 's', 00H, '\', 00H, 'u', 00H, 's', 00H, 'e', 00H, 'r'
	DB	00H, '\', 00H, 'd', 00H, 'o', 00H, 'w', 00H, 'n', 00H, 'l', 00H
	DB	'o', 00H, 'a', 00H, 'd', 00H, 's', 00H, '\', 00H, 'x', 00H, 'a'
	DB	00H, 's', 00H, 'h', 00H, 'x', 00H, 't', 00H, '_', 00H, 'v', 00H
	DB	'0', 00H, '.', 00H, '8', 00H, '1', 00H, '_', 00H, 'r', 00H, 'e'
	DB	00H, 'v', 00H, '.', 00H, '1', 00H, '_', 00H, 'w', 00H, 'i', 00H
	DB	't', 00H, 'h', 00H, '_', 00H, 's', 00H, 'o', 00H, 'u', 00H, 'r'
	DB	00H, 'c', 00H, 'e', 00H, 's', 00H, '\', 00H, 'x', 00H, 'a', 00H
	DB	's', 00H, 'h', 00H, 'x', 00H, 't', 00H, '_', 00H, 'v', 00H, '0'
	DB	00H, '.', 00H, '8', 00H, '1', 00H, '_', 00H, 'r', 00H, 'e', 00H
	DB	'v', 00H, '.', 00H, '1', 00H, '_', 00H, 's', 00H, 'r', 00H, 'c'
	DB	00H, '\', 00H, 'g', 00H, 'a', 00H, 'm', 00H, 'e', 00H, '_', 00H
	DB	's', 00H, 'h', 00H, 'a', 00H, 'r', 00H, 'e', 00H, 'd', 00H, '\'
	DB	00H, 'u', 00H, 't', 00H, 'l', 00H, 'a', 00H, 'r', 00H, 'r', 00H
	DB	'a', 00H, 'y', 00H, '.', 00H, 'h', 00H, 00H, 00H
$SG18105 DB	'm', 00H, '_', 00H, 'p', 00H, 'M', 00H, 'e', 00H, 'm', 00H
	DB	'o', 00H, 'r', 00H, 'y', 00H, 00H, 00H
$SG17829 DB	'(', 00H, 'e', 00H, 'l', 00H, 'e', 00H, 'm', 00H, ' ', 00H
	DB	'=', 00H, '=', 00H, ' ', 00H, 'C', 00H, 'o', 00H, 'u', 00H, 'n'
	DB	00H, 't', 00H, '(', 00H, ')', 00H, ')', 00H, ' ', 00H, '|', 00H
	DB	'|', 00H, ' ', 00H, 'I', 00H, 's', 00H, 'V', 00H, 'a', 00H, 'l'
	DB	00H, 'i', 00H, 'd', 00H, 'I', 00H, 'n', 00H, 'd', 00H, 'e', 00H
	DB	'x', 00H, '(', 00H, 'e', 00H, 'l', 00H, 'e', 00H, 'm', 00H, ')'
	DB	00H, 00H, 00H
$SG17867 DB	'c', 00H, ':', 00H, '\', 00H, 'u', 00H, 's', 00H, 'e', 00H
	DB	'r', 00H, 's', 00H, '\', 00H, 'u', 00H, 's', 00H, 'e', 00H, 'r'
	DB	00H, '\', 00H, 'd', 00H, 'o', 00H, 'w', 00H, 'n', 00H, 'l', 00H
	DB	'o', 00H, 'a', 00H, 'd', 00H, 's', 00H, '\', 00H, 'x', 00H, 'a'
	DB	00H, 's', 00H, 'h', 00H, 'x', 00H, 't', 00H, '_', 00H, 'v', 00H
	DB	'0', 00H, '.', 00H, '8', 00H, '1', 00H, '_', 00H, 'r', 00H, 'e'
	DB	00H, 'v', 00H, '.', 00H, '1', 00H, '_', 00H, 'w', 00H, 'i', 00H
	DB	't', 00H, 'h', 00H, '_', 00H, 's', 00H, 'o', 00H, 'u', 00H, 'r'
	DB	00H, 'c', 00H, 'e', 00H, 's', 00H, '\', 00H, 'x', 00H, 'a', 00H
	DB	's', 00H, 'h', 00H, 'x', 00H, 't', 00H, '_', 00H, 'v', 00H, '0'
	DB	00H, '.', 00H, '8', 00H, '1', 00H, '_', 00H, 'r', 00H, 'e', 00H
	DB	'v', 00H, '.', 00H, '1', 00H, '_', 00H, 's', 00H, 'r', 00H, 'c'
	DB	00H, '\', 00H, 'g', 00H, 'a', 00H, 'm', 00H, 'e', 00H, '_', 00H
	DB	's', 00H, 'h', 00H, 'a', 00H, 'r', 00H, 'e', 00H, 'd', 00H, '\'
	DB	00H, 'u', 00H, 't', 00H, 'l', 00H, 'm', 00H, 'e', 00H, 'm', 00H
	DB	'o', 00H, 'r', 00H, 'y', 00H, '.', 00H, 'h', 00H, 00H, 00H
	ORG $+2
$SG17868 DB	'n', 00H, 'G', 00H, 'r', 00H, 'o', 00H, 'w', 00H, 'S', 00H
	DB	'i', 00H, 'z', 00H, 'e', 00H, ' ', 00H, '>', 00H, '=', 00H, ' '
	DB	00H, '0', 00H, 00H, 00H
	ORG $+2
$SG17984 DB	'c', 00H, ':', 00H, '\', 00H, 'u', 00H, 's', 00H, 'e', 00H
	DB	'r', 00H, 's', 00H, '\', 00H, 'u', 00H, 's', 00H, 'e', 00H, 'r'
	DB	00H, '\', 00H, 'd', 00H, 'o', 00H, 'w', 00H, 'n', 00H, 'l', 00H
	DB	'o', 00H, 'a', 00H, 'd', 00H, 's', 00H, '\', 00H, 'x', 00H, 'a'
	DB	00H, 's', 00H, 'h', 00H, 'x', 00H, 't', 00H, '_', 00H, 'v', 00H
	DB	'0', 00H, '.', 00H, '8', 00H, '1', 00H, '_', 00H, 'r', 00H, 'e'
	DB	00H, 'v', 00H, '.', 00H, '1', 00H, '_', 00H, 'w', 00H, 'i', 00H
	DB	't', 00H, 'h', 00H, '_', 00H, 's', 00H, 'o', 00H, 'u', 00H, 'r'
	DB	00H, 'c', 00H, 'e', 00H, 's', 00H, '\', 00H, 'x', 00H, 'a', 00H
	DB	's', 00H, 'h', 00H, 'x', 00H, 't', 00H, '_', 00H, 'v', 00H, '0'
	DB	00H, '.', 00H, '8', 00H, '1', 00H, '_', 00H, 'r', 00H, 'e', 00H
	DB	'v', 00H, '.', 00H, '1', 00H, '_', 00H, 's', 00H, 'r', 00H, 'c'
	DB	00H, '\', 00H, 'g', 00H, 'a', 00H, 'm', 00H, 'e', 00H, '_', 00H
	DB	's', 00H, 'h', 00H, 'a', 00H, 'r', 00H, 'e', 00H, 'd', 00H, '\'
	DB	00H, 'u', 00H, 't', 00H, 'l', 00H, 'a', 00H, 'r', 00H, 'r', 00H
	DB	'a', 00H, 'y', 00H, '.', 00H, 'h', 00H, 00H, 00H
$SG18107 DB	'm', 00H, '_', 00H, 'p', 00H, 'M', 00H, 'e', 00H, 'm', 00H
	DB	'o', 00H, 'r', 00H, 'y', 00H, 00H, 00H
$SG17985 DB	'I', 00H, 's', 00H, 'V', 00H, 'a', 00H, 'l', 00H, 'i', 00H
	DB	'd', 00H, 'I', 00H, 'n', 00H, 'd', 00H, 'e', 00H, 'x', 00H, '('
	DB	00H, 'e', 00H, 'l', 00H, 'e', 00H, 'm', 00H, ')', 00H, ' ', 00H
	DB	'|', 00H, '|', 00H, ' ', 00H, '(', 00H, ' ', 00H, 'm', 00H, '_'
	DB	00H, 'S', 00H, 'i', 00H, 'z', 00H, 'e', 00H, ' ', 00H, '=', 00H
	DB	'=', 00H, ' ', 00H, '0', 00H, ' ', 00H, ')', 00H, ' ', 00H, '|'
	DB	00H, '|', 00H, ' ', 00H, '(', 00H, ' ', 00H, 'n', 00H, 'u', 00H
	DB	'm', 00H, ' ', 00H, '=', 00H, '=', 00H, ' ', 00H, '0', 00H, ' '
	DB	00H, ')', 00H, 00H, 00H
$SG18293 DB	'0', 00H, 00H, 00H
$SG18091 DB	'c', 00H, ':', 00H, '\', 00H, 'u', 00H, 's', 00H, 'e', 00H
	DB	'r', 00H, 's', 00H, '\', 00H, 'u', 00H, 's', 00H, 'e', 00H, 'r'
	DB	00H, '\', 00H, 'd', 00H, 'o', 00H, 'w', 00H, 'n', 00H, 'l', 00H
	DB	'o', 00H, 'a', 00H, 'd', 00H, 's', 00H, '\', 00H, 'x', 00H, 'a'
	DB	00H, 's', 00H, 'h', 00H, 'x', 00H, 't', 00H, '_', 00H, 'v', 00H
	DB	'0', 00H, '.', 00H, '8', 00H, '1', 00H, '_', 00H, 'r', 00H, 'e'
	DB	00H, 'v', 00H, '.', 00H, '1', 00H, '_', 00H, 'w', 00H, 'i', 00H
	DB	't', 00H, 'h', 00H, '_', 00H, 's', 00H, 'o', 00H, 'u', 00H, 'r'
	DB	00H, 'c', 00H, 'e', 00H, 's', 00H, '\', 00H, 'x', 00H, 'a', 00H
	DB	's', 00H, 'h', 00H, 'x', 00H, 't', 00H, '_', 00H, 'v', 00H, '0'
	DB	00H, '.', 00H, '8', 00H, '1', 00H, '_', 00H, 'r', 00H, 'e', 00H
	DB	'v', 00H, '.', 00H, '1', 00H, '_', 00H, 's', 00H, 'r', 00H, 'c'
	DB	00H, '\', 00H, 'g', 00H, 'a', 00H, 'm', 00H, 'e', 00H, '_', 00H
	DB	's', 00H, 'h', 00H, 'a', 00H, 'r', 00H, 'e', 00H, 'd', 00H, '\'
	DB	00H, 'u', 00H, 't', 00H, 'l', 00H, 'm', 00H, 'e', 00H, 'm', 00H
	DB	'o', 00H, 'r', 00H, 'y', 00H, '.', 00H, 'h', 00H, 00H, 00H
	ORG $+2
$SG18094 DB	'c', 00H, ':', 00H, '\', 00H, 'u', 00H, 's', 00H, 'e', 00H
	DB	'r', 00H, 's', 00H, '\', 00H, 'u', 00H, 's', 00H, 'e', 00H, 'r'
	DB	00H, '\', 00H, 'd', 00H, 'o', 00H, 'w', 00H, 'n', 00H, 'l', 00H
	DB	'o', 00H, 'a', 00H, 'd', 00H, 's', 00H, '\', 00H, 'x', 00H, 'a'
	DB	00H, 's', 00H, 'h', 00H, 'x', 00H, 't', 00H, '_', 00H, 'v', 00H
	DB	'0', 00H, '.', 00H, '8', 00H, '1', 00H, '_', 00H, 'r', 00H, 'e'
	DB	00H, 'v', 00H, '.', 00H, '1', 00H, '_', 00H, 'w', 00H, 'i', 00H
	DB	't', 00H, 'h', 00H, '_', 00H, 's', 00H, 'o', 00H, 'u', 00H, 'r'
	DB	00H, 'c', 00H, 'e', 00H, 's', 00H, '\', 00H, 'x', 00H, 'a', 00H
	DB	's', 00H, 'h', 00H, 'x', 00H, 't', 00H, '_', 00H, 'v', 00H, '0'
	DB	00H, '.', 00H, '8', 00H, '1', 00H, '_', 00H, 'r', 00H, 'e', 00H
	DB	'v', 00H, '.', 00H, '1', 00H, '_', 00H, 's', 00H, 'r', 00H, 'c'
	DB	00H, '\', 00H, 'g', 00H, 'a', 00H, 'm', 00H, 'e', 00H, '_', 00H
	DB	's', 00H, 'h', 00H, 'a', 00H, 'r', 00H, 'e', 00H, 'd', 00H, '\'
	DB	00H, 'u', 00H, 't', 00H, 'l', 00H, 'm', 00H, 'e', 00H, 'm', 00H
	DB	'o', 00H, 'r', 00H, 'y', 00H, '.', 00H, 'h', 00H, 00H, 00H
	ORG $+2
$SG18100 DB	'c', 00H, ':', 00H, '\', 00H, 'u', 00H, 's', 00H, 'e', 00H
	DB	'r', 00H, 's', 00H, '\', 00H, 'u', 00H, 's', 00H, 'e', 00H, 'r'
	DB	00H, '\', 00H, 'd', 00H, 'o', 00H, 'w', 00H, 'n', 00H, 'l', 00H
	DB	'o', 00H, 'a', 00H, 'd', 00H, 's', 00H, '\', 00H, 'x', 00H, 'a'
	DB	00H, 's', 00H, 'h', 00H, 'x', 00H, 't', 00H, '_', 00H, 'v', 00H
	DB	'0', 00H, '.', 00H, '8', 00H, '1', 00H, '_', 00H, 'r', 00H, 'e'
	DB	00H, 'v', 00H, '.', 00H, '1', 00H, '_', 00H, 'w', 00H, 'i', 00H
	DB	't', 00H, 'h', 00H, '_', 00H, 's', 00H, 'o', 00H, 'u', 00H, 'r'
	DB	00H, 'c', 00H, 'e', 00H, 's', 00H, '\', 00H, 'x', 00H, 'a', 00H
	DB	's', 00H, 'h', 00H, 'x', 00H, 't', 00H, '_', 00H, 'v', 00H, '0'
	DB	00H, '.', 00H, '8', 00H, '1', 00H, '_', 00H, 'r', 00H, 'e', 00H
	DB	'v', 00H, '.', 00H, '1', 00H, '_', 00H, 's', 00H, 'r', 00H, 'c'
	DB	00H, '\', 00H, 'g', 00H, 'a', 00H, 'm', 00H, 'e', 00H, '_', 00H
	DB	's', 00H, 'h', 00H, 'a', 00H, 'r', 00H, 'e', 00H, 'd', 00H, '\'
	DB	00H, 'u', 00H, 't', 00H, 'l', 00H, 'm', 00H, 'e', 00H, 'm', 00H
	DB	'o', 00H, 'r', 00H, 'y', 00H, '.', 00H, 'h', 00H, 00H, 00H
	ORG $+2
$SG18104 DB	'c', 00H, ':', 00H, '\', 00H, 'u', 00H, 's', 00H, 'e', 00H
	DB	'r', 00H, 's', 00H, '\', 00H, 'u', 00H, 's', 00H, 'e', 00H, 'r'
	DB	00H, '\', 00H, 'd', 00H, 'o', 00H, 'w', 00H, 'n', 00H, 'l', 00H
	DB	'o', 00H, 'a', 00H, 'd', 00H, 's', 00H, '\', 00H, 'x', 00H, 'a'
	DB	00H, 's', 00H, 'h', 00H, 'x', 00H, 't', 00H, '_', 00H, 'v', 00H
	DB	'0', 00H, '.', 00H, '8', 00H, '1', 00H, '_', 00H, 'r', 00H, 'e'
	DB	00H, 'v', 00H, '.', 00H, '1', 00H, '_', 00H, 'w', 00H, 'i', 00H
	DB	't', 00H, 'h', 00H, '_', 00H, 's', 00H, 'o', 00H, 'u', 00H, 'r'
	DB	00H, 'c', 00H, 'e', 00H, 's', 00H, '\', 00H, 'x', 00H, 'a', 00H
	DB	's', 00H, 'h', 00H, 'x', 00H, 't', 00H, '_', 00H, 'v', 00H, '0'
	DB	00H, '.', 00H, '8', 00H, '1', 00H, '_', 00H, 'r', 00H, 'e', 00H
	DB	'v', 00H, '.', 00H, '1', 00H, '_', 00H, 's', 00H, 'r', 00H, 'c'
	DB	00H, '\', 00H, 'g', 00H, 'a', 00H, 'm', 00H, 'e', 00H, '_', 00H
	DB	's', 00H, 'h', 00H, 'a', 00H, 'r', 00H, 'e', 00H, 'd', 00H, '\'
	DB	00H, 'u', 00H, 't', 00H, 'l', 00H, 'm', 00H, 'e', 00H, 'm', 00H
	DB	'o', 00H, 'r', 00H, 'y', 00H, '.', 00H, 'h', 00H, 00H, 00H
	ORG $+2
$SG18106 DB	'c', 00H, ':', 00H, '\', 00H, 'u', 00H, 's', 00H, 'e', 00H
	DB	'r', 00H, 's', 00H, '\', 00H, 'u', 00H, 's', 00H, 'e', 00H, 'r'
	DB	00H, '\', 00H, 'd', 00H, 'o', 00H, 'w', 00H, 'n', 00H, 'l', 00H
	DB	'o', 00H, 'a', 00H, 'd', 00H, 's', 00H, '\', 00H, 'x', 00H, 'a'
	DB	00H, 's', 00H, 'h', 00H, 'x', 00H, 't', 00H, '_', 00H, 'v', 00H
	DB	'0', 00H, '.', 00H, '8', 00H, '1', 00H, '_', 00H, 'r', 00H, 'e'
	DB	00H, 'v', 00H, '.', 00H, '1', 00H, '_', 00H, 'w', 00H, 'i', 00H
	DB	't', 00H, 'h', 00H, '_', 00H, 's', 00H, 'o', 00H, 'u', 00H, 'r'
	DB	00H, 'c', 00H, 'e', 00H, 's', 00H, '\', 00H, 'x', 00H, 'a', 00H
	DB	's', 00H, 'h', 00H, 'x', 00H, 't', 00H, '_', 00H, 'v', 00H, '0'
	DB	00H, '.', 00H, '8', 00H, '1', 00H, '_', 00H, 'r', 00H, 'e', 00H
	DB	'v', 00H, '.', 00H, '1', 00H, '_', 00H, 's', 00H, 'r', 00H, 'c'
	DB	00H, '\', 00H, 'g', 00H, 'a', 00H, 'm', 00H, 'e', 00H, '_', 00H
	DB	's', 00H, 'h', 00H, 'a', 00H, 'r', 00H, 'e', 00H, 'd', 00H, '\'
	DB	00H, 'u', 00H, 't', 00H, 'l', 00H, 'm', 00H, 'e', 00H, 'm', 00H
	DB	'o', 00H, 'r', 00H, 'y', 00H, '.', 00H, 'h', 00H, 00H, 00H
	ORG $+2
$SG18168 DB	'c', 00H, ':', 00H, '\', 00H, 'u', 00H, 's', 00H, 'e', 00H
	DB	'r', 00H, 's', 00H, '\', 00H, 'u', 00H, 's', 00H, 'e', 00H, 'r'
	DB	00H, '\', 00H, 'd', 00H, 'o', 00H, 'w', 00H, 'n', 00H, 'l', 00H
	DB	'o', 00H, 'a', 00H, 'd', 00H, 's', 00H, '\', 00H, 'x', 00H, 'a'
	DB	00H, 's', 00H, 'h', 00H, 'x', 00H, 't', 00H, '_', 00H, 'v', 00H
	DB	'0', 00H, '.', 00H, '8', 00H, '1', 00H, '_', 00H, 'r', 00H, 'e'
	DB	00H, 'v', 00H, '.', 00H, '1', 00H, '_', 00H, 'w', 00H, 'i', 00H
	DB	't', 00H, 'h', 00H, '_', 00H, 's', 00H, 'o', 00H, 'u', 00H, 'r'
	DB	00H, 'c', 00H, 'e', 00H, 's', 00H, '\', 00H, 'x', 00H, 'a', 00H
	DB	's', 00H, 'h', 00H, 'x', 00H, 't', 00H, '_', 00H, 'v', 00H, '0'
	DB	00H, '.', 00H, '8', 00H, '1', 00H, '_', 00H, 'r', 00H, 'e', 00H
	DB	'v', 00H, '.', 00H, '1', 00H, '_', 00H, 's', 00H, 'r', 00H, 'c'
	DB	00H, '\', 00H, 'g', 00H, 'a', 00H, 'm', 00H, 'e', 00H, '_', 00H
	DB	's', 00H, 'h', 00H, 'a', 00H, 'r', 00H, 'e', 00H, 'd', 00H, '\'
	DB	00H, 'u', 00H, 't', 00H, 'l', 00H, 'a', 00H, 'r', 00H, 'r', 00H
	DB	'a', 00H, 'y', 00H, '.', 00H, 'h', 00H, 00H, 00H
$SG18299 DB	'0', 00H, 00H, 00H
$SG18169 DB	'I', 00H, 's', 00H, 'V', 00H, 'a', 00H, 'l', 00H, 'i', 00H
	DB	'd', 00H, 'I', 00H, 'n', 00H, 'd', 00H, 'e', 00H, 'x', 00H, '('
	DB	00H, 'e', 00H, 'l', 00H, 'e', 00H, 'm', 00H, ')', 00H, ' ', 00H
	DB	'|', 00H, '|', 00H, ' ', 00H, '(', 00H, ' ', 00H, 'm', 00H, '_'
	DB	00H, 'S', 00H, 'i', 00H, 'z', 00H, 'e', 00H, ' ', 00H, '=', 00H
	DB	'=', 00H, ' ', 00H, '0', 00H, ' ', 00H, ')', 00H, ' ', 00H, '|'
	DB	00H, '|', 00H, ' ', 00H, '(', 00H, ' ', 00H, 'n', 00H, 'u', 00H
	DB	'm', 00H, ' ', 00H, '=', 00H, '=', 00H, ' ', 00H, '0', 00H, ' '
	DB	00H, ')', 00H, 00H, 00H
$SG18303 DB	'm', 00H, '_', 00H, 'p', 00H, 'M', 00H, 'e', 00H, 'm', 00H
	DB	'o', 00H, 'r', 00H, 'y', 00H, 00H, 00H
$SG18206 DB	'c', 00H, ':', 00H, '\', 00H, 'u', 00H, 's', 00H, 'e', 00H
	DB	'r', 00H, 's', 00H, '\', 00H, 'u', 00H, 's', 00H, 'e', 00H, 'r'
	DB	00H, '\', 00H, 'd', 00H, 'o', 00H, 'w', 00H, 'n', 00H, 'l', 00H
	DB	'o', 00H, 'a', 00H, 'd', 00H, 's', 00H, '\', 00H, 'x', 00H, 'a'
	DB	00H, 's', 00H, 'h', 00H, 'x', 00H, 't', 00H, '_', 00H, 'v', 00H
	DB	'0', 00H, '.', 00H, '8', 00H, '1', 00H, '_', 00H, 'r', 00H, 'e'
	DB	00H, 'v', 00H, '.', 00H, '1', 00H, '_', 00H, 'w', 00H, 'i', 00H
	DB	't', 00H, 'h', 00H, '_', 00H, 's', 00H, 'o', 00H, 'u', 00H, 'r'
	DB	00H, 'c', 00H, 'e', 00H, 's', 00H, '\', 00H, 'x', 00H, 'a', 00H
	DB	's', 00H, 'h', 00H, 'x', 00H, 't', 00H, '_', 00H, 'v', 00H, '0'
	DB	00H, '.', 00H, '8', 00H, '1', 00H, '_', 00H, 'r', 00H, 'e', 00H
	DB	'v', 00H, '.', 00H, '1', 00H, '_', 00H, 's', 00H, 'r', 00H, 'c'
	DB	00H, '\', 00H, 'g', 00H, 'a', 00H, 'm', 00H, 'e', 00H, '_', 00H
	DB	's', 00H, 'h', 00H, 'a', 00H, 'r', 00H, 'e', 00H, 'd', 00H, '\'
	DB	00H, 'u', 00H, 't', 00H, 'l', 00H, 'a', 00H, 'r', 00H, 'r', 00H
	DB	'a', 00H, 'y', 00H, '.', 00H, 'h', 00H, 00H, 00H
$SG18305 DB	'm', 00H, '_', 00H, 'p', 00H, 'M', 00H, 'e', 00H, 'm', 00H
	DB	'o', 00H, 'r', 00H, 'y', 00H, 00H, 00H
$SG18207 DB	'I', 00H, 's', 00H, 'V', 00H, 'a', 00H, 'l', 00H, 'i', 00H
	DB	'd', 00H, 'I', 00H, 'n', 00H, 'd', 00H, 'e', 00H, 'x', 00H, '('
	DB	00H, 'e', 00H, 'l', 00H, 'e', 00H, 'm', 00H, ')', 00H, ' ', 00H
	DB	'|', 00H, '|', 00H, ' ', 00H, '(', 00H, ' ', 00H, 'm', 00H, '_'
	DB	00H, 'S', 00H, 'i', 00H, 'z', 00H, 'e', 00H, ' ', 00H, '=', 00H
	DB	'=', 00H, ' ', 00H, '0', 00H, ' ', 00H, ')', 00H, ' ', 00H, '|'
	DB	00H, '|', 00H, ' ', 00H, '(', 00H, ' ', 00H, 'n', 00H, 'u', 00H
	DB	'm', 00H, ' ', 00H, '=', 00H, '=', 00H, ' ', 00H, '0', 00H, ' '
	DB	00H, ')', 00H, 00H, 00H
	ORG $+4
$SG18289 DB	'c', 00H, ':', 00H, '\', 00H, 'u', 00H, 's', 00H, 'e', 00H
	DB	'r', 00H, 's', 00H, '\', 00H, 'u', 00H, 's', 00H, 'e', 00H, 'r'
	DB	00H, '\', 00H, 'd', 00H, 'o', 00H, 'w', 00H, 'n', 00H, 'l', 00H
	DB	'o', 00H, 'a', 00H, 'd', 00H, 's', 00H, '\', 00H, 'x', 00H, 'a'
	DB	00H, 's', 00H, 'h', 00H, 'x', 00H, 't', 00H, '_', 00H, 'v', 00H
	DB	'0', 00H, '.', 00H, '8', 00H, '1', 00H, '_', 00H, 'r', 00H, 'e'
	DB	00H, 'v', 00H, '.', 00H, '1', 00H, '_', 00H, 'w', 00H, 'i', 00H
	DB	't', 00H, 'h', 00H, '_', 00H, 's', 00H, 'o', 00H, 'u', 00H, 'r'
	DB	00H, 'c', 00H, 'e', 00H, 's', 00H, '\', 00H, 'x', 00H, 'a', 00H
	DB	's', 00H, 'h', 00H, 'x', 00H, 't', 00H, '_', 00H, 'v', 00H, '0'
	DB	00H, '.', 00H, '8', 00H, '1', 00H, '_', 00H, 'r', 00H, 'e', 00H
	DB	'v', 00H, '.', 00H, '1', 00H, '_', 00H, 's', 00H, 'r', 00H, 'c'
	DB	00H, '\', 00H, 'g', 00H, 'a', 00H, 'm', 00H, 'e', 00H, '_', 00H
	DB	's', 00H, 'h', 00H, 'a', 00H, 'r', 00H, 'e', 00H, 'd', 00H, '\'
	DB	00H, 'u', 00H, 't', 00H, 'l', 00H, 'm', 00H, 'e', 00H, 'm', 00H
	DB	'o', 00H, 'r', 00H, 'y', 00H, '.', 00H, 'h', 00H, 00H, 00H
	ORG $+2
$SG18290 DB	'n', 00H, 'u', 00H, 'm', 00H, ' ', 00H, '>', 00H, ' ', 00H
	DB	'0', 00H, 00H, 00H
$SG18292 DB	'c', 00H, ':', 00H, '\', 00H, 'u', 00H, 's', 00H, 'e', 00H
	DB	'r', 00H, 's', 00H, '\', 00H, 'u', 00H, 's', 00H, 'e', 00H, 'r'
	DB	00H, '\', 00H, 'd', 00H, 'o', 00H, 'w', 00H, 'n', 00H, 'l', 00H
	DB	'o', 00H, 'a', 00H, 'd', 00H, 's', 00H, '\', 00H, 'x', 00H, 'a'
	DB	00H, 's', 00H, 'h', 00H, 'x', 00H, 't', 00H, '_', 00H, 'v', 00H
	DB	'0', 00H, '.', 00H, '8', 00H, '1', 00H, '_', 00H, 'r', 00H, 'e'
	DB	00H, 'v', 00H, '.', 00H, '1', 00H, '_', 00H, 'w', 00H, 'i', 00H
	DB	't', 00H, 'h', 00H, '_', 00H, 's', 00H, 'o', 00H, 'u', 00H, 'r'
	DB	00H, 'c', 00H, 'e', 00H, 's', 00H, '\', 00H, 'x', 00H, 'a', 00H
	DB	's', 00H, 'h', 00H, 'x', 00H, 't', 00H, '_', 00H, 'v', 00H, '0'
	DB	00H, '.', 00H, '8', 00H, '1', 00H, '_', 00H, 'r', 00H, 'e', 00H
	DB	'v', 00H, '.', 00H, '1', 00H, '_', 00H, 's', 00H, 'r', 00H, 'c'
	DB	00H, '\', 00H, 'g', 00H, 'a', 00H, 'm', 00H, 'e', 00H, '_', 00H
	DB	's', 00H, 'h', 00H, 'a', 00H, 'r', 00H, 'e', 00H, 'd', 00H, '\'
	DB	00H, 'u', 00H, 't', 00H, 'l', 00H, 'm', 00H, 'e', 00H, 'm', 00H
	DB	'o', 00H, 'r', 00H, 'y', 00H, '.', 00H, 'h', 00H, 00H, 00H
	ORG $+2
$SG18298 DB	'c', 00H, ':', 00H, '\', 00H, 'u', 00H, 's', 00H, 'e', 00H
	DB	'r', 00H, 's', 00H, '\', 00H, 'u', 00H, 's', 00H, 'e', 00H, 'r'
	DB	00H, '\', 00H, 'd', 00H, 'o', 00H, 'w', 00H, 'n', 00H, 'l', 00H
	DB	'o', 00H, 'a', 00H, 'd', 00H, 's', 00H, '\', 00H, 'x', 00H, 'a'
	DB	00H, 's', 00H, 'h', 00H, 'x', 00H, 't', 00H, '_', 00H, 'v', 00H
	DB	'0', 00H, '.', 00H, '8', 00H, '1', 00H, '_', 00H, 'r', 00H, 'e'
	DB	00H, 'v', 00H, '.', 00H, '1', 00H, '_', 00H, 'w', 00H, 'i', 00H
	DB	't', 00H, 'h', 00H, '_', 00H, 's', 00H, 'o', 00H, 'u', 00H, 'r'
	DB	00H, 'c', 00H, 'e', 00H, 's', 00H, '\', 00H, 'x', 00H, 'a', 00H
	DB	's', 00H, 'h', 00H, 'x', 00H, 't', 00H, '_', 00H, 'v', 00H, '0'
	DB	00H, '.', 00H, '8', 00H, '1', 00H, '_', 00H, 'r', 00H, 'e', 00H
	DB	'v', 00H, '.', 00H, '1', 00H, '_', 00H, 's', 00H, 'r', 00H, 'c'
	DB	00H, '\', 00H, 'g', 00H, 'a', 00H, 'm', 00H, 'e', 00H, '_', 00H
	DB	's', 00H, 'h', 00H, 'a', 00H, 'r', 00H, 'e', 00H, 'd', 00H, '\'
	DB	00H, 'u', 00H, 't', 00H, 'l', 00H, 'm', 00H, 'e', 00H, 'm', 00H
	DB	'o', 00H, 'r', 00H, 'y', 00H, '.', 00H, 'h', 00H, 00H, 00H
	ORG $+2
$SG18302 DB	'c', 00H, ':', 00H, '\', 00H, 'u', 00H, 's', 00H, 'e', 00H
	DB	'r', 00H, 's', 00H, '\', 00H, 'u', 00H, 's', 00H, 'e', 00H, 'r'
	DB	00H, '\', 00H, 'd', 00H, 'o', 00H, 'w', 00H, 'n', 00H, 'l', 00H
	DB	'o', 00H, 'a', 00H, 'd', 00H, 's', 00H, '\', 00H, 'x', 00H, 'a'
	DB	00H, 's', 00H, 'h', 00H, 'x', 00H, 't', 00H, '_', 00H, 'v', 00H
	DB	'0', 00H, '.', 00H, '8', 00H, '1', 00H, '_', 00H, 'r', 00H, 'e'
	DB	00H, 'v', 00H, '.', 00H, '1', 00H, '_', 00H, 'w', 00H, 'i', 00H
	DB	't', 00H, 'h', 00H, '_', 00H, 's', 00H, 'o', 00H, 'u', 00H, 'r'
	DB	00H, 'c', 00H, 'e', 00H, 's', 00H, '\', 00H, 'x', 00H, 'a', 00H
	DB	's', 00H, 'h', 00H, 'x', 00H, 't', 00H, '_', 00H, 'v', 00H, '0'
	DB	00H, '.', 00H, '8', 00H, '1', 00H, '_', 00H, 'r', 00H, 'e', 00H
	DB	'v', 00H, '.', 00H, '1', 00H, '_', 00H, 's', 00H, 'r', 00H, 'c'
	DB	00H, '\', 00H, 'g', 00H, 'a', 00H, 'm', 00H, 'e', 00H, '_', 00H
	DB	's', 00H, 'h', 00H, 'a', 00H, 'r', 00H, 'e', 00H, 'd', 00H, '\'
	DB	00H, 'u', 00H, 't', 00H, 'l', 00H, 'm', 00H, 'e', 00H, 'm', 00H
	DB	'o', 00H, 'r', 00H, 'y', 00H, '.', 00H, 'h', 00H, 00H, 00H
	ORG $+2
$SG18304 DB	'c', 00H, ':', 00H, '\', 00H, 'u', 00H, 's', 00H, 'e', 00H
	DB	'r', 00H, 's', 00H, '\', 00H, 'u', 00H, 's', 00H, 'e', 00H, 'r'
	DB	00H, '\', 00H, 'd', 00H, 'o', 00H, 'w', 00H, 'n', 00H, 'l', 00H
	DB	'o', 00H, 'a', 00H, 'd', 00H, 's', 00H, '\', 00H, 'x', 00H, 'a'
	DB	00H, 's', 00H, 'h', 00H, 'x', 00H, 't', 00H, '_', 00H, 'v', 00H
	DB	'0', 00H, '.', 00H, '8', 00H, '1', 00H, '_', 00H, 'r', 00H, 'e'
	DB	00H, 'v', 00H, '.', 00H, '1', 00H, '_', 00H, 'w', 00H, 'i', 00H
	DB	't', 00H, 'h', 00H, '_', 00H, 's', 00H, 'o', 00H, 'u', 00H, 'r'
	DB	00H, 'c', 00H, 'e', 00H, 's', 00H, '\', 00H, 'x', 00H, 'a', 00H
	DB	's', 00H, 'h', 00H, 'x', 00H, 't', 00H, '_', 00H, 'v', 00H, '0'
	DB	00H, '.', 00H, '8', 00H, '1', 00H, '_', 00H, 'r', 00H, 'e', 00H
	DB	'v', 00H, '.', 00H, '1', 00H, '_', 00H, 's', 00H, 'r', 00H, 'c'
	DB	00H, '\', 00H, 'g', 00H, 'a', 00H, 'm', 00H, 'e', 00H, '_', 00H
	DB	's', 00H, 'h', 00H, 'a', 00H, 'r', 00H, 'e', 00H, 'd', 00H, '\'
	DB	00H, 'u', 00H, 't', 00H, 'l', 00H, 'm', 00H, 'e', 00H, 'm', 00H
	DB	'o', 00H, 'r', 00H, 'y', 00H, '.', 00H, 'h', 00H, 00H, 00H
CONST	ENDS
PUBLIC	??_H@YGXPAXIIP6EPAX0@Z@Z			; `vector constructor iterator'
PUBLIC	??__G@YGXPAX0IIP6EPAX00@Z@Z			; `vector copy constructor iterator'
PUBLIC	?SinCos@@YAXMPAM0@Z				; SinCos
PUBLIC	??0Vector@@QAE@XZ				; Vector::Vector
PUBLIC	??0Vector@@QAE@MMM@Z				; Vector::Vector
PUBLIC	??0Vector@@QAE@ABV0@@Z				; Vector::Vector
PUBLIC	?Init@Vector@@QAEXMMM@Z				; Vector::Init
PUBLIC	??8Vector@@QBEHABV0@@Z				; Vector::operator==
PUBLIC	??HVector@@QBE?AV0@ABV0@@Z			; Vector::operator+
PUBLIC	??GVector@@QBE?AV0@ABV0@@Z			; Vector::operator-
PUBLIC	??DVector@@QBE?AV0@M@Z				; Vector::operator*
PUBLIC	??ZVector@@QAEAAV0@ABV0@@Z			; Vector::operator-=
PUBLIC	??XVector@@QAEAAV0@M@Z				; Vector::operator*=
PUBLIC	?Length@Vector@@QBEMXZ				; Vector::Length
PUBLIC	?LengthSqr@Vector@@QBEMXZ			; Vector::LengthSqr
PUBLIC	??BVector@@QAEPAMXZ				; Vector::operator float *
PUBLIC	??BVector@@QBEPBMXZ				; Vector::operator float const *
PUBLIC	?Normalize@Vector@@QBE?AV1@XZ			; Vector::Normalize
PUBLIC	?CrossProduct@@YA?AVVector@@ABV1@0@Z		; CrossProduct
PUBLIC	??0Vector4D@@QAE@XZ				; Vector4D::Vector4D
PUBLIC	?Init@Vector4D@@QAEXMMMM@Z			; Vector4D::Init
PUBLIC	??0matrix3x4@@QAE@ABVVector@@0M@Z		; matrix3x4::matrix3x4
PUBLIC	??0matrix3x4@@QAE@ABVVector@@ABVVector4D@@@Z	; matrix3x4::matrix3x4
PUBLIC	??Amatrix3x4@@QAEPAMH@Z				; matrix3x4::operator[]
PUBLIC	?GetRight@matrix3x4@@QBE?AVVector@@XZ		; matrix3x4::GetRight
PUBLIC	?GetOrigin@matrix3x4@@QBE?AVVector@@XZ		; matrix3x4::GetOrigin
PUBLIC	?SetForward@matrix3x4@@QAEXABVVector@@@Z	; matrix3x4::SetForward
PUBLIC	?SetRight@matrix3x4@@QAEXABVVector@@@Z		; matrix3x4::SetRight
PUBLIC	?SetUp@matrix3x4@@QAEXABVVector@@@Z		; matrix3x4::SetUp
PUBLIC	??0matrix3x4@@QAE@ABV0@@Z			; matrix3x4::matrix3x4
PUBLIC	?SimpleSpline@@YAMM@Z				; SimpleSpline
PUBLIC	?pIKChain@CStudioBoneSetup@@QAEPBUmstudioikchain_t@@H@Z ; CStudioBoneSetup::pIKChain
PUBLIC	?pIKAutoplayLock@CStudioBoneSetup@@QAEPBUmstudioiklock_t@@H@Z ; CStudioBoneSetup::pIKAutoplayLock
PUBLIC	?pIKLink@CStudioBoneSetup@@QAEPBUmstudioiklink_t@@PBUmstudioikchain_t@@H@Z ; CStudioBoneSetup::pIKLink
PUBLIC	?pIKLock@CStudioBoneSetup@@QAEPBUmstudioiklock_t@@PBUmstudioseqdesc_t@@H@Z ; CStudioBoneSetup::pIKLock
PUBLIC	?GetNumIKChains@CStudioBoneSetup@@QAEHXZ	; CStudioBoneSetup::GetNumIKChains
PUBLIC	?GetNumIKAutoplayLocks@CStudioBoneSetup@@QAEHXZ	; CStudioBoneSetup::GetNumIKAutoplayLocks
PUBLIC	?IsBoneUsed@CStudioBoneSetup@@QAE_NH@Z		; CStudioBoneSetup::IsBoneUsed
PUBLIC	??2@YAPAXIPAX@Z					; operator new
PUBLIC	?UtlMemory_CalcNewAllocationCount@@YAHHHHH@Z	; UtlMemory_CalcNewAllocationCount
PUBLIC	?SetOwner@CIKTarget@@QAEXHABVVector@@0@Z	; CIKTarget::SetOwner
PUBLIC	?ClearOwner@CIKTarget@@QAEXXZ			; CIKTarget::ClearOwner
PUBLIC	?GetOwner@CIKTarget@@QAEHXZ			; CIKTarget::GetOwner
PUBLIC	?UpdateOwner@CIKTarget@@QAEXHABVVector@@0@Z	; CIKTarget::UpdateOwner
PUBLIC	?SetPos@CIKTarget@@QAEXABVVector@@@Z		; CIKTarget::SetPos
PUBLIC	?SetAngles@CIKTarget@@QAEXABVVector@@@Z		; CIKTarget::SetAngles
PUBLIC	?SetQuaternion@CIKTarget@@QAEXABVVector4D@@@Z	; CIKTarget::SetQuaternion
PUBLIC	?SetNormal@CIKTarget@@QAEXABVVector@@@Z		; CIKTarget::SetNormal
PUBLIC	?SetPosWithNormalOffset@CIKTarget@@QAEXABVVector@@0@Z ; CIKTarget::SetPosWithNormalOffset
PUBLIC	?SetOnWorld@CIKTarget@@QAEX_N@Z			; CIKTarget::SetOnWorld
PUBLIC	?IsActive@CIKTarget@@QAE_NXZ			; CIKTarget::IsActive
PUBLIC	?IKFailed@CIKTarget@@QAEXXZ			; CIKTarget::IKFailed
PUBLIC	?MoveReferenceFrame@CIKTarget@@QAEXAAVVector@@0@Z ; CIKTarget::MoveReferenceFrame
PUBLIC	??0x2@CIKTarget@@QAE@XZ				; CIKTarget::x2::x2
PUBLIC	??0x3@CIKTarget@@QAE@XZ				; CIKTarget::x3::x3
PUBLIC	??0x4@CIKTarget@@QAE@XZ				; CIKTarget::x4::x4
PUBLIC	??0x5@CIKTarget@@QAE@XZ				; CIKTarget::x5::x5
PUBLIC	??0x1@CIKTarget@@QAE@XZ				; CIKTarget::x1::x1
PUBLIC	??0CIKTarget@@QAE@XZ				; CIKTarget::CIKTarget
PUBLIC	??0ikchainresult_t@@QAE@XZ			; ikchainresult_t::ikchainresult_t
PUBLIC	??0ikcontextikrule_t@@QAE@XZ			; ikcontextikrule_t::ikcontextikrule_t
PUBLIC	??0CIKContext@@QAE@XZ				; CIKContext::CIKContext
PUBLIC	?Init@CIKContext@@QAEXPBVCStudioBoneSetup@@ABVVector@@1MH@Z ; CIKContext::Init
PUBLIC	?AddDependencies@CIKContext@@QAEXPAUmstudioseqdesc_t@@HMM@Z ; CIKContext::AddDependencies
PUBLIC	?ClearTargets@CIKContext@@QAEXXZ		; CIKContext::ClearTargets
PUBLIC	?UpdateTargets@CIKContext@@QAEXQAVVector@@QAVVector4D@@QAVmatrix3x4@@PAE@Z ; CIKContext::UpdateTargets
PUBLIC	?AutoIKRelease@CIKContext@@QAEXXZ		; CIKContext::AutoIKRelease
PUBLIC	?SolveDependencies@CIKContext@@QAEXQAVVector@@QAVVector4D@@QAVmatrix3x4@@PAE@Z ; CIKContext::SolveDependencies
PUBLIC	?AddAutoplayLocks@CIKContext@@QAEXQAVVector@@QAVVector4D@@@Z ; CIKContext::AddAutoplayLocks
PUBLIC	?SolveAutoplayLocks@CIKContext@@QAEXQAVVector@@QAVVector4D@@@Z ; CIKContext::SolveAutoplayLocks
PUBLIC	?AddSequenceLocks@CIKContext@@QAEXPAUmstudioseqdesc_t@@QAVVector@@QAVVector4D@@@Z ; CIKContext::AddSequenceLocks
PUBLIC	?SolveSequenceLocks@CIKContext@@QAEXPAUmstudioseqdesc_t@@QAVVector@@QAVVector4D@@@Z ; CIKContext::SolveSequenceLocks
PUBLIC	?AddAllLocks@CIKContext@@QAEXQAVVector@@QAVVector4D@@@Z ; CIKContext::AddAllLocks
PUBLIC	?SolveAllLocks@CIKContext@@QAEXQAVVector@@QAVVector4D@@@Z ; CIKContext::SolveAllLocks
PUBLIC	?SolveLock@CIKContext@@QAEXPBUmstudioiklock_t@@HQAVVector@@QAVVector4D@@QAVmatrix3x4@@PAE@Z ; CIKContext::SolveLock
PUBLIC	??0?$CUtlArray@VCIKTarget@@V?$CUtlMemoryFixed@VCIKTarget@@$0M@$0A@@@@@QAE@HH@Z ; CUtlArray<CIKTarget,CUtlMemoryFixed<CIKTarget,12,0> >::CUtlArray<CIKTarget,CUtlMemoryFixed<CIKTarget,12,0> >
PUBLIC	??1?$CUtlArray@VCIKTarget@@V?$CUtlMemoryFixed@VCIKTarget@@$0M@$0A@@@@@QAE@XZ ; CUtlArray<CIKTarget,CUtlMemoryFixed<CIKTarget,12,0> >::~CUtlArray<CIKTarget,CUtlMemoryFixed<CIKTarget,12,0> >
PUBLIC	??A?$CUtlArray@VCIKTarget@@V?$CUtlMemoryFixed@VCIKTarget@@$0M@$0A@@@@@QAEAAVCIKTarget@@H@Z ; CUtlArray<CIKTarget,CUtlMemoryFixed<CIKTarget,12,0> >::operator[]
PUBLIC	?Element@?$CUtlArray@VCIKTarget@@V?$CUtlMemoryFixed@VCIKTarget@@$0M@$0A@@@@@QAEAAVCIKTarget@@H@Z ; CUtlArray<CIKTarget,CUtlMemoryFixed<CIKTarget,12,0> >::Element
PUBLIC	?Base@?$CUtlArray@VCIKTarget@@V?$CUtlMemoryFixed@VCIKTarget@@$0M@$0A@@@@@QAEPAVCIKTarget@@XZ ; CUtlArray<CIKTarget,CUtlMemoryFixed<CIKTarget,12,0> >::Base
PUBLIC	?Count@?$CUtlArray@VCIKTarget@@V?$CUtlMemoryFixed@VCIKTarget@@$0M@$0A@@@@@QBEHXZ ; CUtlArray<CIKTarget,CUtlMemoryFixed<CIKTarget,12,0> >::Count
PUBLIC	?IsValidIndex@?$CUtlArray@VCIKTarget@@V?$CUtlMemoryFixed@VCIKTarget@@$0M@$0A@@@@@QBE_NH@Z ; CUtlArray<CIKTarget,CUtlMemoryFixed<CIKTarget,12,0> >::IsValidIndex
PUBLIC	?AddMultipleToTail@?$CUtlArray@VCIKTarget@@V?$CUtlMemoryFixed@VCIKTarget@@$0M@$0A@@@@@QAEHHPBVCIKTarget@@@Z ; CUtlArray<CIKTarget,CUtlMemoryFixed<CIKTarget,12,0> >::AddMultipleToTail
PUBLIC	?InsertMultipleBefore@?$CUtlArray@VCIKTarget@@V?$CUtlMemoryFixed@VCIKTarget@@$0M@$0A@@@@@QAEHHHPBVCIKTarget@@@Z ; CUtlArray<CIKTarget,CUtlMemoryFixed<CIKTarget,12,0> >::InsertMultipleBefore
PUBLIC	?SetSize@?$CUtlArray@VCIKTarget@@V?$CUtlMemoryFixed@VCIKTarget@@$0M@$0A@@@@@QAEXH@Z ; CUtlArray<CIKTarget,CUtlMemoryFixed<CIKTarget,12,0> >::SetSize
PUBLIC	?SetCount@?$CUtlArray@VCIKTarget@@V?$CUtlMemoryFixed@VCIKTarget@@$0M@$0A@@@@@QAEXH@Z ; CUtlArray<CIKTarget,CUtlMemoryFixed<CIKTarget,12,0> >::SetCount
PUBLIC	?EnsureCapacity@?$CUtlArray@VCIKTarget@@V?$CUtlMemoryFixed@VCIKTarget@@$0M@$0A@@@@@QAEXH@Z ; CUtlArray<CIKTarget,CUtlMemoryFixed<CIKTarget,12,0> >::EnsureCapacity
PUBLIC	?RemoveAll@?$CUtlArray@VCIKTarget@@V?$CUtlMemoryFixed@VCIKTarget@@$0M@$0A@@@@@QAEXXZ ; CUtlArray<CIKTarget,CUtlMemoryFixed<CIKTarget,12,0> >::RemoveAll
PUBLIC	?Purge@?$CUtlArray@VCIKTarget@@V?$CUtlMemoryFixed@VCIKTarget@@$0M@$0A@@@@@QAEXXZ ; CUtlArray<CIKTarget,CUtlMemoryFixed<CIKTarget,12,0> >::Purge
PUBLIC	?GrowVector@?$CUtlArray@VCIKTarget@@V?$CUtlMemoryFixed@VCIKTarget@@$0M@$0A@@@@@IAEXH@Z ; CUtlArray<CIKTarget,CUtlMemoryFixed<CIKTarget,12,0> >::GrowVector
PUBLIC	?ShiftElementsRight@?$CUtlArray@VCIKTarget@@V?$CUtlMemoryFixed@VCIKTarget@@$0M@$0A@@@@@IAEXHH@Z ; CUtlArray<CIKTarget,CUtlMemoryFixed<CIKTarget,12,0> >::ShiftElementsRight
PUBLIC	??0?$CUtlMemoryFixed@VCIKTarget@@$0M@$0A@@@QAE@HH@Z ; CUtlMemoryFixed<CIKTarget,12,0>::CUtlMemoryFixed<CIKTarget,12,0>
PUBLIC	?IsIdxValid@?$CUtlMemoryFixed@VCIKTarget@@$0M@$0A@@@QBE_NH@Z ; CUtlMemoryFixed<CIKTarget,12,0>::IsIdxValid
PUBLIC	?Base@?$CUtlMemoryFixed@VCIKTarget@@$0M@$0A@@@QAEPAVCIKTarget@@XZ ; CUtlMemoryFixed<CIKTarget,12,0>::Base
PUBLIC	??A?$CUtlMemoryFixed@VCIKTarget@@$0M@$0A@@@QAEAAVCIKTarget@@H@Z ; CUtlMemoryFixed<CIKTarget,12,0>::operator[]
PUBLIC	?NumAllocated@?$CUtlMemoryFixed@VCIKTarget@@$0M@$0A@@@QBEHXZ ; CUtlMemoryFixed<CIKTarget,12,0>::NumAllocated
PUBLIC	?Grow@?$CUtlMemoryFixed@VCIKTarget@@$0M@$0A@@@QAEXH@Z ; CUtlMemoryFixed<CIKTarget,12,0>::Grow
PUBLIC	?EnsureCapacity@?$CUtlMemoryFixed@VCIKTarget@@$0M@$0A@@@QAEXH@Z ; CUtlMemoryFixed<CIKTarget,12,0>::EnsureCapacity
PUBLIC	?Purge@?$CUtlMemoryFixed@VCIKTarget@@$0M@$0A@@@QAEXXZ ; CUtlMemoryFixed<CIKTarget,12,0>::Purge
PUBLIC	?ResetDbgInfo@?$CUtlArray@VCIKTarget@@V?$CUtlMemoryFixed@VCIKTarget@@$0M@$0A@@@@@IAEXXZ ; CUtlArray<CIKTarget,CUtlMemoryFixed<CIKTarget,12,0> >::ResetDbgInfo
PUBLIC	??0?$CUtlArrayFixed@VCIKTarget@@$0M@@@QAE@HH@Z	; CUtlArrayFixed<CIKTarget,12>::CUtlArrayFixed<CIKTarget,12>
PUBLIC	??1?$CUtlArrayFixed@VCIKTarget@@$0M@@@QAE@XZ	; CUtlArrayFixed<CIKTarget,12>::~CUtlArrayFixed<CIKTarget,12>
PUBLIC	?BuildBoneChain@CIKContext@@AAEXQBVVector@@QBVVector4D@@HPAVmatrix3x4@@PAE@Z ; CIKContext::BuildBoneChain
PUBLIC	??0?$CUtlArray@V?$CUtlArray@Uikcontextikrule_t@@V?$CUtlMemory@Uikcontextikrule_t@@H@@@@V?$CUtlMemory@V?$CUtlArray@Uikcontextikrule_t@@V?$CUtlMemory@Uikcontextikrule_t@@H@@@@H@@@@QAE@HH@Z ; CUtlArray<CUtlArray<ikcontextikrule_t,CUtlMemory<ikcontextikrule_t,int> >,CUtlMemory<CUtlArray<ikcontextikrule_t,CUtlMemory<ikcontextikrule_t,int> >,int> >::CUtlArray<CUtlArray<ikcontextikrule_t,CUtlMemory<ikcontextikrule_t,int> >,CUtlMemory<CUtlArray<ikcontextikrule_t,CUtlMemory<ikcontextikrule_t,int> >,int> >
PUBLIC	??1?$CUtlArray@V?$CUtlArray@Uikcontextikrule_t@@V?$CUtlMemory@Uikcontextikrule_t@@H@@@@V?$CUtlMemory@V?$CUtlArray@Uikcontextikrule_t@@V?$CUtlMemory@Uikcontextikrule_t@@H@@@@H@@@@QAE@XZ ; CUtlArray<CUtlArray<ikcontextikrule_t,CUtlMemory<ikcontextikrule_t,int> >,CUtlMemory<CUtlArray<ikcontextikrule_t,CUtlMemory<ikcontextikrule_t,int> >,int> >::~CUtlArray<CUtlArray<ikcontextikrule_t,CUtlMemory<ikcontextikrule_t,int> >,CUtlMemory<CUtlArray<ikcontextikrule_t,CUtlMemory<ikcontextikrule_t,int> >,int> >
PUBLIC	?Element@?$CUtlArray@V?$CUtlArray@Uikcontextikrule_t@@V?$CUtlMemory@Uikcontextikrule_t@@H@@@@V?$CUtlMemory@V?$CUtlArray@Uikcontextikrule_t@@V?$CUtlMemory@Uikcontextikrule_t@@H@@@@H@@@@QAEAAV?$CUtlArray@Uikcontextikrule_t@@V?$CUtlMemory@Uikcontextikrule_t@@H@@@@H@Z ; CUtlArray<CUtlArray<ikcontextikrule_t,CUtlMemory<ikcontextikrule_t,int> >,CUtlMemory<CUtlArray<ikcontextikrule_t,CUtlMemory<ikcontextikrule_t,int> >,int> >::Element
PUBLIC	?Base@?$CUtlArray@V?$CUtlArray@Uikcontextikrule_t@@V?$CUtlMemory@Uikcontextikrule_t@@H@@@@V?$CUtlMemory@V?$CUtlArray@Uikcontextikrule_t@@V?$CUtlMemory@Uikcontextikrule_t@@H@@@@H@@@@QAEPAV?$CUtlArray@Uikcontextikrule_t@@V?$CUtlMemory@Uikcontextikrule_t@@H@@@@XZ ; CUtlArray<CUtlArray<ikcontextikrule_t,CUtlMemory<ikcontextikrule_t,int> >,CUtlMemory<CUtlArray<ikcontextikrule_t,CUtlMemory<ikcontextikrule_t,int> >,int> >::Base
PUBLIC	?Count@?$CUtlArray@V?$CUtlArray@Uikcontextikrule_t@@V?$CUtlMemory@Uikcontextikrule_t@@H@@@@V?$CUtlMemory@V?$CUtlArray@Uikcontextikrule_t@@V?$CUtlMemory@Uikcontextikrule_t@@H@@@@H@@@@QBEHXZ ; CUtlArray<CUtlArray<ikcontextikrule_t,CUtlMemory<ikcontextikrule_t,int> >,CUtlMemory<CUtlArray<ikcontextikrule_t,CUtlMemory<ikcontextikrule_t,int> >,int> >::Count
PUBLIC	?IsValidIndex@?$CUtlArray@V?$CUtlArray@Uikcontextikrule_t@@V?$CUtlMemory@Uikcontextikrule_t@@H@@@@V?$CUtlMemory@V?$CUtlArray@Uikcontextikrule_t@@V?$CUtlMemory@Uikcontextikrule_t@@H@@@@H@@@@QBE_NH@Z ; CUtlArray<CUtlArray<ikcontextikrule_t,CUtlMemory<ikcontextikrule_t,int> >,CUtlMemory<CUtlArray<ikcontextikrule_t,CUtlMemory<ikcontextikrule_t,int> >,int> >::IsValidIndex
PUBLIC	?AddMultipleToTail@?$CUtlArray@V?$CUtlArray@Uikcontextikrule_t@@V?$CUtlMemory@Uikcontextikrule_t@@H@@@@V?$CUtlMemory@V?$CUtlArray@Uikcontextikrule_t@@V?$CUtlMemory@Uikcontextikrule_t@@H@@@@H@@@@QAEHHPBV?$CUtlArray@Uikcontextikrule_t@@V?$CUtlMemory@Uikcontextikrule_t@@H@@@@@Z ; CUtlArray<CUtlArray<ikcontextikrule_t,CUtlMemory<ikcontextikrule_t,int> >,CUtlMemory<CUtlArray<ikcontextikrule_t,CUtlMemory<ikcontextikrule_t,int> >,int> >::AddMultipleToTail
PUBLIC	?InsertMultipleBefore@?$CUtlArray@V?$CUtlArray@Uikcontextikrule_t@@V?$CUtlMemory@Uikcontextikrule_t@@H@@@@V?$CUtlMemory@V?$CUtlArray@Uikcontextikrule_t@@V?$CUtlMemory@Uikcontextikrule_t@@H@@@@H@@@@QAEHHHPBV?$CUtlArray@Uikcontextikrule_t@@V?$CUtlMemory@Uikcontextikrule_t@@H@@@@@Z ; CUtlArray<CUtlArray<ikcontextikrule_t,CUtlMemory<ikcontextikrule_t,int> >,CUtlMemory<CUtlArray<ikcontextikrule_t,CUtlMemory<ikcontextikrule_t,int> >,int> >::InsertMultipleBefore
PUBLIC	?SetSize@?$CUtlArray@V?$CUtlArray@Uikcontextikrule_t@@V?$CUtlMemory@Uikcontextikrule_t@@H@@@@V?$CUtlMemory@V?$CUtlArray@Uikcontextikrule_t@@V?$CUtlMemory@Uikcontextikrule_t@@H@@@@H@@@@QAEXH@Z ; CUtlArray<CUtlArray<ikcontextikrule_t,CUtlMemory<ikcontextikrule_t,int> >,CUtlMemory<CUtlArray<ikcontextikrule_t,CUtlMemory<ikcontextikrule_t,int> >,int> >::SetSize
PUBLIC	?SetCount@?$CUtlArray@V?$CUtlArray@Uikcontextikrule_t@@V?$CUtlMemory@Uikcontextikrule_t@@H@@@@V?$CUtlMemory@V?$CUtlArray@Uikcontextikrule_t@@V?$CUtlMemory@Uikcontextikrule_t@@H@@@@H@@@@QAEXH@Z ; CUtlArray<CUtlArray<ikcontextikrule_t,CUtlMemory<ikcontextikrule_t,int> >,CUtlMemory<CUtlArray<ikcontextikrule_t,CUtlMemory<ikcontextikrule_t,int> >,int> >::SetCount
PUBLIC	?RemoveAll@?$CUtlArray@V?$CUtlArray@Uikcontextikrule_t@@V?$CUtlMemory@Uikcontextikrule_t@@H@@@@V?$CUtlMemory@V?$CUtlArray@Uikcontextikrule_t@@V?$CUtlMemory@Uikcontextikrule_t@@H@@@@H@@@@QAEXXZ ; CUtlArray<CUtlArray<ikcontextikrule_t,CUtlMemory<ikcontextikrule_t,int> >,CUtlMemory<CUtlArray<ikcontextikrule_t,CUtlMemory<ikcontextikrule_t,int> >,int> >::RemoveAll
PUBLIC	?Purge@?$CUtlArray@V?$CUtlArray@Uikcontextikrule_t@@V?$CUtlMemory@Uikcontextikrule_t@@H@@@@V?$CUtlMemory@V?$CUtlArray@Uikcontextikrule_t@@V?$CUtlMemory@Uikcontextikrule_t@@H@@@@H@@@@QAEXXZ ; CUtlArray<CUtlArray<ikcontextikrule_t,CUtlMemory<ikcontextikrule_t,int> >,CUtlMemory<CUtlArray<ikcontextikrule_t,CUtlMemory<ikcontextikrule_t,int> >,int> >::Purge
PUBLIC	?GrowVector@?$CUtlArray@V?$CUtlArray@Uikcontextikrule_t@@V?$CUtlMemory@Uikcontextikrule_t@@H@@@@V?$CUtlMemory@V?$CUtlArray@Uikcontextikrule_t@@V?$CUtlMemory@Uikcontextikrule_t@@H@@@@H@@@@IAEXH@Z ; CUtlArray<CUtlArray<ikcontextikrule_t,CUtlMemory<ikcontextikrule_t,int> >,CUtlMemory<CUtlArray<ikcontextikrule_t,CUtlMemory<ikcontextikrule_t,int> >,int> >::GrowVector
PUBLIC	?ShiftElementsRight@?$CUtlArray@V?$CUtlArray@Uikcontextikrule_t@@V?$CUtlMemory@Uikcontextikrule_t@@H@@@@V?$CUtlMemory@V?$CUtlArray@Uikcontextikrule_t@@V?$CUtlMemory@Uikcontextikrule_t@@H@@@@H@@@@IAEXHH@Z ; CUtlArray<CUtlArray<ikcontextikrule_t,CUtlMemory<ikcontextikrule_t,int> >,CUtlMemory<CUtlArray<ikcontextikrule_t,CUtlMemory<ikcontextikrule_t,int> >,int> >::ShiftElementsRight
PUBLIC	??0?$CUtlMemory@V?$CUtlArray@Uikcontextikrule_t@@V?$CUtlMemory@Uikcontextikrule_t@@H@@@@H@@QAE@HH@Z ; CUtlMemory<CUtlArray<ikcontextikrule_t,CUtlMemory<ikcontextikrule_t,int> >,int>::CUtlMemory<CUtlArray<ikcontextikrule_t,CUtlMemory<ikcontextikrule_t,int> >,int>
PUBLIC	??1?$CUtlMemory@V?$CUtlArray@Uikcontextikrule_t@@V?$CUtlMemory@Uikcontextikrule_t@@H@@@@H@@QAE@XZ ; CUtlMemory<CUtlArray<ikcontextikrule_t,CUtlMemory<ikcontextikrule_t,int> >,int>::~CUtlMemory<CUtlArray<ikcontextikrule_t,CUtlMemory<ikcontextikrule_t,int> >,int>
PUBLIC	??A?$CUtlMemory@V?$CUtlArray@Uikcontextikrule_t@@V?$CUtlMemory@Uikcontextikrule_t@@H@@@@H@@QAEAAV?$CUtlArray@Uikcontextikrule_t@@V?$CUtlMemory@Uikcontextikrule_t@@H@@@@H@Z ; CUtlMemory<CUtlArray<ikcontextikrule_t,CUtlMemory<ikcontextikrule_t,int> >,int>::operator[]
PUBLIC	?IsIdxValid@?$CUtlMemory@V?$CUtlArray@Uikcontextikrule_t@@V?$CUtlMemory@Uikcontextikrule_t@@H@@@@H@@QBE_NH@Z ; CUtlMemory<CUtlArray<ikcontextikrule_t,CUtlMemory<ikcontextikrule_t,int> >,int>::IsIdxValid
PUBLIC	?Base@?$CUtlMemory@V?$CUtlArray@Uikcontextikrule_t@@V?$CUtlMemory@Uikcontextikrule_t@@H@@@@H@@QAEPAV?$CUtlArray@Uikcontextikrule_t@@V?$CUtlMemory@Uikcontextikrule_t@@H@@@@XZ ; CUtlMemory<CUtlArray<ikcontextikrule_t,CUtlMemory<ikcontextikrule_t,int> >,int>::Base
PUBLIC	?NumAllocated@?$CUtlMemory@V?$CUtlArray@Uikcontextikrule_t@@V?$CUtlMemory@Uikcontextikrule_t@@H@@@@H@@QBEHXZ ; CUtlMemory<CUtlArray<ikcontextikrule_t,CUtlMemory<ikcontextikrule_t,int> >,int>::NumAllocated
PUBLIC	?Grow@?$CUtlMemory@V?$CUtlArray@Uikcontextikrule_t@@V?$CUtlMemory@Uikcontextikrule_t@@H@@@@H@@QAEXH@Z ; CUtlMemory<CUtlArray<ikcontextikrule_t,CUtlMemory<ikcontextikrule_t,int> >,int>::Grow
PUBLIC	?Purge@?$CUtlMemory@V?$CUtlArray@Uikcontextikrule_t@@V?$CUtlMemory@Uikcontextikrule_t@@H@@@@H@@QAEXXZ ; CUtlMemory<CUtlArray<ikcontextikrule_t,CUtlMemory<ikcontextikrule_t,int> >,int>::Purge
PUBLIC	?IsExternallyAllocated@?$CUtlMemory@V?$CUtlArray@Uikcontextikrule_t@@V?$CUtlMemory@Uikcontextikrule_t@@H@@@@H@@QBE_NXZ ; CUtlMemory<CUtlArray<ikcontextikrule_t,CUtlMemory<ikcontextikrule_t,int> >,int>::IsExternallyAllocated
PUBLIC	?IsReadOnly@?$CUtlMemory@V?$CUtlArray@Uikcontextikrule_t@@V?$CUtlMemory@Uikcontextikrule_t@@H@@@@H@@QBE_NXZ ; CUtlMemory<CUtlArray<ikcontextikrule_t,CUtlMemory<ikcontextikrule_t,int> >,int>::IsReadOnly
PUBLIC	?ValidateGrowSize@?$CUtlMemory@V?$CUtlArray@Uikcontextikrule_t@@V?$CUtlMemory@Uikcontextikrule_t@@H@@@@H@@IAEXXZ ; CUtlMemory<CUtlArray<ikcontextikrule_t,CUtlMemory<ikcontextikrule_t,int> >,int>::ValidateGrowSize
PUBLIC	?ResetDbgInfo@?$CUtlArray@V?$CUtlArray@Uikcontextikrule_t@@V?$CUtlMemory@Uikcontextikrule_t@@H@@@@V?$CUtlMemory@V?$CUtlArray@Uikcontextikrule_t@@V?$CUtlMemory@Uikcontextikrule_t@@H@@@@H@@@@IAEXXZ ; CUtlArray<CUtlArray<ikcontextikrule_t,CUtlMemory<ikcontextikrule_t,int> >,CUtlMemory<CUtlArray<ikcontextikrule_t,CUtlMemory<ikcontextikrule_t,int> >,int> >::ResetDbgInfo
PUBLIC	??0?$CUtlArray@Uikcontextikrule_t@@V?$CUtlMemory@Uikcontextikrule_t@@H@@@@QAE@HH@Z ; CUtlArray<ikcontextikrule_t,CUtlMemory<ikcontextikrule_t,int> >::CUtlArray<ikcontextikrule_t,CUtlMemory<ikcontextikrule_t,int> >
PUBLIC	??1?$CUtlArray@Uikcontextikrule_t@@V?$CUtlMemory@Uikcontextikrule_t@@H@@@@QAE@XZ ; CUtlArray<ikcontextikrule_t,CUtlMemory<ikcontextikrule_t,int> >::~CUtlArray<ikcontextikrule_t,CUtlMemory<ikcontextikrule_t,int> >
PUBLIC	??4?$CUtlArray@Uikcontextikrule_t@@V?$CUtlMemory@Uikcontextikrule_t@@H@@@@QAEAAV0@ABV0@@Z ; CUtlArray<ikcontextikrule_t,CUtlMemory<ikcontextikrule_t,int> >::operator=
PUBLIC	??A?$CUtlArray@Uikcontextikrule_t@@V?$CUtlMemory@Uikcontextikrule_t@@H@@@@QAEAAUikcontextikrule_t@@H@Z ; CUtlArray<ikcontextikrule_t,CUtlMemory<ikcontextikrule_t,int> >::operator[]
PUBLIC	??A?$CUtlArray@Uikcontextikrule_t@@V?$CUtlMemory@Uikcontextikrule_t@@H@@@@QBEABUikcontextikrule_t@@H@Z ; CUtlArray<ikcontextikrule_t,CUtlMemory<ikcontextikrule_t,int> >::operator[]
PUBLIC	?Element@?$CUtlArray@Uikcontextikrule_t@@V?$CUtlMemory@Uikcontextikrule_t@@H@@@@QAEAAUikcontextikrule_t@@H@Z ; CUtlArray<ikcontextikrule_t,CUtlMemory<ikcontextikrule_t,int> >::Element
PUBLIC	?Base@?$CUtlArray@Uikcontextikrule_t@@V?$CUtlMemory@Uikcontextikrule_t@@H@@@@QAEPAUikcontextikrule_t@@XZ ; CUtlArray<ikcontextikrule_t,CUtlMemory<ikcontextikrule_t,int> >::Base
PUBLIC	?Count@?$CUtlArray@Uikcontextikrule_t@@V?$CUtlMemory@Uikcontextikrule_t@@H@@@@QBEHXZ ; CUtlArray<ikcontextikrule_t,CUtlMemory<ikcontextikrule_t,int> >::Count
PUBLIC	?IsValidIndex@?$CUtlArray@Uikcontextikrule_t@@V?$CUtlMemory@Uikcontextikrule_t@@H@@@@QBE_NH@Z ; CUtlArray<ikcontextikrule_t,CUtlMemory<ikcontextikrule_t,int> >::IsValidIndex
PUBLIC	?AddToTail@?$CUtlArray@Uikcontextikrule_t@@V?$CUtlMemory@Uikcontextikrule_t@@H@@@@QAEHXZ ; CUtlArray<ikcontextikrule_t,CUtlMemory<ikcontextikrule_t,int> >::AddToTail
PUBLIC	?InsertBefore@?$CUtlArray@Uikcontextikrule_t@@V?$CUtlMemory@Uikcontextikrule_t@@H@@@@QAEHH@Z ; CUtlArray<ikcontextikrule_t,CUtlMemory<ikcontextikrule_t,int> >::InsertBefore
PUBLIC	?AddMultipleToTail@?$CUtlArray@Uikcontextikrule_t@@V?$CUtlMemory@Uikcontextikrule_t@@H@@@@QAEHHPBUikcontextikrule_t@@@Z ; CUtlArray<ikcontextikrule_t,CUtlMemory<ikcontextikrule_t,int> >::AddMultipleToTail
PUBLIC	?InsertMultipleBefore@?$CUtlArray@Uikcontextikrule_t@@V?$CUtlMemory@Uikcontextikrule_t@@H@@@@QAEHHHPBUikcontextikrule_t@@@Z ; CUtlArray<ikcontextikrule_t,CUtlMemory<ikcontextikrule_t,int> >::InsertMultipleBefore
PUBLIC	?SetSize@?$CUtlArray@Uikcontextikrule_t@@V?$CUtlMemory@Uikcontextikrule_t@@H@@@@QAEXH@Z ; CUtlArray<ikcontextikrule_t,CUtlMemory<ikcontextikrule_t,int> >::SetSize
PUBLIC	?SetCount@?$CUtlArray@Uikcontextikrule_t@@V?$CUtlMemory@Uikcontextikrule_t@@H@@@@QAEXH@Z ; CUtlArray<ikcontextikrule_t,CUtlMemory<ikcontextikrule_t,int> >::SetCount
PUBLIC	?RemoveAll@?$CUtlArray@Uikcontextikrule_t@@V?$CUtlMemory@Uikcontextikrule_t@@H@@@@QAEXXZ ; CUtlArray<ikcontextikrule_t,CUtlMemory<ikcontextikrule_t,int> >::RemoveAll
PUBLIC	?Purge@?$CUtlArray@Uikcontextikrule_t@@V?$CUtlMemory@Uikcontextikrule_t@@H@@@@QAEXXZ ; CUtlArray<ikcontextikrule_t,CUtlMemory<ikcontextikrule_t,int> >::Purge
PUBLIC	?GrowVector@?$CUtlArray@Uikcontextikrule_t@@V?$CUtlMemory@Uikcontextikrule_t@@H@@@@IAEXH@Z ; CUtlArray<ikcontextikrule_t,CUtlMemory<ikcontextikrule_t,int> >::GrowVector
PUBLIC	?ShiftElementsRight@?$CUtlArray@Uikcontextikrule_t@@V?$CUtlMemory@Uikcontextikrule_t@@H@@@@IAEXHH@Z ; CUtlArray<ikcontextikrule_t,CUtlMemory<ikcontextikrule_t,int> >::ShiftElementsRight
PUBLIC	??0?$CUtlMemory@Uikcontextikrule_t@@H@@QAE@HH@Z	; CUtlMemory<ikcontextikrule_t,int>::CUtlMemory<ikcontextikrule_t,int>
PUBLIC	??1?$CUtlMemory@Uikcontextikrule_t@@H@@QAE@XZ	; CUtlMemory<ikcontextikrule_t,int>::~CUtlMemory<ikcontextikrule_t,int>
PUBLIC	??A?$CUtlMemory@Uikcontextikrule_t@@H@@QAEAAUikcontextikrule_t@@H@Z ; CUtlMemory<ikcontextikrule_t,int>::operator[]
PUBLIC	??A?$CUtlMemory@Uikcontextikrule_t@@H@@QBEABUikcontextikrule_t@@H@Z ; CUtlMemory<ikcontextikrule_t,int>::operator[]
PUBLIC	?IsIdxValid@?$CUtlMemory@Uikcontextikrule_t@@H@@QBE_NH@Z ; CUtlMemory<ikcontextikrule_t,int>::IsIdxValid
PUBLIC	?Base@?$CUtlMemory@Uikcontextikrule_t@@H@@QAEPAUikcontextikrule_t@@XZ ; CUtlMemory<ikcontextikrule_t,int>::Base
PUBLIC	?NumAllocated@?$CUtlMemory@Uikcontextikrule_t@@H@@QBEHXZ ; CUtlMemory<ikcontextikrule_t,int>::NumAllocated
PUBLIC	?Grow@?$CUtlMemory@Uikcontextikrule_t@@H@@QAEXH@Z ; CUtlMemory<ikcontextikrule_t,int>::Grow
PUBLIC	?Purge@?$CUtlMemory@Uikcontextikrule_t@@H@@QAEXXZ ; CUtlMemory<ikcontextikrule_t,int>::Purge
PUBLIC	?IsExternallyAllocated@?$CUtlMemory@Uikcontextikrule_t@@H@@QBE_NXZ ; CUtlMemory<ikcontextikrule_t,int>::IsExternallyAllocated
PUBLIC	?IsReadOnly@?$CUtlMemory@Uikcontextikrule_t@@H@@QBE_NXZ ; CUtlMemory<ikcontextikrule_t,int>::IsReadOnly
PUBLIC	?ValidateGrowSize@?$CUtlMemory@Uikcontextikrule_t@@H@@IAEXXZ ; CUtlMemory<ikcontextikrule_t,int>::ValidateGrowSize
PUBLIC	?ResetDbgInfo@?$CUtlArray@Uikcontextikrule_t@@V?$CUtlMemory@Uikcontextikrule_t@@H@@@@IAEXXZ ; CUtlArray<ikcontextikrule_t,CUtlMemory<ikcontextikrule_t,int> >::ResetDbgInfo
PUBLIC	??_G?$CUtlArray@Uikcontextikrule_t@@V?$CUtlMemory@Uikcontextikrule_t@@H@@@@QAEPAXI@Z ; CUtlArray<ikcontextikrule_t,CUtlMemory<ikcontextikrule_t,int> >::`scalar deleting destructor'
PUBLIC	??$Lerp@VVector@@@@YA?AVVector@@MABV0@0@Z	; Lerp<Vector>
PUBLIC	??$Lerp@M@@YAMMABM0@Z				; Lerp<float>
PUBLIC	??$AlignValue@PAD@@YAPADPADI@Z			; AlignValue<char *>
PUBLIC	??$Destruct@Uikcontextikrule_t@@@@YAXPAUikcontextikrule_t@@@Z ; Destruct<ikcontextikrule_t>
PUBLIC	??$Destruct@V?$CUtlArray@Uikcontextikrule_t@@V?$CUtlMemory@Uikcontextikrule_t@@H@@@@@@YAXPAV?$CUtlArray@Uikcontextikrule_t@@V?$CUtlMemory@Uikcontextikrule_t@@H@@@@@Z ; Destruct<CUtlArray<ikcontextikrule_t,CUtlMemory<ikcontextikrule_t,int> > >
PUBLIC	??$Construct@Uikcontextikrule_t@@@@YAXPAUikcontextikrule_t@@@Z ; Construct<ikcontextikrule_t>
PUBLIC	??$Destruct@VCIKTarget@@@@YAXPAVCIKTarget@@@Z	; Destruct<CIKTarget>
PUBLIC	??$Construct@VCIKTarget@@@@YAXPAVCIKTarget@@@Z	; Construct<CIKTarget>
PUBLIC	??$Construct@V?$CUtlArray@Uikcontextikrule_t@@V?$CUtlMemory@Uikcontextikrule_t@@H@@@@@@YAXPAV?$CUtlArray@Uikcontextikrule_t@@V?$CUtlMemory@Uikcontextikrule_t@@H@@@@@Z ; Construct<CUtlArray<ikcontextikrule_t,CUtlMemory<ikcontextikrule_t,int> > >
PUBLIC	?m_boneToWorld@CIKContext@@0PAVmatrix3x4@@A	; CIKContext::m_boneToWorld
PUBLIC	??_C@_1MM@POBCBGGF@?$AAc?$AA?3?$AA?2?$AAu?$AAs?$AAe?$AAr?$AAs?$AA?2?$AAu?$AAs?$AAe?$AAr?$AA?2?$AAd@ ; `string'
PUBLIC	??_C@_1LK@CNNNCGDG@?$AA?$CI?$AAB?$AAa?$AAs?$AAe?$AA?$CI?$AA?$CJ?$AA?5?$AA?$DN?$AA?$DN?$AA?5?$AAN?$AAU?$AAL?$AAL@ ; `string'
PUBLIC	??_C@_1MO@LCPOAHHB@?$AAc?$AA?3?$AA?2?$AAu?$AAs?$AAe?$AAr?$AAs?$AA?2?$AAu?$AAs?$AAe?$AAr?$AA?2?$AAd@ ; `string'
PUBLIC	??_C@_1BI@LFLBADNE@?$AAn?$AAu?$AAm?$AA?5?$AA?$DM?$AA?$DN?$AA?5?$AAS?$AAI?$AAZ?$AAE@ ; `string'
PUBLIC	??_C@_1BM@CKILBAKK@?$AAI?$AAs?$AAI?$AAd?$AAx?$AAV?$AAa?$AAl?$AAi?$AAd?$AA?$CI?$AAi?$AA?$CJ@ ; `string'
PUBLIC	??_C@_1EI@DONNOGGM@?$AAn?$AAI?$AAn?$AAi?$AAt?$AAS?$AAi?$AAz?$AAe?$AA?5?$AA?$DN?$AA?$DN?$AA?5?$AA0?$AA?5@ ; `string'
PUBLIC	??_C@_1BM@PFNFCCHH@?$AA?$CB?$AAI?$AAs?$AAR?$AAe?$AAa?$AAd?$AAO?$AAn?$AAl?$AAy?$AA?$CI?$AA?$CJ@ ; `string'
PUBLIC	??_C@_1FA@BPFBJKPF@?$AA?$CI?$AAe?$AAl?$AAe?$AAm?$AA?5?$AA?$DN?$AA?$DN?$AA?5?$AAC?$AAo?$AAu?$AAn?$AAt?$AA?$CI@ ; `string'
PUBLIC	??_C@_13COJANIEC@?$AA0@				; `string'
PUBLIC	__real@00000000
PUBLIC	__real@0000000000000000
PUBLIC	__real@3e4ccccd
PUBLIC	__real@3e800000
PUBLIC	__real@3f000000
PUBLIC	__real@3f34fdf4
PUBLIC	__real@3f4ccccd
PUBLIC	__real@3f733333
PUBLIC	__real@3f7d70a4
PUBLIC	__real@3f7fbe77
PUBLIC	__real@3f7ff972
PUBLIC	__real@3f800000
PUBLIC	__real@3f91df46a2529d39
PUBLIC	__real@3fd0000000000000
PUBLIC	__real@3fe69fbe76c8b439
PUBLIC	__real@3ff0000000000000
PUBLIC	__real@3ff028f5c0000000
PUBLIC	__real@40000000
PUBLIC	__real@4000000000000000
PUBLIC	__real@40400000
PUBLIC	__real@40800000
PUBLIC	__real@bf800000
PUBLIC	__xmm@80000000800000008000000080000000
EXTRN	??3@YAXPAXI@Z:PROC				; operator delete
EXTRN	_fabs:PROC
EXTRN	_sqrt:PROC
EXTRN	_free:PROC
EXTRN	_malloc:PROC
EXTRN	_realloc:PROC
EXTRN	??0matrix3x4@@QAE@XZ:PROC			; matrix3x4::matrix3x4
EXTRN	?GetQuaternion@matrix3x4@@QAE?AVVector4D@@XZ:PROC ; matrix3x4::GetQuaternion
EXTRN	?VectorRotate@matrix3x4@@QBE?AVVector@@ABV2@@Z:PROC ; matrix3x4::VectorRotate
EXTRN	?Invert@matrix3x4@@QBE?AV1@XZ:PROC		; matrix3x4::Invert
EXTRN	?ConcatTransforms@matrix3x4@@QAE?AV1@V1@@Z:PROC	; matrix3x4::ConcatTransforms
EXTRN	?AngleQuaternion@@YAXABVVector@@AAVVector4D@@@Z:PROC ; AngleQuaternion
EXTRN	?QuaternionSlerp@@YAXABVVector4D@@0MAAV1@@Z:PROC ; QuaternionSlerp
EXTRN	?QuaternionSM@@YAXMABVVector4D@@0AAV1@@Z:PROC	; QuaternionSM
EXTRN	?QuaternionMA@@YAXABVVector4D@@M0AAV1@@Z:PROC	; QuaternionMA
EXTRN	?QuaternionScale@@YAXABVVector4D@@MAAV1@@Z:PROC	; QuaternionScale
EXTRN	_memmove:PROC
EXTRN	_memset:PROC
EXTRN	?BuildBoneChain@CStudioBoneSetup@@AAEXABVmatrix3x4@@QBVVector@@QBVVector4D@@HPAV2@PAE@Z:PROC ; CStudioBoneSetup::BuildBoneChain
EXTRN	?SolveBone@CStudioBoneSetup@@AAEXHPAVmatrix3x4@@QAVVector@@QAVVector4D@@@Z:PROC ; CStudioBoneSetup::SolveBone
EXTRN	?SolveIK@CStudioBoneSetup@@AAE_NPBUmstudioikchain_t@@AAVVector@@PAVmatrix3x4@@@Z:PROC ; CStudioBoneSetup::SolveIK
EXTRN	?SolveIK@CStudioBoneSetup@@AAE_NHHHAAVVector@@00PAVmatrix3x4@@@Z:PROC ; CStudioBoneSetup::SolveIK
EXTRN	?IKSequenceError@CStudioBoneSetup@@AAE_NHMHQAPAUmstudioanimdesc_t@@QAMPAUikcontextikrule_t@@@Z:PROC ; CStudioBoneSetup::IKSequenceError
EXTRN	?LocalSeqAnims@CStudioBoneSetup@@QAEXHQAPAUmstudioanimdesc_t@@PAM@Z:PROC ; CStudioBoneSetup::LocalSeqAnims
EXTRN	?LocalCPS@CStudioBoneSetup@@QAEMH@Z:PROC	; CStudioBoneSetup::LocalCPS
EXTRN	__wassert:PROC
EXTRN	@__security_check_cookie@4:PROC
EXTRN	___CxxFrameHandler3:PROC
EXTRN	?g_vecZero@@3VVector@@B:BYTE			; g_vecZero
EXTRN	___security_cookie:DWORD
EXTRN	__fltused:DWORD
_BSS	SEGMENT
?m_boneToWorld@CIKContext@@0PAVmatrix3x4@@A DB 01800H DUP (?) ; CIKContext::m_boneToWorld
_BSS	ENDS
CRT$XCU	SEGMENT
??m_boneToWorld$initializer$@CIKContext@@0P6AXXZA@@3P6AXXZA DD FLAT:??__E?m_boneToWorld@CIKContext@@0PAVmatrix3x4@@A@@YAXXZ ; ??m_boneToWorld$initializer$@CIKContext@@0P6AXXZA@@3P6AXXZA
CRT$XCU	ENDS
;	COMDAT __xmm@80000000800000008000000080000000
CONST	SEGMENT
__xmm@80000000800000008000000080000000 DB 00H, 00H, 00H, 080H, 00H, 00H, 00H
	DB	080H, 00H, 00H, 00H, 080H, 00H, 00H, 00H, 080H
CONST	ENDS
;	COMDAT __real@bf800000
CONST	SEGMENT
__real@bf800000 DD 0bf800000r			; -1
CONST	ENDS
;	COMDAT __real@40800000
CONST	SEGMENT
__real@40800000 DD 040800000r			; 4
CONST	ENDS
;	COMDAT __real@40400000
CONST	SEGMENT
__real@40400000 DD 040400000r			; 3
CONST	ENDS
;	COMDAT __real@4000000000000000
CONST	SEGMENT
__real@4000000000000000 DQ 04000000000000000r	; 2
CONST	ENDS
;	COMDAT __real@40000000
CONST	SEGMENT
__real@40000000 DD 040000000r			; 2
CONST	ENDS
;	COMDAT __real@3ff028f5c0000000
CONST	SEGMENT
__real@3ff028f5c0000000 DQ 03ff028f5c0000000r	; 1.01
CONST	ENDS
;	COMDAT __real@3ff0000000000000
CONST	SEGMENT
__real@3ff0000000000000 DQ 03ff0000000000000r	; 1
CONST	ENDS
;	COMDAT __real@3fe69fbe76c8b439
CONST	SEGMENT
__real@3fe69fbe76c8b439 DQ 03fe69fbe76c8b439r	; 0.707
CONST	ENDS
;	COMDAT __real@3fd0000000000000
CONST	SEGMENT
__real@3fd0000000000000 DQ 03fd0000000000000r	; 0.25
CONST	ENDS
;	COMDAT __real@3f91df46a2529d39
CONST	SEGMENT
__real@3f91df46a2529d39 DQ 03f91df46a2529d39r	; 0.0174533
CONST	ENDS
;	COMDAT __real@3f800000
CONST	SEGMENT
__real@3f800000 DD 03f800000r			; 1
CONST	ENDS
;	COMDAT __real@3f7ff972
CONST	SEGMENT
__real@3f7ff972 DD 03f7ff972r			; 0.9999
CONST	ENDS
;	COMDAT __real@3f7fbe77
CONST	SEGMENT
__real@3f7fbe77 DD 03f7fbe77r			; 0.999
CONST	ENDS
;	COMDAT __real@3f7d70a4
CONST	SEGMENT
__real@3f7d70a4 DD 03f7d70a4r			; 0.99
CONST	ENDS
;	COMDAT __real@3f733333
CONST	SEGMENT
__real@3f733333 DD 03f733333r			; 0.95
CONST	ENDS
;	COMDAT __real@3f4ccccd
CONST	SEGMENT
__real@3f4ccccd DD 03f4ccccdr			; 0.8
CONST	ENDS
;	COMDAT __real@3f34fdf4
CONST	SEGMENT
__real@3f34fdf4 DD 03f34fdf4r			; 0.707
CONST	ENDS
;	COMDAT __real@3f000000
CONST	SEGMENT
__real@3f000000 DD 03f000000r			; 0.5
CONST	ENDS
;	COMDAT __real@3e800000
CONST	SEGMENT
__real@3e800000 DD 03e800000r			; 0.25
CONST	ENDS
;	COMDAT __real@3e4ccccd
CONST	SEGMENT
__real@3e4ccccd DD 03e4ccccdr			; 0.2
CONST	ENDS
;	COMDAT __real@0000000000000000
CONST	SEGMENT
__real@0000000000000000 DQ 00000000000000000r	; 0
CONST	ENDS
;	COMDAT __real@00000000
CONST	SEGMENT
__real@00000000 DD 000000000r			; 0
CONST	ENDS
;	COMDAT ??_C@_13COJANIEC@?$AA0@
CONST	SEGMENT
??_C@_13COJANIEC@?$AA0@ DB '0', 00H, 00H, 00H		; `string'
CONST	ENDS
;	COMDAT ??_C@_1FA@BPFBJKPF@?$AA?$CI?$AAe?$AAl?$AAe?$AAm?$AA?5?$AA?$DN?$AA?$DN?$AA?5?$AAC?$AAo?$AAu?$AAn?$AAt?$AA?$CI@
CONST	SEGMENT
??_C@_1FA@BPFBJKPF@?$AA?$CI?$AAe?$AAl?$AAe?$AAm?$AA?5?$AA?$DN?$AA?$DN?$AA?5?$AAC?$AAo?$AAu?$AAn?$AAt?$AA?$CI@ DB '('
	DB	00H, 'e', 00H, 'l', 00H, 'e', 00H, 'm', 00H, ' ', 00H, '=', 00H
	DB	'=', 00H, ' ', 00H, 'C', 00H, 'o', 00H, 'u', 00H, 'n', 00H, 't'
	DB	00H, '(', 00H, ')', 00H, ')', 00H, ' ', 00H, '|', 00H, '|', 00H
	DB	' ', 00H, 'I', 00H, 's', 00H, 'V', 00H, 'a', 00H, 'l', 00H, 'i'
	DB	00H, 'd', 00H, 'I', 00H, 'n', 00H, 'd', 00H, 'e', 00H, 'x', 00H
	DB	'(', 00H, 'e', 00H, 'l', 00H, 'e', 00H, 'm', 00H, ')', 00H, 00H
	DB	00H						; `string'
CONST	ENDS
;	COMDAT ??_C@_1BM@PFNFCCHH@?$AA?$CB?$AAI?$AAs?$AAR?$AAe?$AAa?$AAd?$AAO?$AAn?$AAl?$AAy?$AA?$CI?$AA?$CJ@
CONST	SEGMENT
??_C@_1BM@PFNFCCHH@?$AA?$CB?$AAI?$AAs?$AAR?$AAe?$AAa?$AAd?$AAO?$AAn?$AAl?$AAy?$AA?$CI?$AA?$CJ@ DB '!'
	DB	00H, 'I', 00H, 's', 00H, 'R', 00H, 'e', 00H, 'a', 00H, 'd', 00H
	DB	'O', 00H, 'n', 00H, 'l', 00H, 'y', 00H, '(', 00H, ')', 00H, 00H
	DB	00H						; `string'
CONST	ENDS
;	COMDAT ??_C@_1EI@DONNOGGM@?$AAn?$AAI?$AAn?$AAi?$AAt?$AAS?$AAi?$AAz?$AAe?$AA?5?$AA?$DN?$AA?$DN?$AA?5?$AA0?$AA?5@
CONST	SEGMENT
??_C@_1EI@DONNOGGM@?$AAn?$AAI?$AAn?$AAi?$AAt?$AAS?$AAi?$AAz?$AAe?$AA?5?$AA?$DN?$AA?$DN?$AA?5?$AA0?$AA?5@ DB 'n'
	DB	00H, 'I', 00H, 'n', 00H, 'i', 00H, 't', 00H, 'S', 00H, 'i', 00H
	DB	'z', 00H, 'e', 00H, ' ', 00H, '=', 00H, '=', 00H, ' ', 00H, '0'
	DB	00H, ' ', 00H, '|', 00H, '|', 00H, ' ', 00H, 'n', 00H, 'I', 00H
	DB	'n', 00H, 'i', 00H, 't', 00H, 'S', 00H, 'i', 00H, 'z', 00H, 'e'
	DB	00H, ' ', 00H, '=', 00H, '=', 00H, ' ', 00H, 'S', 00H, 'I', 00H
	DB	'Z', 00H, 'E', 00H, 00H, 00H			; `string'
CONST	ENDS
;	COMDAT ??_C@_1BM@CKILBAKK@?$AAI?$AAs?$AAI?$AAd?$AAx?$AAV?$AAa?$AAl?$AAi?$AAd?$AA?$CI?$AAi?$AA?$CJ@
CONST	SEGMENT
??_C@_1BM@CKILBAKK@?$AAI?$AAs?$AAI?$AAd?$AAx?$AAV?$AAa?$AAl?$AAi?$AAd?$AA?$CI?$AAi?$AA?$CJ@ DB 'I'
	DB	00H, 's', 00H, 'I', 00H, 'd', 00H, 'x', 00H, 'V', 00H, 'a', 00H
	DB	'l', 00H, 'i', 00H, 'd', 00H, '(', 00H, 'i', 00H, ')', 00H, 00H
	DB	00H						; `string'
CONST	ENDS
;	COMDAT ??_C@_1BI@LFLBADNE@?$AAn?$AAu?$AAm?$AA?5?$AA?$DM?$AA?$DN?$AA?5?$AAS?$AAI?$AAZ?$AAE@
CONST	SEGMENT
??_C@_1BI@LFLBADNE@?$AAn?$AAu?$AAm?$AA?5?$AA?$DM?$AA?$DN?$AA?5?$AAS?$AAI?$AAZ?$AAE@ DB 'n'
	DB	00H, 'u', 00H, 'm', 00H, ' ', 00H, '<', 00H, '=', 00H, ' ', 00H
	DB	'S', 00H, 'I', 00H, 'Z', 00H, 'E', 00H, 00H, 00H ; `string'
CONST	ENDS
;	COMDAT ??_C@_1MO@LCPOAHHB@?$AAc?$AA?3?$AA?2?$AAu?$AAs?$AAe?$AAr?$AAs?$AA?2?$AAu?$AAs?$AAe?$AAr?$AA?2?$AAd@
CONST	SEGMENT
??_C@_1MO@LCPOAHHB@?$AAc?$AA?3?$AA?2?$AAu?$AAs?$AAe?$AAr?$AAs?$AA?2?$AAu?$AAs?$AAe?$AAr?$AA?2?$AAd@ DB 'c'
	DB	00H, ':', 00H, '\', 00H, 'u', 00H, 's', 00H, 'e', 00H, 'r', 00H
	DB	's', 00H, '\', 00H, 'u', 00H, 's', 00H, 'e', 00H, 'r', 00H, '\'
	DB	00H, 'd', 00H, 'o', 00H, 'w', 00H, 'n', 00H, 'l', 00H, 'o', 00H
	DB	'a', 00H, 'd', 00H, 's', 00H, '\', 00H, 'x', 00H, 'a', 00H, 's'
	DB	00H, 'h', 00H, 'x', 00H, 't', 00H, '_', 00H, 'v', 00H, '0', 00H
	DB	'.', 00H, '8', 00H, '1', 00H, '_', 00H, 'r', 00H, 'e', 00H, 'v'
	DB	00H, '.', 00H, '1', 00H, '_', 00H, 'w', 00H, 'i', 00H, 't', 00H
	DB	'h', 00H, '_', 00H, 's', 00H, 'o', 00H, 'u', 00H, 'r', 00H, 'c'
	DB	00H, 'e', 00H, 's', 00H, '\', 00H, 'x', 00H, 'a', 00H, 's', 00H
	DB	'h', 00H, 'x', 00H, 't', 00H, '_', 00H, 'v', 00H, '0', 00H, '.'
	DB	00H, '8', 00H, '1', 00H, '_', 00H, 'r', 00H, 'e', 00H, 'v', 00H
	DB	'.', 00H, '1', 00H, '_', 00H, 's', 00H, 'r', 00H, 'c', 00H, '\'
	DB	00H, 'g', 00H, 'a', 00H, 'm', 00H, 'e', 00H, '_', 00H, 's', 00H
	DB	'h', 00H, 'a', 00H, 'r', 00H, 'e', 00H, 'd', 00H, '\', 00H, 'u'
	DB	00H, 't', 00H, 'l', 00H, 'm', 00H, 'e', 00H, 'm', 00H, 'o', 00H
	DB	'r', 00H, 'y', 00H, '.', 00H, 'h', 00H, 00H, 00H ; `string'
CONST	ENDS
;	COMDAT ??_C@_1LK@CNNNCGDG@?$AA?$CI?$AAB?$AAa?$AAs?$AAe?$AA?$CI?$AA?$CJ?$AA?5?$AA?$DN?$AA?$DN?$AA?5?$AAN?$AAU?$AAL?$AAL@
CONST	SEGMENT
??_C@_1LK@CNNNCGDG@?$AA?$CI?$AAB?$AAa?$AAs?$AAe?$AA?$CI?$AA?$CJ?$AA?5?$AA?$DN?$AA?$DN?$AA?5?$AAN?$AAU?$AAL?$AAL@ DB '('
	DB	00H, 'B', 00H, 'a', 00H, 's', 00H, 'e', 00H, '(', 00H, ')', 00H
	DB	' ', 00H, '=', 00H, '=', 00H, ' ', 00H, 'N', 00H, 'U', 00H, 'L'
	DB	00H, 'L', 00H, ')', 00H, ' ', 00H, '|', 00H, '|', 00H, ' ', 00H
	DB	'!', 00H, 'p', 00H, 'T', 00H, 'o', 00H, 'C', 00H, 'o', 00H, 'p'
	DB	00H, 'y', 00H, ' ', 00H, '|', 00H, '|', 00H, ' ', 00H, '(', 00H
	DB	'p', 00H, 'T', 00H, 'o', 00H, 'C', 00H, 'o', 00H, 'p', 00H, 'y'
	DB	00H, ' ', 00H, '+', 00H, ' ', 00H, 'n', 00H, 'u', 00H, 'm', 00H
	DB	' ', 00H, '<', 00H, ' ', 00H, 'B', 00H, 'a', 00H, 's', 00H, 'e'
	DB	00H, '(', 00H, ')', 00H, ')', 00H, ' ', 00H, '|', 00H, '|', 00H
	DB	' ', 00H, '(', 00H, 'p', 00H, 'T', 00H, 'o', 00H, 'C', 00H, 'o'
	DB	00H, 'p', 00H, 'y', 00H, ' ', 00H, '>', 00H, '=', 00H, ' ', 00H
	DB	'(', 00H, 'B', 00H, 'a', 00H, 's', 00H, 'e', 00H, '(', 00H, ')'
	DB	00H, ' ', 00H, '+', 00H, ' ', 00H, 'C', 00H, 'o', 00H, 'u', 00H
	DB	'n', 00H, 't', 00H, '(', 00H, ')', 00H, ')', 00H, ' ', 00H, ')'
	DB	00H, 00H, 00H				; `string'
CONST	ENDS
;	COMDAT ??_C@_1MM@POBCBGGF@?$AAc?$AA?3?$AA?2?$AAu?$AAs?$AAe?$AAr?$AAs?$AA?2?$AAu?$AAs?$AAe?$AAr?$AA?2?$AAd@
CONST	SEGMENT
??_C@_1MM@POBCBGGF@?$AAc?$AA?3?$AA?2?$AAu?$AAs?$AAe?$AAr?$AAs?$AA?2?$AAu?$AAs?$AAe?$AAr?$AA?2?$AAd@ DB 'c'
	DB	00H, ':', 00H, '\', 00H, 'u', 00H, 's', 00H, 'e', 00H, 'r', 00H
	DB	's', 00H, '\', 00H, 'u', 00H, 's', 00H, 'e', 00H, 'r', 00H, '\'
	DB	00H, 'd', 00H, 'o', 00H, 'w', 00H, 'n', 00H, 'l', 00H, 'o', 00H
	DB	'a', 00H, 'd', 00H, 's', 00H, '\', 00H, 'x', 00H, 'a', 00H, 's'
	DB	00H, 'h', 00H, 'x', 00H, 't', 00H, '_', 00H, 'v', 00H, '0', 00H
	DB	'.', 00H, '8', 00H, '1', 00H, '_', 00H, 'r', 00H, 'e', 00H, 'v'
	DB	00H, '.', 00H, '1', 00H, '_', 00H, 'w', 00H, 'i', 00H, 't', 00H
	DB	'h', 00H, '_', 00H, 's', 00H, 'o', 00H, 'u', 00H, 'r', 00H, 'c'
	DB	00H, 'e', 00H, 's', 00H, '\', 00H, 'x', 00H, 'a', 00H, 's', 00H
	DB	'h', 00H, 'x', 00H, 't', 00H, '_', 00H, 'v', 00H, '0', 00H, '.'
	DB	00H, '8', 00H, '1', 00H, '_', 00H, 'r', 00H, 'e', 00H, 'v', 00H
	DB	'.', 00H, '1', 00H, '_', 00H, 's', 00H, 'r', 00H, 'c', 00H, '\'
	DB	00H, 'g', 00H, 'a', 00H, 'm', 00H, 'e', 00H, '_', 00H, 's', 00H
	DB	'h', 00H, 'a', 00H, 'r', 00H, 'e', 00H, 'd', 00H, '\', 00H, 'u'
	DB	00H, 't', 00H, 'l', 00H, 'a', 00H, 'r', 00H, 'r', 00H, 'a', 00H
	DB	'y', 00H, '.', 00H, 'h', 00H, 00H, 00H	; `string'
CONST	ENDS
;	COMDAT xdata$x
xdata$x	SEGMENT
__ehfuncinfo$??1?$CUtlMemory@Uikcontextikrule_t@@H@@QAE@XZ DD 019930522H
	DD	00H
	DD	00H
	DD	2 DUP(00H)
	DD	2 DUP(00H)
	DD	00H
	DD	05H
xdata$x	ENDS
;	COMDAT xdata$x
xdata$x	SEGMENT
__ehfuncinfo$??1?$CUtlArray@Uikcontextikrule_t@@V?$CUtlMemory@Uikcontextikrule_t@@H@@@@QAE@XZ DD 019930522H
	DD	00H
	DD	00H
	DD	2 DUP(00H)
	DD	2 DUP(00H)
	DD	00H
	DD	05H
xdata$x	ENDS
;	COMDAT xdata$x
xdata$x	SEGMENT
__unwindtable$??0?$CUtlArray@Uikcontextikrule_t@@V?$CUtlMemory@Uikcontextikrule_t@@H@@@@QAE@HH@Z DD 0ffffffffH
	DD	FLAT:__unwindfunclet$??0?$CUtlArray@Uikcontextikrule_t@@V?$CUtlMemory@Uikcontextikrule_t@@H@@@@QAE@HH@Z$0
__ehfuncinfo$??0?$CUtlArray@Uikcontextikrule_t@@V?$CUtlMemory@Uikcontextikrule_t@@H@@@@QAE@HH@Z DD 019930522H
	DD	01H
	DD	FLAT:__unwindtable$??0?$CUtlArray@Uikcontextikrule_t@@V?$CUtlMemory@Uikcontextikrule_t@@H@@@@QAE@HH@Z
	DD	2 DUP(00H)
	DD	2 DUP(00H)
	DD	00H
	DD	01H
xdata$x	ENDS
;	COMDAT xdata$x
xdata$x	SEGMENT
__ehfuncinfo$??1?$CUtlMemory@V?$CUtlArray@Uikcontextikrule_t@@V?$CUtlMemory@Uikcontextikrule_t@@H@@@@H@@QAE@XZ DD 019930522H
	DD	00H
	DD	00H
	DD	2 DUP(00H)
	DD	2 DUP(00H)
	DD	00H
	DD	05H
xdata$x	ENDS
;	COMDAT xdata$x
xdata$x	SEGMENT
__ehfuncinfo$??1?$CUtlArray@V?$CUtlArray@Uikcontextikrule_t@@V?$CUtlMemory@Uikcontextikrule_t@@H@@@@V?$CUtlMemory@V?$CUtlArray@Uikcontextikrule_t@@V?$CUtlMemory@Uikcontextikrule_t@@H@@@@H@@@@QAE@XZ DD 019930522H
	DD	00H
	DD	00H
	DD	2 DUP(00H)
	DD	2 DUP(00H)
	DD	00H
	DD	05H
xdata$x	ENDS
;	COMDAT xdata$x
xdata$x	SEGMENT
__unwindtable$??0?$CUtlArray@V?$CUtlArray@Uikcontextikrule_t@@V?$CUtlMemory@Uikcontextikrule_t@@H@@@@V?$CUtlMemory@V?$CUtlArray@Uikcontextikrule_t@@V?$CUtlMemory@Uikcontextikrule_t@@H@@@@H@@@@QAE@HH@Z DD 0ffffffffH
	DD	FLAT:__unwindfunclet$??0?$CUtlArray@V?$CUtlArray@Uikcontextikrule_t@@V?$CUtlMemory@Uikcontextikrule_t@@H@@@@V?$CUtlMemory@V?$CUtlArray@Uikcontextikrule_t@@V?$CUtlMemory@Uikcontextikrule_t@@H@@@@H@@@@QAE@HH@Z$0
__ehfuncinfo$??0?$CUtlArray@V?$CUtlArray@Uikcontextikrule_t@@V?$CUtlMemory@Uikcontextikrule_t@@H@@@@V?$CUtlMemory@V?$CUtlArray@Uikcontextikrule_t@@V?$CUtlMemory@Uikcontextikrule_t@@H@@@@H@@@@QAE@HH@Z DD 019930522H
	DD	01H
	DD	FLAT:__unwindtable$??0?$CUtlArray@V?$CUtlArray@Uikcontextikrule_t@@V?$CUtlMemory@Uikcontextikrule_t@@H@@@@V?$CUtlMemory@V?$CUtlArray@Uikcontextikrule_t@@V?$CUtlMemory@Uikcontextikrule_t@@H@@@@H@@@@QAE@HH@Z
	DD	2 DUP(00H)
	DD	2 DUP(00H)
	DD	00H
	DD	01H
xdata$x	ENDS
;	COMDAT xdata$x
xdata$x	SEGMENT
__ehfuncinfo$??1?$CUtlArray@VCIKTarget@@V?$CUtlMemoryFixed@VCIKTarget@@$0M@$0A@@@@@QAE@XZ DD 019930522H
	DD	00H
	DD	00H
	DD	2 DUP(00H)
	DD	2 DUP(00H)
	DD	00H
	DD	05H
xdata$x	ENDS
xdata$x	SEGMENT
__unwindtable$??0CIKContext@@QAE@XZ DD 0ffffffffH
	DD	FLAT:__unwindfunclet$??0CIKContext@@QAE@XZ$0
	DD	00H
	DD	FLAT:__unwindfunclet$??0CIKContext@@QAE@XZ$1
	DD	01H
	DD	FLAT:__unwindfunclet$??0CIKContext@@QAE@XZ$2
__ehfuncinfo$??0CIKContext@@QAE@XZ DD 019930522H
	DD	03H
	DD	FLAT:__unwindtable$??0CIKContext@@QAE@XZ
	DD	2 DUP(00H)
	DD	2 DUP(00H)
	DD	00H
	DD	01H
xdata$x	ENDS
; Function compile flags: /Odtp
; File c:\users\user\downloads\xashxt_v0.81_rev.1_with_sources\xashxt_v0.81_rev.1_src\game_shared\utlmemory.h
;	COMDAT ??$Construct@V?$CUtlArray@Uikcontextikrule_t@@V?$CUtlMemory@Uikcontextikrule_t@@H@@@@@@YAXPAV?$CUtlArray@Uikcontextikrule_t@@V?$CUtlMemory@Uikcontextikrule_t@@H@@@@@Z
_TEXT	SEGMENT
$T1 = -4						; size = 4
_pMemory$ = 8						; size = 4
??$Construct@V?$CUtlArray@Uikcontextikrule_t@@V?$CUtlMemory@Uikcontextikrule_t@@H@@@@@@YAXPAV?$CUtlArray@Uikcontextikrule_t@@V?$CUtlMemory@Uikcontextikrule_t@@H@@@@@Z PROC ; Construct<CUtlArray<ikcontextikrule_t,CUtlMemory<ikcontextikrule_t,int> > >, COMDAT

; 37   : {

	push	ebp
	mov	ebp, esp
	push	ecx

; 38   : 	new( pMemory ) T;

	mov	eax, DWORD PTR _pMemory$[ebp]
	push	eax
	push	20					; 00000014H
	call	??2@YAPAXIPAX@Z				; operator new
	add	esp, 8
	mov	DWORD PTR $T1[ebp], eax
	push	0
	push	0
	mov	ecx, DWORD PTR $T1[ebp]
	call	??0?$CUtlArray@Uikcontextikrule_t@@V?$CUtlMemory@Uikcontextikrule_t@@H@@@@QAE@HH@Z ; CUtlArray<ikcontextikrule_t,CUtlMemory<ikcontextikrule_t,int> >::CUtlArray<ikcontextikrule_t,CUtlMemory<ikcontextikrule_t,int> >

; 39   : }

	mov	esp, ebp
	pop	ebp
	ret	0
??$Construct@V?$CUtlArray@Uikcontextikrule_t@@V?$CUtlMemory@Uikcontextikrule_t@@H@@@@@@YAXPAV?$CUtlArray@Uikcontextikrule_t@@V?$CUtlMemory@Uikcontextikrule_t@@H@@@@@Z ENDP ; Construct<CUtlArray<ikcontextikrule_t,CUtlMemory<ikcontextikrule_t,int> > >
_TEXT	ENDS
; Function compile flags: /Odtp
; File c:\users\user\downloads\xashxt_v0.81_rev.1_with_sources\xashxt_v0.81_rev.1_src\game_shared\utlmemory.h
;	COMDAT ??$Construct@VCIKTarget@@@@YAXPAVCIKTarget@@@Z
_TEXT	SEGMENT
$T1 = -4						; size = 4
_pMemory$ = 8						; size = 4
??$Construct@VCIKTarget@@@@YAXPAVCIKTarget@@@Z PROC	; Construct<CIKTarget>, COMDAT

; 37   : {

	push	ebp
	mov	ebp, esp
	push	ecx

; 38   : 	new( pMemory ) T;

	mov	eax, DWORD PTR _pMemory$[ebp]
	push	eax
	push	336					; 00000150H
	call	??2@YAPAXIPAX@Z				; operator new
	add	esp, 8
	mov	DWORD PTR $T1[ebp], eax
	mov	ecx, DWORD PTR $T1[ebp]
	call	??0CIKTarget@@QAE@XZ

; 39   : }

	mov	esp, ebp
	pop	ebp
	ret	0
??$Construct@VCIKTarget@@@@YAXPAVCIKTarget@@@Z ENDP	; Construct<CIKTarget>
_TEXT	ENDS
; Function compile flags: /Odtp
; File c:\users\user\downloads\xashxt_v0.81_rev.1_with_sources\xashxt_v0.81_rev.1_src\game_shared\utlmemory.h
;	COMDAT ??$Destruct@VCIKTarget@@@@YAXPAVCIKTarget@@@Z
_TEXT	SEGMENT
_pMemory$ = 8						; size = 4
??$Destruct@VCIKTarget@@@@YAXPAVCIKTarget@@@Z PROC	; Destruct<CIKTarget>, COMDAT

; 49   : {

	push	ebp
	mov	ebp, esp

; 50   : 	pMemory->~T();
; 51   : 
; 52   : #ifdef _DEBUG
; 53   : 	memset( pMemory, 0xDD, sizeof(T) );

	push	336					; 00000150H
	push	221					; 000000ddH
	mov	eax, DWORD PTR _pMemory$[ebp]
	push	eax
	call	_memset
	add	esp, 12					; 0000000cH

; 54   : #endif
; 55   : }

	pop	ebp
	ret	0
??$Destruct@VCIKTarget@@@@YAXPAVCIKTarget@@@Z ENDP	; Destruct<CIKTarget>
_TEXT	ENDS
; Function compile flags: /Odtp
; File c:\users\user\downloads\xashxt_v0.81_rev.1_with_sources\xashxt_v0.81_rev.1_src\game_shared\utlmemory.h
;	COMDAT ??$Construct@Uikcontextikrule_t@@@@YAXPAUikcontextikrule_t@@@Z
_TEXT	SEGMENT
$T1 = -4						; size = 4
_pMemory$ = 8						; size = 4
??$Construct@Uikcontextikrule_t@@@@YAXPAUikcontextikrule_t@@@Z PROC ; Construct<ikcontextikrule_t>, COMDAT

; 37   : {

	push	ebp
	mov	ebp, esp
	push	ecx

; 38   : 	new( pMemory ) T;

	mov	eax, DWORD PTR _pMemory$[ebp]
	push	eax
	push	132					; 00000084H
	call	??2@YAPAXIPAX@Z				; operator new
	add	esp, 8
	mov	DWORD PTR $T1[ebp], eax
	mov	ecx, DWORD PTR $T1[ebp]
	call	??0ikcontextikrule_t@@QAE@XZ		; ikcontextikrule_t::ikcontextikrule_t

; 39   : }

	mov	esp, ebp
	pop	ebp
	ret	0
??$Construct@Uikcontextikrule_t@@@@YAXPAUikcontextikrule_t@@@Z ENDP ; Construct<ikcontextikrule_t>
_TEXT	ENDS
; Function compile flags: /Odtp
; File c:\users\user\downloads\xashxt_v0.81_rev.1_with_sources\xashxt_v0.81_rev.1_src\game_shared\utlmemory.h
;	COMDAT ??$Destruct@V?$CUtlArray@Uikcontextikrule_t@@V?$CUtlMemory@Uikcontextikrule_t@@H@@@@@@YAXPAV?$CUtlArray@Uikcontextikrule_t@@V?$CUtlMemory@Uikcontextikrule_t@@H@@@@@Z
_TEXT	SEGMENT
_pMemory$ = 8						; size = 4
??$Destruct@V?$CUtlArray@Uikcontextikrule_t@@V?$CUtlMemory@Uikcontextikrule_t@@H@@@@@@YAXPAV?$CUtlArray@Uikcontextikrule_t@@V?$CUtlMemory@Uikcontextikrule_t@@H@@@@@Z PROC ; Destruct<CUtlArray<ikcontextikrule_t,CUtlMemory<ikcontextikrule_t,int> > >, COMDAT

; 49   : {

	push	ebp
	mov	ebp, esp

; 50   : 	pMemory->~T();

	push	0
	mov	ecx, DWORD PTR _pMemory$[ebp]
	call	??_G?$CUtlArray@Uikcontextikrule_t@@V?$CUtlMemory@Uikcontextikrule_t@@H@@@@QAEPAXI@Z

; 51   : 
; 52   : #ifdef _DEBUG
; 53   : 	memset( pMemory, 0xDD, sizeof(T) );

	push	20					; 00000014H
	push	221					; 000000ddH
	mov	eax, DWORD PTR _pMemory$[ebp]
	push	eax
	call	_memset
	add	esp, 12					; 0000000cH

; 54   : #endif
; 55   : }

	pop	ebp
	ret	0
??$Destruct@V?$CUtlArray@Uikcontextikrule_t@@V?$CUtlMemory@Uikcontextikrule_t@@H@@@@@@YAXPAV?$CUtlArray@Uikcontextikrule_t@@V?$CUtlMemory@Uikcontextikrule_t@@H@@@@@Z ENDP ; Destruct<CUtlArray<ikcontextikrule_t,CUtlMemory<ikcontextikrule_t,int> > >
_TEXT	ENDS
; Function compile flags: /Odtp
; File c:\users\user\downloads\xashxt_v0.81_rev.1_with_sources\xashxt_v0.81_rev.1_src\game_shared\utlmemory.h
;	COMDAT ??$Destruct@Uikcontextikrule_t@@@@YAXPAUikcontextikrule_t@@@Z
_TEXT	SEGMENT
_pMemory$ = 8						; size = 4
??$Destruct@Uikcontextikrule_t@@@@YAXPAUikcontextikrule_t@@@Z PROC ; Destruct<ikcontextikrule_t>, COMDAT

; 49   : {

	push	ebp
	mov	ebp, esp

; 50   : 	pMemory->~T();
; 51   : 
; 52   : #ifdef _DEBUG
; 53   : 	memset( pMemory, 0xDD, sizeof(T) );

	push	132					; 00000084H
	push	221					; 000000ddH
	mov	eax, DWORD PTR _pMemory$[ebp]
	push	eax
	call	_memset
	add	esp, 12					; 0000000cH

; 54   : #endif
; 55   : }

	pop	ebp
	ret	0
??$Destruct@Uikcontextikrule_t@@@@YAXPAUikcontextikrule_t@@@Z ENDP ; Destruct<ikcontextikrule_t>
_TEXT	ENDS
; Function compile flags: /Odtp
; File c:\users\user\downloads\xashxt_v0.81_rev.1_with_sources\xashxt_v0.81_rev.1_src\game_shared\utlmemory.h
;	COMDAT ??$AlignValue@PAD@@YAPADPADI@Z
_TEXT	SEGMENT
_val$ = 8						; size = 4
_alignment$ = 12					; size = 4
??$AlignValue@PAD@@YAPADPADI@Z PROC			; AlignValue<char *>, COMDAT

; 27   : {

	push	ebp
	mov	ebp, esp

; 28   : 	return (T)( ( (unsigned int)val + alignment - 1 ) & ~( alignment - 1 ) );

	mov	eax, DWORD PTR _alignment$[ebp]
	mov	ecx, DWORD PTR _val$[ebp]
	lea	eax, DWORD PTR [ecx+eax-1]
	mov	edx, DWORD PTR _alignment$[ebp]
	sub	edx, 1
	not	edx
	and	eax, edx

; 29   : }

	pop	ebp
	ret	0
??$AlignValue@PAD@@YAPADPADI@Z ENDP			; AlignValue<char *>
_TEXT	ENDS
; Function compile flags: /Odtp
; File c:\users\user\downloads\xashxt_v0.81_rev.1_with_sources\xashxt_v0.81_rev.1_src\game_shared\mathlib.h
;	COMDAT ??$Lerp@M@@YAMMABM0@Z
_TEXT	SEGMENT
tv73 = -4						; size = 4
_flPercent$ = 8						; size = 4
_A$ = 12						; size = 4
_B$ = 16						; size = 4
??$Lerp@M@@YAMMABM0@Z PROC				; Lerp<float>, COMDAT

; 109  : {

	push	ebp
	mov	ebp, esp
	push	ecx

; 110  : 	return A + (B - A) * flPercent;

	mov	eax, DWORD PTR _B$[ebp]
	mov	ecx, DWORD PTR _A$[ebp]
	movss	xmm0, DWORD PTR [eax]
	subss	xmm0, DWORD PTR [ecx]
	mulss	xmm0, DWORD PTR _flPercent$[ebp]
	mov	edx, DWORD PTR _A$[ebp]
	addss	xmm0, DWORD PTR [edx]
	movss	DWORD PTR tv73[ebp], xmm0
	fld	DWORD PTR tv73[ebp]

; 111  : }

	mov	esp, ebp
	pop	ebp
	ret	0
??$Lerp@M@@YAMMABM0@Z ENDP				; Lerp<float>
_TEXT	ENDS
; Function compile flags: /Odtp
; File c:\users\user\downloads\xashxt_v0.81_rev.1_with_sources\xashxt_v0.81_rev.1_src\game_shared\mathlib.h
;	COMDAT ??$Lerp@VVector@@@@YA?AVVector@@MABV0@0@Z
_TEXT	SEGMENT
$T1 = -24						; size = 12
$T2 = -12						; size = 12
___$ReturnUdt$ = 8					; size = 4
_flPercent$ = 12					; size = 4
_A$ = 16						; size = 4
_B$ = 20						; size = 4
??$Lerp@VVector@@@@YA?AVVector@@MABV0@0@Z PROC		; Lerp<Vector>, COMDAT

; 109  : {

	push	ebp
	mov	ebp, esp
	sub	esp, 24					; 00000018H

; 110  : 	return A + (B - A) * flPercent;

	push	ecx
	movss	xmm0, DWORD PTR _flPercent$[ebp]
	movss	DWORD PTR [esp], xmm0
	lea	eax, DWORD PTR $T2[ebp]
	push	eax
	mov	ecx, DWORD PTR _A$[ebp]
	push	ecx
	lea	edx, DWORD PTR $T1[ebp]
	push	edx
	mov	ecx, DWORD PTR _B$[ebp]
	call	??GVector@@QBE?AV0@ABV0@@Z		; Vector::operator-
	mov	ecx, eax
	call	??DVector@@QBE?AV0@M@Z			; Vector::operator*
	push	eax
	mov	eax, DWORD PTR ___$ReturnUdt$[ebp]
	push	eax
	mov	ecx, DWORD PTR _A$[ebp]
	call	??HVector@@QBE?AV0@ABV0@@Z		; Vector::operator+
	mov	eax, DWORD PTR ___$ReturnUdt$[ebp]

; 111  : }

	mov	esp, ebp
	pop	ebp
	ret	0
??$Lerp@VVector@@@@YA?AVVector@@MABV0@0@Z ENDP		; Lerp<Vector>
_TEXT	ENDS
; Function compile flags: /Odtp
; File c:\users\user\downloads\xashxt_v0.81_rev.1_with_sources\xashxt_v0.81_rev.1_src\game_shared\ikcontext.cpp
;	COMDAT ??__E?m_boneToWorld@CIKContext@@0PAVmatrix3x4@@A@@YAXXZ
text$di	SEGMENT
??__E?m_boneToWorld@CIKContext@@0PAVmatrix3x4@@A@@YAXXZ PROC ; `dynamic initializer for 'CIKContext::m_boneToWorld'', COMDAT

; 25   : matrix3x4 CIKContext :: m_boneToWorld[MAXSTUDIOBONES];

	push	ebp
	mov	ebp, esp
	push	OFFSET ??0matrix3x4@@QAE@XZ		; matrix3x4::matrix3x4
	push	128					; 00000080H
	push	48					; 00000030H
	push	OFFSET ?m_boneToWorld@CIKContext@@0PAVmatrix3x4@@A ; CIKContext::m_boneToWorld
	call	??_H@YGXPAXIIP6EPAX0@Z@Z
	pop	ebp
	ret	0
??__E?m_boneToWorld@CIKContext@@0PAVmatrix3x4@@A@@YAXXZ ENDP ; `dynamic initializer for 'CIKContext::m_boneToWorld''
text$di	ENDS
; Function compile flags: /Odtp
;	COMDAT ??_G?$CUtlArray@Uikcontextikrule_t@@V?$CUtlMemory@Uikcontextikrule_t@@H@@@@QAEPAXI@Z
_TEXT	SEGMENT
_this$ = -4						; size = 4
___flags$ = 8						; size = 4
??_G?$CUtlArray@Uikcontextikrule_t@@V?$CUtlMemory@Uikcontextikrule_t@@H@@@@QAEPAXI@Z PROC ; CUtlArray<ikcontextikrule_t,CUtlMemory<ikcontextikrule_t,int> >::`scalar deleting destructor', COMDAT
; _this$ = ecx
	push	ebp
	mov	ebp, esp
	push	ecx
	mov	DWORD PTR _this$[ebp], ecx
	mov	ecx, DWORD PTR _this$[ebp]
	call	??1?$CUtlArray@Uikcontextikrule_t@@V?$CUtlMemory@Uikcontextikrule_t@@H@@@@QAE@XZ ; CUtlArray<ikcontextikrule_t,CUtlMemory<ikcontextikrule_t,int> >::~CUtlArray<ikcontextikrule_t,CUtlMemory<ikcontextikrule_t,int> >
	mov	eax, DWORD PTR ___flags$[ebp]
	and	eax, 1
	je	SHORT $LN2@scalar
	push	20					; 00000014H
	mov	ecx, DWORD PTR _this$[ebp]
	push	ecx
	call	??3@YAXPAXI@Z				; operator delete
	add	esp, 8
$LN2@scalar:
	mov	eax, DWORD PTR _this$[ebp]
	mov	esp, ebp
	pop	ebp
	ret	4
??_G?$CUtlArray@Uikcontextikrule_t@@V?$CUtlMemory@Uikcontextikrule_t@@H@@@@QAEPAXI@Z ENDP ; CUtlArray<ikcontextikrule_t,CUtlMemory<ikcontextikrule_t,int> >::`scalar deleting destructor'
_TEXT	ENDS
; Function compile flags: /Odtp
; File c:\users\user\downloads\xashxt_v0.81_rev.1_with_sources\xashxt_v0.81_rev.1_src\game_shared\utlarray.h
;	COMDAT ?ResetDbgInfo@?$CUtlArray@Uikcontextikrule_t@@V?$CUtlMemory@Uikcontextikrule_t@@H@@@@IAEXXZ
_TEXT	SEGMENT
_this$ = -4						; size = 4
?ResetDbgInfo@?$CUtlArray@Uikcontextikrule_t@@V?$CUtlMemory@Uikcontextikrule_t@@H@@@@IAEXXZ PROC ; CUtlArray<ikcontextikrule_t,CUtlMemory<ikcontextikrule_t,int> >::ResetDbgInfo, COMDAT
; _this$ = ecx

; 160  : 	{

	push	ebp
	mov	ebp, esp
	push	ecx
	mov	DWORD PTR _this$[ebp], ecx

; 161  : 		m_pElements = Base();

	mov	ecx, DWORD PTR _this$[ebp]
	call	?Base@?$CUtlArray@Uikcontextikrule_t@@V?$CUtlMemory@Uikcontextikrule_t@@H@@@@QAEPAUikcontextikrule_t@@XZ ; CUtlArray<ikcontextikrule_t,CUtlMemory<ikcontextikrule_t,int> >::Base
	mov	ecx, DWORD PTR _this$[ebp]
	mov	DWORD PTR [ecx+16], eax

; 162  : 	}

	mov	esp, ebp
	pop	ebp
	ret	0
?ResetDbgInfo@?$CUtlArray@Uikcontextikrule_t@@V?$CUtlMemory@Uikcontextikrule_t@@H@@@@IAEXXZ ENDP ; CUtlArray<ikcontextikrule_t,CUtlMemory<ikcontextikrule_t,int> >::ResetDbgInfo
_TEXT	ENDS
; Function compile flags: /Odtp
; File c:\users\user\downloads\xashxt_v0.81_rev.1_with_sources\xashxt_v0.81_rev.1_src\game_shared\utlmemory.h
;	COMDAT ?ValidateGrowSize@?$CUtlMemory@Uikcontextikrule_t@@H@@IAEXXZ
_TEXT	SEGMENT
_this$ = -4						; size = 4
?ValidateGrowSize@?$CUtlMemory@Uikcontextikrule_t@@H@@IAEXXZ PROC ; CUtlMemory<ikcontextikrule_t,int>::ValidateGrowSize, COMDAT
; _this$ = ecx

; 148  : 	{

	push	ebp
	mov	ebp, esp
	push	ecx
	mov	DWORD PTR _this$[ebp], ecx

; 149  : #ifdef _X360
; 150  : 		if ( m_nGrowSize && m_nGrowSize != EXTERNAL_BUFFER_MARKER )
; 151  : 		{
; 152  : 			// Max grow size at 128 bytes on XBOX
; 153  : 			const int MAX_GROW = 128;
; 154  : 			if ( m_nGrowSize * sizeof(T) > MAX_GROW )
; 155  : 			{
; 156  : 				m_nGrowSize = max( 1, MAX_GROW / sizeof(T) );
; 157  : 			}
; 158  : 		}
; 159  : #endif
; 160  : 	}

	mov	esp, ebp
	pop	ebp
	ret	0
?ValidateGrowSize@?$CUtlMemory@Uikcontextikrule_t@@H@@IAEXXZ ENDP ; CUtlMemory<ikcontextikrule_t,int>::ValidateGrowSize
_TEXT	ENDS
; Function compile flags: /Odtp
; File c:\users\user\downloads\xashxt_v0.81_rev.1_with_sources\xashxt_v0.81_rev.1_src\game_shared\utlmemory.h
;	COMDAT ?IsReadOnly@?$CUtlMemory@Uikcontextikrule_t@@H@@QBE_NXZ
_TEXT	SEGMENT
_this$ = -8						; size = 4
tv66 = -4						; size = 4
?IsReadOnly@?$CUtlMemory@Uikcontextikrule_t@@H@@QBE_NXZ PROC ; CUtlMemory<ikcontextikrule_t,int>::IsReadOnly, COMDAT
; _this$ = ecx

; 467  : {

	push	ebp
	mov	ebp, esp
	sub	esp, 8
	mov	DWORD PTR _this$[ebp], ecx

; 468  : 	return (m_nGrowSize == EXTERNAL_CONST_BUFFER_MARKER);

	mov	eax, DWORD PTR _this$[ebp]
	cmp	DWORD PTR [eax+8], -2			; fffffffeH
	jne	SHORT $LN3@IsReadOnly
	mov	DWORD PTR tv66[ebp], 1
	jmp	SHORT $LN4@IsReadOnly
$LN3@IsReadOnly:
	mov	DWORD PTR tv66[ebp], 0
$LN4@IsReadOnly:
	mov	al, BYTE PTR tv66[ebp]

; 469  : }

	mov	esp, ebp
	pop	ebp
	ret	0
?IsReadOnly@?$CUtlMemory@Uikcontextikrule_t@@H@@QBE_NXZ ENDP ; CUtlMemory<ikcontextikrule_t,int>::IsReadOnly
_TEXT	ENDS
; Function compile flags: /Odtp
; File c:\users\user\downloads\xashxt_v0.81_rev.1_with_sources\xashxt_v0.81_rev.1_src\game_shared\utlmemory.h
;	COMDAT ?IsExternallyAllocated@?$CUtlMemory@Uikcontextikrule_t@@H@@QBE_NXZ
_TEXT	SEGMENT
_this$ = -8						; size = 4
tv66 = -4						; size = 4
?IsExternallyAllocated@?$CUtlMemory@Uikcontextikrule_t@@H@@QBE_NXZ PROC ; CUtlMemory<ikcontextikrule_t,int>::IsExternallyAllocated, COMDAT
; _this$ = ecx

; 457  : {

	push	ebp
	mov	ebp, esp
	sub	esp, 8
	mov	DWORD PTR _this$[ebp], ecx

; 458  : 	return (m_nGrowSize < 0);

	mov	eax, DWORD PTR _this$[ebp]
	cmp	DWORD PTR [eax+8], 0
	jge	SHORT $LN3@IsExternal
	mov	DWORD PTR tv66[ebp], 1
	jmp	SHORT $LN4@IsExternal
$LN3@IsExternal:
	mov	DWORD PTR tv66[ebp], 0
$LN4@IsExternal:
	mov	al, BYTE PTR tv66[ebp]

; 459  : }

	mov	esp, ebp
	pop	ebp
	ret	0
?IsExternallyAllocated@?$CUtlMemory@Uikcontextikrule_t@@H@@QBE_NXZ ENDP ; CUtlMemory<ikcontextikrule_t,int>::IsExternallyAllocated
_TEXT	ENDS
; Function compile flags: /Odtp
; File c:\users\user\downloads\xashxt_v0.81_rev.1_with_sources\xashxt_v0.81_rev.1_src\game_shared\utlmemory.h
;	COMDAT ?Purge@?$CUtlMemory@Uikcontextikrule_t@@H@@QAEXXZ
_TEXT	SEGMENT
_this$ = -4						; size = 4
?Purge@?$CUtlMemory@Uikcontextikrule_t@@H@@QAEXXZ PROC	; CUtlMemory<ikcontextikrule_t,int>::Purge, COMDAT
; _this$ = ecx

; 645  : {

	push	ebp
	mov	ebp, esp
	push	ecx
	mov	DWORD PTR _this$[ebp], ecx

; 646  : 	if ( !IsExternallyAllocated() )

	mov	ecx, DWORD PTR _this$[ebp]
	call	?IsExternallyAllocated@?$CUtlMemory@Uikcontextikrule_t@@H@@QBE_NXZ ; CUtlMemory<ikcontextikrule_t,int>::IsExternallyAllocated
	movzx	eax, al
	test	eax, eax
	jne	SHORT $LN1@Purge

; 647  : 	{
; 648  : 		if (m_pMemory)

	mov	ecx, DWORD PTR _this$[ebp]
	cmp	DWORD PTR [ecx], 0
	je	SHORT $LN3@Purge

; 649  : 		{
; 650  : 			free( (void*)m_pMemory );

	mov	edx, DWORD PTR _this$[ebp]
	mov	eax, DWORD PTR [edx]
	push	eax
	call	_free
	add	esp, 4

; 651  : 			m_pMemory = 0;

	mov	ecx, DWORD PTR _this$[ebp]
	mov	DWORD PTR [ecx], 0
$LN3@Purge:

; 652  : 		}
; 653  : 		m_nAllocationCount = 0;

	mov	edx, DWORD PTR _this$[ebp]
	mov	DWORD PTR [edx+4], 0
$LN1@Purge:

; 654  : 	}
; 655  : }

	mov	esp, ebp
	pop	ebp
	ret	0
?Purge@?$CUtlMemory@Uikcontextikrule_t@@H@@QAEXXZ ENDP	; CUtlMemory<ikcontextikrule_t,int>::Purge
_TEXT	ENDS
; Function compile flags: /Odtp
; File c:\users\user\downloads\xashxt_v0.81_rev.1_with_sources\xashxt_v0.81_rev.1_src\game_shared\utlmemory.h
;	COMDAT ?Grow@?$CUtlMemory@Uikcontextikrule_t@@H@@QAEXH@Z
_TEXT	SEGMENT
_nAllocationRequested$ = -8				; size = 4
_this$ = -4						; size = 4
_num$ = 8						; size = 4
?Grow@?$CUtlMemory@Uikcontextikrule_t@@H@@QAEXH@Z PROC	; CUtlMemory<ikcontextikrule_t,int>::Grow, COMDAT
; _this$ = ecx

; 560  : {

	push	ebp
	mov	ebp, esp
	sub	esp, 8
	mov	DWORD PTR _this$[ebp], ecx

; 561  : 	assert( num > 0 );

	cmp	DWORD PTR _num$[ebp], 0
	jg	SHORT $LN12@Grow
	push	561					; 00000231H
	push	OFFSET $SG18091
	push	OFFSET $SG18092
	call	__wassert
	add	esp, 12					; 0000000cH
$LN12@Grow:

; 562  : 
; 563  : 	if ( IsExternallyAllocated() )

	mov	ecx, DWORD PTR _this$[ebp]
	call	?IsExternallyAllocated@?$CUtlMemory@Uikcontextikrule_t@@H@@QBE_NXZ ; CUtlMemory<ikcontextikrule_t,int>::IsExternallyAllocated
	movzx	ecx, al
	test	ecx, ecx
	je	SHORT $LN4@Grow

; 564  : 	{
; 565  : 		// Can't grow a buffer whose memory was externally allocated 
; 566  : 		assert(0);

	xor	edx, edx
	jne	SHORT $LN13@Grow
	push	566					; 00000236H
	push	OFFSET $SG18094
	push	OFFSET $SG18095
	call	__wassert
	add	esp, 12					; 0000000cH
$LN13@Grow:

; 567  : 		return;

	jmp	$LN1@Grow
$LN4@Grow:

; 568  : 	}
; 569  : 
; 570  : 	// Make sure we have at least numallocated + num allocations.
; 571  : 	// Use the grow rules specified for this memory (in m_nGrowSize)
; 572  : 	int nAllocationRequested = m_nAllocationCount + num;

	mov	ecx, DWORD PTR _this$[ebp]
	mov	edx, DWORD PTR [ecx+4]
	add	edx, DWORD PTR _num$[ebp]
	mov	DWORD PTR _nAllocationRequested$[ebp], edx

; 573  : 
; 574  : 	m_nAllocationCount = UtlMemory_CalcNewAllocationCount( m_nAllocationCount, m_nGrowSize, nAllocationRequested, sizeof(T) );

	push	132					; 00000084H
	mov	eax, DWORD PTR _nAllocationRequested$[ebp]
	push	eax
	mov	ecx, DWORD PTR _this$[ebp]
	mov	edx, DWORD PTR [ecx+8]
	push	edx
	mov	eax, DWORD PTR _this$[ebp]
	mov	ecx, DWORD PTR [eax+4]
	push	ecx
	call	?UtlMemory_CalcNewAllocationCount@@YAHHHHH@Z ; UtlMemory_CalcNewAllocationCount
	add	esp, 16					; 00000010H
	mov	edx, DWORD PTR _this$[ebp]
	mov	DWORD PTR [edx+4], eax

; 575  : 
; 576  : 	// if m_nAllocationRequested wraps index type I, recalculate
; 577  : 	if ( ( int )( I )m_nAllocationCount < nAllocationRequested )

	mov	eax, DWORD PTR _this$[ebp]
	mov	ecx, DWORD PTR [eax+4]
	cmp	ecx, DWORD PTR _nAllocationRequested$[ebp]
	jge	SHORT $LN5@Grow

; 578  : 	{
; 579  : 		if ( ( int )( I )m_nAllocationCount == 0 && ( int )( I )( m_nAllocationCount - 1 ) >= nAllocationRequested )

	mov	edx, DWORD PTR _this$[ebp]
	cmp	DWORD PTR [edx+4], 0
	jne	SHORT $LN6@Grow
	mov	eax, DWORD PTR _this$[ebp]
	mov	ecx, DWORD PTR [eax+4]
	sub	ecx, 1
	cmp	ecx, DWORD PTR _nAllocationRequested$[ebp]
	jl	SHORT $LN6@Grow

; 580  : 		{
; 581  : 			--m_nAllocationCount; // deal w/ the common case of m_nAllocationCount == MAX_USHORT + 1

	mov	edx, DWORD PTR _this$[ebp]
	mov	eax, DWORD PTR [edx+4]
	sub	eax, 1
	mov	ecx, DWORD PTR _this$[ebp]
	mov	DWORD PTR [ecx+4], eax

; 582  : 		}
; 583  : 		else

	jmp	SHORT $LN5@Grow
$LN6@Grow:

; 584  : 		{
; 585  : 			if ( ( int )( I )nAllocationRequested != nAllocationRequested )

	mov	edx, DWORD PTR _nAllocationRequested$[ebp]
	cmp	edx, DWORD PTR _nAllocationRequested$[ebp]
	je	SHORT $LN2@Grow

; 586  : 			{
; 587  : 				// we've been asked to grow memory to a size s.t. the index type can't address the requested amount of memory
; 588  : 				assert( 0 );

	xor	eax, eax
	jne	SHORT $LN14@Grow
	push	588					; 0000024cH
	push	OFFSET $SG18100
	push	OFFSET $SG18101
	call	__wassert
	add	esp, 12					; 0000000cH
$LN14@Grow:

; 589  : 				return;

	jmp	$LN1@Grow
$LN2@Grow:

; 590  : 			}
; 591  : 			while ( ( int )( I )m_nAllocationCount < nAllocationRequested )

	mov	edx, DWORD PTR _this$[ebp]
	mov	eax, DWORD PTR [edx+4]
	cmp	eax, DWORD PTR _nAllocationRequested$[ebp]
	jge	SHORT $LN5@Grow

; 592  : 			{
; 593  : 				m_nAllocationCount = ( m_nAllocationCount + nAllocationRequested ) / 2;

	mov	ecx, DWORD PTR _this$[ebp]
	mov	eax, DWORD PTR [ecx+4]
	add	eax, DWORD PTR _nAllocationRequested$[ebp]
	cdq
	sub	eax, edx
	sar	eax, 1
	mov	edx, DWORD PTR _this$[ebp]
	mov	DWORD PTR [edx+4], eax

; 594  : 			}

	jmp	SHORT $LN2@Grow
$LN5@Grow:

; 595  : 		}
; 596  : 	}
; 597  : 
; 598  : 	if (m_pMemory)

	mov	eax, DWORD PTR _this$[ebp]
	cmp	DWORD PTR [eax], 0
	je	SHORT $LN9@Grow

; 599  : 	{
; 600  : 		m_pMemory = (T*)realloc( m_pMemory, m_nAllocationCount * sizeof(T) );

	mov	ecx, DWORD PTR _this$[ebp]
	imul	edx, DWORD PTR [ecx+4], 132
	push	edx
	mov	eax, DWORD PTR _this$[ebp]
	mov	ecx, DWORD PTR [eax]
	push	ecx
	call	_realloc
	add	esp, 8
	mov	edx, DWORD PTR _this$[ebp]
	mov	DWORD PTR [edx], eax

; 601  : 		assert( m_pMemory );

	mov	eax, DWORD PTR _this$[ebp]
	cmp	DWORD PTR [eax], 0
	jne	SHORT $LN15@Grow
	push	601					; 00000259H
	push	OFFSET $SG18104
	push	OFFSET $SG18105
	call	__wassert
	add	esp, 12					; 0000000cH
$LN15@Grow:

; 602  : 	}
; 603  : 	else

	jmp	SHORT $LN1@Grow
$LN9@Grow:

; 604  : 	{
; 605  : 		m_pMemory = (T*)malloc( m_nAllocationCount * sizeof(T) );

	mov	edx, DWORD PTR _this$[ebp]
	imul	eax, DWORD PTR [edx+4], 132
	push	eax
	call	_malloc
	add	esp, 4
	mov	ecx, DWORD PTR _this$[ebp]
	mov	DWORD PTR [ecx], eax

; 606  : 		assert( m_pMemory );

	mov	edx, DWORD PTR _this$[ebp]
	cmp	DWORD PTR [edx], 0
	jne	SHORT $LN1@Grow
	push	606					; 0000025eH
	push	OFFSET $SG18106
	push	OFFSET $SG18107
	call	__wassert
	add	esp, 12					; 0000000cH
$LN1@Grow:

; 607  : 	}
; 608  : }

	mov	esp, ebp
	pop	ebp
	ret	4
?Grow@?$CUtlMemory@Uikcontextikrule_t@@H@@QAEXH@Z ENDP	; CUtlMemory<ikcontextikrule_t,int>::Grow
_TEXT	ENDS
; Function compile flags: /Odtp
; File c:\users\user\downloads\xashxt_v0.81_rev.1_with_sources\xashxt_v0.81_rev.1_src\game_shared\utlmemory.h
;	COMDAT ?NumAllocated@?$CUtlMemory@Uikcontextikrule_t@@H@@QBEHXZ
_TEXT	SEGMENT
_this$ = -4						; size = 4
?NumAllocated@?$CUtlMemory@Uikcontextikrule_t@@H@@QBEHXZ PROC ; CUtlMemory<ikcontextikrule_t,int>::NumAllocated, COMDAT
; _this$ = ecx

; 504  : {

	push	ebp
	mov	ebp, esp
	push	ecx
	mov	DWORD PTR _this$[ebp], ecx

; 505  : 	return m_nAllocationCount;

	mov	eax, DWORD PTR _this$[ebp]
	mov	eax, DWORD PTR [eax+4]

; 506  : }

	mov	esp, ebp
	pop	ebp
	ret	0
?NumAllocated@?$CUtlMemory@Uikcontextikrule_t@@H@@QBEHXZ ENDP ; CUtlMemory<ikcontextikrule_t,int>::NumAllocated
_TEXT	ENDS
; Function compile flags: /Odtp
; File c:\users\user\downloads\xashxt_v0.81_rev.1_with_sources\xashxt_v0.81_rev.1_src\game_shared\utlmemory.h
;	COMDAT ?Base@?$CUtlMemory@Uikcontextikrule_t@@H@@QAEPAUikcontextikrule_t@@XZ
_TEXT	SEGMENT
_this$ = -4						; size = 4
?Base@?$CUtlMemory@Uikcontextikrule_t@@H@@QAEPAUikcontextikrule_t@@XZ PROC ; CUtlMemory<ikcontextikrule_t,int>::Base, COMDAT
; _this$ = ecx

; 487  : {

	push	ebp
	mov	ebp, esp
	push	ecx
	mov	DWORD PTR _this$[ebp], ecx

; 488  : 	assert( !IsReadOnly() );

	mov	ecx, DWORD PTR _this$[ebp]
	call	?IsReadOnly@?$CUtlMemory@Uikcontextikrule_t@@H@@QBE_NXZ ; CUtlMemory<ikcontextikrule_t,int>::IsReadOnly
	movzx	eax, al
	test	eax, eax
	je	SHORT $LN3@Base
	push	488					; 000001e8H
	push	OFFSET ??_C@_1MO@LCPOAHHB@?$AAc?$AA?3?$AA?2?$AAu?$AAs?$AAe?$AAr?$AAs?$AA?2?$AAu?$AAs?$AAe?$AAr?$AA?2?$AAd@
	push	OFFSET ??_C@_1BM@PFNFCCHH@?$AA?$CB?$AAI?$AAs?$AAR?$AAe?$AAa?$AAd?$AAO?$AAn?$AAl?$AAy?$AA?$CI?$AA?$CJ@
	call	__wassert
	add	esp, 12					; 0000000cH
$LN3@Base:

; 489  : 	return m_pMemory;

	mov	edx, DWORD PTR _this$[ebp]
	mov	eax, DWORD PTR [edx]

; 490  : }

	mov	esp, ebp
	pop	ebp
	ret	0
?Base@?$CUtlMemory@Uikcontextikrule_t@@H@@QAEPAUikcontextikrule_t@@XZ ENDP ; CUtlMemory<ikcontextikrule_t,int>::Base
_TEXT	ENDS
; Function compile flags: /Odtp
; File c:\users\user\downloads\xashxt_v0.81_rev.1_with_sources\xashxt_v0.81_rev.1_src\game_shared\utlmemory.h
;	COMDAT ?IsIdxValid@?$CUtlMemory@Uikcontextikrule_t@@H@@QBE_NH@Z
_TEXT	SEGMENT
_this$ = -8						; size = 4
tv67 = -4						; size = 4
_i$ = 8							; size = 4
?IsIdxValid@?$CUtlMemory@Uikcontextikrule_t@@H@@QBE_NH@Z PROC ; CUtlMemory<ikcontextikrule_t,int>::IsIdxValid, COMDAT
; _this$ = ecx

; 520  : {

	push	ebp
	mov	ebp, esp
	sub	esp, 8
	mov	DWORD PTR _this$[ebp], ecx

; 521  : 	return ( ((int) i) >= 0 ) && ( ((int) i) < m_nAllocationCount );

	cmp	DWORD PTR _i$[ebp], 0
	jl	SHORT $LN3@IsIdxValid
	mov	eax, DWORD PTR _this$[ebp]
	mov	ecx, DWORD PTR _i$[ebp]
	cmp	ecx, DWORD PTR [eax+4]
	jge	SHORT $LN3@IsIdxValid
	mov	DWORD PTR tv67[ebp], 1
	jmp	SHORT $LN4@IsIdxValid
$LN3@IsIdxValid:
	mov	DWORD PTR tv67[ebp], 0
$LN4@IsIdxValid:
	mov	al, BYTE PTR tv67[ebp]

; 522  : }

	mov	esp, ebp
	pop	ebp
	ret	4
?IsIdxValid@?$CUtlMemory@Uikcontextikrule_t@@H@@QBE_NH@Z ENDP ; CUtlMemory<ikcontextikrule_t,int>::IsIdxValid
_TEXT	ENDS
; Function compile flags: /Odtp
; File c:\users\user\downloads\xashxt_v0.81_rev.1_with_sources\xashxt_v0.81_rev.1_src\game_shared\utlmemory.h
;	COMDAT ??A?$CUtlMemory@Uikcontextikrule_t@@H@@QBEABUikcontextikrule_t@@H@Z
_TEXT	SEGMENT
_this$ = -4						; size = 4
_i$ = 8							; size = 4
??A?$CUtlMemory@Uikcontextikrule_t@@H@@QBEABUikcontextikrule_t@@H@Z PROC ; CUtlMemory<ikcontextikrule_t,int>::operator[], COMDAT
; _this$ = ecx

; 431  : {

	push	ebp
	mov	ebp, esp
	push	ecx
	mov	DWORD PTR _this$[ebp], ecx

; 432  : 	assert( IsIdxValid(i) );

	mov	eax, DWORD PTR _i$[ebp]
	push	eax
	mov	ecx, DWORD PTR _this$[ebp]
	call	?IsIdxValid@?$CUtlMemory@Uikcontextikrule_t@@H@@QBE_NH@Z ; CUtlMemory<ikcontextikrule_t,int>::IsIdxValid
	movzx	ecx, al
	test	ecx, ecx
	jne	SHORT $LN3@operator
	push	432					; 000001b0H
	push	OFFSET ??_C@_1MO@LCPOAHHB@?$AAc?$AA?3?$AA?2?$AAu?$AAs?$AAe?$AAr?$AAs?$AA?2?$AAu?$AAs?$AAe?$AAr?$AA?2?$AAd@
	push	OFFSET ??_C@_1BM@CKILBAKK@?$AAI?$AAs?$AAI?$AAd?$AAx?$AAV?$AAa?$AAl?$AAi?$AAd?$AA?$CI?$AAi?$AA?$CJ@
	call	__wassert
	add	esp, 12					; 0000000cH
$LN3@operator:

; 433  : 	return m_pMemory[i];

	imul	eax, DWORD PTR _i$[ebp], 132
	mov	ecx, DWORD PTR _this$[ebp]
	add	eax, DWORD PTR [ecx]

; 434  : }

	mov	esp, ebp
	pop	ebp
	ret	4
??A?$CUtlMemory@Uikcontextikrule_t@@H@@QBEABUikcontextikrule_t@@H@Z ENDP ; CUtlMemory<ikcontextikrule_t,int>::operator[]
_TEXT	ENDS
; Function compile flags: /Odtp
; File c:\users\user\downloads\xashxt_v0.81_rev.1_with_sources\xashxt_v0.81_rev.1_src\game_shared\utlmemory.h
;	COMDAT ??A?$CUtlMemory@Uikcontextikrule_t@@H@@QAEAAUikcontextikrule_t@@H@Z
_TEXT	SEGMENT
_this$ = -4						; size = 4
_i$ = 8							; size = 4
??A?$CUtlMemory@Uikcontextikrule_t@@H@@QAEAAUikcontextikrule_t@@H@Z PROC ; CUtlMemory<ikcontextikrule_t,int>::operator[], COMDAT
; _this$ = ecx

; 423  : {

	push	ebp
	mov	ebp, esp
	push	ecx
	mov	DWORD PTR _this$[ebp], ecx

; 424  : 	assert( !IsReadOnly() );

	mov	ecx, DWORD PTR _this$[ebp]
	call	?IsReadOnly@?$CUtlMemory@Uikcontextikrule_t@@H@@QBE_NXZ ; CUtlMemory<ikcontextikrule_t,int>::IsReadOnly
	movzx	eax, al
	test	eax, eax
	je	SHORT $LN3@operator
	push	424					; 000001a8H
	push	OFFSET ??_C@_1MO@LCPOAHHB@?$AAc?$AA?3?$AA?2?$AAu?$AAs?$AAe?$AAr?$AAs?$AA?2?$AAu?$AAs?$AAe?$AAr?$AA?2?$AAd@
	push	OFFSET ??_C@_1BM@PFNFCCHH@?$AA?$CB?$AAI?$AAs?$AAR?$AAe?$AAa?$AAd?$AAO?$AAn?$AAl?$AAy?$AA?$CI?$AA?$CJ@
	call	__wassert
	add	esp, 12					; 0000000cH
$LN3@operator:

; 425  : 	assert( IsIdxValid(i) );

	mov	edx, DWORD PTR _i$[ebp]
	push	edx
	mov	ecx, DWORD PTR _this$[ebp]
	call	?IsIdxValid@?$CUtlMemory@Uikcontextikrule_t@@H@@QBE_NH@Z ; CUtlMemory<ikcontextikrule_t,int>::IsIdxValid
	movzx	eax, al
	test	eax, eax
	jne	SHORT $LN4@operator
	push	425					; 000001a9H
	push	OFFSET ??_C@_1MO@LCPOAHHB@?$AAc?$AA?3?$AA?2?$AAu?$AAs?$AAe?$AAr?$AAs?$AA?2?$AAu?$AAs?$AAe?$AAr?$AA?2?$AAd@
	push	OFFSET ??_C@_1BM@CKILBAKK@?$AAI?$AAs?$AAI?$AAd?$AAx?$AAV?$AAa?$AAl?$AAi?$AAd?$AA?$CI?$AAi?$AA?$CJ@
	call	__wassert
	add	esp, 12					; 0000000cH
$LN4@operator:

; 426  : 	return m_pMemory[i];

	imul	eax, DWORD PTR _i$[ebp], 132
	mov	edx, DWORD PTR _this$[ebp]
	add	eax, DWORD PTR [edx]

; 427  : }

	mov	esp, ebp
	pop	ebp
	ret	4
??A?$CUtlMemory@Uikcontextikrule_t@@H@@QAEAAUikcontextikrule_t@@H@Z ENDP ; CUtlMemory<ikcontextikrule_t,int>::operator[]
_TEXT	ENDS
; Function compile flags: /Odtp
; File c:\users\user\downloads\xashxt_v0.81_rev.1_with_sources\xashxt_v0.81_rev.1_src\game_shared\utlmemory.h
;	COMDAT ??1?$CUtlMemory@Uikcontextikrule_t@@H@@QAE@XZ
_TEXT	SEGMENT
_this$ = -16						; size = 4
__$EHRec$ = -12						; size = 12
??1?$CUtlMemory@Uikcontextikrule_t@@H@@QAE@XZ PROC	; CUtlMemory<ikcontextikrule_t,int>::~CUtlMemory<ikcontextikrule_t,int>, COMDAT
; _this$ = ecx

; 322  : {

	push	ebp
	mov	ebp, esp
	push	-1
	push	__ehhandler$??1?$CUtlMemory@Uikcontextikrule_t@@H@@QAE@XZ
	mov	eax, DWORD PTR fs:0
	push	eax
	push	ecx
	mov	eax, DWORD PTR ___security_cookie
	xor	eax, ebp
	push	eax
	lea	eax, DWORD PTR __$EHRec$[ebp]
	mov	DWORD PTR fs:0, eax
	mov	DWORD PTR _this$[ebp], ecx

; 323  : 	Purge();

	mov	ecx, DWORD PTR _this$[ebp]
	call	?Purge@?$CUtlMemory@Uikcontextikrule_t@@H@@QAEXXZ ; CUtlMemory<ikcontextikrule_t,int>::Purge

; 324  : }

	mov	ecx, DWORD PTR __$EHRec$[ebp]
	mov	DWORD PTR fs:0, ecx
	pop	ecx
	mov	esp, ebp
	pop	ebp
	ret	0
_TEXT	ENDS
;	COMDAT text$x
text$x	SEGMENT
__ehhandler$??1?$CUtlMemory@Uikcontextikrule_t@@H@@QAE@XZ:
	mov	edx, DWORD PTR [esp+8]
	lea	eax, DWORD PTR [edx+12]
	mov	ecx, DWORD PTR [edx-8]
	xor	ecx, eax
	call	@__security_check_cookie@4
	mov	eax, OFFSET __ehfuncinfo$??1?$CUtlMemory@Uikcontextikrule_t@@H@@QAE@XZ
	jmp	___CxxFrameHandler3
text$x	ENDS
??1?$CUtlMemory@Uikcontextikrule_t@@H@@QAE@XZ ENDP	; CUtlMemory<ikcontextikrule_t,int>::~CUtlMemory<ikcontextikrule_t,int>
; Function compile flags: /Odtp
; File c:\users\user\downloads\xashxt_v0.81_rev.1_with_sources\xashxt_v0.81_rev.1_src\game_shared\utlmemory.h
;	COMDAT ??0?$CUtlMemory@Uikcontextikrule_t@@H@@QAE@HH@Z
_TEXT	SEGMENT
_this$ = -4						; size = 4
_nGrowSize$ = 8						; size = 4
_nInitAllocationCount$ = 12				; size = 4
??0?$CUtlMemory@Uikcontextikrule_t@@H@@QAE@HH@Z PROC	; CUtlMemory<ikcontextikrule_t,int>::CUtlMemory<ikcontextikrule_t,int>, COMDAT
; _this$ = ecx

; 295  : {

	push	ebp
	mov	ebp, esp
	push	ecx
	mov	DWORD PTR _this$[ebp], ecx

; 293  : CUtlMemory<T,I>::CUtlMemory( int nGrowSize, int nInitAllocationCount ) : m_pMemory(0), 

	mov	eax, DWORD PTR _this$[ebp]
	mov	DWORD PTR [eax], 0

; 294  : 	m_nAllocationCount( nInitAllocationCount ), m_nGrowSize( nGrowSize )

	mov	ecx, DWORD PTR _this$[ebp]
	mov	edx, DWORD PTR _nInitAllocationCount$[ebp]
	mov	DWORD PTR [ecx+4], edx
	mov	eax, DWORD PTR _this$[ebp]
	mov	ecx, DWORD PTR _nGrowSize$[ebp]
	mov	DWORD PTR [eax+8], ecx

; 296  : 	ValidateGrowSize();

	mov	ecx, DWORD PTR _this$[ebp]
	call	?ValidateGrowSize@?$CUtlMemory@Uikcontextikrule_t@@H@@IAEXXZ ; CUtlMemory<ikcontextikrule_t,int>::ValidateGrowSize

; 297  : 	assert( nGrowSize >= 0 );

	cmp	DWORD PTR _nGrowSize$[ebp], 0
	jge	SHORT $LN4@CUtlMemory
	push	297					; 00000129H
	push	OFFSET $SG17790
	push	OFFSET $SG17791
	call	__wassert
	add	esp, 12					; 0000000cH
$LN4@CUtlMemory:

; 298  : 	if (m_nAllocationCount)

	mov	eax, DWORD PTR _this$[ebp]
	cmp	DWORD PTR [eax+4], 0
	je	SHORT $LN1@CUtlMemory

; 299  : 	{
; 300  : 		m_pMemory = (T*)malloc( m_nAllocationCount * sizeof(T) );

	mov	ecx, DWORD PTR _this$[ebp]
	imul	edx, DWORD PTR [ecx+4], 132
	push	edx
	call	_malloc
	add	esp, 4
	mov	ecx, DWORD PTR _this$[ebp]
	mov	DWORD PTR [ecx], eax
$LN1@CUtlMemory:

; 301  : 	}
; 302  : }

	mov	eax, DWORD PTR _this$[ebp]
	mov	esp, ebp
	pop	ebp
	ret	8
??0?$CUtlMemory@Uikcontextikrule_t@@H@@QAE@HH@Z ENDP	; CUtlMemory<ikcontextikrule_t,int>::CUtlMemory<ikcontextikrule_t,int>
_TEXT	ENDS
; Function compile flags: /Odtp
; File c:\users\user\downloads\xashxt_v0.81_rev.1_with_sources\xashxt_v0.81_rev.1_src\game_shared\utlarray.h
;	COMDAT ?ShiftElementsRight@?$CUtlArray@Uikcontextikrule_t@@V?$CUtlMemory@Uikcontextikrule_t@@H@@@@IAEXHH@Z
_TEXT	SEGMENT
_numToMove$ = -8					; size = 4
_this$ = -4						; size = 4
_elem$ = 8						; size = 4
_num$ = 12						; size = 4
?ShiftElementsRight@?$CUtlArray@Uikcontextikrule_t@@V?$CUtlMemory@Uikcontextikrule_t@@H@@@@IAEXHH@Z PROC ; CUtlArray<ikcontextikrule_t,CUtlMemory<ikcontextikrule_t,int> >::ShiftElementsRight, COMDAT
; _this$ = ecx

; 447  : {

	push	ebp
	mov	ebp, esp
	sub	esp, 8
	mov	DWORD PTR _this$[ebp], ecx

; 448  : 	assert( IsValidIndex(elem) || ( m_Size == 0 ) || ( num == 0 ));

	mov	eax, DWORD PTR _elem$[ebp]
	push	eax
	mov	ecx, DWORD PTR _this$[ebp]
	call	?IsValidIndex@?$CUtlArray@Uikcontextikrule_t@@V?$CUtlMemory@Uikcontextikrule_t@@H@@@@QBE_NH@Z ; CUtlArray<ikcontextikrule_t,CUtlMemory<ikcontextikrule_t,int> >::IsValidIndex
	movzx	ecx, al
	test	ecx, ecx
	jne	SHORT $LN4@ShiftEleme
	mov	edx, DWORD PTR _this$[ebp]
	cmp	DWORD PTR [edx+12], 0
	je	SHORT $LN4@ShiftEleme
	cmp	DWORD PTR _num$[ebp], 0
	je	SHORT $LN4@ShiftEleme
	push	448					; 000001c0H
	push	OFFSET $SG17984
	push	OFFSET $SG17985
	call	__wassert
	add	esp, 12					; 0000000cH
$LN4@ShiftEleme:

; 449  : 	int numToMove = m_Size - elem - num;

	mov	ecx, DWORD PTR _this$[ebp]
	mov	edx, DWORD PTR [ecx+12]
	sub	edx, DWORD PTR _elem$[ebp]
	sub	edx, DWORD PTR _num$[ebp]
	mov	DWORD PTR _numToMove$[ebp], edx

; 450  : 	if ((numToMove > 0) && (num > 0))

	cmp	DWORD PTR _numToMove$[ebp], 0
	jle	SHORT $LN1@ShiftEleme
	cmp	DWORD PTR _num$[ebp], 0
	jle	SHORT $LN1@ShiftEleme

; 451  : 		memmove( &Element(elem+num), &Element(elem), numToMove * sizeof(T) );

	imul	eax, DWORD PTR _numToMove$[ebp], 132
	push	eax
	mov	ecx, DWORD PTR _elem$[ebp]
	push	ecx
	mov	ecx, DWORD PTR _this$[ebp]
	call	?Element@?$CUtlArray@Uikcontextikrule_t@@V?$CUtlMemory@Uikcontextikrule_t@@H@@@@QAEAAUikcontextikrule_t@@H@Z ; CUtlArray<ikcontextikrule_t,CUtlMemory<ikcontextikrule_t,int> >::Element
	push	eax
	mov	edx, DWORD PTR _elem$[ebp]
	add	edx, DWORD PTR _num$[ebp]
	push	edx
	mov	ecx, DWORD PTR _this$[ebp]
	call	?Element@?$CUtlArray@Uikcontextikrule_t@@V?$CUtlMemory@Uikcontextikrule_t@@H@@@@QAEAAUikcontextikrule_t@@H@Z ; CUtlArray<ikcontextikrule_t,CUtlMemory<ikcontextikrule_t,int> >::Element
	push	eax
	call	_memmove
	add	esp, 12					; 0000000cH
$LN1@ShiftEleme:

; 452  : }

	mov	esp, ebp
	pop	ebp
	ret	8
?ShiftElementsRight@?$CUtlArray@Uikcontextikrule_t@@V?$CUtlMemory@Uikcontextikrule_t@@H@@@@IAEXHH@Z ENDP ; CUtlArray<ikcontextikrule_t,CUtlMemory<ikcontextikrule_t,int> >::ShiftElementsRight
_TEXT	ENDS
; Function compile flags: /Odtp
; File c:\users\user\downloads\xashxt_v0.81_rev.1_with_sources\xashxt_v0.81_rev.1_src\game_shared\utlarray.h
;	COMDAT ?GrowVector@?$CUtlArray@Uikcontextikrule_t@@V?$CUtlMemory@Uikcontextikrule_t@@H@@@@IAEXH@Z
_TEXT	SEGMENT
_this$ = -4						; size = 4
_num$ = 8						; size = 4
?GrowVector@?$CUtlArray@Uikcontextikrule_t@@V?$CUtlMemory@Uikcontextikrule_t@@H@@@@IAEXH@Z PROC ; CUtlArray<ikcontextikrule_t,CUtlMemory<ikcontextikrule_t,int> >::GrowVector, COMDAT
; _this$ = ecx

; 374  : {

	push	ebp
	mov	ebp, esp
	push	ecx
	push	esi
	mov	DWORD PTR _this$[ebp], ecx

; 375  : 	if (m_Size + num > m_Memory.NumAllocated())

	mov	eax, DWORD PTR _this$[ebp]
	mov	esi, DWORD PTR [eax+12]
	add	esi, DWORD PTR _num$[ebp]
	mov	ecx, DWORD PTR _this$[ebp]
	call	?NumAllocated@?$CUtlMemory@Uikcontextikrule_t@@H@@QBEHXZ ; CUtlMemory<ikcontextikrule_t,int>::NumAllocated
	cmp	esi, eax
	jle	SHORT $LN2@GrowVector

; 376  : 	{
; 377  : 		m_Memory.Grow( m_Size + num - m_Memory.NumAllocated() );

	mov	ecx, DWORD PTR _this$[ebp]
	mov	esi, DWORD PTR [ecx+12]
	add	esi, DWORD PTR _num$[ebp]
	mov	ecx, DWORD PTR _this$[ebp]
	call	?NumAllocated@?$CUtlMemory@Uikcontextikrule_t@@H@@QBEHXZ ; CUtlMemory<ikcontextikrule_t,int>::NumAllocated
	sub	esi, eax
	push	esi
	mov	ecx, DWORD PTR _this$[ebp]
	call	?Grow@?$CUtlMemory@Uikcontextikrule_t@@H@@QAEXH@Z ; CUtlMemory<ikcontextikrule_t,int>::Grow
$LN2@GrowVector:

; 378  : 	}
; 379  : 
; 380  : 	m_Size += num;

	mov	edx, DWORD PTR _this$[ebp]
	mov	eax, DWORD PTR [edx+12]
	add	eax, DWORD PTR _num$[ebp]
	mov	ecx, DWORD PTR _this$[ebp]
	mov	DWORD PTR [ecx+12], eax

; 381  : 	ResetDbgInfo();

	mov	ecx, DWORD PTR _this$[ebp]
	call	?ResetDbgInfo@?$CUtlArray@Uikcontextikrule_t@@V?$CUtlMemory@Uikcontextikrule_t@@H@@@@IAEXXZ ; CUtlArray<ikcontextikrule_t,CUtlMemory<ikcontextikrule_t,int> >::ResetDbgInfo

; 382  : }

	pop	esi
	mov	esp, ebp
	pop	ebp
	ret	4
?GrowVector@?$CUtlArray@Uikcontextikrule_t@@V?$CUtlMemory@Uikcontextikrule_t@@H@@@@IAEXH@Z ENDP ; CUtlArray<ikcontextikrule_t,CUtlMemory<ikcontextikrule_t,int> >::GrowVector
_TEXT	ENDS
; Function compile flags: /Odtp
; File c:\users\user\downloads\xashxt_v0.81_rev.1_with_sources\xashxt_v0.81_rev.1_src\game_shared\utlarray.h
;	COMDAT ?Purge@?$CUtlArray@Uikcontextikrule_t@@V?$CUtlMemory@Uikcontextikrule_t@@H@@@@QAEXXZ
_TEXT	SEGMENT
_this$ = -4						; size = 4
?Purge@?$CUtlArray@Uikcontextikrule_t@@V?$CUtlMemory@Uikcontextikrule_t@@H@@@@QAEXXZ PROC ; CUtlArray<ikcontextikrule_t,CUtlMemory<ikcontextikrule_t,int> >::Purge, COMDAT
; _this$ = ecx

; 742  : {

	push	ebp
	mov	ebp, esp
	push	ecx
	mov	DWORD PTR _this$[ebp], ecx

; 743  : 	RemoveAll();

	mov	ecx, DWORD PTR _this$[ebp]
	call	?RemoveAll@?$CUtlArray@Uikcontextikrule_t@@V?$CUtlMemory@Uikcontextikrule_t@@H@@@@QAEXXZ ; CUtlArray<ikcontextikrule_t,CUtlMemory<ikcontextikrule_t,int> >::RemoveAll

; 744  : 	m_Memory.Purge();

	mov	ecx, DWORD PTR _this$[ebp]
	call	?Purge@?$CUtlMemory@Uikcontextikrule_t@@H@@QAEXXZ ; CUtlMemory<ikcontextikrule_t,int>::Purge

; 745  : 	ResetDbgInfo();

	mov	ecx, DWORD PTR _this$[ebp]
	call	?ResetDbgInfo@?$CUtlArray@Uikcontextikrule_t@@V?$CUtlMemory@Uikcontextikrule_t@@H@@@@IAEXXZ ; CUtlArray<ikcontextikrule_t,CUtlMemory<ikcontextikrule_t,int> >::ResetDbgInfo

; 746  : }

	mov	esp, ebp
	pop	ebp
	ret	0
?Purge@?$CUtlArray@Uikcontextikrule_t@@V?$CUtlMemory@Uikcontextikrule_t@@H@@@@QAEXXZ ENDP ; CUtlArray<ikcontextikrule_t,CUtlMemory<ikcontextikrule_t,int> >::Purge
_TEXT	ENDS
; Function compile flags: /Odtp
; File c:\users\user\downloads\xashxt_v0.81_rev.1_with_sources\xashxt_v0.81_rev.1_src\game_shared\utlarray.h
;	COMDAT ?RemoveAll@?$CUtlArray@Uikcontextikrule_t@@V?$CUtlMemory@Uikcontextikrule_t@@H@@@@QAEXXZ
_TEXT	SEGMENT
_this$ = -8						; size = 4
_i$1 = -4						; size = 4
?RemoveAll@?$CUtlArray@Uikcontextikrule_t@@V?$CUtlMemory@Uikcontextikrule_t@@H@@@@QAEXXZ PROC ; CUtlArray<ikcontextikrule_t,CUtlMemory<ikcontextikrule_t,int> >::RemoveAll, COMDAT
; _this$ = ecx

; 726  : {

	push	ebp
	mov	ebp, esp
	sub	esp, 8
	mov	DWORD PTR _this$[ebp], ecx

; 727  : 	for (int i = m_Size; --i >= 0; )

	mov	eax, DWORD PTR _this$[ebp]
	mov	ecx, DWORD PTR [eax+12]
	mov	DWORD PTR _i$1[ebp], ecx
$LN4@RemoveAll:
	mov	edx, DWORD PTR _i$1[ebp]
	sub	edx, 1
	mov	DWORD PTR _i$1[ebp], edx
	js	SHORT $LN3@RemoveAll

; 728  : 	{
; 729  : 		Destruct(&Element(i));

	mov	eax, DWORD PTR _i$1[ebp]
	push	eax
	mov	ecx, DWORD PTR _this$[ebp]
	call	?Element@?$CUtlArray@Uikcontextikrule_t@@V?$CUtlMemory@Uikcontextikrule_t@@H@@@@QAEAAUikcontextikrule_t@@H@Z ; CUtlArray<ikcontextikrule_t,CUtlMemory<ikcontextikrule_t,int> >::Element
	push	eax
	call	??$Destruct@Uikcontextikrule_t@@@@YAXPAUikcontextikrule_t@@@Z ; Destruct<ikcontextikrule_t>
	add	esp, 4

; 730  : 	}

	jmp	SHORT $LN4@RemoveAll
$LN3@RemoveAll:

; 731  : 
; 732  : 	m_Size = 0;

	mov	ecx, DWORD PTR _this$[ebp]
	mov	DWORD PTR [ecx+12], 0

; 733  : }

	mov	esp, ebp
	pop	ebp
	ret	0
?RemoveAll@?$CUtlArray@Uikcontextikrule_t@@V?$CUtlMemory@Uikcontextikrule_t@@H@@@@QAEXXZ ENDP ; CUtlArray<ikcontextikrule_t,CUtlMemory<ikcontextikrule_t,int> >::RemoveAll
_TEXT	ENDS
; Function compile flags: /Odtp
; File c:\users\user\downloads\xashxt_v0.81_rev.1_with_sources\xashxt_v0.81_rev.1_src\game_shared\utlarray.h
;	COMDAT ?SetCount@?$CUtlArray@Uikcontextikrule_t@@V?$CUtlMemory@Uikcontextikrule_t@@H@@@@QAEXH@Z
_TEXT	SEGMENT
_this$ = -4						; size = 4
_count$ = 8						; size = 4
?SetCount@?$CUtlArray@Uikcontextikrule_t@@V?$CUtlMemory@Uikcontextikrule_t@@H@@@@QAEXH@Z PROC ; CUtlArray<ikcontextikrule_t,CUtlMemory<ikcontextikrule_t,int> >::SetCount, COMDAT
; _this$ = ecx

; 574  : {

	push	ebp
	mov	ebp, esp
	push	ecx
	mov	DWORD PTR _this$[ebp], ecx

; 575  : 	RemoveAll();

	mov	ecx, DWORD PTR _this$[ebp]
	call	?RemoveAll@?$CUtlArray@Uikcontextikrule_t@@V?$CUtlMemory@Uikcontextikrule_t@@H@@@@QAEXXZ ; CUtlArray<ikcontextikrule_t,CUtlMemory<ikcontextikrule_t,int> >::RemoveAll

; 576  : 	AddMultipleToTail( count );

	push	0
	mov	eax, DWORD PTR _count$[ebp]
	push	eax
	mov	ecx, DWORD PTR _this$[ebp]
	call	?AddMultipleToTail@?$CUtlArray@Uikcontextikrule_t@@V?$CUtlMemory@Uikcontextikrule_t@@H@@@@QAEHHPBUikcontextikrule_t@@@Z ; CUtlArray<ikcontextikrule_t,CUtlMemory<ikcontextikrule_t,int> >::AddMultipleToTail

; 577  : }

	mov	esp, ebp
	pop	ebp
	ret	4
?SetCount@?$CUtlArray@Uikcontextikrule_t@@V?$CUtlMemory@Uikcontextikrule_t@@H@@@@QAEXH@Z ENDP ; CUtlArray<ikcontextikrule_t,CUtlMemory<ikcontextikrule_t,int> >::SetCount
_TEXT	ENDS
; Function compile flags: /Odtp
; File c:\users\user\downloads\xashxt_v0.81_rev.1_with_sources\xashxt_v0.81_rev.1_src\game_shared\utlarray.h
;	COMDAT ?SetSize@?$CUtlArray@Uikcontextikrule_t@@V?$CUtlMemory@Uikcontextikrule_t@@H@@@@QAEXH@Z
_TEXT	SEGMENT
_this$ = -4						; size = 4
_size$ = 8						; size = 4
?SetSize@?$CUtlArray@Uikcontextikrule_t@@V?$CUtlMemory@Uikcontextikrule_t@@H@@@@QAEXH@Z PROC ; CUtlArray<ikcontextikrule_t,CUtlMemory<ikcontextikrule_t,int> >::SetSize, COMDAT
; _this$ = ecx

; 581  : {

	push	ebp
	mov	ebp, esp
	push	ecx
	mov	DWORD PTR _this$[ebp], ecx

; 582  : 	SetCount( size );

	mov	eax, DWORD PTR _size$[ebp]
	push	eax
	mov	ecx, DWORD PTR _this$[ebp]
	call	?SetCount@?$CUtlArray@Uikcontextikrule_t@@V?$CUtlMemory@Uikcontextikrule_t@@H@@@@QAEXH@Z ; CUtlArray<ikcontextikrule_t,CUtlMemory<ikcontextikrule_t,int> >::SetCount

; 583  : }

	mov	esp, ebp
	pop	ebp
	ret	4
?SetSize@?$CUtlArray@Uikcontextikrule_t@@V?$CUtlMemory@Uikcontextikrule_t@@H@@@@QAEXH@Z ENDP ; CUtlArray<ikcontextikrule_t,CUtlMemory<ikcontextikrule_t,int> >::SetSize
_TEXT	ENDS
; Function compile flags: /Odtp
; File c:\users\user\downloads\xashxt_v0.81_rev.1_with_sources\xashxt_v0.81_rev.1_src\game_shared\utlarray.h
;	COMDAT ?InsertMultipleBefore@?$CUtlArray@Uikcontextikrule_t@@V?$CUtlMemory@Uikcontextikrule_t@@H@@@@QAEHHHPBUikcontextikrule_t@@@Z
_TEXT	SEGMENT
_i$1 = -12						; size = 4
_i$2 = -8						; size = 4
_this$ = -4						; size = 4
_elem$ = 8						; size = 4
_num$ = 12						; size = 4
_pToInsert$ = 16					; size = 4
?InsertMultipleBefore@?$CUtlArray@Uikcontextikrule_t@@V?$CUtlMemory@Uikcontextikrule_t@@H@@@@QAEHHHPBUikcontextikrule_t@@@Z PROC ; CUtlArray<ikcontextikrule_t,CUtlMemory<ikcontextikrule_t,int> >::InsertMultipleBefore, COMDAT
; _this$ = ecx

; 627  : {

	push	ebp
	mov	ebp, esp
	sub	esp, 12					; 0000000cH
	push	esi
	push	edi
	mov	DWORD PTR _this$[ebp], ecx

; 628  : 	if( num == 0 )

	cmp	DWORD PTR _num$[ebp], 0
	jne	SHORT $LN8@InsertMult

; 629  : 		return elem;

	mov	eax, DWORD PTR _elem$[ebp]
	jmp	$LN1@InsertMult
$LN8@InsertMult:

; 630  : 	
; 631  : 	// Can insert at the end
; 632  : 	assert( (elem == Count()) || IsValidIndex(elem) );

	mov	ecx, DWORD PTR _this$[ebp]
	call	?Count@?$CUtlArray@Uikcontextikrule_t@@V?$CUtlMemory@Uikcontextikrule_t@@H@@@@QBEHXZ ; CUtlArray<ikcontextikrule_t,CUtlMemory<ikcontextikrule_t,int> >::Count
	cmp	DWORD PTR _elem$[ebp], eax
	je	SHORT $LN11@InsertMult
	mov	eax, DWORD PTR _elem$[ebp]
	push	eax
	mov	ecx, DWORD PTR _this$[ebp]
	call	?IsValidIndex@?$CUtlArray@Uikcontextikrule_t@@V?$CUtlMemory@Uikcontextikrule_t@@H@@@@QBE_NH@Z ; CUtlArray<ikcontextikrule_t,CUtlMemory<ikcontextikrule_t,int> >::IsValidIndex
	movzx	ecx, al
	test	ecx, ecx
	jne	SHORT $LN11@InsertMult
	push	632					; 00000278H
	push	OFFSET ??_C@_1MM@POBCBGGF@?$AAc?$AA?3?$AA?2?$AAu?$AAs?$AAe?$AAr?$AAs?$AA?2?$AAu?$AAs?$AAe?$AAr?$AA?2?$AAd@
	push	OFFSET ??_C@_1FA@BPFBJKPF@?$AA?$CI?$AAe?$AAl?$AAe?$AAm?$AA?5?$AA?$DN?$AA?$DN?$AA?5?$AAC?$AAo?$AAu?$AAn?$AAt?$AA?$CI@
	call	__wassert
	add	esp, 12					; 0000000cH
$LN11@InsertMult:

; 633  : 
; 634  : 	GrowVector(num);

	mov	eax, DWORD PTR _num$[ebp]
	push	eax
	mov	ecx, DWORD PTR _this$[ebp]
	call	?GrowVector@?$CUtlArray@Uikcontextikrule_t@@V?$CUtlMemory@Uikcontextikrule_t@@H@@@@IAEXH@Z ; CUtlArray<ikcontextikrule_t,CUtlMemory<ikcontextikrule_t,int> >::GrowVector

; 635  : 	ShiftElementsRight(elem, num);

	mov	ecx, DWORD PTR _num$[ebp]
	push	ecx
	mov	edx, DWORD PTR _elem$[ebp]
	push	edx
	mov	ecx, DWORD PTR _this$[ebp]
	call	?ShiftElementsRight@?$CUtlArray@Uikcontextikrule_t@@V?$CUtlMemory@Uikcontextikrule_t@@H@@@@IAEXHH@Z ; CUtlArray<ikcontextikrule_t,CUtlMemory<ikcontextikrule_t,int> >::ShiftElementsRight

; 636  : 
; 637  : 	// Invoke default constructors
; 638  : 	for (int i = 0; i < num; ++i)

	mov	DWORD PTR _i$1[ebp], 0
	jmp	SHORT $LN4@InsertMult
$LN2@InsertMult:
	mov	eax, DWORD PTR _i$1[ebp]
	add	eax, 1
	mov	DWORD PTR _i$1[ebp], eax
$LN4@InsertMult:
	mov	ecx, DWORD PTR _i$1[ebp]
	cmp	ecx, DWORD PTR _num$[ebp]
	jge	SHORT $LN3@InsertMult

; 639  : 		Construct( &Element(elem+i) );

	mov	edx, DWORD PTR _elem$[ebp]
	add	edx, DWORD PTR _i$1[ebp]
	push	edx
	mov	ecx, DWORD PTR _this$[ebp]
	call	?Element@?$CUtlArray@Uikcontextikrule_t@@V?$CUtlMemory@Uikcontextikrule_t@@H@@@@QAEAAUikcontextikrule_t@@H@Z ; CUtlArray<ikcontextikrule_t,CUtlMemory<ikcontextikrule_t,int> >::Element
	push	eax
	call	??$Construct@Uikcontextikrule_t@@@@YAXPAUikcontextikrule_t@@@Z ; Construct<ikcontextikrule_t>
	add	esp, 4
	jmp	SHORT $LN2@InsertMult
$LN3@InsertMult:

; 640  : 
; 641  : 	// Copy stuff in?
; 642  : 	if ( pToInsert )

	cmp	DWORD PTR _pToInsert$[ebp], 0
	je	SHORT $LN9@InsertMult

; 643  : 	{
; 644  : 		for ( int i=0; i < num; i++ )

	mov	DWORD PTR _i$2[ebp], 0
	jmp	SHORT $LN7@InsertMult
$LN5@InsertMult:
	mov	eax, DWORD PTR _i$2[ebp]
	add	eax, 1
	mov	DWORD PTR _i$2[ebp], eax
$LN7@InsertMult:
	mov	ecx, DWORD PTR _i$2[ebp]
	cmp	ecx, DWORD PTR _num$[ebp]
	jge	SHORT $LN9@InsertMult

; 645  : 		{
; 646  : 			Element( elem+i ) = pToInsert[i];

	imul	esi, DWORD PTR _i$2[ebp], 132
	add	esi, DWORD PTR _pToInsert$[ebp]
	mov	edx, DWORD PTR _elem$[ebp]
	add	edx, DWORD PTR _i$2[ebp]
	push	edx
	mov	ecx, DWORD PTR _this$[ebp]
	call	?Element@?$CUtlArray@Uikcontextikrule_t@@V?$CUtlMemory@Uikcontextikrule_t@@H@@@@QAEAAUikcontextikrule_t@@H@Z ; CUtlArray<ikcontextikrule_t,CUtlMemory<ikcontextikrule_t,int> >::Element
	mov	ecx, 33					; 00000021H
	mov	edi, eax
	rep movsd

; 647  : 		}

	jmp	SHORT $LN5@InsertMult
$LN9@InsertMult:

; 648  : 	}
; 649  : 
; 650  : 	return elem;

	mov	eax, DWORD PTR _elem$[ebp]
$LN1@InsertMult:

; 651  : }

	pop	edi
	pop	esi
	mov	esp, ebp
	pop	ebp
	ret	12					; 0000000cH
?InsertMultipleBefore@?$CUtlArray@Uikcontextikrule_t@@V?$CUtlMemory@Uikcontextikrule_t@@H@@@@QAEHHHPBUikcontextikrule_t@@@Z ENDP ; CUtlArray<ikcontextikrule_t,CUtlMemory<ikcontextikrule_t,int> >::InsertMultipleBefore
_TEXT	ENDS
; Function compile flags: /Odtp
; File c:\users\user\downloads\xashxt_v0.81_rev.1_with_sources\xashxt_v0.81_rev.1_src\game_shared\utlarray.h
;	COMDAT ?AddMultipleToTail@?$CUtlArray@Uikcontextikrule_t@@V?$CUtlMemory@Uikcontextikrule_t@@H@@@@QAEHHPBUikcontextikrule_t@@@Z
_TEXT	SEGMENT
_this$ = -4						; size = 4
_num$ = 8						; size = 4
_pToCopy$ = 12						; size = 4
?AddMultipleToTail@?$CUtlArray@Uikcontextikrule_t@@V?$CUtlMemory@Uikcontextikrule_t@@H@@@@QAEHHPBUikcontextikrule_t@@@Z PROC ; CUtlArray<ikcontextikrule_t,CUtlMemory<ikcontextikrule_t,int> >::AddMultipleToTail, COMDAT
; _this$ = ecx

; 558  : {

	push	ebp
	mov	ebp, esp
	push	ecx
	push	esi
	mov	DWORD PTR _this$[ebp], ecx

; 559  : 	// Can't insert something that's in the list... reallocation may hose us
; 560  : 	assert( (Base() == NULL) || !pToCopy || (pToCopy + num < Base()) || (pToCopy >= (Base() + Count()) ) ); 

	mov	ecx, DWORD PTR _this$[ebp]
	call	?Base@?$CUtlArray@Uikcontextikrule_t@@V?$CUtlMemory@Uikcontextikrule_t@@H@@@@QAEPAUikcontextikrule_t@@XZ ; CUtlArray<ikcontextikrule_t,CUtlMemory<ikcontextikrule_t,int> >::Base
	test	eax, eax
	je	SHORT $LN3@AddMultipl
	cmp	DWORD PTR _pToCopy$[ebp], 0
	je	SHORT $LN3@AddMultipl
	imul	esi, DWORD PTR _num$[ebp], 132
	add	esi, DWORD PTR _pToCopy$[ebp]
	mov	ecx, DWORD PTR _this$[ebp]
	call	?Base@?$CUtlArray@Uikcontextikrule_t@@V?$CUtlMemory@Uikcontextikrule_t@@H@@@@QAEPAUikcontextikrule_t@@XZ ; CUtlArray<ikcontextikrule_t,CUtlMemory<ikcontextikrule_t,int> >::Base
	cmp	esi, eax
	jb	SHORT $LN3@AddMultipl
	mov	ecx, DWORD PTR _this$[ebp]
	call	?Base@?$CUtlArray@Uikcontextikrule_t@@V?$CUtlMemory@Uikcontextikrule_t@@H@@@@QAEPAUikcontextikrule_t@@XZ ; CUtlArray<ikcontextikrule_t,CUtlMemory<ikcontextikrule_t,int> >::Base
	mov	esi, eax
	mov	ecx, DWORD PTR _this$[ebp]
	call	?Count@?$CUtlArray@Uikcontextikrule_t@@V?$CUtlMemory@Uikcontextikrule_t@@H@@@@QBEHXZ ; CUtlArray<ikcontextikrule_t,CUtlMemory<ikcontextikrule_t,int> >::Count
	imul	eax, eax, 132
	add	esi, eax
	cmp	DWORD PTR _pToCopy$[ebp], esi
	jae	SHORT $LN3@AddMultipl
	push	560					; 00000230H
	push	OFFSET ??_C@_1MM@POBCBGGF@?$AAc?$AA?3?$AA?2?$AAu?$AAs?$AAe?$AAr?$AAs?$AA?2?$AAu?$AAs?$AAe?$AAr?$AA?2?$AAd@
	push	OFFSET ??_C@_1LK@CNNNCGDG@?$AA?$CI?$AAB?$AAa?$AAs?$AAe?$AA?$CI?$AA?$CJ?$AA?5?$AA?$DN?$AA?$DN?$AA?5?$AAN?$AAU?$AAL?$AAL@
	call	__wassert
	add	esp, 12					; 0000000cH
$LN3@AddMultipl:

; 561  : 
; 562  : 	return InsertMultipleBefore( m_Size, num, pToCopy );

	mov	edx, DWORD PTR _pToCopy$[ebp]
	push	edx
	mov	eax, DWORD PTR _num$[ebp]
	push	eax
	mov	ecx, DWORD PTR _this$[ebp]
	mov	edx, DWORD PTR [ecx+12]
	push	edx
	mov	ecx, DWORD PTR _this$[ebp]
	call	?InsertMultipleBefore@?$CUtlArray@Uikcontextikrule_t@@V?$CUtlMemory@Uikcontextikrule_t@@H@@@@QAEHHHPBUikcontextikrule_t@@@Z ; CUtlArray<ikcontextikrule_t,CUtlMemory<ikcontextikrule_t,int> >::InsertMultipleBefore

; 563  : }

	pop	esi
	mov	esp, ebp
	pop	ebp
	ret	8
?AddMultipleToTail@?$CUtlArray@Uikcontextikrule_t@@V?$CUtlMemory@Uikcontextikrule_t@@H@@@@QAEHHPBUikcontextikrule_t@@@Z ENDP ; CUtlArray<ikcontextikrule_t,CUtlMemory<ikcontextikrule_t,int> >::AddMultipleToTail
_TEXT	ENDS
; Function compile flags: /Odtp
; File c:\users\user\downloads\xashxt_v0.81_rev.1_with_sources\xashxt_v0.81_rev.1_src\game_shared\utlarray.h
;	COMDAT ?InsertBefore@?$CUtlArray@Uikcontextikrule_t@@V?$CUtlMemory@Uikcontextikrule_t@@H@@@@QAEHH@Z
_TEXT	SEGMENT
_this$ = -4						; size = 4
_elem$ = 8						; size = 4
?InsertBefore@?$CUtlArray@Uikcontextikrule_t@@V?$CUtlMemory@Uikcontextikrule_t@@H@@@@QAEHH@Z PROC ; CUtlArray<ikcontextikrule_t,CUtlMemory<ikcontextikrule_t,int> >::InsertBefore, COMDAT
; _this$ = ecx

; 493  : {

	push	ebp
	mov	ebp, esp
	push	ecx
	mov	DWORD PTR _this$[ebp], ecx

; 494  : 	// Can insert at the end
; 495  : 	assert( (elem == Count()) || IsValidIndex(elem) );

	mov	ecx, DWORD PTR _this$[ebp]
	call	?Count@?$CUtlArray@Uikcontextikrule_t@@V?$CUtlMemory@Uikcontextikrule_t@@H@@@@QBEHXZ ; CUtlArray<ikcontextikrule_t,CUtlMemory<ikcontextikrule_t,int> >::Count
	cmp	DWORD PTR _elem$[ebp], eax
	je	SHORT $LN3@InsertBefo
	mov	eax, DWORD PTR _elem$[ebp]
	push	eax
	mov	ecx, DWORD PTR _this$[ebp]
	call	?IsValidIndex@?$CUtlArray@Uikcontextikrule_t@@V?$CUtlMemory@Uikcontextikrule_t@@H@@@@QBE_NH@Z ; CUtlArray<ikcontextikrule_t,CUtlMemory<ikcontextikrule_t,int> >::IsValidIndex
	movzx	ecx, al
	test	ecx, ecx
	jne	SHORT $LN3@InsertBefo
	push	495					; 000001efH
	push	OFFSET $SG17828
	push	OFFSET $SG17829
	call	__wassert
	add	esp, 12					; 0000000cH
$LN3@InsertBefo:

; 496  : 
; 497  : 	GrowVector();

	push	1
	mov	ecx, DWORD PTR _this$[ebp]
	call	?GrowVector@?$CUtlArray@Uikcontextikrule_t@@V?$CUtlMemory@Uikcontextikrule_t@@H@@@@IAEXH@Z ; CUtlArray<ikcontextikrule_t,CUtlMemory<ikcontextikrule_t,int> >::GrowVector

; 498  : 	ShiftElementsRight(elem);

	push	1
	mov	eax, DWORD PTR _elem$[ebp]
	push	eax
	mov	ecx, DWORD PTR _this$[ebp]
	call	?ShiftElementsRight@?$CUtlArray@Uikcontextikrule_t@@V?$CUtlMemory@Uikcontextikrule_t@@H@@@@IAEXHH@Z ; CUtlArray<ikcontextikrule_t,CUtlMemory<ikcontextikrule_t,int> >::ShiftElementsRight

; 499  : 	Construct( &Element(elem) );

	mov	ecx, DWORD PTR _elem$[ebp]
	push	ecx
	mov	ecx, DWORD PTR _this$[ebp]
	call	?Element@?$CUtlArray@Uikcontextikrule_t@@V?$CUtlMemory@Uikcontextikrule_t@@H@@@@QAEAAUikcontextikrule_t@@H@Z ; CUtlArray<ikcontextikrule_t,CUtlMemory<ikcontextikrule_t,int> >::Element
	push	eax
	call	??$Construct@Uikcontextikrule_t@@@@YAXPAUikcontextikrule_t@@@Z ; Construct<ikcontextikrule_t>
	add	esp, 4

; 500  : 	return elem;

	mov	eax, DWORD PTR _elem$[ebp]

; 501  : }

	mov	esp, ebp
	pop	ebp
	ret	4
?InsertBefore@?$CUtlArray@Uikcontextikrule_t@@V?$CUtlMemory@Uikcontextikrule_t@@H@@@@QAEHH@Z ENDP ; CUtlArray<ikcontextikrule_t,CUtlMemory<ikcontextikrule_t,int> >::InsertBefore
_TEXT	ENDS
; Function compile flags: /Odtp
; File c:\users\user\downloads\xashxt_v0.81_rev.1_with_sources\xashxt_v0.81_rev.1_src\game_shared\utlarray.h
;	COMDAT ?AddToTail@?$CUtlArray@Uikcontextikrule_t@@V?$CUtlMemory@Uikcontextikrule_t@@H@@@@QAEHXZ
_TEXT	SEGMENT
_this$ = -4						; size = 4
?AddToTail@?$CUtlArray@Uikcontextikrule_t@@V?$CUtlMemory@Uikcontextikrule_t@@H@@@@QAEHXZ PROC ; CUtlArray<ikcontextikrule_t,CUtlMemory<ikcontextikrule_t,int> >::AddToTail, COMDAT
; _this$ = ecx

; 481  : {

	push	ebp
	mov	ebp, esp
	push	ecx
	mov	DWORD PTR _this$[ebp], ecx

; 482  : 	return InsertBefore( m_Size );

	mov	eax, DWORD PTR _this$[ebp]
	mov	ecx, DWORD PTR [eax+12]
	push	ecx
	mov	ecx, DWORD PTR _this$[ebp]
	call	?InsertBefore@?$CUtlArray@Uikcontextikrule_t@@V?$CUtlMemory@Uikcontextikrule_t@@H@@@@QAEHH@Z ; CUtlArray<ikcontextikrule_t,CUtlMemory<ikcontextikrule_t,int> >::InsertBefore

; 483  : }

	mov	esp, ebp
	pop	ebp
	ret	0
?AddToTail@?$CUtlArray@Uikcontextikrule_t@@V?$CUtlMemory@Uikcontextikrule_t@@H@@@@QAEHXZ ENDP ; CUtlArray<ikcontextikrule_t,CUtlMemory<ikcontextikrule_t,int> >::AddToTail
_TEXT	ENDS
; Function compile flags: /Odtp
; File c:\users\user\downloads\xashxt_v0.81_rev.1_with_sources\xashxt_v0.81_rev.1_src\game_shared\utlarray.h
;	COMDAT ?IsValidIndex@?$CUtlArray@Uikcontextikrule_t@@V?$CUtlMemory@Uikcontextikrule_t@@H@@@@QBE_NH@Z
_TEXT	SEGMENT
_this$ = -8						; size = 4
tv67 = -4						; size = 4
_i$ = 8							; size = 4
?IsValidIndex@?$CUtlArray@Uikcontextikrule_t@@V?$CUtlMemory@Uikcontextikrule_t@@H@@@@QBE_NH@Z PROC ; CUtlArray<ikcontextikrule_t,CUtlMemory<ikcontextikrule_t,int> >::IsValidIndex, COMDAT
; _this$ = ecx

; 354  : {

	push	ebp
	mov	ebp, esp
	sub	esp, 8
	mov	DWORD PTR _this$[ebp], ecx

; 355  : 	return (i >= 0) && (i < m_Size);

	cmp	DWORD PTR _i$[ebp], 0
	jl	SHORT $LN3@IsValidInd
	mov	eax, DWORD PTR _this$[ebp]
	mov	ecx, DWORD PTR _i$[ebp]
	cmp	ecx, DWORD PTR [eax+12]
	jge	SHORT $LN3@IsValidInd
	mov	DWORD PTR tv67[ebp], 1
	jmp	SHORT $LN4@IsValidInd
$LN3@IsValidInd:
	mov	DWORD PTR tv67[ebp], 0
$LN4@IsValidInd:
	mov	al, BYTE PTR tv67[ebp]

; 356  : }

	mov	esp, ebp
	pop	ebp
	ret	4
?IsValidIndex@?$CUtlArray@Uikcontextikrule_t@@V?$CUtlMemory@Uikcontextikrule_t@@H@@@@QBE_NH@Z ENDP ; CUtlArray<ikcontextikrule_t,CUtlMemory<ikcontextikrule_t,int> >::IsValidIndex
_TEXT	ENDS
; Function compile flags: /Odtp
; File c:\users\user\downloads\xashxt_v0.81_rev.1_with_sources\xashxt_v0.81_rev.1_src\game_shared\utlarray.h
;	COMDAT ?Count@?$CUtlArray@Uikcontextikrule_t@@V?$CUtlMemory@Uikcontextikrule_t@@H@@@@QBEHXZ
_TEXT	SEGMENT
_this$ = -4						; size = 4
?Count@?$CUtlArray@Uikcontextikrule_t@@V?$CUtlMemory@Uikcontextikrule_t@@H@@@@QBEHXZ PROC ; CUtlArray<ikcontextikrule_t,CUtlMemory<ikcontextikrule_t,int> >::Count, COMDAT
; _this$ = ecx

; 344  : {

	push	ebp
	mov	ebp, esp
	push	ecx
	mov	DWORD PTR _this$[ebp], ecx

; 345  : 	return m_Size;

	mov	eax, DWORD PTR _this$[ebp]
	mov	eax, DWORD PTR [eax+12]

; 346  : }

	mov	esp, ebp
	pop	ebp
	ret	0
?Count@?$CUtlArray@Uikcontextikrule_t@@V?$CUtlMemory@Uikcontextikrule_t@@H@@@@QBEHXZ ENDP ; CUtlArray<ikcontextikrule_t,CUtlMemory<ikcontextikrule_t,int> >::Count
_TEXT	ENDS
; Function compile flags: /Odtp
; File c:\users\user\downloads\xashxt_v0.81_rev.1_with_sources\xashxt_v0.81_rev.1_src\game_shared\utlarray.h
;	COMDAT ?Base@?$CUtlArray@Uikcontextikrule_t@@V?$CUtlMemory@Uikcontextikrule_t@@H@@@@QAEPAUikcontextikrule_t@@XZ
_TEXT	SEGMENT
_this$ = -4						; size = 4
?Base@?$CUtlArray@Uikcontextikrule_t@@V?$CUtlMemory@Uikcontextikrule_t@@H@@@@QAEPAUikcontextikrule_t@@XZ PROC ; CUtlArray<ikcontextikrule_t,CUtlMemory<ikcontextikrule_t,int> >::Base, COMDAT
; _this$ = ecx

; 60   : 	T* Base()								{ return m_Memory.Base(); }

	push	ebp
	mov	ebp, esp
	push	ecx
	mov	DWORD PTR _this$[ebp], ecx
	mov	ecx, DWORD PTR _this$[ebp]
	call	?Base@?$CUtlMemory@Uikcontextikrule_t@@H@@QAEPAUikcontextikrule_t@@XZ ; CUtlMemory<ikcontextikrule_t,int>::Base
	mov	esp, ebp
	pop	ebp
	ret	0
?Base@?$CUtlArray@Uikcontextikrule_t@@V?$CUtlMemory@Uikcontextikrule_t@@H@@@@QAEPAUikcontextikrule_t@@XZ ENDP ; CUtlArray<ikcontextikrule_t,CUtlMemory<ikcontextikrule_t,int> >::Base
_TEXT	ENDS
; Function compile flags: /Odtp
; File c:\users\user\downloads\xashxt_v0.81_rev.1_with_sources\xashxt_v0.81_rev.1_src\game_shared\utlarray.h
;	COMDAT ?Element@?$CUtlArray@Uikcontextikrule_t@@V?$CUtlMemory@Uikcontextikrule_t@@H@@@@QAEAAUikcontextikrule_t@@H@Z
_TEXT	SEGMENT
_this$ = -4						; size = 4
_i$ = 8							; size = 4
?Element@?$CUtlArray@Uikcontextikrule_t@@V?$CUtlMemory@Uikcontextikrule_t@@H@@@@QAEAAUikcontextikrule_t@@H@Z PROC ; CUtlArray<ikcontextikrule_t,CUtlMemory<ikcontextikrule_t,int> >::Element, COMDAT
; _this$ = ecx

; 294  : {

	push	ebp
	mov	ebp, esp
	push	ecx
	mov	DWORD PTR _this$[ebp], ecx

; 295  : 	return m_Memory[ i ];

	mov	eax, DWORD PTR _i$[ebp]
	push	eax
	mov	ecx, DWORD PTR _this$[ebp]
	call	??A?$CUtlMemory@Uikcontextikrule_t@@H@@QAEAAUikcontextikrule_t@@H@Z ; CUtlMemory<ikcontextikrule_t,int>::operator[]

; 296  : }

	mov	esp, ebp
	pop	ebp
	ret	4
?Element@?$CUtlArray@Uikcontextikrule_t@@V?$CUtlMemory@Uikcontextikrule_t@@H@@@@QAEAAUikcontextikrule_t@@H@Z ENDP ; CUtlArray<ikcontextikrule_t,CUtlMemory<ikcontextikrule_t,int> >::Element
_TEXT	ENDS
; Function compile flags: /Odtp
; File c:\users\user\downloads\xashxt_v0.81_rev.1_with_sources\xashxt_v0.81_rev.1_src\game_shared\utlarray.h
;	COMDAT ??A?$CUtlArray@Uikcontextikrule_t@@V?$CUtlMemory@Uikcontextikrule_t@@H@@@@QBEABUikcontextikrule_t@@H@Z
_TEXT	SEGMENT
_this$ = -4						; size = 4
_i$ = 8							; size = 4
??A?$CUtlArray@Uikcontextikrule_t@@V?$CUtlMemory@Uikcontextikrule_t@@H@@@@QBEABUikcontextikrule_t@@H@Z PROC ; CUtlArray<ikcontextikrule_t,CUtlMemory<ikcontextikrule_t,int> >::operator[], COMDAT
; _this$ = ecx

; 288  : {

	push	ebp
	mov	ebp, esp
	push	ecx
	mov	DWORD PTR _this$[ebp], ecx

; 289  : 	return m_Memory[ i ];

	mov	eax, DWORD PTR _i$[ebp]
	push	eax
	mov	ecx, DWORD PTR _this$[ebp]
	call	??A?$CUtlMemory@Uikcontextikrule_t@@H@@QBEABUikcontextikrule_t@@H@Z ; CUtlMemory<ikcontextikrule_t,int>::operator[]

; 290  : }

	mov	esp, ebp
	pop	ebp
	ret	4
??A?$CUtlArray@Uikcontextikrule_t@@V?$CUtlMemory@Uikcontextikrule_t@@H@@@@QBEABUikcontextikrule_t@@H@Z ENDP ; CUtlArray<ikcontextikrule_t,CUtlMemory<ikcontextikrule_t,int> >::operator[]
_TEXT	ENDS
; Function compile flags: /Odtp
; File c:\users\user\downloads\xashxt_v0.81_rev.1_with_sources\xashxt_v0.81_rev.1_src\game_shared\utlarray.h
;	COMDAT ??A?$CUtlArray@Uikcontextikrule_t@@V?$CUtlMemory@Uikcontextikrule_t@@H@@@@QAEAAUikcontextikrule_t@@H@Z
_TEXT	SEGMENT
_this$ = -4						; size = 4
_i$ = 8							; size = 4
??A?$CUtlArray@Uikcontextikrule_t@@V?$CUtlMemory@Uikcontextikrule_t@@H@@@@QAEAAUikcontextikrule_t@@H@Z PROC ; CUtlArray<ikcontextikrule_t,CUtlMemory<ikcontextikrule_t,int> >::operator[], COMDAT
; _this$ = ecx

; 282  : {

	push	ebp
	mov	ebp, esp
	push	ecx
	mov	DWORD PTR _this$[ebp], ecx

; 283  : 	return m_Memory[ i ];

	mov	eax, DWORD PTR _i$[ebp]
	push	eax
	mov	ecx, DWORD PTR _this$[ebp]
	call	??A?$CUtlMemory@Uikcontextikrule_t@@H@@QAEAAUikcontextikrule_t@@H@Z ; CUtlMemory<ikcontextikrule_t,int>::operator[]

; 284  : }

	mov	esp, ebp
	pop	ebp
	ret	4
??A?$CUtlArray@Uikcontextikrule_t@@V?$CUtlMemory@Uikcontextikrule_t@@H@@@@QAEAAUikcontextikrule_t@@H@Z ENDP ; CUtlArray<ikcontextikrule_t,CUtlMemory<ikcontextikrule_t,int> >::operator[]
_TEXT	ENDS
; Function compile flags: /Odtp
; File c:\users\user\downloads\xashxt_v0.81_rev.1_with_sources\xashxt_v0.81_rev.1_src\game_shared\utlarray.h
;	COMDAT ??4?$CUtlArray@Uikcontextikrule_t@@V?$CUtlMemory@Uikcontextikrule_t@@H@@@@QAEAAV0@ABV0@@Z
_TEXT	SEGMENT
_nCount$ = -12						; size = 4
_this$ = -8						; size = 4
_i$1 = -4						; size = 4
_other$ = 8						; size = 4
??4?$CUtlArray@Uikcontextikrule_t@@V?$CUtlMemory@Uikcontextikrule_t@@H@@@@QAEAAV0@ABV0@@Z PROC ; CUtlArray<ikcontextikrule_t,CUtlMemory<ikcontextikrule_t,int> >::operator=, COMDAT
; _this$ = ecx

; 266  : {

	push	ebp
	mov	ebp, esp
	sub	esp, 12					; 0000000cH
	push	esi
	push	edi
	mov	DWORD PTR _this$[ebp], ecx

; 267  : 	int nCount = other.Count();

	mov	ecx, DWORD PTR _other$[ebp]
	call	?Count@?$CUtlArray@Uikcontextikrule_t@@V?$CUtlMemory@Uikcontextikrule_t@@H@@@@QBEHXZ ; CUtlArray<ikcontextikrule_t,CUtlMemory<ikcontextikrule_t,int> >::Count
	mov	DWORD PTR _nCount$[ebp], eax

; 268  : 	SetSize( nCount );

	mov	eax, DWORD PTR _nCount$[ebp]
	push	eax
	mov	ecx, DWORD PTR _this$[ebp]
	call	?SetSize@?$CUtlArray@Uikcontextikrule_t@@V?$CUtlMemory@Uikcontextikrule_t@@H@@@@QAEXH@Z ; CUtlArray<ikcontextikrule_t,CUtlMemory<ikcontextikrule_t,int> >::SetSize

; 269  : 	for ( int i = 0; i < nCount; i++ )

	mov	DWORD PTR _i$1[ebp], 0
	jmp	SHORT $LN4@operator
$LN2@operator:
	mov	ecx, DWORD PTR _i$1[ebp]
	add	ecx, 1
	mov	DWORD PTR _i$1[ebp], ecx
$LN4@operator:
	mov	edx, DWORD PTR _i$1[ebp]
	cmp	edx, DWORD PTR _nCount$[ebp]
	jge	SHORT $LN3@operator

; 270  : 	{
; 271  : 		(*this)[ i ] = other[ i ];

	mov	eax, DWORD PTR _i$1[ebp]
	push	eax
	mov	ecx, DWORD PTR _other$[ebp]
	call	??A?$CUtlArray@Uikcontextikrule_t@@V?$CUtlMemory@Uikcontextikrule_t@@H@@@@QBEABUikcontextikrule_t@@H@Z ; CUtlArray<ikcontextikrule_t,CUtlMemory<ikcontextikrule_t,int> >::operator[]
	mov	esi, eax
	mov	ecx, DWORD PTR _i$1[ebp]
	push	ecx
	mov	ecx, DWORD PTR _this$[ebp]
	call	??A?$CUtlArray@Uikcontextikrule_t@@V?$CUtlMemory@Uikcontextikrule_t@@H@@@@QAEAAUikcontextikrule_t@@H@Z ; CUtlArray<ikcontextikrule_t,CUtlMemory<ikcontextikrule_t,int> >::operator[]
	mov	ecx, 33					; 00000021H
	mov	edi, eax
	rep movsd

; 272  : 	}

	jmp	SHORT $LN2@operator
$LN3@operator:

; 273  : 	return *this;

	mov	eax, DWORD PTR _this$[ebp]

; 274  : }

	pop	edi
	pop	esi
	mov	esp, ebp
	pop	ebp
	ret	4
??4?$CUtlArray@Uikcontextikrule_t@@V?$CUtlMemory@Uikcontextikrule_t@@H@@@@QAEAAV0@ABV0@@Z ENDP ; CUtlArray<ikcontextikrule_t,CUtlMemory<ikcontextikrule_t,int> >::operator=
_TEXT	ENDS
; Function compile flags: /Odtp
; File c:\users\user\downloads\xashxt_v0.81_rev.1_with_sources\xashxt_v0.81_rev.1_src\game_shared\utlarray.h
;	COMDAT ??1?$CUtlArray@Uikcontextikrule_t@@V?$CUtlMemory@Uikcontextikrule_t@@H@@@@QAE@XZ
_TEXT	SEGMENT
_this$ = -16						; size = 4
__$EHRec$ = -12						; size = 12
??1?$CUtlArray@Uikcontextikrule_t@@V?$CUtlMemory@Uikcontextikrule_t@@H@@@@QAE@XZ PROC ; CUtlArray<ikcontextikrule_t,CUtlMemory<ikcontextikrule_t,int> >::~CUtlArray<ikcontextikrule_t,CUtlMemory<ikcontextikrule_t,int> >, COMDAT
; _this$ = ecx

; 260  : {

	push	ebp
	mov	ebp, esp
	push	-1
	push	__ehhandler$??1?$CUtlArray@Uikcontextikrule_t@@V?$CUtlMemory@Uikcontextikrule_t@@H@@@@QAE@XZ
	mov	eax, DWORD PTR fs:0
	push	eax
	push	ecx
	mov	eax, DWORD PTR ___security_cookie
	xor	eax, ebp
	push	eax
	lea	eax, DWORD PTR __$EHRec$[ebp]
	mov	DWORD PTR fs:0, eax
	mov	DWORD PTR _this$[ebp], ecx

; 261  : 	Purge();

	mov	ecx, DWORD PTR _this$[ebp]
	call	?Purge@?$CUtlArray@Uikcontextikrule_t@@V?$CUtlMemory@Uikcontextikrule_t@@H@@@@QAEXXZ ; CUtlArray<ikcontextikrule_t,CUtlMemory<ikcontextikrule_t,int> >::Purge

; 262  : }

	mov	ecx, DWORD PTR _this$[ebp]
	call	??1?$CUtlMemory@Uikcontextikrule_t@@H@@QAE@XZ ; CUtlMemory<ikcontextikrule_t,int>::~CUtlMemory<ikcontextikrule_t,int>
	mov	ecx, DWORD PTR __$EHRec$[ebp]
	mov	DWORD PTR fs:0, ecx
	pop	ecx
	mov	esp, ebp
	pop	ebp
	ret	0
_TEXT	ENDS
;	COMDAT text$x
text$x	SEGMENT
__ehhandler$??1?$CUtlArray@Uikcontextikrule_t@@V?$CUtlMemory@Uikcontextikrule_t@@H@@@@QAE@XZ:
	mov	edx, DWORD PTR [esp+8]
	lea	eax, DWORD PTR [edx+12]
	mov	ecx, DWORD PTR [edx-8]
	xor	ecx, eax
	call	@__security_check_cookie@4
	mov	eax, OFFSET __ehfuncinfo$??1?$CUtlArray@Uikcontextikrule_t@@V?$CUtlMemory@Uikcontextikrule_t@@H@@@@QAE@XZ
	jmp	___CxxFrameHandler3
text$x	ENDS
??1?$CUtlArray@Uikcontextikrule_t@@V?$CUtlMemory@Uikcontextikrule_t@@H@@@@QAE@XZ ENDP ; CUtlArray<ikcontextikrule_t,CUtlMemory<ikcontextikrule_t,int> >::~CUtlArray<ikcontextikrule_t,CUtlMemory<ikcontextikrule_t,int> >
; Function compile flags: /Odtp
; File c:\users\user\downloads\xashxt_v0.81_rev.1_with_sources\xashxt_v0.81_rev.1_src\game_shared\utlarray.h
;	COMDAT ??0?$CUtlArray@Uikcontextikrule_t@@V?$CUtlMemory@Uikcontextikrule_t@@H@@@@QAE@HH@Z
_TEXT	SEGMENT
_this$ = -16						; size = 4
__$EHRec$ = -12						; size = 12
_growSize$ = 8						; size = 4
_initSize$ = 12						; size = 4
??0?$CUtlArray@Uikcontextikrule_t@@V?$CUtlMemory@Uikcontextikrule_t@@H@@@@QAE@HH@Z PROC ; CUtlArray<ikcontextikrule_t,CUtlMemory<ikcontextikrule_t,int> >::CUtlArray<ikcontextikrule_t,CUtlMemory<ikcontextikrule_t,int> >, COMDAT
; _this$ = ecx

; 247  : {

	push	ebp
	mov	ebp, esp
	push	-1
	push	__ehhandler$??0?$CUtlArray@Uikcontextikrule_t@@V?$CUtlMemory@Uikcontextikrule_t@@H@@@@QAE@HH@Z
	mov	eax, DWORD PTR fs:0
	push	eax
	push	ecx
	mov	eax, DWORD PTR ___security_cookie
	xor	eax, ebp
	push	eax
	lea	eax, DWORD PTR __$EHRec$[ebp]
	mov	DWORD PTR fs:0, eax
	mov	DWORD PTR _this$[ebp], ecx

; 246  : 	m_Memory(growSize, initSize), m_Size(0)

	mov	eax, DWORD PTR _initSize$[ebp]
	push	eax
	mov	ecx, DWORD PTR _growSize$[ebp]
	push	ecx
	mov	ecx, DWORD PTR _this$[ebp]
	call	??0?$CUtlMemory@Uikcontextikrule_t@@H@@QAE@HH@Z ; CUtlMemory<ikcontextikrule_t,int>::CUtlMemory<ikcontextikrule_t,int>
	mov	DWORD PTR __$EHRec$[ebp+8], 0
	mov	edx, DWORD PTR _this$[ebp]
	mov	DWORD PTR [edx+12], 0

; 248  : 	ResetDbgInfo();

	mov	ecx, DWORD PTR _this$[ebp]
	call	?ResetDbgInfo@?$CUtlArray@Uikcontextikrule_t@@V?$CUtlMemory@Uikcontextikrule_t@@H@@@@IAEXXZ ; CUtlArray<ikcontextikrule_t,CUtlMemory<ikcontextikrule_t,int> >::ResetDbgInfo

; 249  : }

	mov	DWORD PTR __$EHRec$[ebp+8], -1
	mov	eax, DWORD PTR _this$[ebp]
	mov	ecx, DWORD PTR __$EHRec$[ebp]
	mov	DWORD PTR fs:0, ecx
	pop	ecx
	mov	esp, ebp
	pop	ebp
	ret	8
_TEXT	ENDS
;	COMDAT text$x
text$x	SEGMENT
__unwindfunclet$??0?$CUtlArray@Uikcontextikrule_t@@V?$CUtlMemory@Uikcontextikrule_t@@H@@@@QAE@HH@Z$0:
	mov	ecx, DWORD PTR _this$[ebp]
	jmp	??1?$CUtlMemory@Uikcontextikrule_t@@H@@QAE@XZ ; CUtlMemory<ikcontextikrule_t,int>::~CUtlMemory<ikcontextikrule_t,int>
__ehhandler$??0?$CUtlArray@Uikcontextikrule_t@@V?$CUtlMemory@Uikcontextikrule_t@@H@@@@QAE@HH@Z:
	mov	edx, DWORD PTR [esp+8]
	lea	eax, DWORD PTR [edx+12]
	mov	ecx, DWORD PTR [edx-8]
	xor	ecx, eax
	call	@__security_check_cookie@4
	mov	eax, OFFSET __ehfuncinfo$??0?$CUtlArray@Uikcontextikrule_t@@V?$CUtlMemory@Uikcontextikrule_t@@H@@@@QAE@HH@Z
	jmp	___CxxFrameHandler3
text$x	ENDS
??0?$CUtlArray@Uikcontextikrule_t@@V?$CUtlMemory@Uikcontextikrule_t@@H@@@@QAE@HH@Z ENDP ; CUtlArray<ikcontextikrule_t,CUtlMemory<ikcontextikrule_t,int> >::CUtlArray<ikcontextikrule_t,CUtlMemory<ikcontextikrule_t,int> >
; Function compile flags: /Odtp
; File c:\users\user\downloads\xashxt_v0.81_rev.1_with_sources\xashxt_v0.81_rev.1_src\game_shared\utlarray.h
;	COMDAT ?ResetDbgInfo@?$CUtlArray@V?$CUtlArray@Uikcontextikrule_t@@V?$CUtlMemory@Uikcontextikrule_t@@H@@@@V?$CUtlMemory@V?$CUtlArray@Uikcontextikrule_t@@V?$CUtlMemory@Uikcontextikrule_t@@H@@@@H@@@@IAEXXZ
_TEXT	SEGMENT
_this$ = -4						; size = 4
?ResetDbgInfo@?$CUtlArray@V?$CUtlArray@Uikcontextikrule_t@@V?$CUtlMemory@Uikcontextikrule_t@@H@@@@V?$CUtlMemory@V?$CUtlArray@Uikcontextikrule_t@@V?$CUtlMemory@Uikcontextikrule_t@@H@@@@H@@@@IAEXXZ PROC ; CUtlArray<CUtlArray<ikcontextikrule_t,CUtlMemory<ikcontextikrule_t,int> >,CUtlMemory<CUtlArray<ikcontextikrule_t,CUtlMemory<ikcontextikrule_t,int> >,int> >::ResetDbgInfo, COMDAT
; _this$ = ecx

; 160  : 	{

	push	ebp
	mov	ebp, esp
	push	ecx
	mov	DWORD PTR _this$[ebp], ecx

; 161  : 		m_pElements = Base();

	mov	ecx, DWORD PTR _this$[ebp]
	call	?Base@?$CUtlArray@V?$CUtlArray@Uikcontextikrule_t@@V?$CUtlMemory@Uikcontextikrule_t@@H@@@@V?$CUtlMemory@V?$CUtlArray@Uikcontextikrule_t@@V?$CUtlMemory@Uikcontextikrule_t@@H@@@@H@@@@QAEPAV?$CUtlArray@Uikcontextikrule_t@@V?$CUtlMemory@Uikcontextikrule_t@@H@@@@XZ ; CUtlArray<CUtlArray<ikcontextikrule_t,CUtlMemory<ikcontextikrule_t,int> >,CUtlMemory<CUtlArray<ikcontextikrule_t,CUtlMemory<ikcontextikrule_t,int> >,int> >::Base
	mov	ecx, DWORD PTR _this$[ebp]
	mov	DWORD PTR [ecx+16], eax

; 162  : 	}

	mov	esp, ebp
	pop	ebp
	ret	0
?ResetDbgInfo@?$CUtlArray@V?$CUtlArray@Uikcontextikrule_t@@V?$CUtlMemory@Uikcontextikrule_t@@H@@@@V?$CUtlMemory@V?$CUtlArray@Uikcontextikrule_t@@V?$CUtlMemory@Uikcontextikrule_t@@H@@@@H@@@@IAEXXZ ENDP ; CUtlArray<CUtlArray<ikcontextikrule_t,CUtlMemory<ikcontextikrule_t,int> >,CUtlMemory<CUtlArray<ikcontextikrule_t,CUtlMemory<ikcontextikrule_t,int> >,int> >::ResetDbgInfo
_TEXT	ENDS
; Function compile flags: /Odtp
; File c:\users\user\downloads\xashxt_v0.81_rev.1_with_sources\xashxt_v0.81_rev.1_src\game_shared\utlmemory.h
;	COMDAT ?ValidateGrowSize@?$CUtlMemory@V?$CUtlArray@Uikcontextikrule_t@@V?$CUtlMemory@Uikcontextikrule_t@@H@@@@H@@IAEXXZ
_TEXT	SEGMENT
_this$ = -4						; size = 4
?ValidateGrowSize@?$CUtlMemory@V?$CUtlArray@Uikcontextikrule_t@@V?$CUtlMemory@Uikcontextikrule_t@@H@@@@H@@IAEXXZ PROC ; CUtlMemory<CUtlArray<ikcontextikrule_t,CUtlMemory<ikcontextikrule_t,int> >,int>::ValidateGrowSize, COMDAT
; _this$ = ecx

; 148  : 	{

	push	ebp
	mov	ebp, esp
	push	ecx
	mov	DWORD PTR _this$[ebp], ecx

; 149  : #ifdef _X360
; 150  : 		if ( m_nGrowSize && m_nGrowSize != EXTERNAL_BUFFER_MARKER )
; 151  : 		{
; 152  : 			// Max grow size at 128 bytes on XBOX
; 153  : 			const int MAX_GROW = 128;
; 154  : 			if ( m_nGrowSize * sizeof(T) > MAX_GROW )
; 155  : 			{
; 156  : 				m_nGrowSize = max( 1, MAX_GROW / sizeof(T) );
; 157  : 			}
; 158  : 		}
; 159  : #endif
; 160  : 	}

	mov	esp, ebp
	pop	ebp
	ret	0
?ValidateGrowSize@?$CUtlMemory@V?$CUtlArray@Uikcontextikrule_t@@V?$CUtlMemory@Uikcontextikrule_t@@H@@@@H@@IAEXXZ ENDP ; CUtlMemory<CUtlArray<ikcontextikrule_t,CUtlMemory<ikcontextikrule_t,int> >,int>::ValidateGrowSize
_TEXT	ENDS
; Function compile flags: /Odtp
; File c:\users\user\downloads\xashxt_v0.81_rev.1_with_sources\xashxt_v0.81_rev.1_src\game_shared\utlmemory.h
;	COMDAT ?IsReadOnly@?$CUtlMemory@V?$CUtlArray@Uikcontextikrule_t@@V?$CUtlMemory@Uikcontextikrule_t@@H@@@@H@@QBE_NXZ
_TEXT	SEGMENT
_this$ = -8						; size = 4
tv66 = -4						; size = 4
?IsReadOnly@?$CUtlMemory@V?$CUtlArray@Uikcontextikrule_t@@V?$CUtlMemory@Uikcontextikrule_t@@H@@@@H@@QBE_NXZ PROC ; CUtlMemory<CUtlArray<ikcontextikrule_t,CUtlMemory<ikcontextikrule_t,int> >,int>::IsReadOnly, COMDAT
; _this$ = ecx

; 467  : {

	push	ebp
	mov	ebp, esp
	sub	esp, 8
	mov	DWORD PTR _this$[ebp], ecx

; 468  : 	return (m_nGrowSize == EXTERNAL_CONST_BUFFER_MARKER);

	mov	eax, DWORD PTR _this$[ebp]
	cmp	DWORD PTR [eax+8], -2			; fffffffeH
	jne	SHORT $LN3@IsReadOnly
	mov	DWORD PTR tv66[ebp], 1
	jmp	SHORT $LN4@IsReadOnly
$LN3@IsReadOnly:
	mov	DWORD PTR tv66[ebp], 0
$LN4@IsReadOnly:
	mov	al, BYTE PTR tv66[ebp]

; 469  : }

	mov	esp, ebp
	pop	ebp
	ret	0
?IsReadOnly@?$CUtlMemory@V?$CUtlArray@Uikcontextikrule_t@@V?$CUtlMemory@Uikcontextikrule_t@@H@@@@H@@QBE_NXZ ENDP ; CUtlMemory<CUtlArray<ikcontextikrule_t,CUtlMemory<ikcontextikrule_t,int> >,int>::IsReadOnly
_TEXT	ENDS
; Function compile flags: /Odtp
; File c:\users\user\downloads\xashxt_v0.81_rev.1_with_sources\xashxt_v0.81_rev.1_src\game_shared\utlmemory.h
;	COMDAT ?IsExternallyAllocated@?$CUtlMemory@V?$CUtlArray@Uikcontextikrule_t@@V?$CUtlMemory@Uikcontextikrule_t@@H@@@@H@@QBE_NXZ
_TEXT	SEGMENT
_this$ = -8						; size = 4
tv66 = -4						; size = 4
?IsExternallyAllocated@?$CUtlMemory@V?$CUtlArray@Uikcontextikrule_t@@V?$CUtlMemory@Uikcontextikrule_t@@H@@@@H@@QBE_NXZ PROC ; CUtlMemory<CUtlArray<ikcontextikrule_t,CUtlMemory<ikcontextikrule_t,int> >,int>::IsExternallyAllocated, COMDAT
; _this$ = ecx

; 457  : {

	push	ebp
	mov	ebp, esp
	sub	esp, 8
	mov	DWORD PTR _this$[ebp], ecx

; 458  : 	return (m_nGrowSize < 0);

	mov	eax, DWORD PTR _this$[ebp]
	cmp	DWORD PTR [eax+8], 0
	jge	SHORT $LN3@IsExternal
	mov	DWORD PTR tv66[ebp], 1
	jmp	SHORT $LN4@IsExternal
$LN3@IsExternal:
	mov	DWORD PTR tv66[ebp], 0
$LN4@IsExternal:
	mov	al, BYTE PTR tv66[ebp]

; 459  : }

	mov	esp, ebp
	pop	ebp
	ret	0
?IsExternallyAllocated@?$CUtlMemory@V?$CUtlArray@Uikcontextikrule_t@@V?$CUtlMemory@Uikcontextikrule_t@@H@@@@H@@QBE_NXZ ENDP ; CUtlMemory<CUtlArray<ikcontextikrule_t,CUtlMemory<ikcontextikrule_t,int> >,int>::IsExternallyAllocated
_TEXT	ENDS
; Function compile flags: /Odtp
; File c:\users\user\downloads\xashxt_v0.81_rev.1_with_sources\xashxt_v0.81_rev.1_src\game_shared\utlmemory.h
;	COMDAT ?Purge@?$CUtlMemory@V?$CUtlArray@Uikcontextikrule_t@@V?$CUtlMemory@Uikcontextikrule_t@@H@@@@H@@QAEXXZ
_TEXT	SEGMENT
_this$ = -4						; size = 4
?Purge@?$CUtlMemory@V?$CUtlArray@Uikcontextikrule_t@@V?$CUtlMemory@Uikcontextikrule_t@@H@@@@H@@QAEXXZ PROC ; CUtlMemory<CUtlArray<ikcontextikrule_t,CUtlMemory<ikcontextikrule_t,int> >,int>::Purge, COMDAT
; _this$ = ecx

; 645  : {

	push	ebp
	mov	ebp, esp
	push	ecx
	mov	DWORD PTR _this$[ebp], ecx

; 646  : 	if ( !IsExternallyAllocated() )

	mov	ecx, DWORD PTR _this$[ebp]
	call	?IsExternallyAllocated@?$CUtlMemory@V?$CUtlArray@Uikcontextikrule_t@@V?$CUtlMemory@Uikcontextikrule_t@@H@@@@H@@QBE_NXZ ; CUtlMemory<CUtlArray<ikcontextikrule_t,CUtlMemory<ikcontextikrule_t,int> >,int>::IsExternallyAllocated
	movzx	eax, al
	test	eax, eax
	jne	SHORT $LN1@Purge

; 647  : 	{
; 648  : 		if (m_pMemory)

	mov	ecx, DWORD PTR _this$[ebp]
	cmp	DWORD PTR [ecx], 0
	je	SHORT $LN3@Purge

; 649  : 		{
; 650  : 			free( (void*)m_pMemory );

	mov	edx, DWORD PTR _this$[ebp]
	mov	eax, DWORD PTR [edx]
	push	eax
	call	_free
	add	esp, 4

; 651  : 			m_pMemory = 0;

	mov	ecx, DWORD PTR _this$[ebp]
	mov	DWORD PTR [ecx], 0
$LN3@Purge:

; 652  : 		}
; 653  : 		m_nAllocationCount = 0;

	mov	edx, DWORD PTR _this$[ebp]
	mov	DWORD PTR [edx+4], 0
$LN1@Purge:

; 654  : 	}
; 655  : }

	mov	esp, ebp
	pop	ebp
	ret	0
?Purge@?$CUtlMemory@V?$CUtlArray@Uikcontextikrule_t@@V?$CUtlMemory@Uikcontextikrule_t@@H@@@@H@@QAEXXZ ENDP ; CUtlMemory<CUtlArray<ikcontextikrule_t,CUtlMemory<ikcontextikrule_t,int> >,int>::Purge
_TEXT	ENDS
; Function compile flags: /Odtp
; File c:\users\user\downloads\xashxt_v0.81_rev.1_with_sources\xashxt_v0.81_rev.1_src\game_shared\utlmemory.h
;	COMDAT ?Grow@?$CUtlMemory@V?$CUtlArray@Uikcontextikrule_t@@V?$CUtlMemory@Uikcontextikrule_t@@H@@@@H@@QAEXH@Z
_TEXT	SEGMENT
_nAllocationRequested$ = -8				; size = 4
_this$ = -4						; size = 4
_num$ = 8						; size = 4
?Grow@?$CUtlMemory@V?$CUtlArray@Uikcontextikrule_t@@V?$CUtlMemory@Uikcontextikrule_t@@H@@@@H@@QAEXH@Z PROC ; CUtlMemory<CUtlArray<ikcontextikrule_t,CUtlMemory<ikcontextikrule_t,int> >,int>::Grow, COMDAT
; _this$ = ecx

; 560  : {

	push	ebp
	mov	ebp, esp
	sub	esp, 8
	mov	DWORD PTR _this$[ebp], ecx

; 561  : 	assert( num > 0 );

	cmp	DWORD PTR _num$[ebp], 0
	jg	SHORT $LN12@Grow
	push	561					; 00000231H
	push	OFFSET $SG18289
	push	OFFSET $SG18290
	call	__wassert
	add	esp, 12					; 0000000cH
$LN12@Grow:

; 562  : 
; 563  : 	if ( IsExternallyAllocated() )

	mov	ecx, DWORD PTR _this$[ebp]
	call	?IsExternallyAllocated@?$CUtlMemory@V?$CUtlArray@Uikcontextikrule_t@@V?$CUtlMemory@Uikcontextikrule_t@@H@@@@H@@QBE_NXZ ; CUtlMemory<CUtlArray<ikcontextikrule_t,CUtlMemory<ikcontextikrule_t,int> >,int>::IsExternallyAllocated
	movzx	ecx, al
	test	ecx, ecx
	je	SHORT $LN4@Grow

; 564  : 	{
; 565  : 		// Can't grow a buffer whose memory was externally allocated 
; 566  : 		assert(0);

	xor	edx, edx
	jne	SHORT $LN13@Grow
	push	566					; 00000236H
	push	OFFSET $SG18292
	push	OFFSET $SG18293
	call	__wassert
	add	esp, 12					; 0000000cH
$LN13@Grow:

; 567  : 		return;

	jmp	$LN1@Grow
$LN4@Grow:

; 568  : 	}
; 569  : 
; 570  : 	// Make sure we have at least numallocated + num allocations.
; 571  : 	// Use the grow rules specified for this memory (in m_nGrowSize)
; 572  : 	int nAllocationRequested = m_nAllocationCount + num;

	mov	ecx, DWORD PTR _this$[ebp]
	mov	edx, DWORD PTR [ecx+4]
	add	edx, DWORD PTR _num$[ebp]
	mov	DWORD PTR _nAllocationRequested$[ebp], edx

; 573  : 
; 574  : 	m_nAllocationCount = UtlMemory_CalcNewAllocationCount( m_nAllocationCount, m_nGrowSize, nAllocationRequested, sizeof(T) );

	push	20					; 00000014H
	mov	eax, DWORD PTR _nAllocationRequested$[ebp]
	push	eax
	mov	ecx, DWORD PTR _this$[ebp]
	mov	edx, DWORD PTR [ecx+8]
	push	edx
	mov	eax, DWORD PTR _this$[ebp]
	mov	ecx, DWORD PTR [eax+4]
	push	ecx
	call	?UtlMemory_CalcNewAllocationCount@@YAHHHHH@Z ; UtlMemory_CalcNewAllocationCount
	add	esp, 16					; 00000010H
	mov	edx, DWORD PTR _this$[ebp]
	mov	DWORD PTR [edx+4], eax

; 575  : 
; 576  : 	// if m_nAllocationRequested wraps index type I, recalculate
; 577  : 	if ( ( int )( I )m_nAllocationCount < nAllocationRequested )

	mov	eax, DWORD PTR _this$[ebp]
	mov	ecx, DWORD PTR [eax+4]
	cmp	ecx, DWORD PTR _nAllocationRequested$[ebp]
	jge	SHORT $LN5@Grow

; 578  : 	{
; 579  : 		if ( ( int )( I )m_nAllocationCount == 0 && ( int )( I )( m_nAllocationCount - 1 ) >= nAllocationRequested )

	mov	edx, DWORD PTR _this$[ebp]
	cmp	DWORD PTR [edx+4], 0
	jne	SHORT $LN6@Grow
	mov	eax, DWORD PTR _this$[ebp]
	mov	ecx, DWORD PTR [eax+4]
	sub	ecx, 1
	cmp	ecx, DWORD PTR _nAllocationRequested$[ebp]
	jl	SHORT $LN6@Grow

; 580  : 		{
; 581  : 			--m_nAllocationCount; // deal w/ the common case of m_nAllocationCount == MAX_USHORT + 1

	mov	edx, DWORD PTR _this$[ebp]
	mov	eax, DWORD PTR [edx+4]
	sub	eax, 1
	mov	ecx, DWORD PTR _this$[ebp]
	mov	DWORD PTR [ecx+4], eax

; 582  : 		}
; 583  : 		else

	jmp	SHORT $LN5@Grow
$LN6@Grow:

; 584  : 		{
; 585  : 			if ( ( int )( I )nAllocationRequested != nAllocationRequested )

	mov	edx, DWORD PTR _nAllocationRequested$[ebp]
	cmp	edx, DWORD PTR _nAllocationRequested$[ebp]
	je	SHORT $LN2@Grow

; 586  : 			{
; 587  : 				// we've been asked to grow memory to a size s.t. the index type can't address the requested amount of memory
; 588  : 				assert( 0 );

	xor	eax, eax
	jne	SHORT $LN14@Grow
	push	588					; 0000024cH
	push	OFFSET $SG18298
	push	OFFSET $SG18299
	call	__wassert
	add	esp, 12					; 0000000cH
$LN14@Grow:

; 589  : 				return;

	jmp	$LN1@Grow
$LN2@Grow:

; 590  : 			}
; 591  : 			while ( ( int )( I )m_nAllocationCount < nAllocationRequested )

	mov	edx, DWORD PTR _this$[ebp]
	mov	eax, DWORD PTR [edx+4]
	cmp	eax, DWORD PTR _nAllocationRequested$[ebp]
	jge	SHORT $LN5@Grow

; 592  : 			{
; 593  : 				m_nAllocationCount = ( m_nAllocationCount + nAllocationRequested ) / 2;

	mov	ecx, DWORD PTR _this$[ebp]
	mov	eax, DWORD PTR [ecx+4]
	add	eax, DWORD PTR _nAllocationRequested$[ebp]
	cdq
	sub	eax, edx
	sar	eax, 1
	mov	edx, DWORD PTR _this$[ebp]
	mov	DWORD PTR [edx+4], eax

; 594  : 			}

	jmp	SHORT $LN2@Grow
$LN5@Grow:

; 595  : 		}
; 596  : 	}
; 597  : 
; 598  : 	if (m_pMemory)

	mov	eax, DWORD PTR _this$[ebp]
	cmp	DWORD PTR [eax], 0
	je	SHORT $LN9@Grow

; 599  : 	{
; 600  : 		m_pMemory = (T*)realloc( m_pMemory, m_nAllocationCount * sizeof(T) );

	mov	ecx, DWORD PTR _this$[ebp]
	imul	edx, DWORD PTR [ecx+4], 20
	push	edx
	mov	eax, DWORD PTR _this$[ebp]
	mov	ecx, DWORD PTR [eax]
	push	ecx
	call	_realloc
	add	esp, 8
	mov	edx, DWORD PTR _this$[ebp]
	mov	DWORD PTR [edx], eax

; 601  : 		assert( m_pMemory );

	mov	eax, DWORD PTR _this$[ebp]
	cmp	DWORD PTR [eax], 0
	jne	SHORT $LN15@Grow
	push	601					; 00000259H
	push	OFFSET $SG18302
	push	OFFSET $SG18303
	call	__wassert
	add	esp, 12					; 0000000cH
$LN15@Grow:

; 602  : 	}
; 603  : 	else

	jmp	SHORT $LN1@Grow
$LN9@Grow:

; 604  : 	{
; 605  : 		m_pMemory = (T*)malloc( m_nAllocationCount * sizeof(T) );

	mov	edx, DWORD PTR _this$[ebp]
	imul	eax, DWORD PTR [edx+4], 20
	push	eax
	call	_malloc
	add	esp, 4
	mov	ecx, DWORD PTR _this$[ebp]
	mov	DWORD PTR [ecx], eax

; 606  : 		assert( m_pMemory );

	mov	edx, DWORD PTR _this$[ebp]
	cmp	DWORD PTR [edx], 0
	jne	SHORT $LN1@Grow
	push	606					; 0000025eH
	push	OFFSET $SG18304
	push	OFFSET $SG18305
	call	__wassert
	add	esp, 12					; 0000000cH
$LN1@Grow:

; 607  : 	}
; 608  : }

	mov	esp, ebp
	pop	ebp
	ret	4
?Grow@?$CUtlMemory@V?$CUtlArray@Uikcontextikrule_t@@V?$CUtlMemory@Uikcontextikrule_t@@H@@@@H@@QAEXH@Z ENDP ; CUtlMemory<CUtlArray<ikcontextikrule_t,CUtlMemory<ikcontextikrule_t,int> >,int>::Grow
_TEXT	ENDS
; Function compile flags: /Odtp
; File c:\users\user\downloads\xashxt_v0.81_rev.1_with_sources\xashxt_v0.81_rev.1_src\game_shared\utlmemory.h
;	COMDAT ?NumAllocated@?$CUtlMemory@V?$CUtlArray@Uikcontextikrule_t@@V?$CUtlMemory@Uikcontextikrule_t@@H@@@@H@@QBEHXZ
_TEXT	SEGMENT
_this$ = -4						; size = 4
?NumAllocated@?$CUtlMemory@V?$CUtlArray@Uikcontextikrule_t@@V?$CUtlMemory@Uikcontextikrule_t@@H@@@@H@@QBEHXZ PROC ; CUtlMemory<CUtlArray<ikcontextikrule_t,CUtlMemory<ikcontextikrule_t,int> >,int>::NumAllocated, COMDAT
; _this$ = ecx

; 504  : {

	push	ebp
	mov	ebp, esp
	push	ecx
	mov	DWORD PTR _this$[ebp], ecx

; 505  : 	return m_nAllocationCount;

	mov	eax, DWORD PTR _this$[ebp]
	mov	eax, DWORD PTR [eax+4]

; 506  : }

	mov	esp, ebp
	pop	ebp
	ret	0
?NumAllocated@?$CUtlMemory@V?$CUtlArray@Uikcontextikrule_t@@V?$CUtlMemory@Uikcontextikrule_t@@H@@@@H@@QBEHXZ ENDP ; CUtlMemory<CUtlArray<ikcontextikrule_t,CUtlMemory<ikcontextikrule_t,int> >,int>::NumAllocated
_TEXT	ENDS
; Function compile flags: /Odtp
; File c:\users\user\downloads\xashxt_v0.81_rev.1_with_sources\xashxt_v0.81_rev.1_src\game_shared\utlmemory.h
;	COMDAT ?Base@?$CUtlMemory@V?$CUtlArray@Uikcontextikrule_t@@V?$CUtlMemory@Uikcontextikrule_t@@H@@@@H@@QAEPAV?$CUtlArray@Uikcontextikrule_t@@V?$CUtlMemory@Uikcontextikrule_t@@H@@@@XZ
_TEXT	SEGMENT
_this$ = -4						; size = 4
?Base@?$CUtlMemory@V?$CUtlArray@Uikcontextikrule_t@@V?$CUtlMemory@Uikcontextikrule_t@@H@@@@H@@QAEPAV?$CUtlArray@Uikcontextikrule_t@@V?$CUtlMemory@Uikcontextikrule_t@@H@@@@XZ PROC ; CUtlMemory<CUtlArray<ikcontextikrule_t,CUtlMemory<ikcontextikrule_t,int> >,int>::Base, COMDAT
; _this$ = ecx

; 487  : {

	push	ebp
	mov	ebp, esp
	push	ecx
	mov	DWORD PTR _this$[ebp], ecx

; 488  : 	assert( !IsReadOnly() );

	mov	ecx, DWORD PTR _this$[ebp]
	call	?IsReadOnly@?$CUtlMemory@V?$CUtlArray@Uikcontextikrule_t@@V?$CUtlMemory@Uikcontextikrule_t@@H@@@@H@@QBE_NXZ ; CUtlMemory<CUtlArray<ikcontextikrule_t,CUtlMemory<ikcontextikrule_t,int> >,int>::IsReadOnly
	movzx	eax, al
	test	eax, eax
	je	SHORT $LN3@Base
	push	488					; 000001e8H
	push	OFFSET ??_C@_1MO@LCPOAHHB@?$AAc?$AA?3?$AA?2?$AAu?$AAs?$AAe?$AAr?$AAs?$AA?2?$AAu?$AAs?$AAe?$AAr?$AA?2?$AAd@
	push	OFFSET ??_C@_1BM@PFNFCCHH@?$AA?$CB?$AAI?$AAs?$AAR?$AAe?$AAa?$AAd?$AAO?$AAn?$AAl?$AAy?$AA?$CI?$AA?$CJ@
	call	__wassert
	add	esp, 12					; 0000000cH
$LN3@Base:

; 489  : 	return m_pMemory;

	mov	edx, DWORD PTR _this$[ebp]
	mov	eax, DWORD PTR [edx]

; 490  : }

	mov	esp, ebp
	pop	ebp
	ret	0
?Base@?$CUtlMemory@V?$CUtlArray@Uikcontextikrule_t@@V?$CUtlMemory@Uikcontextikrule_t@@H@@@@H@@QAEPAV?$CUtlArray@Uikcontextikrule_t@@V?$CUtlMemory@Uikcontextikrule_t@@H@@@@XZ ENDP ; CUtlMemory<CUtlArray<ikcontextikrule_t,CUtlMemory<ikcontextikrule_t,int> >,int>::Base
_TEXT	ENDS
; Function compile flags: /Odtp
; File c:\users\user\downloads\xashxt_v0.81_rev.1_with_sources\xashxt_v0.81_rev.1_src\game_shared\utlmemory.h
;	COMDAT ?IsIdxValid@?$CUtlMemory@V?$CUtlArray@Uikcontextikrule_t@@V?$CUtlMemory@Uikcontextikrule_t@@H@@@@H@@QBE_NH@Z
_TEXT	SEGMENT
_this$ = -8						; size = 4
tv67 = -4						; size = 4
_i$ = 8							; size = 4
?IsIdxValid@?$CUtlMemory@V?$CUtlArray@Uikcontextikrule_t@@V?$CUtlMemory@Uikcontextikrule_t@@H@@@@H@@QBE_NH@Z PROC ; CUtlMemory<CUtlArray<ikcontextikrule_t,CUtlMemory<ikcontextikrule_t,int> >,int>::IsIdxValid, COMDAT
; _this$ = ecx

; 520  : {

	push	ebp
	mov	ebp, esp
	sub	esp, 8
	mov	DWORD PTR _this$[ebp], ecx

; 521  : 	return ( ((int) i) >= 0 ) && ( ((int) i) < m_nAllocationCount );

	cmp	DWORD PTR _i$[ebp], 0
	jl	SHORT $LN3@IsIdxValid
	mov	eax, DWORD PTR _this$[ebp]
	mov	ecx, DWORD PTR _i$[ebp]
	cmp	ecx, DWORD PTR [eax+4]
	jge	SHORT $LN3@IsIdxValid
	mov	DWORD PTR tv67[ebp], 1
	jmp	SHORT $LN4@IsIdxValid
$LN3@IsIdxValid:
	mov	DWORD PTR tv67[ebp], 0
$LN4@IsIdxValid:
	mov	al, BYTE PTR tv67[ebp]

; 522  : }

	mov	esp, ebp
	pop	ebp
	ret	4
?IsIdxValid@?$CUtlMemory@V?$CUtlArray@Uikcontextikrule_t@@V?$CUtlMemory@Uikcontextikrule_t@@H@@@@H@@QBE_NH@Z ENDP ; CUtlMemory<CUtlArray<ikcontextikrule_t,CUtlMemory<ikcontextikrule_t,int> >,int>::IsIdxValid
_TEXT	ENDS
; Function compile flags: /Odtp
; File c:\users\user\downloads\xashxt_v0.81_rev.1_with_sources\xashxt_v0.81_rev.1_src\game_shared\utlmemory.h
;	COMDAT ??A?$CUtlMemory@V?$CUtlArray@Uikcontextikrule_t@@V?$CUtlMemory@Uikcontextikrule_t@@H@@@@H@@QAEAAV?$CUtlArray@Uikcontextikrule_t@@V?$CUtlMemory@Uikcontextikrule_t@@H@@@@H@Z
_TEXT	SEGMENT
_this$ = -4						; size = 4
_i$ = 8							; size = 4
??A?$CUtlMemory@V?$CUtlArray@Uikcontextikrule_t@@V?$CUtlMemory@Uikcontextikrule_t@@H@@@@H@@QAEAAV?$CUtlArray@Uikcontextikrule_t@@V?$CUtlMemory@Uikcontextikrule_t@@H@@@@H@Z PROC ; CUtlMemory<CUtlArray<ikcontextikrule_t,CUtlMemory<ikcontextikrule_t,int> >,int>::operator[], COMDAT
; _this$ = ecx

; 423  : {

	push	ebp
	mov	ebp, esp
	push	ecx
	mov	DWORD PTR _this$[ebp], ecx

; 424  : 	assert( !IsReadOnly() );

	mov	ecx, DWORD PTR _this$[ebp]
	call	?IsReadOnly@?$CUtlMemory@V?$CUtlArray@Uikcontextikrule_t@@V?$CUtlMemory@Uikcontextikrule_t@@H@@@@H@@QBE_NXZ ; CUtlMemory<CUtlArray<ikcontextikrule_t,CUtlMemory<ikcontextikrule_t,int> >,int>::IsReadOnly
	movzx	eax, al
	test	eax, eax
	je	SHORT $LN3@operator
	push	424					; 000001a8H
	push	OFFSET ??_C@_1MO@LCPOAHHB@?$AAc?$AA?3?$AA?2?$AAu?$AAs?$AAe?$AAr?$AAs?$AA?2?$AAu?$AAs?$AAe?$AAr?$AA?2?$AAd@
	push	OFFSET ??_C@_1BM@PFNFCCHH@?$AA?$CB?$AAI?$AAs?$AAR?$AAe?$AAa?$AAd?$AAO?$AAn?$AAl?$AAy?$AA?$CI?$AA?$CJ@
	call	__wassert
	add	esp, 12					; 0000000cH
$LN3@operator:

; 425  : 	assert( IsIdxValid(i) );

	mov	edx, DWORD PTR _i$[ebp]
	push	edx
	mov	ecx, DWORD PTR _this$[ebp]
	call	?IsIdxValid@?$CUtlMemory@V?$CUtlArray@Uikcontextikrule_t@@V?$CUtlMemory@Uikcontextikrule_t@@H@@@@H@@QBE_NH@Z ; CUtlMemory<CUtlArray<ikcontextikrule_t,CUtlMemory<ikcontextikrule_t,int> >,int>::IsIdxValid
	movzx	eax, al
	test	eax, eax
	jne	SHORT $LN4@operator
	push	425					; 000001a9H
	push	OFFSET ??_C@_1MO@LCPOAHHB@?$AAc?$AA?3?$AA?2?$AAu?$AAs?$AAe?$AAr?$AAs?$AA?2?$AAu?$AAs?$AAe?$AAr?$AA?2?$AAd@
	push	OFFSET ??_C@_1BM@CKILBAKK@?$AAI?$AAs?$AAI?$AAd?$AAx?$AAV?$AAa?$AAl?$AAi?$AAd?$AA?$CI?$AAi?$AA?$CJ@
	call	__wassert
	add	esp, 12					; 0000000cH
$LN4@operator:

; 426  : 	return m_pMemory[i];

	imul	eax, DWORD PTR _i$[ebp], 20
	mov	edx, DWORD PTR _this$[ebp]
	add	eax, DWORD PTR [edx]

; 427  : }

	mov	esp, ebp
	pop	ebp
	ret	4
??A?$CUtlMemory@V?$CUtlArray@Uikcontextikrule_t@@V?$CUtlMemory@Uikcontextikrule_t@@H@@@@H@@QAEAAV?$CUtlArray@Uikcontextikrule_t@@V?$CUtlMemory@Uikcontextikrule_t@@H@@@@H@Z ENDP ; CUtlMemory<CUtlArray<ikcontextikrule_t,CUtlMemory<ikcontextikrule_t,int> >,int>::operator[]
_TEXT	ENDS
; Function compile flags: /Odtp
; File c:\users\user\downloads\xashxt_v0.81_rev.1_with_sources\xashxt_v0.81_rev.1_src\game_shared\utlmemory.h
;	COMDAT ??1?$CUtlMemory@V?$CUtlArray@Uikcontextikrule_t@@V?$CUtlMemory@Uikcontextikrule_t@@H@@@@H@@QAE@XZ
_TEXT	SEGMENT
_this$ = -16						; size = 4
__$EHRec$ = -12						; size = 12
??1?$CUtlMemory@V?$CUtlArray@Uikcontextikrule_t@@V?$CUtlMemory@Uikcontextikrule_t@@H@@@@H@@QAE@XZ PROC ; CUtlMemory<CUtlArray<ikcontextikrule_t,CUtlMemory<ikcontextikrule_t,int> >,int>::~CUtlMemory<CUtlArray<ikcontextikrule_t,CUtlMemory<ikcontextikrule_t,int> >,int>, COMDAT
; _this$ = ecx

; 322  : {

	push	ebp
	mov	ebp, esp
	push	-1
	push	__ehhandler$??1?$CUtlMemory@V?$CUtlArray@Uikcontextikrule_t@@V?$CUtlMemory@Uikcontextikrule_t@@H@@@@H@@QAE@XZ
	mov	eax, DWORD PTR fs:0
	push	eax
	push	ecx
	mov	eax, DWORD PTR ___security_cookie
	xor	eax, ebp
	push	eax
	lea	eax, DWORD PTR __$EHRec$[ebp]
	mov	DWORD PTR fs:0, eax
	mov	DWORD PTR _this$[ebp], ecx

; 323  : 	Purge();

	mov	ecx, DWORD PTR _this$[ebp]
	call	?Purge@?$CUtlMemory@V?$CUtlArray@Uikcontextikrule_t@@V?$CUtlMemory@Uikcontextikrule_t@@H@@@@H@@QAEXXZ ; CUtlMemory<CUtlArray<ikcontextikrule_t,CUtlMemory<ikcontextikrule_t,int> >,int>::Purge

; 324  : }

	mov	ecx, DWORD PTR __$EHRec$[ebp]
	mov	DWORD PTR fs:0, ecx
	pop	ecx
	mov	esp, ebp
	pop	ebp
	ret	0
_TEXT	ENDS
;	COMDAT text$x
text$x	SEGMENT
__ehhandler$??1?$CUtlMemory@V?$CUtlArray@Uikcontextikrule_t@@V?$CUtlMemory@Uikcontextikrule_t@@H@@@@H@@QAE@XZ:
	mov	edx, DWORD PTR [esp+8]
	lea	eax, DWORD PTR [edx+12]
	mov	ecx, DWORD PTR [edx-8]
	xor	ecx, eax
	call	@__security_check_cookie@4
	mov	eax, OFFSET __ehfuncinfo$??1?$CUtlMemory@V?$CUtlArray@Uikcontextikrule_t@@V?$CUtlMemory@Uikcontextikrule_t@@H@@@@H@@QAE@XZ
	jmp	___CxxFrameHandler3
text$x	ENDS
??1?$CUtlMemory@V?$CUtlArray@Uikcontextikrule_t@@V?$CUtlMemory@Uikcontextikrule_t@@H@@@@H@@QAE@XZ ENDP ; CUtlMemory<CUtlArray<ikcontextikrule_t,CUtlMemory<ikcontextikrule_t,int> >,int>::~CUtlMemory<CUtlArray<ikcontextikrule_t,CUtlMemory<ikcontextikrule_t,int> >,int>
; Function compile flags: /Odtp
; File c:\users\user\downloads\xashxt_v0.81_rev.1_with_sources\xashxt_v0.81_rev.1_src\game_shared\utlmemory.h
;	COMDAT ??0?$CUtlMemory@V?$CUtlArray@Uikcontextikrule_t@@V?$CUtlMemory@Uikcontextikrule_t@@H@@@@H@@QAE@HH@Z
_TEXT	SEGMENT
_this$ = -4						; size = 4
_nGrowSize$ = 8						; size = 4
_nInitAllocationCount$ = 12				; size = 4
??0?$CUtlMemory@V?$CUtlArray@Uikcontextikrule_t@@V?$CUtlMemory@Uikcontextikrule_t@@H@@@@H@@QAE@HH@Z PROC ; CUtlMemory<CUtlArray<ikcontextikrule_t,CUtlMemory<ikcontextikrule_t,int> >,int>::CUtlMemory<CUtlArray<ikcontextikrule_t,CUtlMemory<ikcontextikrule_t,int> >,int>, COMDAT
; _this$ = ecx

; 295  : {

	push	ebp
	mov	ebp, esp
	push	ecx
	mov	DWORD PTR _this$[ebp], ecx

; 293  : CUtlMemory<T,I>::CUtlMemory( int nGrowSize, int nInitAllocationCount ) : m_pMemory(0), 

	mov	eax, DWORD PTR _this$[ebp]
	mov	DWORD PTR [eax], 0

; 294  : 	m_nAllocationCount( nInitAllocationCount ), m_nGrowSize( nGrowSize )

	mov	ecx, DWORD PTR _this$[ebp]
	mov	edx, DWORD PTR _nInitAllocationCount$[ebp]
	mov	DWORD PTR [ecx+4], edx
	mov	eax, DWORD PTR _this$[ebp]
	mov	ecx, DWORD PTR _nGrowSize$[ebp]
	mov	DWORD PTR [eax+8], ecx

; 296  : 	ValidateGrowSize();

	mov	ecx, DWORD PTR _this$[ebp]
	call	?ValidateGrowSize@?$CUtlMemory@V?$CUtlArray@Uikcontextikrule_t@@V?$CUtlMemory@Uikcontextikrule_t@@H@@@@H@@IAEXXZ ; CUtlMemory<CUtlArray<ikcontextikrule_t,CUtlMemory<ikcontextikrule_t,int> >,int>::ValidateGrowSize

; 297  : 	assert( nGrowSize >= 0 );

	cmp	DWORD PTR _nGrowSize$[ebp], 0
	jge	SHORT $LN4@CUtlMemory
	push	297					; 00000129H
	push	OFFSET $SG17867
	push	OFFSET $SG17868
	call	__wassert
	add	esp, 12					; 0000000cH
$LN4@CUtlMemory:

; 298  : 	if (m_nAllocationCount)

	mov	eax, DWORD PTR _this$[ebp]
	cmp	DWORD PTR [eax+4], 0
	je	SHORT $LN1@CUtlMemory

; 299  : 	{
; 300  : 		m_pMemory = (T*)malloc( m_nAllocationCount * sizeof(T) );

	mov	ecx, DWORD PTR _this$[ebp]
	imul	edx, DWORD PTR [ecx+4], 20
	push	edx
	call	_malloc
	add	esp, 4
	mov	ecx, DWORD PTR _this$[ebp]
	mov	DWORD PTR [ecx], eax
$LN1@CUtlMemory:

; 301  : 	}
; 302  : }

	mov	eax, DWORD PTR _this$[ebp]
	mov	esp, ebp
	pop	ebp
	ret	8
??0?$CUtlMemory@V?$CUtlArray@Uikcontextikrule_t@@V?$CUtlMemory@Uikcontextikrule_t@@H@@@@H@@QAE@HH@Z ENDP ; CUtlMemory<CUtlArray<ikcontextikrule_t,CUtlMemory<ikcontextikrule_t,int> >,int>::CUtlMemory<CUtlArray<ikcontextikrule_t,CUtlMemory<ikcontextikrule_t,int> >,int>
_TEXT	ENDS
; Function compile flags: /Odtp
; File c:\users\user\downloads\xashxt_v0.81_rev.1_with_sources\xashxt_v0.81_rev.1_src\game_shared\utlarray.h
;	COMDAT ?ShiftElementsRight@?$CUtlArray@V?$CUtlArray@Uikcontextikrule_t@@V?$CUtlMemory@Uikcontextikrule_t@@H@@@@V?$CUtlMemory@V?$CUtlArray@Uikcontextikrule_t@@V?$CUtlMemory@Uikcontextikrule_t@@H@@@@H@@@@IAEXHH@Z
_TEXT	SEGMENT
_numToMove$ = -8					; size = 4
_this$ = -4						; size = 4
_elem$ = 8						; size = 4
_num$ = 12						; size = 4
?ShiftElementsRight@?$CUtlArray@V?$CUtlArray@Uikcontextikrule_t@@V?$CUtlMemory@Uikcontextikrule_t@@H@@@@V?$CUtlMemory@V?$CUtlArray@Uikcontextikrule_t@@V?$CUtlMemory@Uikcontextikrule_t@@H@@@@H@@@@IAEXHH@Z PROC ; CUtlArray<CUtlArray<ikcontextikrule_t,CUtlMemory<ikcontextikrule_t,int> >,CUtlMemory<CUtlArray<ikcontextikrule_t,CUtlMemory<ikcontextikrule_t,int> >,int> >::ShiftElementsRight, COMDAT
; _this$ = ecx

; 447  : {

	push	ebp
	mov	ebp, esp
	sub	esp, 8
	mov	DWORD PTR _this$[ebp], ecx

; 448  : 	assert( IsValidIndex(elem) || ( m_Size == 0 ) || ( num == 0 ));

	mov	eax, DWORD PTR _elem$[ebp]
	push	eax
	mov	ecx, DWORD PTR _this$[ebp]
	call	?IsValidIndex@?$CUtlArray@V?$CUtlArray@Uikcontextikrule_t@@V?$CUtlMemory@Uikcontextikrule_t@@H@@@@V?$CUtlMemory@V?$CUtlArray@Uikcontextikrule_t@@V?$CUtlMemory@Uikcontextikrule_t@@H@@@@H@@@@QBE_NH@Z ; CUtlArray<CUtlArray<ikcontextikrule_t,CUtlMemory<ikcontextikrule_t,int> >,CUtlMemory<CUtlArray<ikcontextikrule_t,CUtlMemory<ikcontextikrule_t,int> >,int> >::IsValidIndex
	movzx	ecx, al
	test	ecx, ecx
	jne	SHORT $LN4@ShiftEleme
	mov	edx, DWORD PTR _this$[ebp]
	cmp	DWORD PTR [edx+12], 0
	je	SHORT $LN4@ShiftEleme
	cmp	DWORD PTR _num$[ebp], 0
	je	SHORT $LN4@ShiftEleme
	push	448					; 000001c0H
	push	OFFSET $SG18206
	push	OFFSET $SG18207
	call	__wassert
	add	esp, 12					; 0000000cH
$LN4@ShiftEleme:

; 449  : 	int numToMove = m_Size - elem - num;

	mov	ecx, DWORD PTR _this$[ebp]
	mov	edx, DWORD PTR [ecx+12]
	sub	edx, DWORD PTR _elem$[ebp]
	sub	edx, DWORD PTR _num$[ebp]
	mov	DWORD PTR _numToMove$[ebp], edx

; 450  : 	if ((numToMove > 0) && (num > 0))

	cmp	DWORD PTR _numToMove$[ebp], 0
	jle	SHORT $LN1@ShiftEleme
	cmp	DWORD PTR _num$[ebp], 0
	jle	SHORT $LN1@ShiftEleme

; 451  : 		memmove( &Element(elem+num), &Element(elem), numToMove * sizeof(T) );

	imul	eax, DWORD PTR _numToMove$[ebp], 20
	push	eax
	mov	ecx, DWORD PTR _elem$[ebp]
	push	ecx
	mov	ecx, DWORD PTR _this$[ebp]
	call	?Element@?$CUtlArray@V?$CUtlArray@Uikcontextikrule_t@@V?$CUtlMemory@Uikcontextikrule_t@@H@@@@V?$CUtlMemory@V?$CUtlArray@Uikcontextikrule_t@@V?$CUtlMemory@Uikcontextikrule_t@@H@@@@H@@@@QAEAAV?$CUtlArray@Uikcontextikrule_t@@V?$CUtlMemory@Uikcontextikrule_t@@H@@@@H@Z ; CUtlArray<CUtlArray<ikcontextikrule_t,CUtlMemory<ikcontextikrule_t,int> >,CUtlMemory<CUtlArray<ikcontextikrule_t,CUtlMemory<ikcontextikrule_t,int> >,int> >::Element
	push	eax
	mov	edx, DWORD PTR _elem$[ebp]
	add	edx, DWORD PTR _num$[ebp]
	push	edx
	mov	ecx, DWORD PTR _this$[ebp]
	call	?Element@?$CUtlArray@V?$CUtlArray@Uikcontextikrule_t@@V?$CUtlMemory@Uikcontextikrule_t@@H@@@@V?$CUtlMemory@V?$CUtlArray@Uikcontextikrule_t@@V?$CUtlMemory@Uikcontextikrule_t@@H@@@@H@@@@QAEAAV?$CUtlArray@Uikcontextikrule_t@@V?$CUtlMemory@Uikcontextikrule_t@@H@@@@H@Z ; CUtlArray<CUtlArray<ikcontextikrule_t,CUtlMemory<ikcontextikrule_t,int> >,CUtlMemory<CUtlArray<ikcontextikrule_t,CUtlMemory<ikcontextikrule_t,int> >,int> >::Element
	push	eax
	call	_memmove
	add	esp, 12					; 0000000cH
$LN1@ShiftEleme:

; 452  : }

	mov	esp, ebp
	pop	ebp
	ret	8
?ShiftElementsRight@?$CUtlArray@V?$CUtlArray@Uikcontextikrule_t@@V?$CUtlMemory@Uikcontextikrule_t@@H@@@@V?$CUtlMemory@V?$CUtlArray@Uikcontextikrule_t@@V?$CUtlMemory@Uikcontextikrule_t@@H@@@@H@@@@IAEXHH@Z ENDP ; CUtlArray<CUtlArray<ikcontextikrule_t,CUtlMemory<ikcontextikrule_t,int> >,CUtlMemory<CUtlArray<ikcontextikrule_t,CUtlMemory<ikcontextikrule_t,int> >,int> >::ShiftElementsRight
_TEXT	ENDS
; Function compile flags: /Odtp
; File c:\users\user\downloads\xashxt_v0.81_rev.1_with_sources\xashxt_v0.81_rev.1_src\game_shared\utlarray.h
;	COMDAT ?GrowVector@?$CUtlArray@V?$CUtlArray@Uikcontextikrule_t@@V?$CUtlMemory@Uikcontextikrule_t@@H@@@@V?$CUtlMemory@V?$CUtlArray@Uikcontextikrule_t@@V?$CUtlMemory@Uikcontextikrule_t@@H@@@@H@@@@IAEXH@Z
_TEXT	SEGMENT
_this$ = -4						; size = 4
_num$ = 8						; size = 4
?GrowVector@?$CUtlArray@V?$CUtlArray@Uikcontextikrule_t@@V?$CUtlMemory@Uikcontextikrule_t@@H@@@@V?$CUtlMemory@V?$CUtlArray@Uikcontextikrule_t@@V?$CUtlMemory@Uikcontextikrule_t@@H@@@@H@@@@IAEXH@Z PROC ; CUtlArray<CUtlArray<ikcontextikrule_t,CUtlMemory<ikcontextikrule_t,int> >,CUtlMemory<CUtlArray<ikcontextikrule_t,CUtlMemory<ikcontextikrule_t,int> >,int> >::GrowVector, COMDAT
; _this$ = ecx

; 374  : {

	push	ebp
	mov	ebp, esp
	push	ecx
	push	esi
	mov	DWORD PTR _this$[ebp], ecx

; 375  : 	if (m_Size + num > m_Memory.NumAllocated())

	mov	eax, DWORD PTR _this$[ebp]
	mov	esi, DWORD PTR [eax+12]
	add	esi, DWORD PTR _num$[ebp]
	mov	ecx, DWORD PTR _this$[ebp]
	call	?NumAllocated@?$CUtlMemory@V?$CUtlArray@Uikcontextikrule_t@@V?$CUtlMemory@Uikcontextikrule_t@@H@@@@H@@QBEHXZ ; CUtlMemory<CUtlArray<ikcontextikrule_t,CUtlMemory<ikcontextikrule_t,int> >,int>::NumAllocated
	cmp	esi, eax
	jle	SHORT $LN2@GrowVector

; 376  : 	{
; 377  : 		m_Memory.Grow( m_Size + num - m_Memory.NumAllocated() );

	mov	ecx, DWORD PTR _this$[ebp]
	mov	esi, DWORD PTR [ecx+12]
	add	esi, DWORD PTR _num$[ebp]
	mov	ecx, DWORD PTR _this$[ebp]
	call	?NumAllocated@?$CUtlMemory@V?$CUtlArray@Uikcontextikrule_t@@V?$CUtlMemory@Uikcontextikrule_t@@H@@@@H@@QBEHXZ ; CUtlMemory<CUtlArray<ikcontextikrule_t,CUtlMemory<ikcontextikrule_t,int> >,int>::NumAllocated
	sub	esi, eax
	push	esi
	mov	ecx, DWORD PTR _this$[ebp]
	call	?Grow@?$CUtlMemory@V?$CUtlArray@Uikcontextikrule_t@@V?$CUtlMemory@Uikcontextikrule_t@@H@@@@H@@QAEXH@Z ; CUtlMemory<CUtlArray<ikcontextikrule_t,CUtlMemory<ikcontextikrule_t,int> >,int>::Grow
$LN2@GrowVector:

; 378  : 	}
; 379  : 
; 380  : 	m_Size += num;

	mov	edx, DWORD PTR _this$[ebp]
	mov	eax, DWORD PTR [edx+12]
	add	eax, DWORD PTR _num$[ebp]
	mov	ecx, DWORD PTR _this$[ebp]
	mov	DWORD PTR [ecx+12], eax

; 381  : 	ResetDbgInfo();

	mov	ecx, DWORD PTR _this$[ebp]
	call	?ResetDbgInfo@?$CUtlArray@V?$CUtlArray@Uikcontextikrule_t@@V?$CUtlMemory@Uikcontextikrule_t@@H@@@@V?$CUtlMemory@V?$CUtlArray@Uikcontextikrule_t@@V?$CUtlMemory@Uikcontextikrule_t@@H@@@@H@@@@IAEXXZ ; CUtlArray<CUtlArray<ikcontextikrule_t,CUtlMemory<ikcontextikrule_t,int> >,CUtlMemory<CUtlArray<ikcontextikrule_t,CUtlMemory<ikcontextikrule_t,int> >,int> >::ResetDbgInfo

; 382  : }

	pop	esi
	mov	esp, ebp
	pop	ebp
	ret	4
?GrowVector@?$CUtlArray@V?$CUtlArray@Uikcontextikrule_t@@V?$CUtlMemory@Uikcontextikrule_t@@H@@@@V?$CUtlMemory@V?$CUtlArray@Uikcontextikrule_t@@V?$CUtlMemory@Uikcontextikrule_t@@H@@@@H@@@@IAEXH@Z ENDP ; CUtlArray<CUtlArray<ikcontextikrule_t,CUtlMemory<ikcontextikrule_t,int> >,CUtlMemory<CUtlArray<ikcontextikrule_t,CUtlMemory<ikcontextikrule_t,int> >,int> >::GrowVector
_TEXT	ENDS
; Function compile flags: /Odtp
; File c:\users\user\downloads\xashxt_v0.81_rev.1_with_sources\xashxt_v0.81_rev.1_src\game_shared\utlarray.h
;	COMDAT ?Purge@?$CUtlArray@V?$CUtlArray@Uikcontextikrule_t@@V?$CUtlMemory@Uikcontextikrule_t@@H@@@@V?$CUtlMemory@V?$CUtlArray@Uikcontextikrule_t@@V?$CUtlMemory@Uikcontextikrule_t@@H@@@@H@@@@QAEXXZ
_TEXT	SEGMENT
_this$ = -4						; size = 4
?Purge@?$CUtlArray@V?$CUtlArray@Uikcontextikrule_t@@V?$CUtlMemory@Uikcontextikrule_t@@H@@@@V?$CUtlMemory@V?$CUtlArray@Uikcontextikrule_t@@V?$CUtlMemory@Uikcontextikrule_t@@H@@@@H@@@@QAEXXZ PROC ; CUtlArray<CUtlArray<ikcontextikrule_t,CUtlMemory<ikcontextikrule_t,int> >,CUtlMemory<CUtlArray<ikcontextikrule_t,CUtlMemory<ikcontextikrule_t,int> >,int> >::Purge, COMDAT
; _this$ = ecx

; 742  : {

	push	ebp
	mov	ebp, esp
	push	ecx
	mov	DWORD PTR _this$[ebp], ecx

; 743  : 	RemoveAll();

	mov	ecx, DWORD PTR _this$[ebp]
	call	?RemoveAll@?$CUtlArray@V?$CUtlArray@Uikcontextikrule_t@@V?$CUtlMemory@Uikcontextikrule_t@@H@@@@V?$CUtlMemory@V?$CUtlArray@Uikcontextikrule_t@@V?$CUtlMemory@Uikcontextikrule_t@@H@@@@H@@@@QAEXXZ ; CUtlArray<CUtlArray<ikcontextikrule_t,CUtlMemory<ikcontextikrule_t,int> >,CUtlMemory<CUtlArray<ikcontextikrule_t,CUtlMemory<ikcontextikrule_t,int> >,int> >::RemoveAll

; 744  : 	m_Memory.Purge();

	mov	ecx, DWORD PTR _this$[ebp]
	call	?Purge@?$CUtlMemory@V?$CUtlArray@Uikcontextikrule_t@@V?$CUtlMemory@Uikcontextikrule_t@@H@@@@H@@QAEXXZ ; CUtlMemory<CUtlArray<ikcontextikrule_t,CUtlMemory<ikcontextikrule_t,int> >,int>::Purge

; 745  : 	ResetDbgInfo();

	mov	ecx, DWORD PTR _this$[ebp]
	call	?ResetDbgInfo@?$CUtlArray@V?$CUtlArray@Uikcontextikrule_t@@V?$CUtlMemory@Uikcontextikrule_t@@H@@@@V?$CUtlMemory@V?$CUtlArray@Uikcontextikrule_t@@V?$CUtlMemory@Uikcontextikrule_t@@H@@@@H@@@@IAEXXZ ; CUtlArray<CUtlArray<ikcontextikrule_t,CUtlMemory<ikcontextikrule_t,int> >,CUtlMemory<CUtlArray<ikcontextikrule_t,CUtlMemory<ikcontextikrule_t,int> >,int> >::ResetDbgInfo

; 746  : }

	mov	esp, ebp
	pop	ebp
	ret	0
?Purge@?$CUtlArray@V?$CUtlArray@Uikcontextikrule_t@@V?$CUtlMemory@Uikcontextikrule_t@@H@@@@V?$CUtlMemory@V?$CUtlArray@Uikcontextikrule_t@@V?$CUtlMemory@Uikcontextikrule_t@@H@@@@H@@@@QAEXXZ ENDP ; CUtlArray<CUtlArray<ikcontextikrule_t,CUtlMemory<ikcontextikrule_t,int> >,CUtlMemory<CUtlArray<ikcontextikrule_t,CUtlMemory<ikcontextikrule_t,int> >,int> >::Purge
_TEXT	ENDS
; Function compile flags: /Odtp
; File c:\users\user\downloads\xashxt_v0.81_rev.1_with_sources\xashxt_v0.81_rev.1_src\game_shared\utlarray.h
;	COMDAT ?RemoveAll@?$CUtlArray@V?$CUtlArray@Uikcontextikrule_t@@V?$CUtlMemory@Uikcontextikrule_t@@H@@@@V?$CUtlMemory@V?$CUtlArray@Uikcontextikrule_t@@V?$CUtlMemory@Uikcontextikrule_t@@H@@@@H@@@@QAEXXZ
_TEXT	SEGMENT
_this$ = -8						; size = 4
_i$1 = -4						; size = 4
?RemoveAll@?$CUtlArray@V?$CUtlArray@Uikcontextikrule_t@@V?$CUtlMemory@Uikcontextikrule_t@@H@@@@V?$CUtlMemory@V?$CUtlArray@Uikcontextikrule_t@@V?$CUtlMemory@Uikcontextikrule_t@@H@@@@H@@@@QAEXXZ PROC ; CUtlArray<CUtlArray<ikcontextikrule_t,CUtlMemory<ikcontextikrule_t,int> >,CUtlMemory<CUtlArray<ikcontextikrule_t,CUtlMemory<ikcontextikrule_t,int> >,int> >::RemoveAll, COMDAT
; _this$ = ecx

; 726  : {

	push	ebp
	mov	ebp, esp
	sub	esp, 8
	mov	DWORD PTR _this$[ebp], ecx

; 727  : 	for (int i = m_Size; --i >= 0; )

	mov	eax, DWORD PTR _this$[ebp]
	mov	ecx, DWORD PTR [eax+12]
	mov	DWORD PTR _i$1[ebp], ecx
$LN4@RemoveAll:
	mov	edx, DWORD PTR _i$1[ebp]
	sub	edx, 1
	mov	DWORD PTR _i$1[ebp], edx
	js	SHORT $LN3@RemoveAll

; 728  : 	{
; 729  : 		Destruct(&Element(i));

	mov	eax, DWORD PTR _i$1[ebp]
	push	eax
	mov	ecx, DWORD PTR _this$[ebp]
	call	?Element@?$CUtlArray@V?$CUtlArray@Uikcontextikrule_t@@V?$CUtlMemory@Uikcontextikrule_t@@H@@@@V?$CUtlMemory@V?$CUtlArray@Uikcontextikrule_t@@V?$CUtlMemory@Uikcontextikrule_t@@H@@@@H@@@@QAEAAV?$CUtlArray@Uikcontextikrule_t@@V?$CUtlMemory@Uikcontextikrule_t@@H@@@@H@Z ; CUtlArray<CUtlArray<ikcontextikrule_t,CUtlMemory<ikcontextikrule_t,int> >,CUtlMemory<CUtlArray<ikcontextikrule_t,CUtlMemory<ikcontextikrule_t,int> >,int> >::Element
	push	eax
	call	??$Destruct@V?$CUtlArray@Uikcontextikrule_t@@V?$CUtlMemory@Uikcontextikrule_t@@H@@@@@@YAXPAV?$CUtlArray@Uikcontextikrule_t@@V?$CUtlMemory@Uikcontextikrule_t@@H@@@@@Z ; Destruct<CUtlArray<ikcontextikrule_t,CUtlMemory<ikcontextikrule_t,int> > >
	add	esp, 4

; 730  : 	}

	jmp	SHORT $LN4@RemoveAll
$LN3@RemoveAll:

; 731  : 
; 732  : 	m_Size = 0;

	mov	ecx, DWORD PTR _this$[ebp]
	mov	DWORD PTR [ecx+12], 0

; 733  : }

	mov	esp, ebp
	pop	ebp
	ret	0
?RemoveAll@?$CUtlArray@V?$CUtlArray@Uikcontextikrule_t@@V?$CUtlMemory@Uikcontextikrule_t@@H@@@@V?$CUtlMemory@V?$CUtlArray@Uikcontextikrule_t@@V?$CUtlMemory@Uikcontextikrule_t@@H@@@@H@@@@QAEXXZ ENDP ; CUtlArray<CUtlArray<ikcontextikrule_t,CUtlMemory<ikcontextikrule_t,int> >,CUtlMemory<CUtlArray<ikcontextikrule_t,CUtlMemory<ikcontextikrule_t,int> >,int> >::RemoveAll
_TEXT	ENDS
; Function compile flags: /Odtp
; File c:\users\user\downloads\xashxt_v0.81_rev.1_with_sources\xashxt_v0.81_rev.1_src\game_shared\utlarray.h
;	COMDAT ?SetCount@?$CUtlArray@V?$CUtlArray@Uikcontextikrule_t@@V?$CUtlMemory@Uikcontextikrule_t@@H@@@@V?$CUtlMemory@V?$CUtlArray@Uikcontextikrule_t@@V?$CUtlMemory@Uikcontextikrule_t@@H@@@@H@@@@QAEXH@Z
_TEXT	SEGMENT
_this$ = -4						; size = 4
_count$ = 8						; size = 4
?SetCount@?$CUtlArray@V?$CUtlArray@Uikcontextikrule_t@@V?$CUtlMemory@Uikcontextikrule_t@@H@@@@V?$CUtlMemory@V?$CUtlArray@Uikcontextikrule_t@@V?$CUtlMemory@Uikcontextikrule_t@@H@@@@H@@@@QAEXH@Z PROC ; CUtlArray<CUtlArray<ikcontextikrule_t,CUtlMemory<ikcontextikrule_t,int> >,CUtlMemory<CUtlArray<ikcontextikrule_t,CUtlMemory<ikcontextikrule_t,int> >,int> >::SetCount, COMDAT
; _this$ = ecx

; 574  : {

	push	ebp
	mov	ebp, esp
	push	ecx
	mov	DWORD PTR _this$[ebp], ecx

; 575  : 	RemoveAll();

	mov	ecx, DWORD PTR _this$[ebp]
	call	?RemoveAll@?$CUtlArray@V?$CUtlArray@Uikcontextikrule_t@@V?$CUtlMemory@Uikcontextikrule_t@@H@@@@V?$CUtlMemory@V?$CUtlArray@Uikcontextikrule_t@@V?$CUtlMemory@Uikcontextikrule_t@@H@@@@H@@@@QAEXXZ ; CUtlArray<CUtlArray<ikcontextikrule_t,CUtlMemory<ikcontextikrule_t,int> >,CUtlMemory<CUtlArray<ikcontextikrule_t,CUtlMemory<ikcontextikrule_t,int> >,int> >::RemoveAll

; 576  : 	AddMultipleToTail( count );

	push	0
	mov	eax, DWORD PTR _count$[ebp]
	push	eax
	mov	ecx, DWORD PTR _this$[ebp]
	call	?AddMultipleToTail@?$CUtlArray@V?$CUtlArray@Uikcontextikrule_t@@V?$CUtlMemory@Uikcontextikrule_t@@H@@@@V?$CUtlMemory@V?$CUtlArray@Uikcontextikrule_t@@V?$CUtlMemory@Uikcontextikrule_t@@H@@@@H@@@@QAEHHPBV?$CUtlArray@Uikcontextikrule_t@@V?$CUtlMemory@Uikcontextikrule_t@@H@@@@@Z ; CUtlArray<CUtlArray<ikcontextikrule_t,CUtlMemory<ikcontextikrule_t,int> >,CUtlMemory<CUtlArray<ikcontextikrule_t,CUtlMemory<ikcontextikrule_t,int> >,int> >::AddMultipleToTail

; 577  : }

	mov	esp, ebp
	pop	ebp
	ret	4
?SetCount@?$CUtlArray@V?$CUtlArray@Uikcontextikrule_t@@V?$CUtlMemory@Uikcontextikrule_t@@H@@@@V?$CUtlMemory@V?$CUtlArray@Uikcontextikrule_t@@V?$CUtlMemory@Uikcontextikrule_t@@H@@@@H@@@@QAEXH@Z ENDP ; CUtlArray<CUtlArray<ikcontextikrule_t,CUtlMemory<ikcontextikrule_t,int> >,CUtlMemory<CUtlArray<ikcontextikrule_t,CUtlMemory<ikcontextikrule_t,int> >,int> >::SetCount
_TEXT	ENDS
; Function compile flags: /Odtp
; File c:\users\user\downloads\xashxt_v0.81_rev.1_with_sources\xashxt_v0.81_rev.1_src\game_shared\utlarray.h
;	COMDAT ?SetSize@?$CUtlArray@V?$CUtlArray@Uikcontextikrule_t@@V?$CUtlMemory@Uikcontextikrule_t@@H@@@@V?$CUtlMemory@V?$CUtlArray@Uikcontextikrule_t@@V?$CUtlMemory@Uikcontextikrule_t@@H@@@@H@@@@QAEXH@Z
_TEXT	SEGMENT
_this$ = -4						; size = 4
_size$ = 8						; size = 4
?SetSize@?$CUtlArray@V?$CUtlArray@Uikcontextikrule_t@@V?$CUtlMemory@Uikcontextikrule_t@@H@@@@V?$CUtlMemory@V?$CUtlArray@Uikcontextikrule_t@@V?$CUtlMemory@Uikcontextikrule_t@@H@@@@H@@@@QAEXH@Z PROC ; CUtlArray<CUtlArray<ikcontextikrule_t,CUtlMemory<ikcontextikrule_t,int> >,CUtlMemory<CUtlArray<ikcontextikrule_t,CUtlMemory<ikcontextikrule_t,int> >,int> >::SetSize, COMDAT
; _this$ = ecx

; 581  : {

	push	ebp
	mov	ebp, esp
	push	ecx
	mov	DWORD PTR _this$[ebp], ecx

; 582  : 	SetCount( size );

	mov	eax, DWORD PTR _size$[ebp]
	push	eax
	mov	ecx, DWORD PTR _this$[ebp]
	call	?SetCount@?$CUtlArray@V?$CUtlArray@Uikcontextikrule_t@@V?$CUtlMemory@Uikcontextikrule_t@@H@@@@V?$CUtlMemory@V?$CUtlArray@Uikcontextikrule_t@@V?$CUtlMemory@Uikcontextikrule_t@@H@@@@H@@@@QAEXH@Z ; CUtlArray<CUtlArray<ikcontextikrule_t,CUtlMemory<ikcontextikrule_t,int> >,CUtlMemory<CUtlArray<ikcontextikrule_t,CUtlMemory<ikcontextikrule_t,int> >,int> >::SetCount

; 583  : }

	mov	esp, ebp
	pop	ebp
	ret	4
?SetSize@?$CUtlArray@V?$CUtlArray@Uikcontextikrule_t@@V?$CUtlMemory@Uikcontextikrule_t@@H@@@@V?$CUtlMemory@V?$CUtlArray@Uikcontextikrule_t@@V?$CUtlMemory@Uikcontextikrule_t@@H@@@@H@@@@QAEXH@Z ENDP ; CUtlArray<CUtlArray<ikcontextikrule_t,CUtlMemory<ikcontextikrule_t,int> >,CUtlMemory<CUtlArray<ikcontextikrule_t,CUtlMemory<ikcontextikrule_t,int> >,int> >::SetSize
_TEXT	ENDS
; Function compile flags: /Odtp
; File c:\users\user\downloads\xashxt_v0.81_rev.1_with_sources\xashxt_v0.81_rev.1_src\game_shared\utlarray.h
;	COMDAT ?InsertMultipleBefore@?$CUtlArray@V?$CUtlArray@Uikcontextikrule_t@@V?$CUtlMemory@Uikcontextikrule_t@@H@@@@V?$CUtlMemory@V?$CUtlArray@Uikcontextikrule_t@@V?$CUtlMemory@Uikcontextikrule_t@@H@@@@H@@@@QAEHHHPBV?$CUtlArray@Uikcontextikrule_t@@V?$CUtlMemory@Uikcontextikrule_t@@H@@@@@Z
_TEXT	SEGMENT
_i$1 = -12						; size = 4
_i$2 = -8						; size = 4
_this$ = -4						; size = 4
_elem$ = 8						; size = 4
_num$ = 12						; size = 4
_pToInsert$ = 16					; size = 4
?InsertMultipleBefore@?$CUtlArray@V?$CUtlArray@Uikcontextikrule_t@@V?$CUtlMemory@Uikcontextikrule_t@@H@@@@V?$CUtlMemory@V?$CUtlArray@Uikcontextikrule_t@@V?$CUtlMemory@Uikcontextikrule_t@@H@@@@H@@@@QAEHHHPBV?$CUtlArray@Uikcontextikrule_t@@V?$CUtlMemory@Uikcontextikrule_t@@H@@@@@Z PROC ; CUtlArray<CUtlArray<ikcontextikrule_t,CUtlMemory<ikcontextikrule_t,int> >,CUtlMemory<CUtlArray<ikcontextikrule_t,CUtlMemory<ikcontextikrule_t,int> >,int> >::InsertMultipleBefore, COMDAT
; _this$ = ecx

; 627  : {

	push	ebp
	mov	ebp, esp
	sub	esp, 12					; 0000000cH
	mov	DWORD PTR _this$[ebp], ecx

; 628  : 	if( num == 0 )

	cmp	DWORD PTR _num$[ebp], 0
	jne	SHORT $LN8@InsertMult

; 629  : 		return elem;

	mov	eax, DWORD PTR _elem$[ebp]
	jmp	$LN1@InsertMult
$LN8@InsertMult:

; 630  : 	
; 631  : 	// Can insert at the end
; 632  : 	assert( (elem == Count()) || IsValidIndex(elem) );

	mov	ecx, DWORD PTR _this$[ebp]
	call	?Count@?$CUtlArray@V?$CUtlArray@Uikcontextikrule_t@@V?$CUtlMemory@Uikcontextikrule_t@@H@@@@V?$CUtlMemory@V?$CUtlArray@Uikcontextikrule_t@@V?$CUtlMemory@Uikcontextikrule_t@@H@@@@H@@@@QBEHXZ ; CUtlArray<CUtlArray<ikcontextikrule_t,CUtlMemory<ikcontextikrule_t,int> >,CUtlMemory<CUtlArray<ikcontextikrule_t,CUtlMemory<ikcontextikrule_t,int> >,int> >::Count
	cmp	DWORD PTR _elem$[ebp], eax
	je	SHORT $LN11@InsertMult
	mov	eax, DWORD PTR _elem$[ebp]
	push	eax
	mov	ecx, DWORD PTR _this$[ebp]
	call	?IsValidIndex@?$CUtlArray@V?$CUtlArray@Uikcontextikrule_t@@V?$CUtlMemory@Uikcontextikrule_t@@H@@@@V?$CUtlMemory@V?$CUtlArray@Uikcontextikrule_t@@V?$CUtlMemory@Uikcontextikrule_t@@H@@@@H@@@@QBE_NH@Z ; CUtlArray<CUtlArray<ikcontextikrule_t,CUtlMemory<ikcontextikrule_t,int> >,CUtlMemory<CUtlArray<ikcontextikrule_t,CUtlMemory<ikcontextikrule_t,int> >,int> >::IsValidIndex
	movzx	ecx, al
	test	ecx, ecx
	jne	SHORT $LN11@InsertMult
	push	632					; 00000278H
	push	OFFSET ??_C@_1MM@POBCBGGF@?$AAc?$AA?3?$AA?2?$AAu?$AAs?$AAe?$AAr?$AAs?$AA?2?$AAu?$AAs?$AAe?$AAr?$AA?2?$AAd@
	push	OFFSET ??_C@_1FA@BPFBJKPF@?$AA?$CI?$AAe?$AAl?$AAe?$AAm?$AA?5?$AA?$DN?$AA?$DN?$AA?5?$AAC?$AAo?$AAu?$AAn?$AAt?$AA?$CI@
	call	__wassert
	add	esp, 12					; 0000000cH
$LN11@InsertMult:

; 633  : 
; 634  : 	GrowVector(num);

	mov	eax, DWORD PTR _num$[ebp]
	push	eax
	mov	ecx, DWORD PTR _this$[ebp]
	call	?GrowVector@?$CUtlArray@V?$CUtlArray@Uikcontextikrule_t@@V?$CUtlMemory@Uikcontextikrule_t@@H@@@@V?$CUtlMemory@V?$CUtlArray@Uikcontextikrule_t@@V?$CUtlMemory@Uikcontextikrule_t@@H@@@@H@@@@IAEXH@Z ; CUtlArray<CUtlArray<ikcontextikrule_t,CUtlMemory<ikcontextikrule_t,int> >,CUtlMemory<CUtlArray<ikcontextikrule_t,CUtlMemory<ikcontextikrule_t,int> >,int> >::GrowVector

; 635  : 	ShiftElementsRight(elem, num);

	mov	ecx, DWORD PTR _num$[ebp]
	push	ecx
	mov	edx, DWORD PTR _elem$[ebp]
	push	edx
	mov	ecx, DWORD PTR _this$[ebp]
	call	?ShiftElementsRight@?$CUtlArray@V?$CUtlArray@Uikcontextikrule_t@@V?$CUtlMemory@Uikcontextikrule_t@@H@@@@V?$CUtlMemory@V?$CUtlArray@Uikcontextikrule_t@@V?$CUtlMemory@Uikcontextikrule_t@@H@@@@H@@@@IAEXHH@Z ; CUtlArray<CUtlArray<ikcontextikrule_t,CUtlMemory<ikcontextikrule_t,int> >,CUtlMemory<CUtlArray<ikcontextikrule_t,CUtlMemory<ikcontextikrule_t,int> >,int> >::ShiftElementsRight

; 636  : 
; 637  : 	// Invoke default constructors
; 638  : 	for (int i = 0; i < num; ++i)

	mov	DWORD PTR _i$1[ebp], 0
	jmp	SHORT $LN4@InsertMult
$LN2@InsertMult:
	mov	eax, DWORD PTR _i$1[ebp]
	add	eax, 1
	mov	DWORD PTR _i$1[ebp], eax
$LN4@InsertMult:
	mov	ecx, DWORD PTR _i$1[ebp]
	cmp	ecx, DWORD PTR _num$[ebp]
	jge	SHORT $LN3@InsertMult

; 639  : 		Construct( &Element(elem+i) );

	mov	edx, DWORD PTR _elem$[ebp]
	add	edx, DWORD PTR _i$1[ebp]
	push	edx
	mov	ecx, DWORD PTR _this$[ebp]
	call	?Element@?$CUtlArray@V?$CUtlArray@Uikcontextikrule_t@@V?$CUtlMemory@Uikcontextikrule_t@@H@@@@V?$CUtlMemory@V?$CUtlArray@Uikcontextikrule_t@@V?$CUtlMemory@Uikcontextikrule_t@@H@@@@H@@@@QAEAAV?$CUtlArray@Uikcontextikrule_t@@V?$CUtlMemory@Uikcontextikrule_t@@H@@@@H@Z ; CUtlArray<CUtlArray<ikcontextikrule_t,CUtlMemory<ikcontextikrule_t,int> >,CUtlMemory<CUtlArray<ikcontextikrule_t,CUtlMemory<ikcontextikrule_t,int> >,int> >::Element
	push	eax
	call	??$Construct@V?$CUtlArray@Uikcontextikrule_t@@V?$CUtlMemory@Uikcontextikrule_t@@H@@@@@@YAXPAV?$CUtlArray@Uikcontextikrule_t@@V?$CUtlMemory@Uikcontextikrule_t@@H@@@@@Z ; Construct<CUtlArray<ikcontextikrule_t,CUtlMemory<ikcontextikrule_t,int> > >
	add	esp, 4
	jmp	SHORT $LN2@InsertMult
$LN3@InsertMult:

; 640  : 
; 641  : 	// Copy stuff in?
; 642  : 	if ( pToInsert )

	cmp	DWORD PTR _pToInsert$[ebp], 0
	je	SHORT $LN9@InsertMult

; 643  : 	{
; 644  : 		for ( int i=0; i < num; i++ )

	mov	DWORD PTR _i$2[ebp], 0
	jmp	SHORT $LN7@InsertMult
$LN5@InsertMult:
	mov	eax, DWORD PTR _i$2[ebp]
	add	eax, 1
	mov	DWORD PTR _i$2[ebp], eax
$LN7@InsertMult:
	mov	ecx, DWORD PTR _i$2[ebp]
	cmp	ecx, DWORD PTR _num$[ebp]
	jge	SHORT $LN9@InsertMult

; 645  : 		{
; 646  : 			Element( elem+i ) = pToInsert[i];

	imul	edx, DWORD PTR _i$2[ebp], 20
	add	edx, DWORD PTR _pToInsert$[ebp]
	push	edx
	mov	eax, DWORD PTR _elem$[ebp]
	add	eax, DWORD PTR _i$2[ebp]
	push	eax
	mov	ecx, DWORD PTR _this$[ebp]
	call	?Element@?$CUtlArray@V?$CUtlArray@Uikcontextikrule_t@@V?$CUtlMemory@Uikcontextikrule_t@@H@@@@V?$CUtlMemory@V?$CUtlArray@Uikcontextikrule_t@@V?$CUtlMemory@Uikcontextikrule_t@@H@@@@H@@@@QAEAAV?$CUtlArray@Uikcontextikrule_t@@V?$CUtlMemory@Uikcontextikrule_t@@H@@@@H@Z ; CUtlArray<CUtlArray<ikcontextikrule_t,CUtlMemory<ikcontextikrule_t,int> >,CUtlMemory<CUtlArray<ikcontextikrule_t,CUtlMemory<ikcontextikrule_t,int> >,int> >::Element
	mov	ecx, eax
	call	??4?$CUtlArray@Uikcontextikrule_t@@V?$CUtlMemory@Uikcontextikrule_t@@H@@@@QAEAAV0@ABV0@@Z ; CUtlArray<ikcontextikrule_t,CUtlMemory<ikcontextikrule_t,int> >::operator=

; 647  : 		}

	jmp	SHORT $LN5@InsertMult
$LN9@InsertMult:

; 648  : 	}
; 649  : 
; 650  : 	return elem;

	mov	eax, DWORD PTR _elem$[ebp]
$LN1@InsertMult:

; 651  : }

	mov	esp, ebp
	pop	ebp
	ret	12					; 0000000cH
?InsertMultipleBefore@?$CUtlArray@V?$CUtlArray@Uikcontextikrule_t@@V?$CUtlMemory@Uikcontextikrule_t@@H@@@@V?$CUtlMemory@V?$CUtlArray@Uikcontextikrule_t@@V?$CUtlMemory@Uikcontextikrule_t@@H@@@@H@@@@QAEHHHPBV?$CUtlArray@Uikcontextikrule_t@@V?$CUtlMemory@Uikcontextikrule_t@@H@@@@@Z ENDP ; CUtlArray<CUtlArray<ikcontextikrule_t,CUtlMemory<ikcontextikrule_t,int> >,CUtlMemory<CUtlArray<ikcontextikrule_t,CUtlMemory<ikcontextikrule_t,int> >,int> >::InsertMultipleBefore
_TEXT	ENDS
; Function compile flags: /Odtp
; File c:\users\user\downloads\xashxt_v0.81_rev.1_with_sources\xashxt_v0.81_rev.1_src\game_shared\utlarray.h
;	COMDAT ?AddMultipleToTail@?$CUtlArray@V?$CUtlArray@Uikcontextikrule_t@@V?$CUtlMemory@Uikcontextikrule_t@@H@@@@V?$CUtlMemory@V?$CUtlArray@Uikcontextikrule_t@@V?$CUtlMemory@Uikcontextikrule_t@@H@@@@H@@@@QAEHHPBV?$CUtlArray@Uikcontextikrule_t@@V?$CUtlMemory@Uikcontextikrule_t@@H@@@@@Z
_TEXT	SEGMENT
_this$ = -4						; size = 4
_num$ = 8						; size = 4
_pToCopy$ = 12						; size = 4
?AddMultipleToTail@?$CUtlArray@V?$CUtlArray@Uikcontextikrule_t@@V?$CUtlMemory@Uikcontextikrule_t@@H@@@@V?$CUtlMemory@V?$CUtlArray@Uikcontextikrule_t@@V?$CUtlMemory@Uikcontextikrule_t@@H@@@@H@@@@QAEHHPBV?$CUtlArray@Uikcontextikrule_t@@V?$CUtlMemory@Uikcontextikrule_t@@H@@@@@Z PROC ; CUtlArray<CUtlArray<ikcontextikrule_t,CUtlMemory<ikcontextikrule_t,int> >,CUtlMemory<CUtlArray<ikcontextikrule_t,CUtlMemory<ikcontextikrule_t,int> >,int> >::AddMultipleToTail, COMDAT
; _this$ = ecx

; 558  : {

	push	ebp
	mov	ebp, esp
	push	ecx
	push	esi
	mov	DWORD PTR _this$[ebp], ecx

; 559  : 	// Can't insert something that's in the list... reallocation may hose us
; 560  : 	assert( (Base() == NULL) || !pToCopy || (pToCopy + num < Base()) || (pToCopy >= (Base() + Count()) ) ); 

	mov	ecx, DWORD PTR _this$[ebp]
	call	?Base@?$CUtlArray@V?$CUtlArray@Uikcontextikrule_t@@V?$CUtlMemory@Uikcontextikrule_t@@H@@@@V?$CUtlMemory@V?$CUtlArray@Uikcontextikrule_t@@V?$CUtlMemory@Uikcontextikrule_t@@H@@@@H@@@@QAEPAV?$CUtlArray@Uikcontextikrule_t@@V?$CUtlMemory@Uikcontextikrule_t@@H@@@@XZ ; CUtlArray<CUtlArray<ikcontextikrule_t,CUtlMemory<ikcontextikrule_t,int> >,CUtlMemory<CUtlArray<ikcontextikrule_t,CUtlMemory<ikcontextikrule_t,int> >,int> >::Base
	test	eax, eax
	je	SHORT $LN3@AddMultipl
	cmp	DWORD PTR _pToCopy$[ebp], 0
	je	SHORT $LN3@AddMultipl
	imul	esi, DWORD PTR _num$[ebp], 20
	add	esi, DWORD PTR _pToCopy$[ebp]
	mov	ecx, DWORD PTR _this$[ebp]
	call	?Base@?$CUtlArray@V?$CUtlArray@Uikcontextikrule_t@@V?$CUtlMemory@Uikcontextikrule_t@@H@@@@V?$CUtlMemory@V?$CUtlArray@Uikcontextikrule_t@@V?$CUtlMemory@Uikcontextikrule_t@@H@@@@H@@@@QAEPAV?$CUtlArray@Uikcontextikrule_t@@V?$CUtlMemory@Uikcontextikrule_t@@H@@@@XZ ; CUtlArray<CUtlArray<ikcontextikrule_t,CUtlMemory<ikcontextikrule_t,int> >,CUtlMemory<CUtlArray<ikcontextikrule_t,CUtlMemory<ikcontextikrule_t,int> >,int> >::Base
	cmp	esi, eax
	jb	SHORT $LN3@AddMultipl
	mov	ecx, DWORD PTR _this$[ebp]
	call	?Base@?$CUtlArray@V?$CUtlArray@Uikcontextikrule_t@@V?$CUtlMemory@Uikcontextikrule_t@@H@@@@V?$CUtlMemory@V?$CUtlArray@Uikcontextikrule_t@@V?$CUtlMemory@Uikcontextikrule_t@@H@@@@H@@@@QAEPAV?$CUtlArray@Uikcontextikrule_t@@V?$CUtlMemory@Uikcontextikrule_t@@H@@@@XZ ; CUtlArray<CUtlArray<ikcontextikrule_t,CUtlMemory<ikcontextikrule_t,int> >,CUtlMemory<CUtlArray<ikcontextikrule_t,CUtlMemory<ikcontextikrule_t,int> >,int> >::Base
	mov	esi, eax
	mov	ecx, DWORD PTR _this$[ebp]
	call	?Count@?$CUtlArray@V?$CUtlArray@Uikcontextikrule_t@@V?$CUtlMemory@Uikcontextikrule_t@@H@@@@V?$CUtlMemory@V?$CUtlArray@Uikcontextikrule_t@@V?$CUtlMemory@Uikcontextikrule_t@@H@@@@H@@@@QBEHXZ ; CUtlArray<CUtlArray<ikcontextikrule_t,CUtlMemory<ikcontextikrule_t,int> >,CUtlMemory<CUtlArray<ikcontextikrule_t,CUtlMemory<ikcontextikrule_t,int> >,int> >::Count
	imul	eax, eax, 20
	add	esi, eax
	cmp	DWORD PTR _pToCopy$[ebp], esi
	jae	SHORT $LN3@AddMultipl
	push	560					; 00000230H
	push	OFFSET ??_C@_1MM@POBCBGGF@?$AAc?$AA?3?$AA?2?$AAu?$AAs?$AAe?$AAr?$AAs?$AA?2?$AAu?$AAs?$AAe?$AAr?$AA?2?$AAd@
	push	OFFSET ??_C@_1LK@CNNNCGDG@?$AA?$CI?$AAB?$AAa?$AAs?$AAe?$AA?$CI?$AA?$CJ?$AA?5?$AA?$DN?$AA?$DN?$AA?5?$AAN?$AAU?$AAL?$AAL@
	call	__wassert
	add	esp, 12					; 0000000cH
$LN3@AddMultipl:

; 561  : 
; 562  : 	return InsertMultipleBefore( m_Size, num, pToCopy );

	mov	edx, DWORD PTR _pToCopy$[ebp]
	push	edx
	mov	eax, DWORD PTR _num$[ebp]
	push	eax
	mov	ecx, DWORD PTR _this$[ebp]
	mov	edx, DWORD PTR [ecx+12]
	push	edx
	mov	ecx, DWORD PTR _this$[ebp]
	call	?InsertMultipleBefore@?$CUtlArray@V?$CUtlArray@Uikcontextikrule_t@@V?$CUtlMemory@Uikcontextikrule_t@@H@@@@V?$CUtlMemory@V?$CUtlArray@Uikcontextikrule_t@@V?$CUtlMemory@Uikcontextikrule_t@@H@@@@H@@@@QAEHHHPBV?$CUtlArray@Uikcontextikrule_t@@V?$CUtlMemory@Uikcontextikrule_t@@H@@@@@Z ; CUtlArray<CUtlArray<ikcontextikrule_t,CUtlMemory<ikcontextikrule_t,int> >,CUtlMemory<CUtlArray<ikcontextikrule_t,CUtlMemory<ikcontextikrule_t,int> >,int> >::InsertMultipleBefore

; 563  : }

	pop	esi
	mov	esp, ebp
	pop	ebp
	ret	8
?AddMultipleToTail@?$CUtlArray@V?$CUtlArray@Uikcontextikrule_t@@V?$CUtlMemory@Uikcontextikrule_t@@H@@@@V?$CUtlMemory@V?$CUtlArray@Uikcontextikrule_t@@V?$CUtlMemory@Uikcontextikrule_t@@H@@@@H@@@@QAEHHPBV?$CUtlArray@Uikcontextikrule_t@@V?$CUtlMemory@Uikcontextikrule_t@@H@@@@@Z ENDP ; CUtlArray<CUtlArray<ikcontextikrule_t,CUtlMemory<ikcontextikrule_t,int> >,CUtlMemory<CUtlArray<ikcontextikrule_t,CUtlMemory<ikcontextikrule_t,int> >,int> >::AddMultipleToTail
_TEXT	ENDS
; Function compile flags: /Odtp
; File c:\users\user\downloads\xashxt_v0.81_rev.1_with_sources\xashxt_v0.81_rev.1_src\game_shared\utlarray.h
;	COMDAT ?IsValidIndex@?$CUtlArray@V?$CUtlArray@Uikcontextikrule_t@@V?$CUtlMemory@Uikcontextikrule_t@@H@@@@V?$CUtlMemory@V?$CUtlArray@Uikcontextikrule_t@@V?$CUtlMemory@Uikcontextikrule_t@@H@@@@H@@@@QBE_NH@Z
_TEXT	SEGMENT
_this$ = -8						; size = 4
tv67 = -4						; size = 4
_i$ = 8							; size = 4
?IsValidIndex@?$CUtlArray@V?$CUtlArray@Uikcontextikrule_t@@V?$CUtlMemory@Uikcontextikrule_t@@H@@@@V?$CUtlMemory@V?$CUtlArray@Uikcontextikrule_t@@V?$CUtlMemory@Uikcontextikrule_t@@H@@@@H@@@@QBE_NH@Z PROC ; CUtlArray<CUtlArray<ikcontextikrule_t,CUtlMemory<ikcontextikrule_t,int> >,CUtlMemory<CUtlArray<ikcontextikrule_t,CUtlMemory<ikcontextikrule_t,int> >,int> >::IsValidIndex, COMDAT
; _this$ = ecx

; 354  : {

	push	ebp
	mov	ebp, esp
	sub	esp, 8
	mov	DWORD PTR _this$[ebp], ecx

; 355  : 	return (i >= 0) && (i < m_Size);

	cmp	DWORD PTR _i$[ebp], 0
	jl	SHORT $LN3@IsValidInd
	mov	eax, DWORD PTR _this$[ebp]
	mov	ecx, DWORD PTR _i$[ebp]
	cmp	ecx, DWORD PTR [eax+12]
	jge	SHORT $LN3@IsValidInd
	mov	DWORD PTR tv67[ebp], 1
	jmp	SHORT $LN4@IsValidInd
$LN3@IsValidInd:
	mov	DWORD PTR tv67[ebp], 0
$LN4@IsValidInd:
	mov	al, BYTE PTR tv67[ebp]

; 356  : }

	mov	esp, ebp
	pop	ebp
	ret	4
?IsValidIndex@?$CUtlArray@V?$CUtlArray@Uikcontextikrule_t@@V?$CUtlMemory@Uikcontextikrule_t@@H@@@@V?$CUtlMemory@V?$CUtlArray@Uikcontextikrule_t@@V?$CUtlMemory@Uikcontextikrule_t@@H@@@@H@@@@QBE_NH@Z ENDP ; CUtlArray<CUtlArray<ikcontextikrule_t,CUtlMemory<ikcontextikrule_t,int> >,CUtlMemory<CUtlArray<ikcontextikrule_t,CUtlMemory<ikcontextikrule_t,int> >,int> >::IsValidIndex
_TEXT	ENDS
; Function compile flags: /Odtp
; File c:\users\user\downloads\xashxt_v0.81_rev.1_with_sources\xashxt_v0.81_rev.1_src\game_shared\utlarray.h
;	COMDAT ?Count@?$CUtlArray@V?$CUtlArray@Uikcontextikrule_t@@V?$CUtlMemory@Uikcontextikrule_t@@H@@@@V?$CUtlMemory@V?$CUtlArray@Uikcontextikrule_t@@V?$CUtlMemory@Uikcontextikrule_t@@H@@@@H@@@@QBEHXZ
_TEXT	SEGMENT
_this$ = -4						; size = 4
?Count@?$CUtlArray@V?$CUtlArray@Uikcontextikrule_t@@V?$CUtlMemory@Uikcontextikrule_t@@H@@@@V?$CUtlMemory@V?$CUtlArray@Uikcontextikrule_t@@V?$CUtlMemory@Uikcontextikrule_t@@H@@@@H@@@@QBEHXZ PROC ; CUtlArray<CUtlArray<ikcontextikrule_t,CUtlMemory<ikcontextikrule_t,int> >,CUtlMemory<CUtlArray<ikcontextikrule_t,CUtlMemory<ikcontextikrule_t,int> >,int> >::Count, COMDAT
; _this$ = ecx

; 344  : {

	push	ebp
	mov	ebp, esp
	push	ecx
	mov	DWORD PTR _this$[ebp], ecx

; 345  : 	return m_Size;

	mov	eax, DWORD PTR _this$[ebp]
	mov	eax, DWORD PTR [eax+12]

; 346  : }

	mov	esp, ebp
	pop	ebp
	ret	0
?Count@?$CUtlArray@V?$CUtlArray@Uikcontextikrule_t@@V?$CUtlMemory@Uikcontextikrule_t@@H@@@@V?$CUtlMemory@V?$CUtlArray@Uikcontextikrule_t@@V?$CUtlMemory@Uikcontextikrule_t@@H@@@@H@@@@QBEHXZ ENDP ; CUtlArray<CUtlArray<ikcontextikrule_t,CUtlMemory<ikcontextikrule_t,int> >,CUtlMemory<CUtlArray<ikcontextikrule_t,CUtlMemory<ikcontextikrule_t,int> >,int> >::Count
_TEXT	ENDS
; Function compile flags: /Odtp
; File c:\users\user\downloads\xashxt_v0.81_rev.1_with_sources\xashxt_v0.81_rev.1_src\game_shared\utlarray.h
;	COMDAT ?Base@?$CUtlArray@V?$CUtlArray@Uikcontextikrule_t@@V?$CUtlMemory@Uikcontextikrule_t@@H@@@@V?$CUtlMemory@V?$CUtlArray@Uikcontextikrule_t@@V?$CUtlMemory@Uikcontextikrule_t@@H@@@@H@@@@QAEPAV?$CUtlArray@Uikcontextikrule_t@@V?$CUtlMemory@Uikcontextikrule_t@@H@@@@XZ
_TEXT	SEGMENT
_this$ = -4						; size = 4
?Base@?$CUtlArray@V?$CUtlArray@Uikcontextikrule_t@@V?$CUtlMemory@Uikcontextikrule_t@@H@@@@V?$CUtlMemory@V?$CUtlArray@Uikcontextikrule_t@@V?$CUtlMemory@Uikcontextikrule_t@@H@@@@H@@@@QAEPAV?$CUtlArray@Uikcontextikrule_t@@V?$CUtlMemory@Uikcontextikrule_t@@H@@@@XZ PROC ; CUtlArray<CUtlArray<ikcontextikrule_t,CUtlMemory<ikcontextikrule_t,int> >,CUtlMemory<CUtlArray<ikcontextikrule_t,CUtlMemory<ikcontextikrule_t,int> >,int> >::Base, COMDAT
; _this$ = ecx

; 60   : 	T* Base()								{ return m_Memory.Base(); }

	push	ebp
	mov	ebp, esp
	push	ecx
	mov	DWORD PTR _this$[ebp], ecx
	mov	ecx, DWORD PTR _this$[ebp]
	call	?Base@?$CUtlMemory@V?$CUtlArray@Uikcontextikrule_t@@V?$CUtlMemory@Uikcontextikrule_t@@H@@@@H@@QAEPAV?$CUtlArray@Uikcontextikrule_t@@V?$CUtlMemory@Uikcontextikrule_t@@H@@@@XZ ; CUtlMemory<CUtlArray<ikcontextikrule_t,CUtlMemory<ikcontextikrule_t,int> >,int>::Base
	mov	esp, ebp
	pop	ebp
	ret	0
?Base@?$CUtlArray@V?$CUtlArray@Uikcontextikrule_t@@V?$CUtlMemory@Uikcontextikrule_t@@H@@@@V?$CUtlMemory@V?$CUtlArray@Uikcontextikrule_t@@V?$CUtlMemory@Uikcontextikrule_t@@H@@@@H@@@@QAEPAV?$CUtlArray@Uikcontextikrule_t@@V?$CUtlMemory@Uikcontextikrule_t@@H@@@@XZ ENDP ; CUtlArray<CUtlArray<ikcontextikrule_t,CUtlMemory<ikcontextikrule_t,int> >,CUtlMemory<CUtlArray<ikcontextikrule_t,CUtlMemory<ikcontextikrule_t,int> >,int> >::Base
_TEXT	ENDS
; Function compile flags: /Odtp
; File c:\users\user\downloads\xashxt_v0.81_rev.1_with_sources\xashxt_v0.81_rev.1_src\game_shared\utlarray.h
;	COMDAT ?Element@?$CUtlArray@V?$CUtlArray@Uikcontextikrule_t@@V?$CUtlMemory@Uikcontextikrule_t@@H@@@@V?$CUtlMemory@V?$CUtlArray@Uikcontextikrule_t@@V?$CUtlMemory@Uikcontextikrule_t@@H@@@@H@@@@QAEAAV?$CUtlArray@Uikcontextikrule_t@@V?$CUtlMemory@Uikcontextikrule_t@@H@@@@H@Z
_TEXT	SEGMENT
_this$ = -4						; size = 4
_i$ = 8							; size = 4
?Element@?$CUtlArray@V?$CUtlArray@Uikcontextikrule_t@@V?$CUtlMemory@Uikcontextikrule_t@@H@@@@V?$CUtlMemory@V?$CUtlArray@Uikcontextikrule_t@@V?$CUtlMemory@Uikcontextikrule_t@@H@@@@H@@@@QAEAAV?$CUtlArray@Uikcontextikrule_t@@V?$CUtlMemory@Uikcontextikrule_t@@H@@@@H@Z PROC ; CUtlArray<CUtlArray<ikcontextikrule_t,CUtlMemory<ikcontextikrule_t,int> >,CUtlMemory<CUtlArray<ikcontextikrule_t,CUtlMemory<ikcontextikrule_t,int> >,int> >::Element, COMDAT
; _this$ = ecx

; 294  : {

	push	ebp
	mov	ebp, esp
	push	ecx
	mov	DWORD PTR _this$[ebp], ecx

; 295  : 	return m_Memory[ i ];

	mov	eax, DWORD PTR _i$[ebp]
	push	eax
	mov	ecx, DWORD PTR _this$[ebp]
	call	??A?$CUtlMemory@V?$CUtlArray@Uikcontextikrule_t@@V?$CUtlMemory@Uikcontextikrule_t@@H@@@@H@@QAEAAV?$CUtlArray@Uikcontextikrule_t@@V?$CUtlMemory@Uikcontextikrule_t@@H@@@@H@Z ; CUtlMemory<CUtlArray<ikcontextikrule_t,CUtlMemory<ikcontextikrule_t,int> >,int>::operator[]

; 296  : }

	mov	esp, ebp
	pop	ebp
	ret	4
?Element@?$CUtlArray@V?$CUtlArray@Uikcontextikrule_t@@V?$CUtlMemory@Uikcontextikrule_t@@H@@@@V?$CUtlMemory@V?$CUtlArray@Uikcontextikrule_t@@V?$CUtlMemory@Uikcontextikrule_t@@H@@@@H@@@@QAEAAV?$CUtlArray@Uikcontextikrule_t@@V?$CUtlMemory@Uikcontextikrule_t@@H@@@@H@Z ENDP ; CUtlArray<CUtlArray<ikcontextikrule_t,CUtlMemory<ikcontextikrule_t,int> >,CUtlMemory<CUtlArray<ikcontextikrule_t,CUtlMemory<ikcontextikrule_t,int> >,int> >::Element
_TEXT	ENDS
; Function compile flags: /Odtp
; File c:\users\user\downloads\xashxt_v0.81_rev.1_with_sources\xashxt_v0.81_rev.1_src\game_shared\utlarray.h
;	COMDAT ??1?$CUtlArray@V?$CUtlArray@Uikcontextikrule_t@@V?$CUtlMemory@Uikcontextikrule_t@@H@@@@V?$CUtlMemory@V?$CUtlArray@Uikcontextikrule_t@@V?$CUtlMemory@Uikcontextikrule_t@@H@@@@H@@@@QAE@XZ
_TEXT	SEGMENT
_this$ = -16						; size = 4
__$EHRec$ = -12						; size = 12
??1?$CUtlArray@V?$CUtlArray@Uikcontextikrule_t@@V?$CUtlMemory@Uikcontextikrule_t@@H@@@@V?$CUtlMemory@V?$CUtlArray@Uikcontextikrule_t@@V?$CUtlMemory@Uikcontextikrule_t@@H@@@@H@@@@QAE@XZ PROC ; CUtlArray<CUtlArray<ikcontextikrule_t,CUtlMemory<ikcontextikrule_t,int> >,CUtlMemory<CUtlArray<ikcontextikrule_t,CUtlMemory<ikcontextikrule_t,int> >,int> >::~CUtlArray<CUtlArray<ikcontextikrule_t,CUtlMemory<ikcontextikrule_t,int> >,CUtlMemory<CUtlArray<ikcontextikrule_t,CUtlMemory<ikcontextikrule_t,int> >,int> >, COMDAT
; _this$ = ecx

; 260  : {

	push	ebp
	mov	ebp, esp
	push	-1
	push	__ehhandler$??1?$CUtlArray@V?$CUtlArray@Uikcontextikrule_t@@V?$CUtlMemory@Uikcontextikrule_t@@H@@@@V?$CUtlMemory@V?$CUtlArray@Uikcontextikrule_t@@V?$CUtlMemory@Uikcontextikrule_t@@H@@@@H@@@@QAE@XZ
	mov	eax, DWORD PTR fs:0
	push	eax
	push	ecx
	mov	eax, DWORD PTR ___security_cookie
	xor	eax, ebp
	push	eax
	lea	eax, DWORD PTR __$EHRec$[ebp]
	mov	DWORD PTR fs:0, eax
	mov	DWORD PTR _this$[ebp], ecx

; 261  : 	Purge();

	mov	ecx, DWORD PTR _this$[ebp]
	call	?Purge@?$CUtlArray@V?$CUtlArray@Uikcontextikrule_t@@V?$CUtlMemory@Uikcontextikrule_t@@H@@@@V?$CUtlMemory@V?$CUtlArray@Uikcontextikrule_t@@V?$CUtlMemory@Uikcontextikrule_t@@H@@@@H@@@@QAEXXZ ; CUtlArray<CUtlArray<ikcontextikrule_t,CUtlMemory<ikcontextikrule_t,int> >,CUtlMemory<CUtlArray<ikcontextikrule_t,CUtlMemory<ikcontextikrule_t,int> >,int> >::Purge

; 262  : }

	mov	ecx, DWORD PTR _this$[ebp]
	call	??1?$CUtlMemory@V?$CUtlArray@Uikcontextikrule_t@@V?$CUtlMemory@Uikcontextikrule_t@@H@@@@H@@QAE@XZ ; CUtlMemory<CUtlArray<ikcontextikrule_t,CUtlMemory<ikcontextikrule_t,int> >,int>::~CUtlMemory<CUtlArray<ikcontextikrule_t,CUtlMemory<ikcontextikrule_t,int> >,int>
	mov	ecx, DWORD PTR __$EHRec$[ebp]
	mov	DWORD PTR fs:0, ecx
	pop	ecx
	mov	esp, ebp
	pop	ebp
	ret	0
_TEXT	ENDS
;	COMDAT text$x
text$x	SEGMENT
__ehhandler$??1?$CUtlArray@V?$CUtlArray@Uikcontextikrule_t@@V?$CUtlMemory@Uikcontextikrule_t@@H@@@@V?$CUtlMemory@V?$CUtlArray@Uikcontextikrule_t@@V?$CUtlMemory@Uikcontextikrule_t@@H@@@@H@@@@QAE@XZ:
	mov	edx, DWORD PTR [esp+8]
	lea	eax, DWORD PTR [edx+12]
	mov	ecx, DWORD PTR [edx-8]
	xor	ecx, eax
	call	@__security_check_cookie@4
	mov	eax, OFFSET __ehfuncinfo$??1?$CUtlArray@V?$CUtlArray@Uikcontextikrule_t@@V?$CUtlMemory@Uikcontextikrule_t@@H@@@@V?$CUtlMemory@V?$CUtlArray@Uikcontextikrule_t@@V?$CUtlMemory@Uikcontextikrule_t@@H@@@@H@@@@QAE@XZ
	jmp	___CxxFrameHandler3
text$x	ENDS
??1?$CUtlArray@V?$CUtlArray@Uikcontextikrule_t@@V?$CUtlMemory@Uikcontextikrule_t@@H@@@@V?$CUtlMemory@V?$CUtlArray@Uikcontextikrule_t@@V?$CUtlMemory@Uikcontextikrule_t@@H@@@@H@@@@QAE@XZ ENDP ; CUtlArray<CUtlArray<ikcontextikrule_t,CUtlMemory<ikcontextikrule_t,int> >,CUtlMemory<CUtlArray<ikcontextikrule_t,CUtlMemory<ikcontextikrule_t,int> >,int> >::~CUtlArray<CUtlArray<ikcontextikrule_t,CUtlMemory<ikcontextikrule_t,int> >,CUtlMemory<CUtlArray<ikcontextikrule_t,CUtlMemory<ikcontextikrule_t,int> >,int> >
; Function compile flags: /Odtp
; File c:\users\user\downloads\xashxt_v0.81_rev.1_with_sources\xashxt_v0.81_rev.1_src\game_shared\utlarray.h
;	COMDAT ??0?$CUtlArray@V?$CUtlArray@Uikcontextikrule_t@@V?$CUtlMemory@Uikcontextikrule_t@@H@@@@V?$CUtlMemory@V?$CUtlArray@Uikcontextikrule_t@@V?$CUtlMemory@Uikcontextikrule_t@@H@@@@H@@@@QAE@HH@Z
_TEXT	SEGMENT
_this$ = -16						; size = 4
__$EHRec$ = -12						; size = 12
_growSize$ = 8						; size = 4
_initSize$ = 12						; size = 4
??0?$CUtlArray@V?$CUtlArray@Uikcontextikrule_t@@V?$CUtlMemory@Uikcontextikrule_t@@H@@@@V?$CUtlMemory@V?$CUtlArray@Uikcontextikrule_t@@V?$CUtlMemory@Uikcontextikrule_t@@H@@@@H@@@@QAE@HH@Z PROC ; CUtlArray<CUtlArray<ikcontextikrule_t,CUtlMemory<ikcontextikrule_t,int> >,CUtlMemory<CUtlArray<ikcontextikrule_t,CUtlMemory<ikcontextikrule_t,int> >,int> >::CUtlArray<CUtlArray<ikcontextikrule_t,CUtlMemory<ikcontextikrule_t,int> >,CUtlMemory<CUtlArray<ikcontextikrule_t,CUtlMemory<ikcontextikrule_t,int> >,int> >, COMDAT
; _this$ = ecx

; 247  : {

	push	ebp
	mov	ebp, esp
	push	-1
	push	__ehhandler$??0?$CUtlArray@V?$CUtlArray@Uikcontextikrule_t@@V?$CUtlMemory@Uikcontextikrule_t@@H@@@@V?$CUtlMemory@V?$CUtlArray@Uikcontextikrule_t@@V?$CUtlMemory@Uikcontextikrule_t@@H@@@@H@@@@QAE@HH@Z
	mov	eax, DWORD PTR fs:0
	push	eax
	push	ecx
	mov	eax, DWORD PTR ___security_cookie
	xor	eax, ebp
	push	eax
	lea	eax, DWORD PTR __$EHRec$[ebp]
	mov	DWORD PTR fs:0, eax
	mov	DWORD PTR _this$[ebp], ecx

; 246  : 	m_Memory(growSize, initSize), m_Size(0)

	mov	eax, DWORD PTR _initSize$[ebp]
	push	eax
	mov	ecx, DWORD PTR _growSize$[ebp]
	push	ecx
	mov	ecx, DWORD PTR _this$[ebp]
	call	??0?$CUtlMemory@V?$CUtlArray@Uikcontextikrule_t@@V?$CUtlMemory@Uikcontextikrule_t@@H@@@@H@@QAE@HH@Z ; CUtlMemory<CUtlArray<ikcontextikrule_t,CUtlMemory<ikcontextikrule_t,int> >,int>::CUtlMemory<CUtlArray<ikcontextikrule_t,CUtlMemory<ikcontextikrule_t,int> >,int>
	mov	DWORD PTR __$EHRec$[ebp+8], 0
	mov	edx, DWORD PTR _this$[ebp]
	mov	DWORD PTR [edx+12], 0

; 248  : 	ResetDbgInfo();

	mov	ecx, DWORD PTR _this$[ebp]
	call	?ResetDbgInfo@?$CUtlArray@V?$CUtlArray@Uikcontextikrule_t@@V?$CUtlMemory@Uikcontextikrule_t@@H@@@@V?$CUtlMemory@V?$CUtlArray@Uikcontextikrule_t@@V?$CUtlMemory@Uikcontextikrule_t@@H@@@@H@@@@IAEXXZ ; CUtlArray<CUtlArray<ikcontextikrule_t,CUtlMemory<ikcontextikrule_t,int> >,CUtlMemory<CUtlArray<ikcontextikrule_t,CUtlMemory<ikcontextikrule_t,int> >,int> >::ResetDbgInfo

; 249  : }

	mov	DWORD PTR __$EHRec$[ebp+8], -1
	mov	eax, DWORD PTR _this$[ebp]
	mov	ecx, DWORD PTR __$EHRec$[ebp]
	mov	DWORD PTR fs:0, ecx
	pop	ecx
	mov	esp, ebp
	pop	ebp
	ret	8
_TEXT	ENDS
;	COMDAT text$x
text$x	SEGMENT
__unwindfunclet$??0?$CUtlArray@V?$CUtlArray@Uikcontextikrule_t@@V?$CUtlMemory@Uikcontextikrule_t@@H@@@@V?$CUtlMemory@V?$CUtlArray@Uikcontextikrule_t@@V?$CUtlMemory@Uikcontextikrule_t@@H@@@@H@@@@QAE@HH@Z$0:
	mov	ecx, DWORD PTR _this$[ebp]
	jmp	??1?$CUtlMemory@V?$CUtlArray@Uikcontextikrule_t@@V?$CUtlMemory@Uikcontextikrule_t@@H@@@@H@@QAE@XZ ; CUtlMemory<CUtlArray<ikcontextikrule_t,CUtlMemory<ikcontextikrule_t,int> >,int>::~CUtlMemory<CUtlArray<ikcontextikrule_t,CUtlMemory<ikcontextikrule_t,int> >,int>
__ehhandler$??0?$CUtlArray@V?$CUtlArray@Uikcontextikrule_t@@V?$CUtlMemory@Uikcontextikrule_t@@H@@@@V?$CUtlMemory@V?$CUtlArray@Uikcontextikrule_t@@V?$CUtlMemory@Uikcontextikrule_t@@H@@@@H@@@@QAE@HH@Z:
	mov	edx, DWORD PTR [esp+8]
	lea	eax, DWORD PTR [edx+12]
	mov	ecx, DWORD PTR [edx-8]
	xor	ecx, eax
	call	@__security_check_cookie@4
	mov	eax, OFFSET __ehfuncinfo$??0?$CUtlArray@V?$CUtlArray@Uikcontextikrule_t@@V?$CUtlMemory@Uikcontextikrule_t@@H@@@@V?$CUtlMemory@V?$CUtlArray@Uikcontextikrule_t@@V?$CUtlMemory@Uikcontextikrule_t@@H@@@@H@@@@QAE@HH@Z
	jmp	___CxxFrameHandler3
text$x	ENDS
??0?$CUtlArray@V?$CUtlArray@Uikcontextikrule_t@@V?$CUtlMemory@Uikcontextikrule_t@@H@@@@V?$CUtlMemory@V?$CUtlArray@Uikcontextikrule_t@@V?$CUtlMemory@Uikcontextikrule_t@@H@@@@H@@@@QAE@HH@Z ENDP ; CUtlArray<CUtlArray<ikcontextikrule_t,CUtlMemory<ikcontextikrule_t,int> >,CUtlMemory<CUtlArray<ikcontextikrule_t,CUtlMemory<ikcontextikrule_t,int> >,int> >::CUtlArray<CUtlArray<ikcontextikrule_t,CUtlMemory<ikcontextikrule_t,int> >,CUtlMemory<CUtlArray<ikcontextikrule_t,CUtlMemory<ikcontextikrule_t,int> >,int> >
; Function compile flags: /Odtp
; File c:\users\user\downloads\xashxt_v0.81_rev.1_with_sources\xashxt_v0.81_rev.1_src\game_shared\ikcontext.cpp
_TEXT	SEGMENT
_this$ = -4						; size = 4
_pos$ = 8						; size = 4
_q$ = 12						; size = 4
_iBone$ = 16						; size = 4
_pBoneToWorld$ = 20					; size = 4
_pBoneSet$ = 24						; size = 4
?BuildBoneChain@CIKContext@@AAEXQBVVector@@QBVVector4D@@HPAVmatrix3x4@@PAE@Z PROC ; CIKContext::BuildBoneChain
; _this$ = ecx

; 257  : {

	push	ebp
	mov	ebp, esp
	push	ecx
	mov	DWORD PTR _this$[ebp], ecx

; 258  : 	m_pBoneSetup->BuildBoneChain( m_rootxform, pos, q, iBone, pBoneToWorld, pBoneSet );

	mov	eax, DWORD PTR _pBoneSet$[ebp]
	push	eax
	mov	ecx, DWORD PTR _pBoneToWorld$[ebp]
	push	ecx
	mov	edx, DWORD PTR _iBone$[ebp]
	push	edx
	mov	eax, DWORD PTR _q$[ebp]
	push	eax
	mov	ecx, DWORD PTR _pos$[ebp]
	push	ecx
	mov	edx, DWORD PTR _this$[ebp]
	add	edx, 4084				; 00000ff4H
	push	edx
	mov	eax, DWORD PTR _this$[ebp]
	mov	ecx, DWORD PTR [eax+4040]
	call	?BuildBoneChain@CStudioBoneSetup@@AAEXABVmatrix3x4@@QBVVector@@QBVVector4D@@HPAV2@PAE@Z ; CStudioBoneSetup::BuildBoneChain

; 259  : }

	mov	esp, ebp
	pop	ebp
	ret	20					; 00000014H
?BuildBoneChain@CIKContext@@AAEXQBVVector@@QBVVector4D@@HPAVmatrix3x4@@PAE@Z ENDP ; CIKContext::BuildBoneChain
_TEXT	ENDS
; Function compile flags: /Odtp
;	COMDAT ??1?$CUtlArrayFixed@VCIKTarget@@$0M@@@QAE@XZ
_TEXT	SEGMENT
_this$ = -4						; size = 4
??1?$CUtlArrayFixed@VCIKTarget@@$0M@@@QAE@XZ PROC	; CUtlArrayFixed<CIKTarget,12>::~CUtlArrayFixed<CIKTarget,12>, COMDAT
; _this$ = ecx
	push	ebp
	mov	ebp, esp
	push	ecx
	mov	DWORD PTR _this$[ebp], ecx
	mov	ecx, DWORD PTR _this$[ebp]
	call	??1?$CUtlArray@VCIKTarget@@V?$CUtlMemoryFixed@VCIKTarget@@$0M@$0A@@@@@QAE@XZ ; CUtlArray<CIKTarget,CUtlMemoryFixed<CIKTarget,12,0> >::~CUtlArray<CIKTarget,CUtlMemoryFixed<CIKTarget,12,0> >
	mov	esp, ebp
	pop	ebp
	ret	0
??1?$CUtlArrayFixed@VCIKTarget@@$0M@@@QAE@XZ ENDP	; CUtlArrayFixed<CIKTarget,12>::~CUtlArrayFixed<CIKTarget,12>
_TEXT	ENDS
; Function compile flags: /Odtp
; File c:\users\user\downloads\xashxt_v0.81_rev.1_with_sources\xashxt_v0.81_rev.1_src\game_shared\utlarray.h
;	COMDAT ??0?$CUtlArrayFixed@VCIKTarget@@$0M@@@QAE@HH@Z
_TEXT	SEGMENT
_this$ = -4						; size = 4
_growSize$ = 8						; size = 4
_initSize$ = 12						; size = 4
??0?$CUtlArrayFixed@VCIKTarget@@$0M@@@QAE@HH@Z PROC	; CUtlArrayFixed<CIKTarget,12>::CUtlArrayFixed<CIKTarget,12>, COMDAT
; _this$ = ecx

; 204  : 	CUtlArrayFixed( int growSize = 0, int initSize = 0 ) : BaseClass( growSize, initSize ) {}

	push	ebp
	mov	ebp, esp
	push	ecx
	mov	DWORD PTR _this$[ebp], ecx
	mov	eax, DWORD PTR _initSize$[ebp]
	push	eax
	mov	ecx, DWORD PTR _growSize$[ebp]
	push	ecx
	mov	ecx, DWORD PTR _this$[ebp]
	call	??0?$CUtlArray@VCIKTarget@@V?$CUtlMemoryFixed@VCIKTarget@@$0M@$0A@@@@@QAE@HH@Z ; CUtlArray<CIKTarget,CUtlMemoryFixed<CIKTarget,12,0> >::CUtlArray<CIKTarget,CUtlMemoryFixed<CIKTarget,12,0> >
	mov	eax, DWORD PTR _this$[ebp]
	mov	esp, ebp
	pop	ebp
	ret	8
??0?$CUtlArrayFixed@VCIKTarget@@$0M@@@QAE@HH@Z ENDP	; CUtlArrayFixed<CIKTarget,12>::CUtlArrayFixed<CIKTarget,12>
_TEXT	ENDS
; Function compile flags: /Odtp
; File c:\users\user\downloads\xashxt_v0.81_rev.1_with_sources\xashxt_v0.81_rev.1_src\game_shared\utlarray.h
;	COMDAT ?ResetDbgInfo@?$CUtlArray@VCIKTarget@@V?$CUtlMemoryFixed@VCIKTarget@@$0M@$0A@@@@@IAEXXZ
_TEXT	SEGMENT
_this$ = -4						; size = 4
?ResetDbgInfo@?$CUtlArray@VCIKTarget@@V?$CUtlMemoryFixed@VCIKTarget@@$0M@$0A@@@@@IAEXXZ PROC ; CUtlArray<CIKTarget,CUtlMemoryFixed<CIKTarget,12,0> >::ResetDbgInfo, COMDAT
; _this$ = ecx

; 160  : 	{

	push	ebp
	mov	ebp, esp
	push	ecx
	mov	DWORD PTR _this$[ebp], ecx

; 161  : 		m_pElements = Base();

	mov	ecx, DWORD PTR _this$[ebp]
	call	?Base@?$CUtlArray@VCIKTarget@@V?$CUtlMemoryFixed@VCIKTarget@@$0M@$0A@@@@@QAEPAVCIKTarget@@XZ ; CUtlArray<CIKTarget,CUtlMemoryFixed<CIKTarget,12,0> >::Base
	mov	ecx, DWORD PTR _this$[ebp]
	mov	DWORD PTR [ecx+4036], eax

; 162  : 	}

	mov	esp, ebp
	pop	ebp
	ret	0
?ResetDbgInfo@?$CUtlArray@VCIKTarget@@V?$CUtlMemoryFixed@VCIKTarget@@$0M@$0A@@@@@IAEXXZ ENDP ; CUtlArray<CIKTarget,CUtlMemoryFixed<CIKTarget,12,0> >::ResetDbgInfo
_TEXT	ENDS
; Function compile flags: /Odtp
; File c:\users\user\downloads\xashxt_v0.81_rev.1_with_sources\xashxt_v0.81_rev.1_src\game_shared\utlmemory.h
;	COMDAT ?Purge@?$CUtlMemoryFixed@VCIKTarget@@$0M@$0A@@@QAEXXZ
_TEXT	SEGMENT
_this$ = -4						; size = 4
?Purge@?$CUtlMemoryFixed@VCIKTarget@@$0M@$0A@@@QAEXXZ PROC ; CUtlMemoryFixed<CIKTarget,12,0>::Purge, COMDAT
; _this$ = ecx

; 258  : 	void Purge()											{}

	push	ebp
	mov	ebp, esp
	push	ecx
	mov	DWORD PTR _this$[ebp], ecx
	mov	esp, ebp
	pop	ebp
	ret	0
?Purge@?$CUtlMemoryFixed@VCIKTarget@@$0M@$0A@@@QAEXXZ ENDP ; CUtlMemoryFixed<CIKTarget,12,0>::Purge
_TEXT	ENDS
; Function compile flags: /Odtp
; File c:\users\user\downloads\xashxt_v0.81_rev.1_with_sources\xashxt_v0.81_rev.1_src\game_shared\utlmemory.h
;	COMDAT ?EnsureCapacity@?$CUtlMemoryFixed@VCIKTarget@@$0M@$0A@@@QAEXH@Z
_TEXT	SEGMENT
_this$ = -4						; size = 4
_num$ = 8						; size = 4
?EnsureCapacity@?$CUtlMemoryFixed@VCIKTarget@@$0M@$0A@@@QAEXH@Z PROC ; CUtlMemoryFixed<CIKTarget,12,0>::EnsureCapacity, COMDAT
; _this$ = ecx

; 255  : 	void EnsureCapacity( int num )							{ assert( num <= SIZE ); }

	push	ebp
	mov	ebp, esp
	push	ecx
	mov	DWORD PTR _this$[ebp], ecx
	cmp	DWORD PTR _num$[ebp], 12		; 0000000cH
	jbe	SHORT $LN1@EnsureCapa
	push	255					; 000000ffH
	push	OFFSET ??_C@_1MO@LCPOAHHB@?$AAc?$AA?3?$AA?2?$AAu?$AAs?$AAe?$AAr?$AAs?$AA?2?$AAu?$AAs?$AAe?$AAr?$AA?2?$AAd@
	push	OFFSET ??_C@_1BI@LFLBADNE@?$AAn?$AAu?$AAm?$AA?5?$AA?$DM?$AA?$DN?$AA?5?$AAS?$AAI?$AAZ?$AAE@
	call	__wassert
	add	esp, 12					; 0000000cH
$LN1@EnsureCapa:
	mov	esp, ebp
	pop	ebp
	ret	4
?EnsureCapacity@?$CUtlMemoryFixed@VCIKTarget@@$0M@$0A@@@QAEXH@Z ENDP ; CUtlMemoryFixed<CIKTarget,12,0>::EnsureCapacity
_TEXT	ENDS
; Function compile flags: /Odtp
; File c:\users\user\downloads\xashxt_v0.81_rev.1_with_sources\xashxt_v0.81_rev.1_src\game_shared\utlmemory.h
;	COMDAT ?Grow@?$CUtlMemoryFixed@VCIKTarget@@$0M@$0A@@@QAEXH@Z
_TEXT	SEGMENT
_this$ = -4						; size = 4
_num$ = 8						; size = 4
?Grow@?$CUtlMemoryFixed@VCIKTarget@@$0M@$0A@@@QAEXH@Z PROC ; CUtlMemoryFixed<CIKTarget,12,0>::Grow, COMDAT
; _this$ = ecx

; 252  : 	void Grow( int num = 1 )								{ assert( 0 ); }

	push	ebp
	mov	ebp, esp
	push	ecx
	mov	DWORD PTR _this$[ebp], ecx
	xor	eax, eax
	jne	SHORT $LN1@Grow
	push	252					; 000000fcH
	push	OFFSET ??_C@_1MO@LCPOAHHB@?$AAc?$AA?3?$AA?2?$AAu?$AAs?$AAe?$AAr?$AAs?$AA?2?$AAu?$AAs?$AAe?$AAr?$AA?2?$AAd@
	push	OFFSET ??_C@_13COJANIEC@?$AA0@
	call	__wassert
	add	esp, 12					; 0000000cH
$LN1@Grow:
	mov	esp, ebp
	pop	ebp
	ret	4
?Grow@?$CUtlMemoryFixed@VCIKTarget@@$0M@$0A@@@QAEXH@Z ENDP ; CUtlMemoryFixed<CIKTarget,12,0>::Grow
_TEXT	ENDS
; Function compile flags: /Odtp
; File c:\users\user\downloads\xashxt_v0.81_rev.1_with_sources\xashxt_v0.81_rev.1_src\game_shared\utlmemory.h
;	COMDAT ?NumAllocated@?$CUtlMemoryFixed@VCIKTarget@@$0M@$0A@@@QBEHXZ
_TEXT	SEGMENT
_this$ = -4						; size = 4
?NumAllocated@?$CUtlMemoryFixed@VCIKTarget@@$0M@$0A@@@QBEHXZ PROC ; CUtlMemoryFixed<CIKTarget,12,0>::NumAllocated, COMDAT
; _this$ = ecx

; 248  : 	int NumAllocated() const								{ return SIZE; }

	push	ebp
	mov	ebp, esp
	push	ecx
	mov	DWORD PTR _this$[ebp], ecx
	mov	eax, 12					; 0000000cH
	mov	esp, ebp
	pop	ebp
	ret	0
?NumAllocated@?$CUtlMemoryFixed@VCIKTarget@@$0M@$0A@@@QBEHXZ ENDP ; CUtlMemoryFixed<CIKTarget,12,0>::NumAllocated
_TEXT	ENDS
; Function compile flags: /Odtp
; File c:\users\user\downloads\xashxt_v0.81_rev.1_with_sources\xashxt_v0.81_rev.1_src\game_shared\utlmemory.h
;	COMDAT ??A?$CUtlMemoryFixed@VCIKTarget@@$0M@$0A@@@QAEAAVCIKTarget@@H@Z
_TEXT	SEGMENT
_this$ = -4						; size = 4
_i$ = 8							; size = 4
??A?$CUtlMemoryFixed@VCIKTarget@@$0M@$0A@@@QAEAAVCIKTarget@@H@Z PROC ; CUtlMemoryFixed<CIKTarget,12,0>::operator[], COMDAT
; _this$ = ecx

; 239  : 	T& operator[]( int i )									{ assert( IsIdxValid(i) ); return Base()[i];	}

	push	ebp
	mov	ebp, esp
	push	ecx
	mov	DWORD PTR _this$[ebp], ecx
	mov	eax, DWORD PTR _i$[ebp]
	push	eax
	mov	ecx, DWORD PTR _this$[ebp]
	call	?IsIdxValid@?$CUtlMemoryFixed@VCIKTarget@@$0M@$0A@@@QBE_NH@Z ; CUtlMemoryFixed<CIKTarget,12,0>::IsIdxValid
	movzx	ecx, al
	test	ecx, ecx
	jne	SHORT $LN3@operator
	push	239					; 000000efH
	push	OFFSET ??_C@_1MO@LCPOAHHB@?$AAc?$AA?3?$AA?2?$AAu?$AAs?$AAe?$AAr?$AAs?$AA?2?$AAu?$AAs?$AAe?$AAr?$AA?2?$AAd@
	push	OFFSET ??_C@_1BM@CKILBAKK@?$AAI?$AAs?$AAI?$AAd?$AAx?$AAV?$AAa?$AAl?$AAi?$AAd?$AA?$CI?$AAi?$AA?$CJ@
	call	__wassert
	add	esp, 12					; 0000000cH
$LN3@operator:
	mov	ecx, DWORD PTR _this$[ebp]
	call	?Base@?$CUtlMemoryFixed@VCIKTarget@@$0M@$0A@@@QAEPAVCIKTarget@@XZ ; CUtlMemoryFixed<CIKTarget,12,0>::Base
	imul	ecx, DWORD PTR _i$[ebp], 336
	add	eax, ecx
	mov	esp, ebp
	pop	ebp
	ret	4
??A?$CUtlMemoryFixed@VCIKTarget@@$0M@$0A@@@QAEAAVCIKTarget@@H@Z ENDP ; CUtlMemoryFixed<CIKTarget,12,0>::operator[]
_TEXT	ENDS
; Function compile flags: /Odtp
; File c:\users\user\downloads\xashxt_v0.81_rev.1_with_sources\xashxt_v0.81_rev.1_src\game_shared\utlmemory.h
;	COMDAT ?Base@?$CUtlMemoryFixed@VCIKTarget@@$0M@$0A@@@QAEPAVCIKTarget@@XZ
_TEXT	SEGMENT
_this$ = -4						; size = 4
?Base@?$CUtlMemoryFixed@VCIKTarget@@$0M@$0A@@@QAEPAVCIKTarget@@XZ PROC ; CUtlMemoryFixed<CIKTarget,12,0>::Base, COMDAT
; _this$ = ecx

; 235  : 	T* Base()												{ if ( nAlignment == 0 ) return (T*)(&m_Memory[0]); else return (T*)AlignValue( &m_Memory[0], nAlignment ); }

	push	ebp
	mov	ebp, esp
	push	ecx
	mov	DWORD PTR _this$[ebp], ecx
	mov	eax, 1
	test	eax, eax
	je	SHORT $LN2@Base
	mov	ecx, 1
	imul	eax, ecx, 0
	add	eax, DWORD PTR _this$[ebp]
	jmp	SHORT $LN1@Base
	jmp	SHORT $LN1@Base
$LN2@Base:
	push	0
	mov	edx, 1
	imul	eax, edx, 0
	add	eax, DWORD PTR _this$[ebp]
	push	eax
	call	??$AlignValue@PAD@@YAPADPADI@Z		; AlignValue<char *>
	add	esp, 8
$LN1@Base:
	mov	esp, ebp
	pop	ebp
	ret	0
?Base@?$CUtlMemoryFixed@VCIKTarget@@$0M@$0A@@@QAEPAVCIKTarget@@XZ ENDP ; CUtlMemoryFixed<CIKTarget,12,0>::Base
_TEXT	ENDS
; Function compile flags: /Odtp
; File c:\users\user\downloads\xashxt_v0.81_rev.1_with_sources\xashxt_v0.81_rev.1_src\game_shared\utlmemory.h
;	COMDAT ?IsIdxValid@?$CUtlMemoryFixed@VCIKTarget@@$0M@$0A@@@QBE_NH@Z
_TEXT	SEGMENT
_this$ = -8						; size = 4
tv66 = -4						; size = 4
_i$ = 8							; size = 4
?IsIdxValid@?$CUtlMemoryFixed@VCIKTarget@@$0M@$0A@@@QBE_NH@Z PROC ; CUtlMemoryFixed<CIKTarget,12,0>::IsIdxValid, COMDAT
; _this$ = ecx

; 231  : 	bool IsIdxValid( int i ) const							{ return (i >= 0) && (i < SIZE); }

	push	ebp
	mov	ebp, esp
	sub	esp, 8
	mov	DWORD PTR _this$[ebp], ecx
	cmp	DWORD PTR _i$[ebp], 0
	jl	SHORT $LN3@IsIdxValid
	cmp	DWORD PTR _i$[ebp], 12			; 0000000cH
	jae	SHORT $LN3@IsIdxValid
	mov	DWORD PTR tv66[ebp], 1
	jmp	SHORT $LN4@IsIdxValid
$LN3@IsIdxValid:
	mov	DWORD PTR tv66[ebp], 0
$LN4@IsIdxValid:
	mov	al, BYTE PTR tv66[ebp]
	mov	esp, ebp
	pop	ebp
	ret	4
?IsIdxValid@?$CUtlMemoryFixed@VCIKTarget@@$0M@$0A@@@QBE_NH@Z ENDP ; CUtlMemoryFixed<CIKTarget,12,0>::IsIdxValid
_TEXT	ENDS
; Function compile flags: /Odtp
; File c:\users\user\downloads\xashxt_v0.81_rev.1_with_sources\xashxt_v0.81_rev.1_src\game_shared\utlmemory.h
;	COMDAT ??0?$CUtlMemoryFixed@VCIKTarget@@$0M@$0A@@@QAE@HH@Z
_TEXT	SEGMENT
_this$ = -4						; size = 4
_nGrowSize$ = 8						; size = 4
_nInitSize$ = 12					; size = 4
??0?$CUtlMemoryFixed@VCIKTarget@@$0M@$0A@@@QAE@HH@Z PROC ; CUtlMemoryFixed<CIKTarget,12,0>::CUtlMemoryFixed<CIKTarget,12,0>, COMDAT
; _this$ = ecx

; 227  : 	CUtlMemoryFixed( int nGrowSize = 0, int nInitSize = 0 )	{ assert( nInitSize == 0 || nInitSize == SIZE ); 	}

	push	ebp
	mov	ebp, esp
	push	ecx
	mov	DWORD PTR _this$[ebp], ecx
	cmp	DWORD PTR _nInitSize$[ebp], 0
	je	SHORT $LN1@CUtlMemory
	cmp	DWORD PTR _nInitSize$[ebp], 12		; 0000000cH
	je	SHORT $LN1@CUtlMemory
	push	227					; 000000e3H
	push	OFFSET ??_C@_1MO@LCPOAHHB@?$AAc?$AA?3?$AA?2?$AAu?$AAs?$AAe?$AAr?$AAs?$AA?2?$AAu?$AAs?$AAe?$AAr?$AA?2?$AAd@
	push	OFFSET ??_C@_1EI@DONNOGGM@?$AAn?$AAI?$AAn?$AAi?$AAt?$AAS?$AAi?$AAz?$AAe?$AA?5?$AA?$DN?$AA?$DN?$AA?5?$AA0?$AA?5@
	call	__wassert
	add	esp, 12					; 0000000cH
$LN1@CUtlMemory:
	mov	eax, DWORD PTR _this$[ebp]
	mov	esp, ebp
	pop	ebp
	ret	8
??0?$CUtlMemoryFixed@VCIKTarget@@$0M@$0A@@@QAE@HH@Z ENDP ; CUtlMemoryFixed<CIKTarget,12,0>::CUtlMemoryFixed<CIKTarget,12,0>
_TEXT	ENDS
; Function compile flags: /Odtp
; File c:\users\user\downloads\xashxt_v0.81_rev.1_with_sources\xashxt_v0.81_rev.1_src\game_shared\utlarray.h
;	COMDAT ?ShiftElementsRight@?$CUtlArray@VCIKTarget@@V?$CUtlMemoryFixed@VCIKTarget@@$0M@$0A@@@@@IAEXHH@Z
_TEXT	SEGMENT
_numToMove$ = -8					; size = 4
_this$ = -4						; size = 4
_elem$ = 8						; size = 4
_num$ = 12						; size = 4
?ShiftElementsRight@?$CUtlArray@VCIKTarget@@V?$CUtlMemoryFixed@VCIKTarget@@$0M@$0A@@@@@IAEXHH@Z PROC ; CUtlArray<CIKTarget,CUtlMemoryFixed<CIKTarget,12,0> >::ShiftElementsRight, COMDAT
; _this$ = ecx

; 447  : {

	push	ebp
	mov	ebp, esp
	sub	esp, 8
	mov	DWORD PTR _this$[ebp], ecx

; 448  : 	assert( IsValidIndex(elem) || ( m_Size == 0 ) || ( num == 0 ));

	mov	eax, DWORD PTR _elem$[ebp]
	push	eax
	mov	ecx, DWORD PTR _this$[ebp]
	call	?IsValidIndex@?$CUtlArray@VCIKTarget@@V?$CUtlMemoryFixed@VCIKTarget@@$0M@$0A@@@@@QBE_NH@Z ; CUtlArray<CIKTarget,CUtlMemoryFixed<CIKTarget,12,0> >::IsValidIndex
	movzx	ecx, al
	test	ecx, ecx
	jne	SHORT $LN4@ShiftEleme
	mov	edx, DWORD PTR _this$[ebp]
	cmp	DWORD PTR [edx+4032], 0
	je	SHORT $LN4@ShiftEleme
	cmp	DWORD PTR _num$[ebp], 0
	je	SHORT $LN4@ShiftEleme
	push	448					; 000001c0H
	push	OFFSET $SG18168
	push	OFFSET $SG18169
	call	__wassert
	add	esp, 12					; 0000000cH
$LN4@ShiftEleme:

; 449  : 	int numToMove = m_Size - elem - num;

	mov	ecx, DWORD PTR _this$[ebp]
	mov	edx, DWORD PTR [ecx+4032]
	sub	edx, DWORD PTR _elem$[ebp]
	sub	edx, DWORD PTR _num$[ebp]
	mov	DWORD PTR _numToMove$[ebp], edx

; 450  : 	if ((numToMove > 0) && (num > 0))

	cmp	DWORD PTR _numToMove$[ebp], 0
	jle	SHORT $LN1@ShiftEleme
	cmp	DWORD PTR _num$[ebp], 0
	jle	SHORT $LN1@ShiftEleme

; 451  : 		memmove( &Element(elem+num), &Element(elem), numToMove * sizeof(T) );

	imul	eax, DWORD PTR _numToMove$[ebp], 336
	push	eax
	mov	ecx, DWORD PTR _elem$[ebp]
	push	ecx
	mov	ecx, DWORD PTR _this$[ebp]
	call	?Element@?$CUtlArray@VCIKTarget@@V?$CUtlMemoryFixed@VCIKTarget@@$0M@$0A@@@@@QAEAAVCIKTarget@@H@Z ; CUtlArray<CIKTarget,CUtlMemoryFixed<CIKTarget,12,0> >::Element
	push	eax
	mov	edx, DWORD PTR _elem$[ebp]
	add	edx, DWORD PTR _num$[ebp]
	push	edx
	mov	ecx, DWORD PTR _this$[ebp]
	call	?Element@?$CUtlArray@VCIKTarget@@V?$CUtlMemoryFixed@VCIKTarget@@$0M@$0A@@@@@QAEAAVCIKTarget@@H@Z ; CUtlArray<CIKTarget,CUtlMemoryFixed<CIKTarget,12,0> >::Element
	push	eax
	call	_memmove
	add	esp, 12					; 0000000cH
$LN1@ShiftEleme:

; 452  : }

	mov	esp, ebp
	pop	ebp
	ret	8
?ShiftElementsRight@?$CUtlArray@VCIKTarget@@V?$CUtlMemoryFixed@VCIKTarget@@$0M@$0A@@@@@IAEXHH@Z ENDP ; CUtlArray<CIKTarget,CUtlMemoryFixed<CIKTarget,12,0> >::ShiftElementsRight
_TEXT	ENDS
; Function compile flags: /Odtp
; File c:\users\user\downloads\xashxt_v0.81_rev.1_with_sources\xashxt_v0.81_rev.1_src\game_shared\utlarray.h
;	COMDAT ?GrowVector@?$CUtlArray@VCIKTarget@@V?$CUtlMemoryFixed@VCIKTarget@@$0M@$0A@@@@@IAEXH@Z
_TEXT	SEGMENT
_this$ = -4						; size = 4
_num$ = 8						; size = 4
?GrowVector@?$CUtlArray@VCIKTarget@@V?$CUtlMemoryFixed@VCIKTarget@@$0M@$0A@@@@@IAEXH@Z PROC ; CUtlArray<CIKTarget,CUtlMemoryFixed<CIKTarget,12,0> >::GrowVector, COMDAT
; _this$ = ecx

; 374  : {

	push	ebp
	mov	ebp, esp
	push	ecx
	push	esi
	mov	DWORD PTR _this$[ebp], ecx

; 375  : 	if (m_Size + num > m_Memory.NumAllocated())

	mov	eax, DWORD PTR _this$[ebp]
	mov	esi, DWORD PTR [eax+4032]
	add	esi, DWORD PTR _num$[ebp]
	mov	ecx, DWORD PTR _this$[ebp]
	call	?NumAllocated@?$CUtlMemoryFixed@VCIKTarget@@$0M@$0A@@@QBEHXZ ; CUtlMemoryFixed<CIKTarget,12,0>::NumAllocated
	cmp	esi, eax
	jle	SHORT $LN2@GrowVector

; 376  : 	{
; 377  : 		m_Memory.Grow( m_Size + num - m_Memory.NumAllocated() );

	mov	ecx, DWORD PTR _this$[ebp]
	mov	esi, DWORD PTR [ecx+4032]
	add	esi, DWORD PTR _num$[ebp]
	mov	ecx, DWORD PTR _this$[ebp]
	call	?NumAllocated@?$CUtlMemoryFixed@VCIKTarget@@$0M@$0A@@@QBEHXZ ; CUtlMemoryFixed<CIKTarget,12,0>::NumAllocated
	sub	esi, eax
	push	esi
	mov	ecx, DWORD PTR _this$[ebp]
	call	?Grow@?$CUtlMemoryFixed@VCIKTarget@@$0M@$0A@@@QAEXH@Z ; CUtlMemoryFixed<CIKTarget,12,0>::Grow
$LN2@GrowVector:

; 378  : 	}
; 379  : 
; 380  : 	m_Size += num;

	mov	edx, DWORD PTR _this$[ebp]
	mov	eax, DWORD PTR [edx+4032]
	add	eax, DWORD PTR _num$[ebp]
	mov	ecx, DWORD PTR _this$[ebp]
	mov	DWORD PTR [ecx+4032], eax

; 381  : 	ResetDbgInfo();

	mov	ecx, DWORD PTR _this$[ebp]
	call	?ResetDbgInfo@?$CUtlArray@VCIKTarget@@V?$CUtlMemoryFixed@VCIKTarget@@$0M@$0A@@@@@IAEXXZ ; CUtlArray<CIKTarget,CUtlMemoryFixed<CIKTarget,12,0> >::ResetDbgInfo

; 382  : }

	pop	esi
	mov	esp, ebp
	pop	ebp
	ret	4
?GrowVector@?$CUtlArray@VCIKTarget@@V?$CUtlMemoryFixed@VCIKTarget@@$0M@$0A@@@@@IAEXH@Z ENDP ; CUtlArray<CIKTarget,CUtlMemoryFixed<CIKTarget,12,0> >::GrowVector
_TEXT	ENDS
; Function compile flags: /Odtp
; File c:\users\user\downloads\xashxt_v0.81_rev.1_with_sources\xashxt_v0.81_rev.1_src\game_shared\utlarray.h
;	COMDAT ?Purge@?$CUtlArray@VCIKTarget@@V?$CUtlMemoryFixed@VCIKTarget@@$0M@$0A@@@@@QAEXXZ
_TEXT	SEGMENT
_this$ = -4						; size = 4
?Purge@?$CUtlArray@VCIKTarget@@V?$CUtlMemoryFixed@VCIKTarget@@$0M@$0A@@@@@QAEXXZ PROC ; CUtlArray<CIKTarget,CUtlMemoryFixed<CIKTarget,12,0> >::Purge, COMDAT
; _this$ = ecx

; 742  : {

	push	ebp
	mov	ebp, esp
	push	ecx
	mov	DWORD PTR _this$[ebp], ecx

; 743  : 	RemoveAll();

	mov	ecx, DWORD PTR _this$[ebp]
	call	?RemoveAll@?$CUtlArray@VCIKTarget@@V?$CUtlMemoryFixed@VCIKTarget@@$0M@$0A@@@@@QAEXXZ ; CUtlArray<CIKTarget,CUtlMemoryFixed<CIKTarget,12,0> >::RemoveAll

; 744  : 	m_Memory.Purge();

	mov	ecx, DWORD PTR _this$[ebp]
	call	?Purge@?$CUtlMemoryFixed@VCIKTarget@@$0M@$0A@@@QAEXXZ ; CUtlMemoryFixed<CIKTarget,12,0>::Purge

; 745  : 	ResetDbgInfo();

	mov	ecx, DWORD PTR _this$[ebp]
	call	?ResetDbgInfo@?$CUtlArray@VCIKTarget@@V?$CUtlMemoryFixed@VCIKTarget@@$0M@$0A@@@@@IAEXXZ ; CUtlArray<CIKTarget,CUtlMemoryFixed<CIKTarget,12,0> >::ResetDbgInfo

; 746  : }

	mov	esp, ebp
	pop	ebp
	ret	0
?Purge@?$CUtlArray@VCIKTarget@@V?$CUtlMemoryFixed@VCIKTarget@@$0M@$0A@@@@@QAEXXZ ENDP ; CUtlArray<CIKTarget,CUtlMemoryFixed<CIKTarget,12,0> >::Purge
_TEXT	ENDS
; Function compile flags: /Odtp
; File c:\users\user\downloads\xashxt_v0.81_rev.1_with_sources\xashxt_v0.81_rev.1_src\game_shared\utlarray.h
;	COMDAT ?RemoveAll@?$CUtlArray@VCIKTarget@@V?$CUtlMemoryFixed@VCIKTarget@@$0M@$0A@@@@@QAEXXZ
_TEXT	SEGMENT
_this$ = -8						; size = 4
_i$1 = -4						; size = 4
?RemoveAll@?$CUtlArray@VCIKTarget@@V?$CUtlMemoryFixed@VCIKTarget@@$0M@$0A@@@@@QAEXXZ PROC ; CUtlArray<CIKTarget,CUtlMemoryFixed<CIKTarget,12,0> >::RemoveAll, COMDAT
; _this$ = ecx

; 726  : {

	push	ebp
	mov	ebp, esp
	sub	esp, 8
	mov	DWORD PTR _this$[ebp], ecx

; 727  : 	for (int i = m_Size; --i >= 0; )

	mov	eax, DWORD PTR _this$[ebp]
	mov	ecx, DWORD PTR [eax+4032]
	mov	DWORD PTR _i$1[ebp], ecx
$LN4@RemoveAll:
	mov	edx, DWORD PTR _i$1[ebp]
	sub	edx, 1
	mov	DWORD PTR _i$1[ebp], edx
	js	SHORT $LN3@RemoveAll

; 728  : 	{
; 729  : 		Destruct(&Element(i));

	mov	eax, DWORD PTR _i$1[ebp]
	push	eax
	mov	ecx, DWORD PTR _this$[ebp]
	call	?Element@?$CUtlArray@VCIKTarget@@V?$CUtlMemoryFixed@VCIKTarget@@$0M@$0A@@@@@QAEAAVCIKTarget@@H@Z ; CUtlArray<CIKTarget,CUtlMemoryFixed<CIKTarget,12,0> >::Element
	push	eax
	call	??$Destruct@VCIKTarget@@@@YAXPAVCIKTarget@@@Z ; Destruct<CIKTarget>
	add	esp, 4

; 730  : 	}

	jmp	SHORT $LN4@RemoveAll
$LN3@RemoveAll:

; 731  : 
; 732  : 	m_Size = 0;

	mov	ecx, DWORD PTR _this$[ebp]
	mov	DWORD PTR [ecx+4032], 0

; 733  : }

	mov	esp, ebp
	pop	ebp
	ret	0
?RemoveAll@?$CUtlArray@VCIKTarget@@V?$CUtlMemoryFixed@VCIKTarget@@$0M@$0A@@@@@QAEXXZ ENDP ; CUtlArray<CIKTarget,CUtlMemoryFixed<CIKTarget,12,0> >::RemoveAll
_TEXT	ENDS
; Function compile flags: /Odtp
; File c:\users\user\downloads\xashxt_v0.81_rev.1_with_sources\xashxt_v0.81_rev.1_src\game_shared\utlarray.h
;	COMDAT ?EnsureCapacity@?$CUtlArray@VCIKTarget@@V?$CUtlMemoryFixed@VCIKTarget@@$0M@$0A@@@@@QAEXH@Z
_TEXT	SEGMENT
_this$ = -4						; size = 4
_num$ = 8						; size = 4
?EnsureCapacity@?$CUtlArray@VCIKTarget@@V?$CUtlMemoryFixed@VCIKTarget@@$0M@$0A@@@@@QAEXH@Z PROC ; CUtlArray<CIKTarget,CUtlMemoryFixed<CIKTarget,12,0> >::EnsureCapacity, COMDAT
; _this$ = ecx

; 425  : {

	push	ebp
	mov	ebp, esp
	push	ecx
	mov	DWORD PTR _this$[ebp], ecx

; 426  : 	m_Memory.EnsureCapacity(num);

	mov	eax, DWORD PTR _num$[ebp]
	push	eax
	mov	ecx, DWORD PTR _this$[ebp]
	call	?EnsureCapacity@?$CUtlMemoryFixed@VCIKTarget@@$0M@$0A@@@QAEXH@Z ; CUtlMemoryFixed<CIKTarget,12,0>::EnsureCapacity

; 427  : 	ResetDbgInfo();

	mov	ecx, DWORD PTR _this$[ebp]
	call	?ResetDbgInfo@?$CUtlArray@VCIKTarget@@V?$CUtlMemoryFixed@VCIKTarget@@$0M@$0A@@@@@IAEXXZ ; CUtlArray<CIKTarget,CUtlMemoryFixed<CIKTarget,12,0> >::ResetDbgInfo

; 428  : }

	mov	esp, ebp
	pop	ebp
	ret	4
?EnsureCapacity@?$CUtlArray@VCIKTarget@@V?$CUtlMemoryFixed@VCIKTarget@@$0M@$0A@@@@@QAEXH@Z ENDP ; CUtlArray<CIKTarget,CUtlMemoryFixed<CIKTarget,12,0> >::EnsureCapacity
_TEXT	ENDS
; Function compile flags: /Odtp
; File c:\users\user\downloads\xashxt_v0.81_rev.1_with_sources\xashxt_v0.81_rev.1_src\game_shared\utlarray.h
;	COMDAT ?SetCount@?$CUtlArray@VCIKTarget@@V?$CUtlMemoryFixed@VCIKTarget@@$0M@$0A@@@@@QAEXH@Z
_TEXT	SEGMENT
_this$ = -4						; size = 4
_count$ = 8						; size = 4
?SetCount@?$CUtlArray@VCIKTarget@@V?$CUtlMemoryFixed@VCIKTarget@@$0M@$0A@@@@@QAEXH@Z PROC ; CUtlArray<CIKTarget,CUtlMemoryFixed<CIKTarget,12,0> >::SetCount, COMDAT
; _this$ = ecx

; 574  : {

	push	ebp
	mov	ebp, esp
	push	ecx
	mov	DWORD PTR _this$[ebp], ecx

; 575  : 	RemoveAll();

	mov	ecx, DWORD PTR _this$[ebp]
	call	?RemoveAll@?$CUtlArray@VCIKTarget@@V?$CUtlMemoryFixed@VCIKTarget@@$0M@$0A@@@@@QAEXXZ ; CUtlArray<CIKTarget,CUtlMemoryFixed<CIKTarget,12,0> >::RemoveAll

; 576  : 	AddMultipleToTail( count );

	push	0
	mov	eax, DWORD PTR _count$[ebp]
	push	eax
	mov	ecx, DWORD PTR _this$[ebp]
	call	?AddMultipleToTail@?$CUtlArray@VCIKTarget@@V?$CUtlMemoryFixed@VCIKTarget@@$0M@$0A@@@@@QAEHHPBVCIKTarget@@@Z ; CUtlArray<CIKTarget,CUtlMemoryFixed<CIKTarget,12,0> >::AddMultipleToTail

; 577  : }

	mov	esp, ebp
	pop	ebp
	ret	4
?SetCount@?$CUtlArray@VCIKTarget@@V?$CUtlMemoryFixed@VCIKTarget@@$0M@$0A@@@@@QAEXH@Z ENDP ; CUtlArray<CIKTarget,CUtlMemoryFixed<CIKTarget,12,0> >::SetCount
_TEXT	ENDS
; Function compile flags: /Odtp
; File c:\users\user\downloads\xashxt_v0.81_rev.1_with_sources\xashxt_v0.81_rev.1_src\game_shared\utlarray.h
;	COMDAT ?SetSize@?$CUtlArray@VCIKTarget@@V?$CUtlMemoryFixed@VCIKTarget@@$0M@$0A@@@@@QAEXH@Z
_TEXT	SEGMENT
_this$ = -4						; size = 4
_size$ = 8						; size = 4
?SetSize@?$CUtlArray@VCIKTarget@@V?$CUtlMemoryFixed@VCIKTarget@@$0M@$0A@@@@@QAEXH@Z PROC ; CUtlArray<CIKTarget,CUtlMemoryFixed<CIKTarget,12,0> >::SetSize, COMDAT
; _this$ = ecx

; 581  : {

	push	ebp
	mov	ebp, esp
	push	ecx
	mov	DWORD PTR _this$[ebp], ecx

; 582  : 	SetCount( size );

	mov	eax, DWORD PTR _size$[ebp]
	push	eax
	mov	ecx, DWORD PTR _this$[ebp]
	call	?SetCount@?$CUtlArray@VCIKTarget@@V?$CUtlMemoryFixed@VCIKTarget@@$0M@$0A@@@@@QAEXH@Z ; CUtlArray<CIKTarget,CUtlMemoryFixed<CIKTarget,12,0> >::SetCount

; 583  : }

	mov	esp, ebp
	pop	ebp
	ret	4
?SetSize@?$CUtlArray@VCIKTarget@@V?$CUtlMemoryFixed@VCIKTarget@@$0M@$0A@@@@@QAEXH@Z ENDP ; CUtlArray<CIKTarget,CUtlMemoryFixed<CIKTarget,12,0> >::SetSize
_TEXT	ENDS
; Function compile flags: /Odtp
; File c:\users\user\downloads\xashxt_v0.81_rev.1_with_sources\xashxt_v0.81_rev.1_src\game_shared\utlarray.h
;	COMDAT ?InsertMultipleBefore@?$CUtlArray@VCIKTarget@@V?$CUtlMemoryFixed@VCIKTarget@@$0M@$0A@@@@@QAEHHHPBVCIKTarget@@@Z
_TEXT	SEGMENT
_i$1 = -12						; size = 4
_i$2 = -8						; size = 4
_this$ = -4						; size = 4
_elem$ = 8						; size = 4
_num$ = 12						; size = 4
_pToInsert$ = 16					; size = 4
?InsertMultipleBefore@?$CUtlArray@VCIKTarget@@V?$CUtlMemoryFixed@VCIKTarget@@$0M@$0A@@@@@QAEHHHPBVCIKTarget@@@Z PROC ; CUtlArray<CIKTarget,CUtlMemoryFixed<CIKTarget,12,0> >::InsertMultipleBefore, COMDAT
; _this$ = ecx

; 627  : {

	push	ebp
	mov	ebp, esp
	sub	esp, 12					; 0000000cH
	push	esi
	push	edi
	mov	DWORD PTR _this$[ebp], ecx

; 628  : 	if( num == 0 )

	cmp	DWORD PTR _num$[ebp], 0
	jne	SHORT $LN8@InsertMult

; 629  : 		return elem;

	mov	eax, DWORD PTR _elem$[ebp]
	jmp	$LN1@InsertMult
$LN8@InsertMult:

; 630  : 	
; 631  : 	// Can insert at the end
; 632  : 	assert( (elem == Count()) || IsValidIndex(elem) );

	mov	ecx, DWORD PTR _this$[ebp]
	call	?Count@?$CUtlArray@VCIKTarget@@V?$CUtlMemoryFixed@VCIKTarget@@$0M@$0A@@@@@QBEHXZ ; CUtlArray<CIKTarget,CUtlMemoryFixed<CIKTarget,12,0> >::Count
	cmp	DWORD PTR _elem$[ebp], eax
	je	SHORT $LN11@InsertMult
	mov	eax, DWORD PTR _elem$[ebp]
	push	eax
	mov	ecx, DWORD PTR _this$[ebp]
	call	?IsValidIndex@?$CUtlArray@VCIKTarget@@V?$CUtlMemoryFixed@VCIKTarget@@$0M@$0A@@@@@QBE_NH@Z ; CUtlArray<CIKTarget,CUtlMemoryFixed<CIKTarget,12,0> >::IsValidIndex
	movzx	ecx, al
	test	ecx, ecx
	jne	SHORT $LN11@InsertMult
	push	632					; 00000278H
	push	OFFSET ??_C@_1MM@POBCBGGF@?$AAc?$AA?3?$AA?2?$AAu?$AAs?$AAe?$AAr?$AAs?$AA?2?$AAu?$AAs?$AAe?$AAr?$AA?2?$AAd@
	push	OFFSET ??_C@_1FA@BPFBJKPF@?$AA?$CI?$AAe?$AAl?$AAe?$AAm?$AA?5?$AA?$DN?$AA?$DN?$AA?5?$AAC?$AAo?$AAu?$AAn?$AAt?$AA?$CI@
	call	__wassert
	add	esp, 12					; 0000000cH
$LN11@InsertMult:

; 633  : 
; 634  : 	GrowVector(num);

	mov	eax, DWORD PTR _num$[ebp]
	push	eax
	mov	ecx, DWORD PTR _this$[ebp]
	call	?GrowVector@?$CUtlArray@VCIKTarget@@V?$CUtlMemoryFixed@VCIKTarget@@$0M@$0A@@@@@IAEXH@Z ; CUtlArray<CIKTarget,CUtlMemoryFixed<CIKTarget,12,0> >::GrowVector

; 635  : 	ShiftElementsRight(elem, num);

	mov	ecx, DWORD PTR _num$[ebp]
	push	ecx
	mov	edx, DWORD PTR _elem$[ebp]
	push	edx
	mov	ecx, DWORD PTR _this$[ebp]
	call	?ShiftElementsRight@?$CUtlArray@VCIKTarget@@V?$CUtlMemoryFixed@VCIKTarget@@$0M@$0A@@@@@IAEXHH@Z ; CUtlArray<CIKTarget,CUtlMemoryFixed<CIKTarget,12,0> >::ShiftElementsRight

; 636  : 
; 637  : 	// Invoke default constructors
; 638  : 	for (int i = 0; i < num; ++i)

	mov	DWORD PTR _i$1[ebp], 0
	jmp	SHORT $LN4@InsertMult
$LN2@InsertMult:
	mov	eax, DWORD PTR _i$1[ebp]
	add	eax, 1
	mov	DWORD PTR _i$1[ebp], eax
$LN4@InsertMult:
	mov	ecx, DWORD PTR _i$1[ebp]
	cmp	ecx, DWORD PTR _num$[ebp]
	jge	SHORT $LN3@InsertMult

; 639  : 		Construct( &Element(elem+i) );

	mov	edx, DWORD PTR _elem$[ebp]
	add	edx, DWORD PTR _i$1[ebp]
	push	edx
	mov	ecx, DWORD PTR _this$[ebp]
	call	?Element@?$CUtlArray@VCIKTarget@@V?$CUtlMemoryFixed@VCIKTarget@@$0M@$0A@@@@@QAEAAVCIKTarget@@H@Z ; CUtlArray<CIKTarget,CUtlMemoryFixed<CIKTarget,12,0> >::Element
	push	eax
	call	??$Construct@VCIKTarget@@@@YAXPAVCIKTarget@@@Z ; Construct<CIKTarget>
	add	esp, 4
	jmp	SHORT $LN2@InsertMult
$LN3@InsertMult:

; 640  : 
; 641  : 	// Copy stuff in?
; 642  : 	if ( pToInsert )

	cmp	DWORD PTR _pToInsert$[ebp], 0
	je	SHORT $LN9@InsertMult

; 643  : 	{
; 644  : 		for ( int i=0; i < num; i++ )

	mov	DWORD PTR _i$2[ebp], 0
	jmp	SHORT $LN7@InsertMult
$LN5@InsertMult:
	mov	eax, DWORD PTR _i$2[ebp]
	add	eax, 1
	mov	DWORD PTR _i$2[ebp], eax
$LN7@InsertMult:
	mov	ecx, DWORD PTR _i$2[ebp]
	cmp	ecx, DWORD PTR _num$[ebp]
	jge	SHORT $LN9@InsertMult

; 645  : 		{
; 646  : 			Element( elem+i ) = pToInsert[i];

	imul	esi, DWORD PTR _i$2[ebp], 336
	add	esi, DWORD PTR _pToInsert$[ebp]
	mov	edx, DWORD PTR _elem$[ebp]
	add	edx, DWORD PTR _i$2[ebp]
	push	edx
	mov	ecx, DWORD PTR _this$[ebp]
	call	?Element@?$CUtlArray@VCIKTarget@@V?$CUtlMemoryFixed@VCIKTarget@@$0M@$0A@@@@@QAEAAVCIKTarget@@H@Z ; CUtlArray<CIKTarget,CUtlMemoryFixed<CIKTarget,12,0> >::Element
	mov	ecx, 84					; 00000054H
	mov	edi, eax
	rep movsd

; 647  : 		}

	jmp	SHORT $LN5@InsertMult
$LN9@InsertMult:

; 648  : 	}
; 649  : 
; 650  : 	return elem;

	mov	eax, DWORD PTR _elem$[ebp]
$LN1@InsertMult:

; 651  : }

	pop	edi
	pop	esi
	mov	esp, ebp
	pop	ebp
	ret	12					; 0000000cH
?InsertMultipleBefore@?$CUtlArray@VCIKTarget@@V?$CUtlMemoryFixed@VCIKTarget@@$0M@$0A@@@@@QAEHHHPBVCIKTarget@@@Z ENDP ; CUtlArray<CIKTarget,CUtlMemoryFixed<CIKTarget,12,0> >::InsertMultipleBefore
_TEXT	ENDS
; Function compile flags: /Odtp
; File c:\users\user\downloads\xashxt_v0.81_rev.1_with_sources\xashxt_v0.81_rev.1_src\game_shared\utlarray.h
;	COMDAT ?AddMultipleToTail@?$CUtlArray@VCIKTarget@@V?$CUtlMemoryFixed@VCIKTarget@@$0M@$0A@@@@@QAEHHPBVCIKTarget@@@Z
_TEXT	SEGMENT
_this$ = -4						; size = 4
_num$ = 8						; size = 4
_pToCopy$ = 12						; size = 4
?AddMultipleToTail@?$CUtlArray@VCIKTarget@@V?$CUtlMemoryFixed@VCIKTarget@@$0M@$0A@@@@@QAEHHPBVCIKTarget@@@Z PROC ; CUtlArray<CIKTarget,CUtlMemoryFixed<CIKTarget,12,0> >::AddMultipleToTail, COMDAT
; _this$ = ecx

; 558  : {

	push	ebp
	mov	ebp, esp
	push	ecx
	push	esi
	mov	DWORD PTR _this$[ebp], ecx

; 559  : 	// Can't insert something that's in the list... reallocation may hose us
; 560  : 	assert( (Base() == NULL) || !pToCopy || (pToCopy + num < Base()) || (pToCopy >= (Base() + Count()) ) ); 

	mov	ecx, DWORD PTR _this$[ebp]
	call	?Base@?$CUtlArray@VCIKTarget@@V?$CUtlMemoryFixed@VCIKTarget@@$0M@$0A@@@@@QAEPAVCIKTarget@@XZ ; CUtlArray<CIKTarget,CUtlMemoryFixed<CIKTarget,12,0> >::Base
	test	eax, eax
	je	SHORT $LN3@AddMultipl
	cmp	DWORD PTR _pToCopy$[ebp], 0
	je	SHORT $LN3@AddMultipl
	imul	esi, DWORD PTR _num$[ebp], 336
	add	esi, DWORD PTR _pToCopy$[ebp]
	mov	ecx, DWORD PTR _this$[ebp]
	call	?Base@?$CUtlArray@VCIKTarget@@V?$CUtlMemoryFixed@VCIKTarget@@$0M@$0A@@@@@QAEPAVCIKTarget@@XZ ; CUtlArray<CIKTarget,CUtlMemoryFixed<CIKTarget,12,0> >::Base
	cmp	esi, eax
	jb	SHORT $LN3@AddMultipl
	mov	ecx, DWORD PTR _this$[ebp]
	call	?Base@?$CUtlArray@VCIKTarget@@V?$CUtlMemoryFixed@VCIKTarget@@$0M@$0A@@@@@QAEPAVCIKTarget@@XZ ; CUtlArray<CIKTarget,CUtlMemoryFixed<CIKTarget,12,0> >::Base
	mov	esi, eax
	mov	ecx, DWORD PTR _this$[ebp]
	call	?Count@?$CUtlArray@VCIKTarget@@V?$CUtlMemoryFixed@VCIKTarget@@$0M@$0A@@@@@QBEHXZ ; CUtlArray<CIKTarget,CUtlMemoryFixed<CIKTarget,12,0> >::Count
	imul	eax, eax, 336
	add	esi, eax
	cmp	DWORD PTR _pToCopy$[ebp], esi
	jae	SHORT $LN3@AddMultipl
	push	560					; 00000230H
	push	OFFSET ??_C@_1MM@POBCBGGF@?$AAc?$AA?3?$AA?2?$AAu?$AAs?$AAe?$AAr?$AAs?$AA?2?$AAu?$AAs?$AAe?$AAr?$AA?2?$AAd@
	push	OFFSET ??_C@_1LK@CNNNCGDG@?$AA?$CI?$AAB?$AAa?$AAs?$AAe?$AA?$CI?$AA?$CJ?$AA?5?$AA?$DN?$AA?$DN?$AA?5?$AAN?$AAU?$AAL?$AAL@
	call	__wassert
	add	esp, 12					; 0000000cH
$LN3@AddMultipl:

; 561  : 
; 562  : 	return InsertMultipleBefore( m_Size, num, pToCopy );

	mov	edx, DWORD PTR _pToCopy$[ebp]
	push	edx
	mov	eax, DWORD PTR _num$[ebp]
	push	eax
	mov	ecx, DWORD PTR _this$[ebp]
	mov	edx, DWORD PTR [ecx+4032]
	push	edx
	mov	ecx, DWORD PTR _this$[ebp]
	call	?InsertMultipleBefore@?$CUtlArray@VCIKTarget@@V?$CUtlMemoryFixed@VCIKTarget@@$0M@$0A@@@@@QAEHHHPBVCIKTarget@@@Z ; CUtlArray<CIKTarget,CUtlMemoryFixed<CIKTarget,12,0> >::InsertMultipleBefore

; 563  : }

	pop	esi
	mov	esp, ebp
	pop	ebp
	ret	8
?AddMultipleToTail@?$CUtlArray@VCIKTarget@@V?$CUtlMemoryFixed@VCIKTarget@@$0M@$0A@@@@@QAEHHPBVCIKTarget@@@Z ENDP ; CUtlArray<CIKTarget,CUtlMemoryFixed<CIKTarget,12,0> >::AddMultipleToTail
_TEXT	ENDS
; Function compile flags: /Odtp
; File c:\users\user\downloads\xashxt_v0.81_rev.1_with_sources\xashxt_v0.81_rev.1_src\game_shared\utlarray.h
;	COMDAT ?IsValidIndex@?$CUtlArray@VCIKTarget@@V?$CUtlMemoryFixed@VCIKTarget@@$0M@$0A@@@@@QBE_NH@Z
_TEXT	SEGMENT
_this$ = -8						; size = 4
tv67 = -4						; size = 4
_i$ = 8							; size = 4
?IsValidIndex@?$CUtlArray@VCIKTarget@@V?$CUtlMemoryFixed@VCIKTarget@@$0M@$0A@@@@@QBE_NH@Z PROC ; CUtlArray<CIKTarget,CUtlMemoryFixed<CIKTarget,12,0> >::IsValidIndex, COMDAT
; _this$ = ecx

; 354  : {

	push	ebp
	mov	ebp, esp
	sub	esp, 8
	mov	DWORD PTR _this$[ebp], ecx

; 355  : 	return (i >= 0) && (i < m_Size);

	cmp	DWORD PTR _i$[ebp], 0
	jl	SHORT $LN3@IsValidInd
	mov	eax, DWORD PTR _this$[ebp]
	mov	ecx, DWORD PTR _i$[ebp]
	cmp	ecx, DWORD PTR [eax+4032]
	jge	SHORT $LN3@IsValidInd
	mov	DWORD PTR tv67[ebp], 1
	jmp	SHORT $LN4@IsValidInd
$LN3@IsValidInd:
	mov	DWORD PTR tv67[ebp], 0
$LN4@IsValidInd:
	mov	al, BYTE PTR tv67[ebp]

; 356  : }

	mov	esp, ebp
	pop	ebp
	ret	4
?IsValidIndex@?$CUtlArray@VCIKTarget@@V?$CUtlMemoryFixed@VCIKTarget@@$0M@$0A@@@@@QBE_NH@Z ENDP ; CUtlArray<CIKTarget,CUtlMemoryFixed<CIKTarget,12,0> >::IsValidIndex
_TEXT	ENDS
; Function compile flags: /Odtp
; File c:\users\user\downloads\xashxt_v0.81_rev.1_with_sources\xashxt_v0.81_rev.1_src\game_shared\utlarray.h
;	COMDAT ?Count@?$CUtlArray@VCIKTarget@@V?$CUtlMemoryFixed@VCIKTarget@@$0M@$0A@@@@@QBEHXZ
_TEXT	SEGMENT
_this$ = -4						; size = 4
?Count@?$CUtlArray@VCIKTarget@@V?$CUtlMemoryFixed@VCIKTarget@@$0M@$0A@@@@@QBEHXZ PROC ; CUtlArray<CIKTarget,CUtlMemoryFixed<CIKTarget,12,0> >::Count, COMDAT
; _this$ = ecx

; 344  : {

	push	ebp
	mov	ebp, esp
	push	ecx
	mov	DWORD PTR _this$[ebp], ecx

; 345  : 	return m_Size;

	mov	eax, DWORD PTR _this$[ebp]
	mov	eax, DWORD PTR [eax+4032]

; 346  : }

	mov	esp, ebp
	pop	ebp
	ret	0
?Count@?$CUtlArray@VCIKTarget@@V?$CUtlMemoryFixed@VCIKTarget@@$0M@$0A@@@@@QBEHXZ ENDP ; CUtlArray<CIKTarget,CUtlMemoryFixed<CIKTarget,12,0> >::Count
_TEXT	ENDS
; Function compile flags: /Odtp
; File c:\users\user\downloads\xashxt_v0.81_rev.1_with_sources\xashxt_v0.81_rev.1_src\game_shared\utlarray.h
;	COMDAT ?Base@?$CUtlArray@VCIKTarget@@V?$CUtlMemoryFixed@VCIKTarget@@$0M@$0A@@@@@QAEPAVCIKTarget@@XZ
_TEXT	SEGMENT
_this$ = -4						; size = 4
?Base@?$CUtlArray@VCIKTarget@@V?$CUtlMemoryFixed@VCIKTarget@@$0M@$0A@@@@@QAEPAVCIKTarget@@XZ PROC ; CUtlArray<CIKTarget,CUtlMemoryFixed<CIKTarget,12,0> >::Base, COMDAT
; _this$ = ecx

; 60   : 	T* Base()								{ return m_Memory.Base(); }

	push	ebp
	mov	ebp, esp
	push	ecx
	mov	DWORD PTR _this$[ebp], ecx
	mov	ecx, DWORD PTR _this$[ebp]
	call	?Base@?$CUtlMemoryFixed@VCIKTarget@@$0M@$0A@@@QAEPAVCIKTarget@@XZ ; CUtlMemoryFixed<CIKTarget,12,0>::Base
	mov	esp, ebp
	pop	ebp
	ret	0
?Base@?$CUtlArray@VCIKTarget@@V?$CUtlMemoryFixed@VCIKTarget@@$0M@$0A@@@@@QAEPAVCIKTarget@@XZ ENDP ; CUtlArray<CIKTarget,CUtlMemoryFixed<CIKTarget,12,0> >::Base
_TEXT	ENDS
; Function compile flags: /Odtp
; File c:\users\user\downloads\xashxt_v0.81_rev.1_with_sources\xashxt_v0.81_rev.1_src\game_shared\utlarray.h
;	COMDAT ?Element@?$CUtlArray@VCIKTarget@@V?$CUtlMemoryFixed@VCIKTarget@@$0M@$0A@@@@@QAEAAVCIKTarget@@H@Z
_TEXT	SEGMENT
_this$ = -4						; size = 4
_i$ = 8							; size = 4
?Element@?$CUtlArray@VCIKTarget@@V?$CUtlMemoryFixed@VCIKTarget@@$0M@$0A@@@@@QAEAAVCIKTarget@@H@Z PROC ; CUtlArray<CIKTarget,CUtlMemoryFixed<CIKTarget,12,0> >::Element, COMDAT
; _this$ = ecx

; 294  : {

	push	ebp
	mov	ebp, esp
	push	ecx
	mov	DWORD PTR _this$[ebp], ecx

; 295  : 	return m_Memory[ i ];

	mov	eax, DWORD PTR _i$[ebp]
	push	eax
	mov	ecx, DWORD PTR _this$[ebp]
	call	??A?$CUtlMemoryFixed@VCIKTarget@@$0M@$0A@@@QAEAAVCIKTarget@@H@Z ; CUtlMemoryFixed<CIKTarget,12,0>::operator[]

; 296  : }

	mov	esp, ebp
	pop	ebp
	ret	4
?Element@?$CUtlArray@VCIKTarget@@V?$CUtlMemoryFixed@VCIKTarget@@$0M@$0A@@@@@QAEAAVCIKTarget@@H@Z ENDP ; CUtlArray<CIKTarget,CUtlMemoryFixed<CIKTarget,12,0> >::Element
_TEXT	ENDS
; Function compile flags: /Odtp
; File c:\users\user\downloads\xashxt_v0.81_rev.1_with_sources\xashxt_v0.81_rev.1_src\game_shared\utlarray.h
;	COMDAT ??A?$CUtlArray@VCIKTarget@@V?$CUtlMemoryFixed@VCIKTarget@@$0M@$0A@@@@@QAEAAVCIKTarget@@H@Z
_TEXT	SEGMENT
_this$ = -4						; size = 4
_i$ = 8							; size = 4
??A?$CUtlArray@VCIKTarget@@V?$CUtlMemoryFixed@VCIKTarget@@$0M@$0A@@@@@QAEAAVCIKTarget@@H@Z PROC ; CUtlArray<CIKTarget,CUtlMemoryFixed<CIKTarget,12,0> >::operator[], COMDAT
; _this$ = ecx

; 282  : {

	push	ebp
	mov	ebp, esp
	push	ecx
	mov	DWORD PTR _this$[ebp], ecx

; 283  : 	return m_Memory[ i ];

	mov	eax, DWORD PTR _i$[ebp]
	push	eax
	mov	ecx, DWORD PTR _this$[ebp]
	call	??A?$CUtlMemoryFixed@VCIKTarget@@$0M@$0A@@@QAEAAVCIKTarget@@H@Z ; CUtlMemoryFixed<CIKTarget,12,0>::operator[]

; 284  : }

	mov	esp, ebp
	pop	ebp
	ret	4
??A?$CUtlArray@VCIKTarget@@V?$CUtlMemoryFixed@VCIKTarget@@$0M@$0A@@@@@QAEAAVCIKTarget@@H@Z ENDP ; CUtlArray<CIKTarget,CUtlMemoryFixed<CIKTarget,12,0> >::operator[]
_TEXT	ENDS
; Function compile flags: /Odtp
; File c:\users\user\downloads\xashxt_v0.81_rev.1_with_sources\xashxt_v0.81_rev.1_src\game_shared\utlarray.h
;	COMDAT ??1?$CUtlArray@VCIKTarget@@V?$CUtlMemoryFixed@VCIKTarget@@$0M@$0A@@@@@QAE@XZ
_TEXT	SEGMENT
_this$ = -16						; size = 4
__$EHRec$ = -12						; size = 12
??1?$CUtlArray@VCIKTarget@@V?$CUtlMemoryFixed@VCIKTarget@@$0M@$0A@@@@@QAE@XZ PROC ; CUtlArray<CIKTarget,CUtlMemoryFixed<CIKTarget,12,0> >::~CUtlArray<CIKTarget,CUtlMemoryFixed<CIKTarget,12,0> >, COMDAT
; _this$ = ecx

; 260  : {

	push	ebp
	mov	ebp, esp
	push	-1
	push	__ehhandler$??1?$CUtlArray@VCIKTarget@@V?$CUtlMemoryFixed@VCIKTarget@@$0M@$0A@@@@@QAE@XZ
	mov	eax, DWORD PTR fs:0
	push	eax
	push	ecx
	mov	eax, DWORD PTR ___security_cookie
	xor	eax, ebp
	push	eax
	lea	eax, DWORD PTR __$EHRec$[ebp]
	mov	DWORD PTR fs:0, eax
	mov	DWORD PTR _this$[ebp], ecx

; 261  : 	Purge();

	mov	ecx, DWORD PTR _this$[ebp]
	call	?Purge@?$CUtlArray@VCIKTarget@@V?$CUtlMemoryFixed@VCIKTarget@@$0M@$0A@@@@@QAEXXZ ; CUtlArray<CIKTarget,CUtlMemoryFixed<CIKTarget,12,0> >::Purge

; 262  : }

	mov	ecx, DWORD PTR __$EHRec$[ebp]
	mov	DWORD PTR fs:0, ecx
	pop	ecx
	mov	esp, ebp
	pop	ebp
	ret	0
_TEXT	ENDS
;	COMDAT text$x
text$x	SEGMENT
__ehhandler$??1?$CUtlArray@VCIKTarget@@V?$CUtlMemoryFixed@VCIKTarget@@$0M@$0A@@@@@QAE@XZ:
	mov	edx, DWORD PTR [esp+8]
	lea	eax, DWORD PTR [edx+12]
	mov	ecx, DWORD PTR [edx-8]
	xor	ecx, eax
	call	@__security_check_cookie@4
	mov	eax, OFFSET __ehfuncinfo$??1?$CUtlArray@VCIKTarget@@V?$CUtlMemoryFixed@VCIKTarget@@$0M@$0A@@@@@QAE@XZ
	jmp	___CxxFrameHandler3
text$x	ENDS
??1?$CUtlArray@VCIKTarget@@V?$CUtlMemoryFixed@VCIKTarget@@$0M@$0A@@@@@QAE@XZ ENDP ; CUtlArray<CIKTarget,CUtlMemoryFixed<CIKTarget,12,0> >::~CUtlArray<CIKTarget,CUtlMemoryFixed<CIKTarget,12,0> >
; Function compile flags: /Odtp
; File c:\users\user\downloads\xashxt_v0.81_rev.1_with_sources\xashxt_v0.81_rev.1_src\game_shared\utlarray.h
;	COMDAT ??0?$CUtlArray@VCIKTarget@@V?$CUtlMemoryFixed@VCIKTarget@@$0M@$0A@@@@@QAE@HH@Z
_TEXT	SEGMENT
_this$ = -4						; size = 4
_growSize$ = 8						; size = 4
_initSize$ = 12						; size = 4
??0?$CUtlArray@VCIKTarget@@V?$CUtlMemoryFixed@VCIKTarget@@$0M@$0A@@@@@QAE@HH@Z PROC ; CUtlArray<CIKTarget,CUtlMemoryFixed<CIKTarget,12,0> >::CUtlArray<CIKTarget,CUtlMemoryFixed<CIKTarget,12,0> >, COMDAT
; _this$ = ecx

; 247  : {

	push	ebp
	mov	ebp, esp
	push	ecx
	mov	DWORD PTR _this$[ebp], ecx

; 246  : 	m_Memory(growSize, initSize), m_Size(0)

	mov	eax, DWORD PTR _initSize$[ebp]
	push	eax
	mov	ecx, DWORD PTR _growSize$[ebp]
	push	ecx
	mov	ecx, DWORD PTR _this$[ebp]
	call	??0?$CUtlMemoryFixed@VCIKTarget@@$0M@$0A@@@QAE@HH@Z ; CUtlMemoryFixed<CIKTarget,12,0>::CUtlMemoryFixed<CIKTarget,12,0>
	mov	edx, DWORD PTR _this$[ebp]
	mov	DWORD PTR [edx+4032], 0

; 248  : 	ResetDbgInfo();

	mov	ecx, DWORD PTR _this$[ebp]
	call	?ResetDbgInfo@?$CUtlArray@VCIKTarget@@V?$CUtlMemoryFixed@VCIKTarget@@$0M@$0A@@@@@IAEXXZ ; CUtlArray<CIKTarget,CUtlMemoryFixed<CIKTarget,12,0> >::ResetDbgInfo

; 249  : }

	mov	eax, DWORD PTR _this$[ebp]
	mov	esp, ebp
	pop	ebp
	ret	8
??0?$CUtlArray@VCIKTarget@@V?$CUtlMemoryFixed@VCIKTarget@@$0M@$0A@@@@@QAE@HH@Z ENDP ; CUtlArray<CIKTarget,CUtlMemoryFixed<CIKTarget,12,0> >::CUtlArray<CIKTarget,CUtlMemoryFixed<CIKTarget,12,0> >
_TEXT	ENDS
; Function compile flags: /Odtp
; File c:\users\user\downloads\xashxt_v0.81_rev.1_with_sources\xashxt_v0.81_rev.1_src\game_shared\ikcontext.cpp
_TEXT	SEGMENT
_q3$ = -204						; size = 16
$T1 = -188						; size = 12
$T2 = -176						; size = 12
$T3 = -164						; size = 12
$T4 = -152						; size = 12
$T5 = -140						; size = 12
_p2$ = -128						; size = 12
_q2$ = -116						; size = 16
_p1$ = -100						; size = 12
tv309 = -88						; size = 4
_bone0$ = -84						; size = 4
_bone1$ = -80						; size = 4
_p3$ = -76						; size = 12
_pchain$ = -64						; size = 4
_bone2$ = -60						; size = 4
_this$ = -56						; size = 4
$T6 = -52						; size = 48
__$ArrayPad$ = -4					; size = 4
_plock$ = 8						; size = 4
_i$ = 12						; size = 4
_pos$ = 16						; size = 4
_q$ = 20						; size = 4
_boneToWorld$ = 24					; size = 4
_pBoneSet$ = 28						; size = 4
?SolveLock@CIKContext@@QAEXPBUmstudioiklock_t@@HQAVVector@@QAVVector4D@@QAVmatrix3x4@@PAE@Z PROC ; CIKContext::SolveLock
; _this$ = ecx

; 863  : {

	push	ebp
	mov	ebp, esp
	sub	esp, 204				; 000000ccH
	mov	eax, DWORD PTR ___security_cookie
	xor	eax, ebp
	mov	DWORD PTR __$ArrayPad$[ebp], eax
	push	esi
	push	edi
	mov	DWORD PTR _this$[ebp], ecx

; 864  : 	const mstudioikchain_t *pchain = m_pBoneSetup->pIKChain( plock->chain );

	mov	eax, DWORD PTR _plock$[ebp]
	mov	ecx, DWORD PTR [eax]
	push	ecx
	mov	edx, DWORD PTR _this$[ebp]
	mov	ecx, DWORD PTR [edx+4040]
	call	?pIKChain@CStudioBoneSetup@@QAEPBUmstudioikchain_t@@H@Z ; CStudioBoneSetup::pIKChain
	mov	DWORD PTR _pchain$[ebp], eax

; 865  : 	int bone0 = m_pBoneSetup->pIKLink( pchain, 0 )->bone;

	push	0
	mov	eax, DWORD PTR _pchain$[ebp]
	push	eax
	mov	ecx, DWORD PTR _this$[ebp]
	mov	ecx, DWORD PTR [ecx+4040]
	call	?pIKLink@CStudioBoneSetup@@QAEPBUmstudioiklink_t@@PBUmstudioikchain_t@@H@Z ; CStudioBoneSetup::pIKLink
	mov	edx, DWORD PTR [eax]
	mov	DWORD PTR _bone0$[ebp], edx

; 866  : 	int bone1 = m_pBoneSetup->pIKLink( pchain, 1 )->bone;

	push	1
	mov	eax, DWORD PTR _pchain$[ebp]
	push	eax
	mov	ecx, DWORD PTR _this$[ebp]
	mov	ecx, DWORD PTR [ecx+4040]
	call	?pIKLink@CStudioBoneSetup@@QAEPBUmstudioiklink_t@@PBUmstudioikchain_t@@H@Z ; CStudioBoneSetup::pIKLink
	mov	edx, DWORD PTR [eax]
	mov	DWORD PTR _bone1$[ebp], edx

; 867  : 	int bone2 = m_pBoneSetup->pIKLink( pchain, 2 )->bone;

	push	2
	mov	eax, DWORD PTR _pchain$[ebp]
	push	eax
	mov	ecx, DWORD PTR _this$[ebp]
	mov	ecx, DWORD PTR [ecx+4040]
	call	?pIKLink@CStudioBoneSetup@@QAEPBUmstudioiklink_t@@PBUmstudioikchain_t@@H@Z ; CStudioBoneSetup::pIKLink
	mov	edx, DWORD PTR [eax]
	mov	DWORD PTR _bone2$[ebp], edx

; 868  : 
; 869  : 	// don't bother with iklock if the bone isn't going to be calculated
; 870  : 	if( !m_pBoneSetup->IsBoneUsed( bone2 ))

	mov	eax, DWORD PTR _bone2$[ebp]
	push	eax
	mov	ecx, DWORD PTR _this$[ebp]
	mov	ecx, DWORD PTR [ecx+4040]
	call	?IsBoneUsed@CStudioBoneSetup@@QAE_NH@Z	; CStudioBoneSetup::IsBoneUsed
	movzx	edx, al
	test	edx, edx
	jne	SHORT $LN2@SolveLock

; 871  : 		return;

	jmp	$LN1@SolveLock
$LN2@SolveLock:

; 872  : 
; 873  : 	// eval current ik'd bone
; 874  : 	BuildBoneChain( pos, q, bone2, boneToWorld, pBoneSet );

	mov	eax, DWORD PTR _pBoneSet$[ebp]
	push	eax
	mov	ecx, DWORD PTR _boneToWorld$[ebp]
	push	ecx
	mov	edx, DWORD PTR _bone2$[ebp]
	push	edx
	mov	eax, DWORD PTR _q$[ebp]
	push	eax
	mov	ecx, DWORD PTR _pos$[ebp]
	push	ecx
	mov	ecx, DWORD PTR _this$[ebp]
	call	?BuildBoneChain@CIKContext@@AAEXQBVVector@@QBVVector4D@@HPAVmatrix3x4@@PAE@Z ; CIKContext::BuildBoneChain

; 875  : 
; 876  : 	Vector	p1, p2, p3;

	lea	ecx, DWORD PTR _p1$[ebp]
	call	??0Vector@@QAE@XZ			; Vector::Vector
	lea	ecx, DWORD PTR _p2$[ebp]
	call	??0Vector@@QAE@XZ			; Vector::Vector
	lea	ecx, DWORD PTR _p3$[ebp]
	call	??0Vector@@QAE@XZ			; Vector::Vector

; 877  : 	Vector4D	q2, q3;

	lea	ecx, DWORD PTR _q2$[ebp]
	call	??0Vector4D@@QAE@XZ			; Vector4D::Vector4D
	lea	ecx, DWORD PTR _q3$[ebp]
	call	??0Vector4D@@QAE@XZ			; Vector4D::Vector4D

; 878  : 
; 879  : 	// current p and q
; 880  : 	p1 = boneToWorld[bone2].GetOrigin();

	lea	edx, DWORD PTR $T5[ebp]
	push	edx
	imul	ecx, DWORD PTR _bone2$[ebp], 48
	add	ecx, DWORD PTR _boneToWorld$[ebp]
	call	?GetOrigin@matrix3x4@@QBE?AVVector@@XZ	; matrix3x4::GetOrigin
	mov	ecx, DWORD PTR [eax]
	mov	DWORD PTR _p1$[ebp], ecx
	mov	edx, DWORD PTR [eax+4]
	mov	DWORD PTR _p1$[ebp+4], edx
	mov	eax, DWORD PTR [eax+8]
	mov	DWORD PTR _p1$[ebp+8], eax

; 881  : 
; 882  : 	// blend in position
; 883  : 	p3 = p1 * (1.0 - plock->flPosWeight ) + m_ikLock[i].pos * plock->flPosWeight;

	mov	ecx, DWORD PTR _plock$[ebp]
	push	ecx
	movss	xmm0, DWORD PTR [ecx+4]
	movss	DWORD PTR [esp], xmm0
	lea	edx, DWORD PTR $T4[ebp]
	push	edx
	mov	eax, DWORD PTR _i$[ebp]
	push	eax
	mov	ecx, DWORD PTR _this$[ebp]
	add	ecx, 4064				; 00000fe0H
	call	??A?$CUtlArray@Uikcontextikrule_t@@V?$CUtlMemory@Uikcontextikrule_t@@H@@@@QAEAAUikcontextikrule_t@@H@Z ; CUtlArray<ikcontextikrule_t,CUtlMemory<ikcontextikrule_t,int> >::operator[]
	add	eax, 32					; 00000020H
	mov	ecx, eax
	call	??DVector@@QBE?AV0@M@Z			; Vector::operator*
	push	eax
	lea	ecx, DWORD PTR $T3[ebp]
	push	ecx
	mov	edx, DWORD PTR _plock$[ebp]
	cvtss2sd xmm0, DWORD PTR [edx+4]
	movsd	xmm1, QWORD PTR __real@3ff0000000000000
	subsd	xmm1, xmm0
	cvtsd2ss xmm0, xmm1
	push	ecx
	movss	DWORD PTR [esp], xmm0
	lea	eax, DWORD PTR $T2[ebp]
	push	eax
	lea	ecx, DWORD PTR _p1$[ebp]
	call	??DVector@@QBE?AV0@M@Z			; Vector::operator*
	mov	ecx, eax
	call	??HVector@@QBE?AV0@ABV0@@Z		; Vector::operator+
	mov	ecx, DWORD PTR [eax]
	mov	DWORD PTR _p3$[ebp], ecx
	mov	edx, DWORD PTR [eax+4]
	mov	DWORD PTR _p3$[ebp+4], edx
	mov	eax, DWORD PTR [eax+8]
	mov	DWORD PTR _p3$[ebp+8], eax

; 884  : 
; 885  : 	// do exact IK solution
; 886  : 	if( m_ikLock[i].kneeDir.LengthSqr() > 0.0f )

	mov	ecx, DWORD PTR _i$[ebp]
	push	ecx
	mov	ecx, DWORD PTR _this$[ebp]
	add	ecx, 4064				; 00000fe0H
	call	??A?$CUtlArray@Uikcontextikrule_t@@V?$CUtlMemory@Uikcontextikrule_t@@H@@@@QAEAAUikcontextikrule_t@@H@Z ; CUtlArray<ikcontextikrule_t,CUtlMemory<ikcontextikrule_t,int> >::operator[]
	add	eax, 108				; 0000006cH
	mov	ecx, eax
	call	?LengthSqr@Vector@@QBEMXZ		; Vector::LengthSqr
	fstp	DWORD PTR tv309[ebp]
	movss	xmm0, DWORD PTR tv309[ebp]
	comiss	xmm0, DWORD PTR __real@00000000
	jbe	SHORT $LN3@SolveLock

; 887  : 		m_pBoneSetup->SolveIK( bone0, bone1, bone2, p3, m_ikLock[i].kneePos, m_ikLock[i].kneeDir, boneToWorld );

	mov	edx, DWORD PTR _boneToWorld$[ebp]
	push	edx
	mov	eax, DWORD PTR _i$[ebp]
	push	eax
	mov	ecx, DWORD PTR _this$[ebp]
	add	ecx, 4064				; 00000fe0H
	call	??A?$CUtlArray@Uikcontextikrule_t@@V?$CUtlMemory@Uikcontextikrule_t@@H@@@@QAEAAUikcontextikrule_t@@H@Z ; CUtlArray<ikcontextikrule_t,CUtlMemory<ikcontextikrule_t,int> >::operator[]
	add	eax, 108				; 0000006cH
	push	eax
	mov	ecx, DWORD PTR _i$[ebp]
	push	ecx
	mov	ecx, DWORD PTR _this$[ebp]
	add	ecx, 4064				; 00000fe0H
	call	??A?$CUtlArray@Uikcontextikrule_t@@V?$CUtlMemory@Uikcontextikrule_t@@H@@@@QAEAAUikcontextikrule_t@@H@Z ; CUtlArray<ikcontextikrule_t,CUtlMemory<ikcontextikrule_t,int> >::operator[]
	add	eax, 120				; 00000078H
	push	eax
	lea	edx, DWORD PTR _p3$[ebp]
	push	edx
	mov	eax, DWORD PTR _bone2$[ebp]
	push	eax
	mov	ecx, DWORD PTR _bone1$[ebp]
	push	ecx
	mov	edx, DWORD PTR _bone0$[ebp]
	push	edx
	mov	eax, DWORD PTR _this$[ebp]
	mov	ecx, DWORD PTR [eax+4040]
	call	?SolveIK@CStudioBoneSetup@@AAE_NHHHAAVVector@@00PAVmatrix3x4@@@Z ; CStudioBoneSetup::SolveIK
	jmp	SHORT $LN4@SolveLock
$LN3@SolveLock:

; 888  : 	else m_pBoneSetup->SolveIK(pchain, p3, boneToWorld );

	mov	ecx, DWORD PTR _boneToWorld$[ebp]
	push	ecx
	lea	edx, DWORD PTR _p3$[ebp]
	push	edx
	mov	eax, DWORD PTR _pchain$[ebp]
	push	eax
	mov	ecx, DWORD PTR _this$[ebp]
	mov	ecx, DWORD PTR [ecx+4040]
	call	?SolveIK@CStudioBoneSetup@@AAE_NPBUmstudioikchain_t@@AAVVector@@PAVmatrix3x4@@@Z ; CStudioBoneSetup::SolveIK
$LN4@SolveLock:

; 889  : 
; 890  : 	// slam orientation
; 891  : 	p3 = boneToWorld[bone2].GetOrigin();

	lea	edx, DWORD PTR $T1[ebp]
	push	edx
	imul	ecx, DWORD PTR _bone2$[ebp], 48
	add	ecx, DWORD PTR _boneToWorld$[ebp]
	call	?GetOrigin@matrix3x4@@QBE?AVVector@@XZ	; matrix3x4::GetOrigin
	mov	ecx, DWORD PTR [eax]
	mov	DWORD PTR _p3$[ebp], ecx
	mov	edx, DWORD PTR [eax+4]
	mov	DWORD PTR _p3$[ebp+4], edx
	mov	eax, DWORD PTR [eax+8]
	mov	DWORD PTR _p3$[ebp+8], eax

; 892  : 	boneToWorld[bone2] = matrix3x4( p3, m_ikLock[i].q );

	mov	ecx, DWORD PTR _i$[ebp]
	push	ecx
	mov	ecx, DWORD PTR _this$[ebp]
	add	ecx, 4064				; 00000fe0H
	call	??A?$CUtlArray@Uikcontextikrule_t@@V?$CUtlMemory@Uikcontextikrule_t@@H@@@@QAEAAUikcontextikrule_t@@H@Z ; CUtlArray<ikcontextikrule_t,CUtlMemory<ikcontextikrule_t,int> >::operator[]
	add	eax, 44					; 0000002cH
	push	eax
	lea	edx, DWORD PTR _p3$[ebp]
	push	edx
	lea	ecx, DWORD PTR $T6[ebp]
	call	??0matrix3x4@@QAE@ABVVector@@ABVVector4D@@@Z ; matrix3x4::matrix3x4
	imul	edi, DWORD PTR _bone2$[ebp], 48
	add	edi, DWORD PTR _boneToWorld$[ebp]
	mov	ecx, 12					; 0000000cH
	mov	esi, eax
	rep movsd

; 893  : 
; 894  : 	// rebuild chain
; 895  : 	q2 = q[bone2];

	mov	eax, DWORD PTR _bone2$[ebp]
	shl	eax, 4
	add	eax, DWORD PTR _q$[ebp]
	mov	ecx, DWORD PTR [eax]
	mov	DWORD PTR _q2$[ebp], ecx
	mov	edx, DWORD PTR [eax+4]
	mov	DWORD PTR _q2$[ebp+4], edx
	mov	ecx, DWORD PTR [eax+8]
	mov	DWORD PTR _q2$[ebp+8], ecx
	mov	edx, DWORD PTR [eax+12]
	mov	DWORD PTR _q2$[ebp+12], edx

; 896  : 	m_pBoneSetup->SolveBone( bone2, boneToWorld, pos, q );

	mov	eax, DWORD PTR _q$[ebp]
	push	eax
	mov	ecx, DWORD PTR _pos$[ebp]
	push	ecx
	mov	edx, DWORD PTR _boneToWorld$[ebp]
	push	edx
	mov	eax, DWORD PTR _bone2$[ebp]
	push	eax
	mov	ecx, DWORD PTR _this$[ebp]
	mov	ecx, DWORD PTR [ecx+4040]
	call	?SolveBone@CStudioBoneSetup@@AAEXHPAVmatrix3x4@@QAVVector@@QAVVector4D@@@Z ; CStudioBoneSetup::SolveBone

; 897  : 	QuaternionSlerp( q[bone2], q2, plock->flLocalQWeight, q[bone2] );

	mov	edx, DWORD PTR _bone2$[ebp]
	shl	edx, 4
	add	edx, DWORD PTR _q$[ebp]
	push	edx
	mov	eax, DWORD PTR _plock$[ebp]
	push	ecx
	movss	xmm0, DWORD PTR [eax+8]
	movss	DWORD PTR [esp], xmm0
	lea	ecx, DWORD PTR _q2$[ebp]
	push	ecx
	mov	edx, DWORD PTR _bone2$[ebp]
	shl	edx, 4
	add	edx, DWORD PTR _q$[ebp]
	push	edx
	call	?QuaternionSlerp@@YAXABVVector4D@@0MAAV1@@Z ; QuaternionSlerp
	add	esp, 16					; 00000010H

; 898  : 	m_pBoneSetup->SolveBone( bone1, boneToWorld, pos, q );

	mov	eax, DWORD PTR _q$[ebp]
	push	eax
	mov	ecx, DWORD PTR _pos$[ebp]
	push	ecx
	mov	edx, DWORD PTR _boneToWorld$[ebp]
	push	edx
	mov	eax, DWORD PTR _bone1$[ebp]
	push	eax
	mov	ecx, DWORD PTR _this$[ebp]
	mov	ecx, DWORD PTR [ecx+4040]
	call	?SolveBone@CStudioBoneSetup@@AAEXHPAVmatrix3x4@@QAVVector@@QAVVector4D@@@Z ; CStudioBoneSetup::SolveBone

; 899  : 	m_pBoneSetup->SolveBone( bone0, boneToWorld, pos, q );

	mov	edx, DWORD PTR _q$[ebp]
	push	edx
	mov	eax, DWORD PTR _pos$[ebp]
	push	eax
	mov	ecx, DWORD PTR _boneToWorld$[ebp]
	push	ecx
	mov	edx, DWORD PTR _bone0$[ebp]
	push	edx
	mov	eax, DWORD PTR _this$[ebp]
	mov	ecx, DWORD PTR [eax+4040]
	call	?SolveBone@CStudioBoneSetup@@AAEXHPAVmatrix3x4@@QAVVector@@QAVVector4D@@@Z ; CStudioBoneSetup::SolveBone
$LN1@SolveLock:

; 900  : }

	pop	edi
	pop	esi
	mov	ecx, DWORD PTR __$ArrayPad$[ebp]
	xor	ecx, ebp
	call	@__security_check_cookie@4
	mov	esp, ebp
	pop	ebp
	ret	24					; 00000018H
?SolveLock@CIKContext@@QAEXPBUmstudioiklock_t@@HQAVVector@@QAVVector4D@@QAVmatrix3x4@@PAE@Z ENDP ; CIKContext::SolveLock
_TEXT	ENDS
; Function compile flags: /Odtp
; File c:\users\user\downloads\xashxt_v0.81_rev.1_with_sources\xashxt_v0.81_rev.1_src\game_shared\ikcontext.cpp
_TEXT	SEGMENT
_this$ = -44						; size = 4
_i$1 = -40						; size = 4
_lock$ = -36						; size = 32
__$ArrayPad$ = -4					; size = 4
_pos$ = 8						; size = 4
_q$ = 12						; size = 4
?SolveAllLocks@CIKContext@@QAEXQAVVector@@QAVVector4D@@@Z PROC ; CIKContext::SolveAllLocks
; _this$ = ecx

; 845  : {

	push	ebp
	mov	ebp, esp
	sub	esp, 44					; 0000002cH
	mov	eax, DWORD PTR ___security_cookie
	xor	eax, ebp
	mov	DWORD PTR __$ArrayPad$[ebp], eax
	mov	DWORD PTR _this$[ebp], ecx

; 846  : 	mstudioiklock_t	lock;
; 847  : 
; 848  : 	for( int i = 0; i < m_ikLock.Count(); i++ )

	mov	DWORD PTR _i$1[ebp], 0
	jmp	SHORT $LN4@SolveAllLo
$LN2@SolveAllLo:
	mov	eax, DWORD PTR _i$1[ebp]
	add	eax, 1
	mov	DWORD PTR _i$1[ebp], eax
$LN4@SolveAllLo:
	mov	ecx, DWORD PTR _this$[ebp]
	add	ecx, 4064				; 00000fe0H
	call	?Count@?$CUtlArray@Uikcontextikrule_t@@V?$CUtlMemory@Uikcontextikrule_t@@H@@@@QBEHXZ ; CUtlArray<ikcontextikrule_t,CUtlMemory<ikcontextikrule_t,int> >::Count
	cmp	DWORD PTR _i$1[ebp], eax
	jge	SHORT $LN3@SolveAllLo

; 849  : 	{
; 850  : 		lock.chain = i;

	mov	ecx, DWORD PTR _i$1[ebp]
	mov	DWORD PTR _lock$[ebp], ecx

; 851  : 		lock.flPosWeight = 1.0f;

	movss	xmm0, DWORD PTR __real@3f800000
	movss	DWORD PTR _lock$[ebp+4], xmm0

; 852  : 		lock.flLocalQWeight = 0.0f;

	xorps	xmm0, xmm0
	movss	DWORD PTR _lock$[ebp+8], xmm0

; 853  : 		lock.flags = 0;

	mov	DWORD PTR _lock$[ebp+12], 0

; 854  : 
; 855  : 		SolveLock( &lock, i, pos, q, m_boneToWorld );

	push	0
	push	OFFSET ?m_boneToWorld@CIKContext@@0PAVmatrix3x4@@A ; CIKContext::m_boneToWorld
	mov	edx, DWORD PTR _q$[ebp]
	push	edx
	mov	eax, DWORD PTR _pos$[ebp]
	push	eax
	mov	ecx, DWORD PTR _i$1[ebp]
	push	ecx
	lea	edx, DWORD PTR _lock$[ebp]
	push	edx
	mov	ecx, DWORD PTR _this$[ebp]
	call	?SolveLock@CIKContext@@QAEXPBUmstudioiklock_t@@HQAVVector@@QAVVector4D@@QAVmatrix3x4@@PAE@Z ; CIKContext::SolveLock

; 856  : 	}

	jmp	SHORT $LN2@SolveAllLo
$LN3@SolveAllLo:

; 857  : }

	mov	ecx, DWORD PTR __$ArrayPad$[ebp]
	xor	ecx, ebp
	call	@__security_check_cookie@4
	mov	esp, ebp
	pop	ebp
	ret	8
?SolveAllLocks@CIKContext@@QAEXQAVVector@@QAVVector4D@@@Z ENDP ; CIKContext::SolveAllLocks
_TEXT	ENDS
; Function compile flags: /Odtp
; File c:\users\user\downloads\xashxt_v0.81_rev.1_with_sources\xashxt_v0.81_rev.1_src\game_shared\ikcontext.cpp
_TEXT	SEGMENT
$T1 = -84						; size = 16
$T2 = -68						; size = 12
$T3 = -56						; size = 12
$T4 = -44						; size = 12
tv275 = -32						; size = 4
_ikOffset$ = -28					; size = 4
_link0$5 = -24						; size = 4
_pchain$6 = -20						; size = 4
_bone$7 = -16						; size = 4
_i$8 = -12						; size = 4
_ikrule$9 = -8						; size = 4
_this$ = -4						; size = 4
_pos$ = 8						; size = 4
_q$ = 12						; size = 4
?AddAllLocks@CIKContext@@QAEXQAVVector@@QAVVector4D@@@Z PROC ; CIKContext::AddAllLocks
; _this$ = ecx

; 795  : {

	push	ebp
	mov	ebp, esp
	sub	esp, 84					; 00000054H
	mov	DWORD PTR _this$[ebp], ecx

; 796  : 	// skip all array access if no autoplay locks.
; 797  : 	if( m_pBoneSetup->GetNumIKChains() == 0 )

	mov	eax, DWORD PTR _this$[ebp]
	mov	ecx, DWORD PTR [eax+4040]
	call	?GetNumIKChains@CStudioBoneSetup@@QAEHXZ ; CStudioBoneSetup::GetNumIKChains
	test	eax, eax
	jne	SHORT $LN5@AddAllLock

; 798  : 	{
; 799  : 		return;

	jmp	$LN1@AddAllLock
$LN5@AddAllLock:

; 800  : 	}
; 801  : 
; 802  : 	int ikOffset = m_ikLock.AddMultipleToTail( m_pBoneSetup->GetNumIKChains() );

	push	0
	mov	ecx, DWORD PTR _this$[ebp]
	mov	ecx, DWORD PTR [ecx+4040]
	call	?GetNumIKChains@CStudioBoneSetup@@QAEHXZ ; CStudioBoneSetup::GetNumIKChains
