; Listing generated by Microsoft (R) Optimizing Compiler Version 19.16.27045.0 

	TITLE	C:\Users\USER\Downloads\XashXT_v0.81_rev.1_with_sources\XashXT_v0.81_rev.1_src\game_shared\playermove.cpp
	.686P
	.XMM
	include listing.inc
	.model	flat

INCLUDELIB LIBCMT
INCLUDELIB OLDNAMES

PUBLIC	?pmove@@3PAUplayermove_s@@A			; pmove
PUBLIC	?g_onladder@@3HA				; g_onladder
_BSS	SEGMENT
?pmove@@3PAUplayermove_s@@A DD 01H DUP (?)		; pmove
?g_onladder@@3HA DD 01H DUP (?)				; g_onladder
_BSS	ENDS
CONST	SEGMENT
$SG14979 DB	'sound/materials.txt', 00H
$SG14980 DB	'sound/materials.txt', 00H
$SG14998 DB	'c', 00H, ':', 00H, '\', 00H, 'u', 00H, 's', 00H, 'e', 00H
	DB	'r', 00H, 's', 00H, '\', 00H, 'u', 00H, 's', 00H, 'e', 00H, 'r'
	DB	00H, '\', 00H, 'd', 00H, 'o', 00H, 'w', 00H, 'n', 00H, 'l', 00H
	DB	'o', 00H, 'a', 00H, 'd', 00H, 's', 00H, '\', 00H, 'x', 00H, 'a'
	DB	00H, 's', 00H, 'h', 00H, 'x', 00H, 't', 00H, '_', 00H, 'v', 00H
	DB	'0', 00H, '.', 00H, '8', 00H, '1', 00H, '_', 00H, 'r', 00H, 'e'
	DB	00H, 'v', 00H, '.', 00H, '1', 00H, '_', 00H, 'w', 00H, 'i', 00H
	DB	't', 00H, 'h', 00H, '_', 00H, 's', 00H, 'o', 00H, 'u', 00H, 'r'
	DB	00H, 'c', 00H, 'e', 00H, 's', 00H, '\', 00H, 'x', 00H, 'a', 00H
	DB	's', 00H, 'h', 00H, 'x', 00H, 't', 00H, '_', 00H, 'v', 00H, '0'
	DB	00H, '.', 00H, '8', 00H, '1', 00H, '_', 00H, 'r', 00H, 'e', 00H
	DB	'v', 00H, '.', 00H, '1', 00H, '_', 00H, 's', 00H, 'r', 00H, 'c'
	DB	00H, '\', 00H, 'g', 00H, 'a', 00H, 'm', 00H, 'e', 00H, '_', 00H
	DB	's', 00H, 'h', 00H, 'a', 00H, 'r', 00H, 'e', 00H, 'd', 00H, '\'
	DB	00H, 'p', 00H, 'l', 00H, 'a', 00H, 'y', 00H, 'e', 00H, 'r', 00H
	DB	'm', 00H, 'o', 00H, 'v', 00H, 'e', 00H, '.', 00H, 'c', 00H, 'p'
	DB	00H, 'p', 00H, 00H, 00H
$SG14999 DB	'p', 00H, 'm', 00H, '_', 00H, 's', 00H, 'h', 00H, 'a', 00H
	DB	'r', 00H, 'e', 00H, 'd', 00H, '_', 00H, 'i', 00H, 'n', 00H, 'i'
	DB	00H, 't', 00H, 'i', 00H, 'a', 00H, 'l', 00H, 'i', 00H, 'z', 00H
	DB	'e', 00H, 'd', 00H, 00H, 00H
$SG15099 DB	'lsnd', 00H
	ORG $+3
$SG15102 DB	'psnd', 00H
	ORG $+3
$SG15105 DB	'wsnd', 00H
	ORG $+3
$SG15110 DB	'ssnd', 00H
	ORG $+3
$SG15112 DB	'stype', 00H
	ORG $+2
$SG15118 DB	'player/pl_step1.wav', 00H
$SG15120 DB	'player/pl_step3.wav', 00H
$SG15122 DB	'player/pl_step2.wav', 00H
$SG15124 DB	'player/pl_step4.wav', 00H
$SG15127 DB	'player/pl_metal1.wav', 00H
	ORG $+3
$SG15129 DB	'player/pl_metal3.wav', 00H
	ORG $+3
$SG15131 DB	'player/pl_metal2.wav', 00H
	ORG $+3
$SG15133 DB	'player/pl_metal4.wav', 00H
	ORG $+3
$SG15136 DB	'player/pl_dirt1.wav', 00H
$SG15138 DB	'player/pl_dirt3.wav', 00H
$SG15140 DB	'player/pl_dirt2.wav', 00H
$SG15142 DB	'player/pl_dirt4.wav', 00H
$SG15145 DB	'player/pl_duct1.wav', 00H
$SG15147 DB	'player/pl_duct3.wav', 00H
$SG15149 DB	'player/pl_duct2.wav', 00H
$SG15151 DB	'player/pl_duct4.wav', 00H
$SG15154 DB	'player/pl_grate1.wav', 00H
	ORG $+3
$SG15156 DB	'player/pl_grate3.wav', 00H
	ORG $+3
$SG15158 DB	'player/pl_grate2.wav', 00H
	ORG $+3
$SG15160 DB	'player/pl_grate4.wav', 00H
	ORG $+3
$SG15164 DB	'player/pl_tile1.wav', 00H
$SG15166 DB	'player/pl_tile3.wav', 00H
$SG15168 DB	'player/pl_tile2.wav', 00H
$SG15170 DB	'player/pl_tile4.wav', 00H
$SG15172 DB	'player/pl_tile5.wav', 00H
$SG15175 DB	'player/pl_slosh1.wav', 00H
	ORG $+3
$SG15177 DB	'player/pl_slosh3.wav', 00H
	ORG $+3
$SG15179 DB	'player/pl_slosh2.wav', 00H
	ORG $+3
$SG15181 DB	'player/pl_slosh4.wav', 00H
	ORG $+3
$SG15186 DB	'player/pl_wade1.wav', 00H
$SG15188 DB	'player/pl_wade2.wav', 00H
$SG15190 DB	'player/pl_wade3.wav', 00H
$SG15192 DB	'player/pl_wade4.wav', 00H
$SG15195 DB	'player/pl_ladder1.wav', 00H
	ORG $+2
$SG15197 DB	'player/pl_ladder3.wav', 00H
	ORG $+2
$SG15199 DB	'player/pl_ladder2.wav', 00H
	ORG $+2
$SG15201 DB	'player/pl_ladder4.wav', 00H
	ORG $+2
$SG15278 DB	'Too many entities were touched!', 0aH, 00H
	ORG $+3
$SG15288 DB	'PM  Got a NaN velocity %i', 0aH, 00H
	ORG $+1
$SG15290 DB	'PM  Got a NaN origin on %i', 0aH, 00H
$SG15293 DB	'PM  Got a velocity too high on %i', 0aH, 00H
	ORG $+1
$SG15295 DB	'PM  Got a velocity too low on %i', 0aH, 00H
	ORG $+2
$SG15930 DB	'tfc', 00H
$SG15941 DB	'player/pl_wade1.wav', 00H
$SG15943 DB	'player/pl_wade2.wav', 00H
$SG15945 DB	'player/pl_wade3.wav', 00H
$SG15947 DB	'player/pl_wade4.wav', 00H
$SG15952 DB	'player/plyrjmp8.wav', 00H
$SG15953 DB	'slj', 00H
$SG15997 DB	'player/pl_fallpain3.wav', 00H
$SG16000 DB	'tfc', 00H
$SG16002 DB	'player/pl_fallpain3.wav', 00H
$SG16020 DB	'player/pl_wade1.wav', 00H
$SG16022 DB	'player/pl_wade2.wav', 00H
$SG16024 DB	'player/pl_wade3.wav', 00H
$SG16026 DB	'player/pl_wade4.wav', 00H
$SG16094 DB	'Bogus pmove player movetype %i on (%i) 0=cl 1=sv', 0aH, 00H
	ORG $+2
$SG16175 DB	'p', 00H, 'm', 00H, '_', 00H, 's', 00H, 'h', 00H, 'a', 00H
	DB	'r', 00H, 'e', 00H, 'd', 00H, '_', 00H, 'i', 00H, 'n', 00H, 'i'
	DB	00H, 't', 00H, 'i', 00H, 'a', 00H, 'l', 00H, 'i', 00H, 'z', 00H
	DB	'e', 00H, 'd', 00H, 00H, 00H
$SG16166 DB	'c', 00H, ':', 00H, '\', 00H, 'u', 00H, 's', 00H, 'e', 00H
	DB	'r', 00H, 's', 00H, '\', 00H, 'u', 00H, 's', 00H, 'e', 00H, 'r'
	DB	00H, '\', 00H, 'd', 00H, 'o', 00H, 'w', 00H, 'n', 00H, 'l', 00H
	DB	'o', 00H, 'a', 00H, 'd', 00H, 's', 00H, '\', 00H, 'x', 00H, 'a'
	DB	00H, 's', 00H, 'h', 00H, 'x', 00H, 't', 00H, '_', 00H, 'v', 00H
	DB	'0', 00H, '.', 00H, '8', 00H, '1', 00H, '_', 00H, 'r', 00H, 'e'
	DB	00H, 'v', 00H, '.', 00H, '1', 00H, '_', 00H, 'w', 00H, 'i', 00H
	DB	't', 00H, 'h', 00H, '_', 00H, 's', 00H, 'o', 00H, 'u', 00H, 'r'
	DB	00H, 'c', 00H, 'e', 00H, 's', 00H, '\', 00H, 'x', 00H, 'a', 00H
	DB	's', 00H, 'h', 00H, 'x', 00H, 't', 00H, '_', 00H, 'v', 00H, '0'
	DB	00H, '.', 00H, '8', 00H, '1', 00H, '_', 00H, 'r', 00H, 'e', 00H
	DB	'v', 00H, '.', 00H, '1', 00H, '_', 00H, 's', 00H, 'r', 00H, 'c'
	DB	00H, '\', 00H, 'g', 00H, 'a', 00H, 'm', 00H, 'e', 00H, '_', 00H
	DB	's', 00H, 'h', 00H, 'a', 00H, 'r', 00H, 'e', 00H, 'd', 00H, '\'
	DB	00H, 'p', 00H, 'l', 00H, 'a', 00H, 'y', 00H, 'e', 00H, 'r', 00H
	DB	'm', 00H, 'o', 00H, 'v', 00H, 'e', 00H, '.', 00H, 'c', 00H, 'p'
	DB	00H, 'p', 00H, 00H, 00H
	ORG $+4
$SG16167 DB	'i', 00H, 'd', 00H, 'x', 00H, ' ', 00H, '<', 00H, ' ', 00H
	DB	's', 00H, 'i', 00H, 'z', 00H, 'e', 00H, 'o', 00H, 'f', 00H, '('
	DB	00H, ' ', 00H, 'r', 00H, 'g', 00H, 'v', 00H, '3', 00H, 't', 00H
	DB	'S', 00H, 't', 00H, 'u', 00H, 'c', 00H, 'k', 00H, 'T', 00H, 'a'
	DB	00H, 'b', 00H, 'l', 00H, 'e', 00H, ' ', 00H, ')', 00H, ' ', 00H
	DB	'/', 00H, ' ', 00H, 's', 00H, 'i', 00H, 'z', 00H, 'e', 00H, 'o'
	DB	00H, 'f', 00H, '(', 00H, ' ', 00H, 'r', 00H, 'g', 00H, 'v', 00H
	DB	'3', 00H, 't', 00H, 'S', 00H, 't', 00H, 'u', 00H, 'c', 00H, 'k'
	DB	00H, 'T', 00H, 'a', 00H, 'b', 00H, 'l', 00H, 'e', 00H, '[', 00H
	DB	'0', 00H, ']', 00H, ' ', 00H, ')', 00H, 00H, 00H
	ORG $+2
$SG16174 DB	'c', 00H, ':', 00H, '\', 00H, 'u', 00H, 's', 00H, 'e', 00H
	DB	'r', 00H, 's', 00H, '\', 00H, 'u', 00H, 's', 00H, 'e', 00H, 'r'
	DB	00H, '\', 00H, 'd', 00H, 'o', 00H, 'w', 00H, 'n', 00H, 'l', 00H
	DB	'o', 00H, 'a', 00H, 'd', 00H, 's', 00H, '\', 00H, 'x', 00H, 'a'
	DB	00H, 's', 00H, 'h', 00H, 'x', 00H, 't', 00H, '_', 00H, 'v', 00H
	DB	'0', 00H, '.', 00H, '8', 00H, '1', 00H, '_', 00H, 'r', 00H, 'e'
	DB	00H, 'v', 00H, '.', 00H, '1', 00H, '_', 00H, 'w', 00H, 'i', 00H
	DB	't', 00H, 'h', 00H, '_', 00H, 's', 00H, 'o', 00H, 'u', 00H, 'r'
	DB	00H, 'c', 00H, 'e', 00H, 's', 00H, '\', 00H, 'x', 00H, 'a', 00H
	DB	's', 00H, 'h', 00H, 'x', 00H, 't', 00H, '_', 00H, 'v', 00H, '0'
	DB	00H, '.', 00H, '8', 00H, '1', 00H, '_', 00H, 'r', 00H, 'e', 00H
	DB	'v', 00H, '.', 00H, '1', 00H, '_', 00H, 's', 00H, 'r', 00H, 'c'
	DB	00H, '\', 00H, 'g', 00H, 'a', 00H, 'm', 00H, 'e', 00H, '_', 00H
	DB	's', 00H, 'h', 00H, 'a', 00H, 'r', 00H, 'e', 00H, 'd', 00H, '\'
	DB	00H, 'p', 00H, 'l', 00H, 'a', 00H, 'y', 00H, 'e', 00H, 'r', 00H
	DB	'm', 00H, 'o', 00H, 'v', 00H, 'e', 00H, '.', 00H, 'c', 00H, 'p'
	DB	00H, 'p', 00H, 00H, 00H
	ORG $+4
$SG16192 DB	'c', 00H, ':', 00H, '\', 00H, 'u', 00H, 's', 00H, 'e', 00H
	DB	'r', 00H, 's', 00H, '\', 00H, 'u', 00H, 's', 00H, 'e', 00H, 'r'
	DB	00H, '\', 00H, 'd', 00H, 'o', 00H, 'w', 00H, 'n', 00H, 'l', 00H
	DB	'o', 00H, 'a', 00H, 'd', 00H, 's', 00H, '\', 00H, 'x', 00H, 'a'
	DB	00H, 's', 00H, 'h', 00H, 'x', 00H, 't', 00H, '_', 00H, 'v', 00H
	DB	'0', 00H, '.', 00H, '8', 00H, '1', 00H, '_', 00H, 'r', 00H, 'e'
	DB	00H, 'v', 00H, '.', 00H, '1', 00H, '_', 00H, 'w', 00H, 'i', 00H
	DB	't', 00H, 'h', 00H, '_', 00H, 's', 00H, 'o', 00H, 'u', 00H, 'r'
	DB	00H, 'c', 00H, 'e', 00H, 's', 00H, '\', 00H, 'x', 00H, 'a', 00H
	DB	's', 00H, 'h', 00H, 'x', 00H, 't', 00H, '_', 00H, 'v', 00H, '0'
	DB	00H, '.', 00H, '8', 00H, '1', 00H, '_', 00H, 'r', 00H, 'e', 00H
	DB	'v', 00H, '.', 00H, '1', 00H, '_', 00H, 's', 00H, 'r', 00H, 'c'
	DB	00H, '\', 00H, 'g', 00H, 'a', 00H, 'm', 00H, 'e', 00H, '_', 00H
	DB	's', 00H, 'h', 00H, 'a', 00H, 'r', 00H, 'e', 00H, 'd', 00H, '\'
	DB	00H, 'p', 00H, 'l', 00H, 'a', 00H, 'y', 00H, 'e', 00H, 'r', 00H
	DB	'm', 00H, 'o', 00H, 'v', 00H, 'e', 00H, '.', 00H, 'c', 00H, 'p'
	DB	00H, 'p', 00H, 00H, 00H
$SG16193 DB	'!', 00H, 'p', 00H, 'm', 00H, '_', 00H, 's', 00H, 'h', 00H
	DB	'a', 00H, 'r', 00H, 'e', 00H, 'd', 00H, '_', 00H, 'i', 00H, 'n'
	DB	00H, 'i', 00H, 't', 00H, 'i', 00H, 'a', 00H, 'l', 00H, 'i', 00H
	DB	'z', 00H, 'e', 00H, 'd', 00H, 00H, 00H
CONST	ENDS
PUBLIC	??_H@YGXPAXIIP6EPAX0@Z@Z			; `vector constructor iterator'
PUBLIC	??__G@YGXPAX0IIP6EPAX00@Z@Z			; `vector copy constructor iterator'
PUBLIC	?SinCos@@YAXMPAM0@Z				; SinCos
PUBLIC	??0Vector@@QAE@XZ				; Vector::Vector
PUBLIC	??0Vector@@QAE@MMM@Z				; Vector::Vector
PUBLIC	??0Vector@@QAE@ABV0@@Z				; Vector::Vector
PUBLIC	??8Vector@@QBEHABV0@@Z				; Vector::operator==
PUBLIC	??9Vector@@QBEHABV0@@Z				; Vector::operator!=
PUBLIC	??HVector@@QBE?AV0@ABV0@@Z			; Vector::operator+
PUBLIC	??GVector@@QBE?AV0@ABV0@@Z			; Vector::operator-
PUBLIC	??DVector@@QBE?AV0@M@Z				; Vector::operator*
PUBLIC	??YVector@@QAEAAV0@ABV0@@Z			; Vector::operator+=
PUBLIC	??ZVector@@QAEAAV0@ABV0@@Z			; Vector::operator-=
PUBLIC	??XVector@@QAEAAV0@M@Z				; Vector::operator*=
PUBLIC	?Length@Vector@@QBEMXZ				; Vector::Length
PUBLIC	??BVector@@QAEPAMXZ				; Vector::operator float *
PUBLIC	??BVector@@QBEPBMXZ				; Vector::operator float const *
PUBLIC	?Normalize@Vector@@QBE?AV1@XZ			; Vector::Normalize
PUBLIC	??D@YA?AVVector@@MABV0@@Z			; operator*
PUBLIC	?DotProduct@@YAMABVVector@@0@Z			; DotProduct
PUBLIC	?CrossProduct@@YA?AVVector@@ABV1@0@Z		; CrossProduct
PUBLIC	??0Vector4D@@QAE@XZ				; Vector4D::Vector4D
PUBLIC	??BVector4D@@QAEPAMXZ				; Vector4D::operator float *
PUBLIC	??0matrix4x4@@QAE@ABVVector@@0M@Z		; matrix4x4::matrix4x4
PUBLIC	??0plane_s@@QAE@XZ				; plane_s::plane_s
PUBLIC	??0trace_s@@QAE@XZ				; trace_s::trace_s
PUBLIC	??0pmplane_t@@QAE@XZ				; pmplane_t::pmplane_t
PUBLIC	??0pmplane_t@@QAE@ABU0@@Z			; pmplane_t::pmplane_t
PUBLIC	??0pmplane_t@@QAE@$$QAU0@@Z			; pmplane_t::pmplane_t
PUBLIC	??0pmtrace_s@@QAE@XZ				; pmtrace_s::pmtrace_s
PUBLIC	??0pmtrace_s@@QAE@ABU0@@Z			; pmtrace_s::pmtrace_s
PUBLIC	??0pmtrace_s@@QAE@$$QAU0@@Z			; pmtrace_s::pmtrace_s
PUBLIC	?PM_SwapTextures@@YAXHH@Z			; PM_SwapTextures
PUBLIC	?PM_SortTextures@@YAXXZ				; PM_SortTextures
PUBLIC	?PM_ParticleLine@@YAXVVector@@0H@Z		; PM_ParticleLine
PUBLIC	?PM_InitTextureTypes@@YAXXZ			; PM_InitTextureTypes
PUBLIC	?PM_FindTextureType@@YADPAD@Z			; PM_FindTextureType
PUBLIC	?PM_PlayGroupSound@@YAXPBDHM@Z			; PM_PlayGroupSound
PUBLIC	?PM_PlayStepSound@@YAXHM@Z			; PM_PlayStepSound
PUBLIC	?PM_MapTextureTypeStepType@@YAHD@Z		; PM_MapTextureTypeStepType
PUBLIC	?PM_CatagorizeTextureType@@YAXXZ		; PM_CatagorizeTextureType
PUBLIC	?PM_UpdateStepSound@@YAXXZ			; PM_UpdateStepSound
PUBLIC	?PM_AddToTouched@@YAHUpmtrace_s@@VVector@@@Z	; PM_AddToTouched
PUBLIC	?PM_CheckVelocity@@YAXXZ			; PM_CheckVelocity
PUBLIC	?PM_ClipVelocity@@YAHVVector@@0AAV1@M@Z		; PM_ClipVelocity
PUBLIC	?PM_AddCorrectGravity@@YAXXZ			; PM_AddCorrectGravity
PUBLIC	?PM_FixupGravityVelocity@@YAXXZ			; PM_FixupGravityVelocity
PUBLIC	?PM_FlyMove@@YAHXZ				; PM_FlyMove
PUBLIC	?PM_Accelerate@@YAXVVector@@MM@Z		; PM_Accelerate
PUBLIC	?PM_WalkMove@@YAXXZ				; PM_WalkMove
PUBLIC	?PM_Friction@@YAXXZ				; PM_Friction
PUBLIC	?PM_AirAccelerate@@YAXVVector@@MM@Z		; PM_AirAccelerate
PUBLIC	?PM_WaterMove@@YAXXZ				; PM_WaterMove
PUBLIC	?PM_AirMove@@YAXXZ				; PM_AirMove
PUBLIC	?PM_InWater@@YAHXZ				; PM_InWater
PUBLIC	?PM_CheckWater@@YAHXZ				; PM_CheckWater
PUBLIC	?PM_CatagorizePosition@@YAXXZ			; PM_CatagorizePosition
PUBLIC	?PM_GetRandomStuckOffsets@@YAHHHAAVVector@@@Z	; PM_GetRandomStuckOffsets
PUBLIC	?PM_ResetStuckOffsets@@YAXHH@Z			; PM_ResetStuckOffsets
PUBLIC	?PM_CheckStuck@@YAHXZ				; PM_CheckStuck
PUBLIC	?PM_SpectatorMove@@YAXXZ			; PM_SpectatorMove
PUBLIC	?PM_SplineFraction@@YAMMM@Z			; PM_SplineFraction
PUBLIC	?PM_FixPlayerCrouchStuck@@YAXH@Z		; PM_FixPlayerCrouchStuck
PUBLIC	?PM_UnDuck@@YAXXZ				; PM_UnDuck
PUBLIC	?PM_Duck@@YAXXZ					; PM_Duck
PUBLIC	?PM_LadderMove@@YAXPAUphysent_s@@@Z		; PM_LadderMove
PUBLIC	?PM_Ladder@@YAPAUphysent_s@@XZ			; PM_Ladder
PUBLIC	?PM_WaterJump@@YAXXZ				; PM_WaterJump
PUBLIC	?PM_AddGravity@@YAXXZ				; PM_AddGravity
PUBLIC	?PM_PushEntity@@YA?AUpmtrace_s@@ABVVector@@@Z	; PM_PushEntity
PUBLIC	?PM_Physics_Toss@@YAXXZ				; PM_Physics_Toss
PUBLIC	?PM_NoClip@@YAXXZ				; PM_NoClip
PUBLIC	?PM_PreventMegaBunnyJumping@@YAXXZ		; PM_PreventMegaBunnyJumping
PUBLIC	?PM_Jump@@YAXXZ					; PM_Jump
PUBLIC	?PM_CheckWaterJump@@YAXXZ			; PM_CheckWaterJump
PUBLIC	?PM_CheckFalling@@YAXXZ				; PM_CheckFalling
PUBLIC	?PM_PlayWaterSounds@@YAXXZ			; PM_PlayWaterSounds
PUBLIC	?PM_CalcRoll@@YAMVVector@@0MM@Z			; PM_CalcRoll
PUBLIC	?PM_DropPunchAngle@@YAXAAVVector@@@Z		; PM_DropPunchAngle
PUBLIC	?PM_CheckParamters@@YAXXZ			; PM_CheckParamters
PUBLIC	?PM_ReduceTimers@@YAXXZ				; PM_ReduceTimers
PUBLIC	?PM_PlayerMove@@YAXH@Z				; PM_PlayerMove
PUBLIC	?PM_CreateStuckTable@@YAXXZ			; PM_CreateStuckTable
PUBLIC	?PM_Move@@YAXPAUplayermove_s@@H@Z		; PM_Move
PUBLIC	?PM_GetVisEntInfo@@YAHH@Z			; PM_GetVisEntInfo
PUBLIC	?PM_GetPhysEntInfo@@YAHH@Z			; PM_GetPhysEntInfo
PUBLIC	?PM_Init@@YAXPAUplayermove_s@@@Z		; PM_Init
PUBLIC	__real@00000000
PUBLIC	__real@0000000000000000
PUBLIC	__real@3d4ccccd
PUBLIC	__real@3dcccccd
PUBLIC	__real@3e99999a
PUBLIC	__real@3eb33333
PUBLIC	__real@3f000000
PUBLIC	__real@3f266666
PUBLIC	__real@3f333333
PUBLIC	__real@3f4ccccd
PUBLIC	__real@3f50624dd2f1a9fc
PUBLIC	__real@3f59999a
PUBLIC	__real@3f666666
PUBLIC	__real@3f800000
PUBLIC	__real@3f8a9fbe76c8b439
PUBLIC	__real@3f8c28f6
PUBLIC	__real@3f91df46a2529d39
PUBLIC	__real@3fb99999a0000000
PUBLIC	__real@3fc0000000000000
PUBLIC	__real@3fc999999999999a
PUBLIC	__real@3fd0000000000000
PUBLIC	__real@3fd3333333333333
PUBLIC	__real@3fd54fdf3b645a1d
PUBLIC	__real@3fd6666666666666
PUBLIC	__real@3fd999999999999a
PUBLIC	__real@3fd9999a
PUBLIC	__real@3fe0000000000000
PUBLIC	__real@3fe199999999999a
PUBLIC	__real@3fe3333333333333
PUBLIC	__real@3fe4cccccccccccd
PUBLIC	__real@3fe6666666666666
PUBLIC	__real@3fe999999999999a
PUBLIC	__real@3ff0000000000000
PUBLIC	__real@3ff8000000000000
PUBLIC	__real@3ff999999999999a
PUBLIC	__real@40000000
PUBLIC	__real@4000000000000000
PUBLIC	__real@40200000
PUBLIC	__real@4024000000000000
PUBLIC	__real@40400000
PUBLIC	__real@40800000
PUBLIC	__real@408f400000000000
PUBLIC	__real@40a00000
PUBLIC	__real@40c00000
PUBLIC	__real@40f1940000000000
PUBLIC	__real@40f5e00000000000
PUBLIC	__real@41000000
PUBLIC	__real@41400000
PUBLIC	__real@41800000
PUBLIC	__real@41900000
PUBLIC	__real@41c00000
PUBLIC	__real@41e00000
PUBLIC	__real@41f00000
PUBLIC	__real@42080000
PUBLIC	__real@42480000
PUBLIC	__real@42700000
PUBLIC	__real@42800000
PUBLIC	__real@42a00000
PUBLIC	__real@42c80000
PUBLIC	__real@42f00000
PUBLIC	__real@43340000
PUBLIC	__real@43480000
PUBLIC	__real@43520000
PUBLIC	__real@435c0000
PUBLIC	__real@43610000
PUBLIC	__real@43870000
PUBLIC	__real@43910000
PUBLIC	__real@43af0000
PUBLIC	__real@43b40000
PUBLIC	__real@44110000
PUBLIC	__real@44610000
PUBLIC	__real@447a0000
PUBLIC	__real@44fa0000
PUBLIC	__real@461c4000
PUBLIC	__real@bdcccccd
PUBLIC	__real@be000000
PUBLIC	__real@bf800000
PUBLIC	__real@c0000000
PUBLIC	__real@c0a00000
PUBLIC	__real@c1000000
PUBLIC	__real@c2480000
PUBLIC	__real@c3340000
PUBLIC	__xmm@80000000800000008000000080000000
EXTRN	___report_rangecheckfailure:PROC
EXTRN	__Init_thread_header:PROC
EXTRN	__Init_thread_abort:PROC
EXTRN	__Init_thread_footer:PROC
EXTRN	__wassert:PROC
EXTRN	_fabs:PROC
EXTRN	_sqrt:PROC
EXTRN	_atoi:PROC
EXTRN	?VectorITransform@matrix4x4@@QBE?AVVector@@ABV2@@Z:PROC ; matrix4x4::VectorITransform
EXTRN	_memset:PROC
EXTRN	_strcpy:PROC
EXTRN	_strnicmp:PROC
EXTRN	_isalpha:PROC
EXTRN	_isspace:PROC
EXTRN	_toupper:PROC
EXTRN	?Q_strnicmp@@YAHPBD0H@Z:PROC			; Q_strnicmp
EXTRN	@__security_check_cookie@4:PROC
EXTRN	___CxxFrameHandler3:PROC
EXTRN	__Init_thread_epoch:DWORD
EXTRN	?g_vecZero@@3VVector@@B:BYTE			; g_vecZero
EXTRN	?gEngfuncs@@3Ucl_enginefuncs_s@@A:BYTE		; gEngfuncs
EXTRN	___security_cookie:DWORD
EXTRN	__fltused:DWORD
EXTRN	__tls_array:DWORD
EXTRN	__tls_index:DWORD
_BSS	SEGMENT
?pm_shared_initialized@@3HA DD 01H DUP (?)		; pm_shared_initialized
?rgv3tStuckTable@@3PAVVector@@A DB 0288H DUP (?)	; rgv3tStuckTable
?rgStuckLast@@3PAY01HA DD 040H DUP (?)			; rgStuckLast
?rgStuckCheckTime@@3PAY01MA DD 040H DUP (?)		; rgStuckCheckTime
?gcTextures@@3HA DD 01H DUP (?)				; gcTextures
?grgszTextureName@@3PAY0N@DA DB 01a00H DUP (?)		; grgszTextureName
?grgchTextureType@@3PADA DB 0200H DUP (?)		; grgchTextureType
_BSS	ENDS
;	COMDAT ?bTextureTypeInit@?1??PM_InitTextureTypes@@YAXXZ@4HA
_BSS	SEGMENT
?bTextureTypeInit@?1??PM_InitTextureTypes@@YAXXZ@4HA DD 01H DUP (?) ; `PM_InitTextureTypes'::`2'::bTextureTypeInit
_BSS	ENDS
;	COMDAT ?szBuf@?1??PM_PlayGroupSound@@YAXPBDHM@Z@4PADA
_BSS	SEGMENT
?szBuf@?1??PM_PlayGroupSound@@YAXPBDHM@Z@4PADA DB 080H DUP (?) ; `PM_PlayGroupSound'::`2'::szBuf
_BSS	ENDS
;	COMDAT ?iSkipStep@?1??PM_PlayStepSound@@YAXHM@Z@4HA
_BSS	SEGMENT
?iSkipStep@?1??PM_PlayStepSound@@YAXHM@Z@4HA DD 01H DUP (?) ; `PM_PlayStepSound'::`2'::iSkipStep
_BSS	ENDS
;	COMDAT ?current_table@?N@??PM_CheckWater@@YAHXZ@4PAVVector@@A
_BSS	SEGMENT
?current_table@?N@??PM_CheckWater@@YAHXZ@4PAVVector@@A DB 048H DUP (?) ; `PM_CheckWater'::`13'::current_table
_BSS	ENDS
;	COMDAT ?$TSS0@?N@??PM_CheckWater@@YAHXZ@4HA
_BSS	SEGMENT
?$TSS0@?N@??PM_CheckWater@@YAHXZ@4HA DD 01H DUP (?)	; TSS0<`template-parameter-13',UNKNOWN,eckWater,int, ?? &>
_BSS	ENDS
CRT$XCU	SEGMENT
?rgv3tStuckTable$initializer$@@3P6AXXZA DD FLAT:??__Ergv3tStuckTable@@YAXXZ ; rgv3tStuckTable$initializer$
CRT$XCU	ENDS
;	COMDAT __xmm@80000000800000008000000080000000
CONST	SEGMENT
__xmm@80000000800000008000000080000000 DB 00H, 00H, 00H, 080H, 00H, 00H, 00H
	DB	080H, 00H, 00H, 00H, 080H, 00H, 00H, 00H, 080H
CONST	ENDS
;	COMDAT __real@c3340000
CONST	SEGMENT
__real@c3340000 DD 0c3340000r			; -180
CONST	ENDS
;	COMDAT __real@c2480000
CONST	SEGMENT
__real@c2480000 DD 0c2480000r			; -50
CONST	ENDS
;	COMDAT __real@c1000000
CONST	SEGMENT
__real@c1000000 DD 0c1000000r			; -8
CONST	ENDS
;	COMDAT __real@c0a00000
CONST	SEGMENT
__real@c0a00000 DD 0c0a00000r			; -5
CONST	ENDS
;	COMDAT __real@c0000000
CONST	SEGMENT
__real@c0000000 DD 0c0000000r			; -2
CONST	ENDS
;	COMDAT __real@bf800000
CONST	SEGMENT
__real@bf800000 DD 0bf800000r			; -1
CONST	ENDS
;	COMDAT __real@be000000
CONST	SEGMENT
__real@be000000 DD 0be000000r			; -0.125
CONST	ENDS
;	COMDAT __real@bdcccccd
CONST	SEGMENT
__real@bdcccccd DD 0bdcccccdr			; -0.1
CONST	ENDS
;	COMDAT __real@461c4000
CONST	SEGMENT
__real@461c4000 DD 0461c4000r			; 10000
CONST	ENDS
;	COMDAT __real@44fa0000
CONST	SEGMENT
__real@44fa0000 DD 044fa0000r			; 2000
CONST	ENDS
;	COMDAT __real@447a0000
CONST	SEGMENT
__real@447a0000 DD 0447a0000r			; 1000
CONST	ENDS
;	COMDAT __real@44610000
CONST	SEGMENT
__real@44610000 DD 044610000r			; 900
CONST	ENDS
;	COMDAT __real@44110000
CONST	SEGMENT
__real@44110000 DD 044110000r			; 580
CONST	ENDS
;	COMDAT __real@43b40000
CONST	SEGMENT
__real@43b40000 DD 043b40000r			; 360
CONST	ENDS
;	COMDAT __real@43af0000
CONST	SEGMENT
__real@43af0000 DD 043af0000r			; 350
CONST	ENDS
;	COMDAT __real@43910000
CONST	SEGMENT
__real@43910000 DD 043910000r			; 290
CONST	ENDS
;	COMDAT __real@43870000
CONST	SEGMENT
__real@43870000 DD 043870000r			; 270
CONST	ENDS
;	COMDAT __real@43610000
CONST	SEGMENT
__real@43610000 DD 043610000r			; 225
CONST	ENDS
;	COMDAT __real@435c0000
CONST	SEGMENT
__real@435c0000 DD 0435c0000r			; 220
CONST	ENDS
;	COMDAT __real@43520000
CONST	SEGMENT
__real@43520000 DD 043520000r			; 210
CONST	ENDS
;	COMDAT __real@43480000
CONST	SEGMENT
__real@43480000 DD 043480000r			; 200
CONST	ENDS
;	COMDAT __real@43340000
CONST	SEGMENT
__real@43340000 DD 043340000r			; 180
CONST	ENDS
;	COMDAT __real@42f00000
CONST	SEGMENT
__real@42f00000 DD 042f00000r			; 120
CONST	ENDS
;	COMDAT __real@42c80000
CONST	SEGMENT
__real@42c80000 DD 042c80000r			; 100
CONST	ENDS
;	COMDAT __real@42a00000
CONST	SEGMENT
__real@42a00000 DD 042a00000r			; 80
CONST	ENDS
;	COMDAT __real@42800000
CONST	SEGMENT
__real@42800000 DD 042800000r			; 64
CONST	ENDS
;	COMDAT __real@42700000
CONST	SEGMENT
__real@42700000 DD 042700000r			; 60
CONST	ENDS
;	COMDAT __real@42480000
CONST	SEGMENT
__real@42480000 DD 042480000r			; 50
CONST	ENDS
;	COMDAT __real@42080000
CONST	SEGMENT
__real@42080000 DD 042080000r			; 34
CONST	ENDS
;	COMDAT __real@41f00000
CONST	SEGMENT
__real@41f00000 DD 041f00000r			; 30
CONST	ENDS
;	COMDAT __real@41e00000
CONST	SEGMENT
__real@41e00000 DD 041e00000r			; 28
CONST	ENDS
;	COMDAT __real@41c00000
CONST	SEGMENT
__real@41c00000 DD 041c00000r			; 24
CONST	ENDS
;	COMDAT __real@41900000
CONST	SEGMENT
__real@41900000 DD 041900000r			; 18
CONST	ENDS
;	COMDAT __real@41800000
CONST	SEGMENT
__real@41800000 DD 041800000r			; 16
CONST	ENDS
;	COMDAT __real@41400000
CONST	SEGMENT
__real@41400000 DD 041400000r			; 12
CONST	ENDS
;	COMDAT __real@41000000
CONST	SEGMENT
__real@41000000 DD 041000000r			; 8
CONST	ENDS
;	COMDAT __real@40f5e00000000000
CONST	SEGMENT
__real@40f5e00000000000 DQ 040f5e00000000000r	; 89600
CONST	ENDS
;	COMDAT __real@40f1940000000000
CONST	SEGMENT
__real@40f1940000000000 DQ 040f1940000000000r	; 72000
CONST	ENDS
;	COMDAT __real@40c00000
CONST	SEGMENT
__real@40c00000 DD 040c00000r			; 6
CONST	ENDS
;	COMDAT __real@40a00000
CONST	SEGMENT
__real@40a00000 DD 040a00000r			; 5
CONST	ENDS
;	COMDAT __real@408f400000000000
CONST	SEGMENT
__real@408f400000000000 DQ 0408f400000000000r	; 1000
CONST	ENDS
;	COMDAT __real@40800000
CONST	SEGMENT
__real@40800000 DD 040800000r			; 4
CONST	ENDS
;	COMDAT __real@40400000
CONST	SEGMENT
__real@40400000 DD 040400000r			; 3
CONST	ENDS
;	COMDAT __real@4024000000000000
CONST	SEGMENT
__real@4024000000000000 DQ 04024000000000000r	; 10
CONST	ENDS
;	COMDAT __real@40200000
CONST	SEGMENT
__real@40200000 DD 040200000r			; 2.5
CONST	ENDS
;	COMDAT __real@4000000000000000
CONST	SEGMENT
__real@4000000000000000 DQ 04000000000000000r	; 2
CONST	ENDS
;	COMDAT __real@40000000
CONST	SEGMENT
__real@40000000 DD 040000000r			; 2
CONST	ENDS
;	COMDAT __real@3ff999999999999a
CONST	SEGMENT
__real@3ff999999999999a DQ 03ff999999999999ar	; 1.6
CONST	ENDS
;	COMDAT __real@3ff8000000000000
CONST	SEGMENT
__real@3ff8000000000000 DQ 03ff8000000000000r	; 1.5
CONST	ENDS
;	COMDAT __real@3ff0000000000000
CONST	SEGMENT
__real@3ff0000000000000 DQ 03ff0000000000000r	; 1
CONST	ENDS
;	COMDAT __real@3fe999999999999a
CONST	SEGMENT
__real@3fe999999999999a DQ 03fe999999999999ar	; 0.8
CONST	ENDS
;	COMDAT __real@3fe6666666666666
CONST	SEGMENT
__real@3fe6666666666666 DQ 03fe6666666666666r	; 0.7
CONST	ENDS
;	COMDAT __real@3fe4cccccccccccd
CONST	SEGMENT
__real@3fe4cccccccccccd DQ 03fe4cccccccccccdr	; 0.65
CONST	ENDS
;	COMDAT __real@3fe3333333333333
CONST	SEGMENT
__real@3fe3333333333333 DQ 03fe3333333333333r	; 0.6
CONST	ENDS
;	COMDAT __real@3fe199999999999a
CONST	SEGMENT
__real@3fe199999999999a DQ 03fe199999999999ar	; 0.55
CONST	ENDS
;	COMDAT __real@3fe0000000000000
CONST	SEGMENT
__real@3fe0000000000000 DQ 03fe0000000000000r	; 0.5
CONST	ENDS
;	COMDAT __real@3fd9999a
CONST	SEGMENT
__real@3fd9999a DD 03fd9999ar			; 1.7
CONST	ENDS
;	COMDAT __real@3fd999999999999a
CONST	SEGMENT
__real@3fd999999999999a DQ 03fd999999999999ar	; 0.4
CONST	ENDS
;	COMDAT __real@3fd6666666666666
CONST	SEGMENT
__real@3fd6666666666666 DQ 03fd6666666666666r	; 0.35
CONST	ENDS
;	COMDAT __real@3fd54fdf3b645a1d
CONST	SEGMENT
__real@3fd54fdf3b645a1d DQ 03fd54fdf3b645a1dr	; 0.333
CONST	ENDS
;	COMDAT __real@3fd3333333333333
CONST	SEGMENT
__real@3fd3333333333333 DQ 03fd3333333333333r	; 0.3
CONST	ENDS
;	COMDAT __real@3fd0000000000000
CONST	SEGMENT
__real@3fd0000000000000 DQ 03fd0000000000000r	; 0.25
CONST	ENDS
;	COMDAT __real@3fc999999999999a
CONST	SEGMENT
__real@3fc999999999999a DQ 03fc999999999999ar	; 0.2
CONST	ENDS
;	COMDAT __real@3fc0000000000000
CONST	SEGMENT
__real@3fc0000000000000 DQ 03fc0000000000000r	; 0.125
CONST	ENDS
;	COMDAT __real@3fb99999a0000000
CONST	SEGMENT
__real@3fb99999a0000000 DQ 03fb99999a0000000r	; 0.1
CONST	ENDS
;	COMDAT __real@3f91df46a2529d39
CONST	SEGMENT
__real@3f91df46a2529d39 DQ 03f91df46a2529d39r	; 0.0174533
CONST	ENDS
;	COMDAT __real@3f8c28f6
CONST	SEGMENT
__real@3f8c28f6 DD 03f8c28f6r			; 1.095
CONST	ENDS
;	COMDAT __real@3f8a9fbe76c8b439
CONST	SEGMENT
__real@3f8a9fbe76c8b439 DQ 03f8a9fbe76c8b439r	; 0.013
CONST	ENDS
;	COMDAT __real@3f800000
CONST	SEGMENT
__real@3f800000 DD 03f800000r			; 1
CONST	ENDS
;	COMDAT __real@3f666666
CONST	SEGMENT
__real@3f666666 DD 03f666666r			; 0.9
CONST	ENDS
;	COMDAT __real@3f59999a
CONST	SEGMENT
__real@3f59999a DD 03f59999ar			; 0.85
CONST	ENDS
;	COMDAT __real@3f50624dd2f1a9fc
CONST	SEGMENT
__real@3f50624dd2f1a9fc DQ 03f50624dd2f1a9fcr	; 0.001
CONST	ENDS
;	COMDAT __real@3f4ccccd
CONST	SEGMENT
__real@3f4ccccd DD 03f4ccccdr			; 0.8
CONST	ENDS
;	COMDAT __real@3f333333
CONST	SEGMENT
__real@3f333333 DD 03f333333r			; 0.7
CONST	ENDS
;	COMDAT __real@3f266666
CONST	SEGMENT
__real@3f266666 DD 03f266666r			; 0.65
CONST	ENDS
;	COMDAT __real@3f000000
CONST	SEGMENT
__real@3f000000 DD 03f000000r			; 0.5
CONST	ENDS
;	COMDAT __real@3eb33333
CONST	SEGMENT
__real@3eb33333 DD 03eb33333r			; 0.35
CONST	ENDS
;	COMDAT __real@3e99999a
CONST	SEGMENT
__real@3e99999a DD 03e99999ar			; 0.3
CONST	ENDS
;	COMDAT __real@3dcccccd
CONST	SEGMENT
__real@3dcccccd DD 03dcccccdr			; 0.1
CONST	ENDS
;	COMDAT __real@3d4ccccd
CONST	SEGMENT
__real@3d4ccccd DD 03d4ccccdr			; 0.05
CONST	ENDS
;	COMDAT __real@0000000000000000
CONST	SEGMENT
__real@0000000000000000 DQ 00000000000000000r	; 0
CONST	ENDS
;	COMDAT __real@00000000
CONST	SEGMENT
__real@00000000 DD 000000000r			; 0
CONST	ENDS
xdata$x	SEGMENT
__unwindtable$?PM_CheckWater@@YAHXZ DD 0ffffffffH
	DD	FLAT:__unwindfunclet$?PM_CheckWater@@YAHXZ$0
__ehfuncinfo$?PM_CheckWater@@YAHXZ DD 019930522H
	DD	01H
	DD	FLAT:__unwindtable$?PM_CheckWater@@YAHXZ
	DD	2 DUP(00H)
	DD	2 DUP(00H)
	DD	00H
	DD	01H
xdata$x	ENDS
; Function compile flags: /Odtp
; File c:\users\user\downloads\xashxt_v0.81_rev.1_with_sources\xashxt_v0.81_rev.1_src\game_shared\playermove.cpp
_TEXT	SEGMENT
_ppmove$ = 8						; size = 4
?PM_Init@@YAXPAUplayermove_s@@@Z PROC			; PM_Init

; 3385 : {

	push	ebp
	mov	ebp, esp

; 3386 : 	assert( !pm_shared_initialized );

	cmp	DWORD PTR ?pm_shared_initialized@@3HA, 0
	je	SHORT $LN3@PM_Init
	push	3386					; 00000d3aH
	push	OFFSET $SG16192
	push	OFFSET $SG16193
	call	__wassert
	add	esp, 12					; 0000000cH
$LN3@PM_Init:

; 3387 : 
; 3388 : 	pmove = ppmove;

	mov	ecx, DWORD PTR _ppmove$[ebp]
	mov	DWORD PTR ?pmove@@3PAUplayermove_s@@A, ecx ; pmove

; 3389 : 
; 3390 : 	PM_CreateStuckTable();

	call	?PM_CreateStuckTable@@YAXXZ		; PM_CreateStuckTable

; 3391 : 	PM_InitTextureTypes();

	call	?PM_InitTextureTypes@@YAXXZ		; PM_InitTextureTypes

; 3392 : 
; 3393 : 	pm_shared_initialized = 1;

	mov	DWORD PTR ?pm_shared_initialized@@3HA, 1

; 3394 : }

	pop	ebp
	ret	0
?PM_Init@@YAXPAUplayermove_s@@@Z ENDP			; PM_Init
_TEXT	ENDS
; Function compile flags: /Odtp
; File c:\users\user\downloads\xashxt_v0.81_rev.1_with_sources\xashxt_v0.81_rev.1_src\game_shared\playermove.cpp
_TEXT	SEGMENT
_ent$ = 8						; size = 4
?PM_GetPhysEntInfo@@YAHH@Z PROC				; PM_GetPhysEntInfo

; 3376 : {

	push	ebp
	mov	ebp, esp

; 3377 : 	if ( ent >= 0 && ent <= pmove->numphysent)

	cmp	DWORD PTR _ent$[ebp], 0
	jl	SHORT $LN2@PM_GetPhys
	mov	eax, DWORD PTR ?pmove@@3PAUplayermove_s@@A ; pmove
	mov	ecx, DWORD PTR _ent$[ebp]
	cmp	ecx, DWORD PTR [eax+588]
	jg	SHORT $LN2@PM_GetPhys

; 3378 : 	{
; 3379 : 		return pmove->physents[ ent ].info;

	imul	edx, DWORD PTR _ent$[ebp], 224
	mov	eax, DWORD PTR ?pmove@@3PAUplayermove_s@@A ; pmove
	mov	eax, DWORD PTR [eax+edx+672]
	jmp	SHORT $LN1@PM_GetPhys
$LN2@PM_GetPhys:

; 3380 : 	}
; 3381 : 	return -1;

	or	eax, -1
$LN1@PM_GetPhys:

; 3382 : }

	pop	ebp
	ret	0
?PM_GetPhysEntInfo@@YAHH@Z ENDP				; PM_GetPhysEntInfo
_TEXT	ENDS
; Function compile flags: /Odtp
; File c:\users\user\downloads\xashxt_v0.81_rev.1_with_sources\xashxt_v0.81_rev.1_src\game_shared\playermove.cpp
_TEXT	SEGMENT
_ent$ = 8						; size = 4
?PM_GetVisEntInfo@@YAHH@Z PROC				; PM_GetVisEntInfo

; 3367 : {

	push	ebp
	mov	ebp, esp

; 3368 : 	if ( ent >= 0 && ent <= pmove->numvisent )

	cmp	DWORD PTR _ent$[ebp], 0
	jl	SHORT $LN2@PM_GetVisE
	mov	eax, DWORD PTR ?pmove@@3PAUplayermove_s@@A ; pmove
	mov	ecx, DWORD PTR _ent$[ebp]
	cmp	ecx, DWORD PTR [eax+149332]
	jg	SHORT $LN2@PM_GetVisE

; 3369 : 	{
; 3370 : 		return pmove->visents[ ent ].info;

	imul	edx, DWORD PTR _ent$[ebp], 224
	mov	eax, DWORD PTR ?pmove@@3PAUplayermove_s@@A ; pmove
	mov	eax, DWORD PTR [eax+edx+149416]
	jmp	SHORT $LN1@PM_GetVisE
$LN2@PM_GetVisE:

; 3371 : 	}
; 3372 : 	return -1;

	or	eax, -1
$LN1@PM_GetVisE:

; 3373 : }

	pop	ebp
	ret	0
?PM_GetVisEntInfo@@YAHH@Z ENDP				; PM_GetVisEntInfo
_TEXT	ENDS
; Function compile flags: /Odtp
; File c:\users\user\downloads\xashxt_v0.81_rev.1_with_sources\xashxt_v0.81_rev.1_src\game_shared\playermove.cpp
_TEXT	SEGMENT
tv70 = -1						; size = 1
_ppmove$ = 8						; size = 4
_server$ = 12						; size = 4
?PM_Move@@YAXPAUplayermove_s@@H@Z PROC			; PM_Move

; 3343 : {

	push	ebp
	mov	ebp, esp
	push	ecx

; 3344 : 	assert( pm_shared_initialized );

	cmp	DWORD PTR ?pm_shared_initialized@@3HA, 0
	jne	SHORT $LN6@PM_Move
	push	3344					; 00000d10H
	push	OFFSET $SG16174
	push	OFFSET $SG16175
	call	__wassert
	add	esp, 12					; 0000000cH
$LN6@PM_Move:

; 3345 : 
; 3346 : 	pmove = ppmove;

	mov	ecx, DWORD PTR _ppmove$[ebp]
	mov	DWORD PTR ?pmove@@3PAUplayermove_s@@A, ecx ; pmove

; 3347 : 	
; 3348 : 	PM_PlayerMove( ( server != 0 ) ? true : false );

	cmp	DWORD PTR _server$[ebp], 0
	je	SHORT $LN7@PM_Move
	mov	BYTE PTR tv70[ebp], 1
	jmp	SHORT $LN8@PM_Move
$LN7@PM_Move:
	mov	BYTE PTR tv70[ebp], 0
$LN8@PM_Move:
	movzx	edx, BYTE PTR tv70[ebp]
	push	edx
	call	?PM_PlayerMove@@YAXH@Z			; PM_PlayerMove
	add	esp, 4

; 3349 : 
; 3350 : 	if ( pmove->onground != -1 )

	mov	eax, DWORD PTR ?pmove@@3PAUplayermove_s@@A ; pmove
	cmp	DWORD PTR [eax+224], -1
	je	SHORT $LN2@PM_Move

; 3351 : 	{
; 3352 : 		pmove->flags |= FL_ONGROUND;

	mov	ecx, DWORD PTR ?pmove@@3PAUplayermove_s@@A ; pmove
	mov	edx, DWORD PTR [ecx+184]
	or	edx, 512				; 00000200H
	mov	eax, DWORD PTR ?pmove@@3PAUplayermove_s@@A ; pmove
	mov	DWORD PTR [eax+184], edx

; 3353 : 	}
; 3354 : 	else

	jmp	SHORT $LN3@PM_Move
$LN2@PM_Move:

; 3355 : 	{
; 3356 : 		pmove->flags &= ~FL_ONGROUND;

	mov	ecx, DWORD PTR ?pmove@@3PAUplayermove_s@@A ; pmove
	mov	edx, DWORD PTR [ecx+184]
	and	edx, -513				; fffffdffH
	mov	eax, DWORD PTR ?pmove@@3PAUplayermove_s@@A ; pmove
	mov	DWORD PTR [eax+184], edx
$LN3@PM_Move:

; 3357 : 	}
; 3358 : 
; 3359 : 	// In single player, reset friction after each movement to FrictionModifier Triggers work still.
; 3360 : 	if ( !pmove->multiplayer && ( pmove->movetype == MOVETYPE_WALK  ) )

	mov	ecx, DWORD PTR ?pmove@@3PAUplayermove_s@@A ; pmove
	cmp	DWORD PTR [ecx+8], 0
	jne	SHORT $LN4@PM_Move
	mov	edx, DWORD PTR ?pmove@@3PAUplayermove_s@@A ; pmove
	cmp	DWORD PTR [edx+220], 3
	jne	SHORT $LN4@PM_Move

; 3361 : 	{
; 3362 : 		pmove->friction = 1.0f;

	mov	eax, DWORD PTR ?pmove@@3PAUplayermove_s@@A ; pmove
	movss	xmm0, DWORD PTR __real@3f800000
	movss	DWORD PTR [eax+196], xmm0
$LN4@PM_Move:

; 3363 : 	}
; 3364 : }

	mov	esp, ebp
	pop	ebp
	ret	0
?PM_Move@@YAXPAUplayermove_s@@H@Z ENDP			; PM_Move
_TEXT	ENDS
; Function compile flags: /Odtp
; File c:\users\user\downloads\xashxt_v0.81_rev.1_with_sources\xashxt_v0.81_rev.1_src\game_shared\playermove.cpp
_TEXT	SEGMENT
_i$ = -36						; size = 4
_z$ = -32						; size = 4
_x$ = -28						; size = 4
_y$ = -24						; size = 4
_idx$ = -20						; size = 4
_zi$ = -16						; size = 12
__$ArrayPad$ = -4					; size = 4
?PM_CreateStuckTable@@YAXXZ PROC			; PM_CreateStuckTable

; 3227 : {

	push	ebp
	mov	ebp, esp
	sub	esp, 36					; 00000024H
	mov	eax, DWORD PTR ___security_cookie
	xor	eax, ebp
	mov	DWORD PTR __$ArrayPad$[ebp], eax

; 3228 : 	float x, y, z;
; 3229 : 	int idx;
; 3230 : 	int i;
; 3231 : 	float zi[3];
; 3232 : 
; 3233 : 	memset( rgv3tStuckTable, 0, sizeof( rgv3tStuckTable ));

	push	648					; 00000288H
	push	0
	push	OFFSET ?rgv3tStuckTable@@3PAVVector@@A
	call	_memset
	add	esp, 12					; 0000000cH

; 3234 : 
; 3235 : 	idx = 0;

	mov	DWORD PTR _idx$[ebp], 0

; 3236 : 	// Little Moves.
; 3237 : 	x = y = 0;

	xorps	xmm0, xmm0
	movss	DWORD PTR _y$[ebp], xmm0
	movss	xmm0, DWORD PTR _y$[ebp]
	movss	DWORD PTR _x$[ebp], xmm0

; 3238 : 	// Z moves
; 3239 : 	for (z = -0.125 ; z <= 0.125 ; z += 0.125)

	movss	xmm0, DWORD PTR __real@be000000
	movss	DWORD PTR _z$[ebp], xmm0
	jmp	SHORT $LN4@PM_CreateS
$LN2@PM_CreateS:
	cvtss2sd xmm0, DWORD PTR _z$[ebp]
	addsd	xmm0, QWORD PTR __real@3fc0000000000000
	cvtsd2ss xmm0, xmm0
	movss	DWORD PTR _z$[ebp], xmm0
$LN4@PM_CreateS:
	cvtss2sd xmm0, DWORD PTR _z$[ebp]
	movsd	xmm1, QWORD PTR __real@3fc0000000000000
	comisd	xmm1, xmm0
	jb	SHORT $LN3@PM_CreateS

; 3240 : 	{
; 3241 : 		rgv3tStuckTable[idx][0] = x;

	imul	ecx, DWORD PTR _idx$[ebp], 12
	add	ecx, OFFSET ?rgv3tStuckTable@@3PAVVector@@A
	call	??BVector@@QAEPAMXZ			; Vector::operator float *
	mov	ecx, 4
	imul	edx, ecx, 0
	movss	xmm0, DWORD PTR _x$[ebp]
	movss	DWORD PTR [eax+edx], xmm0

; 3242 : 		rgv3tStuckTable[idx][1] = y;

	imul	ecx, DWORD PTR _idx$[ebp], 12
	add	ecx, OFFSET ?rgv3tStuckTable@@3PAVVector@@A
	call	??BVector@@QAEPAMXZ			; Vector::operator float *
	mov	ecx, 4
	shl	ecx, 0
	movss	xmm0, DWORD PTR _y$[ebp]
	movss	DWORD PTR [eax+ecx], xmm0

; 3243 : 		rgv3tStuckTable[idx][2] = z;

	imul	ecx, DWORD PTR _idx$[ebp], 12
	add	ecx, OFFSET ?rgv3tStuckTable@@3PAVVector@@A
	call	??BVector@@QAEPAMXZ			; Vector::operator float *
	mov	edx, 4
	shl	edx, 1
	movss	xmm0, DWORD PTR _z$[ebp]
	movss	DWORD PTR [eax+edx], xmm0

; 3244 : 		idx++;

	mov	eax, DWORD PTR _idx$[ebp]
	add	eax, 1
	mov	DWORD PTR _idx$[ebp], eax

; 3245 : 	}

	jmp	$LN2@PM_CreateS
$LN3@PM_CreateS:

; 3246 : 	x = z = 0;

	xorps	xmm0, xmm0
	movss	DWORD PTR _z$[ebp], xmm0
	movss	xmm0, DWORD PTR _z$[ebp]
	movss	DWORD PTR _x$[ebp], xmm0

; 3247 : 	// Y moves
; 3248 : 	for (y = -0.125 ; y <= 0.125 ; y += 0.125)

	movss	xmm0, DWORD PTR __real@be000000
	movss	DWORD PTR _y$[ebp], xmm0
	jmp	SHORT $LN7@PM_CreateS
$LN5@PM_CreateS:
	cvtss2sd xmm0, DWORD PTR _y$[ebp]
	addsd	xmm0, QWORD PTR __real@3fc0000000000000
	cvtsd2ss xmm0, xmm0
	movss	DWORD PTR _y$[ebp], xmm0
$LN7@PM_CreateS:
	cvtss2sd xmm0, DWORD PTR _y$[ebp]
	movsd	xmm1, QWORD PTR __real@3fc0000000000000
	comisd	xmm1, xmm0
	jb	SHORT $LN6@PM_CreateS

; 3249 : 	{
; 3250 : 		rgv3tStuckTable[idx][0] = x;

	imul	ecx, DWORD PTR _idx$[ebp], 12
	add	ecx, OFFSET ?rgv3tStuckTable@@3PAVVector@@A
	call	??BVector@@QAEPAMXZ			; Vector::operator float *
	mov	ecx, 4
	imul	edx, ecx, 0
	movss	xmm0, DWORD PTR _x$[ebp]
	movss	DWORD PTR [eax+edx], xmm0

; 3251 : 		rgv3tStuckTable[idx][1] = y;

	imul	ecx, DWORD PTR _idx$[ebp], 12
	add	ecx, OFFSET ?rgv3tStuckTable@@3PAVVector@@A
	call	??BVector@@QAEPAMXZ			; Vector::operator float *
	mov	ecx, 4
	shl	ecx, 0
	movss	xmm0, DWORD PTR _y$[ebp]
	movss	DWORD PTR [eax+ecx], xmm0

; 3252 : 		rgv3tStuckTable[idx][2] = z;

	imul	ecx, DWORD PTR _idx$[ebp], 12
	add	ecx, OFFSET ?rgv3tStuckTable@@3PAVVector@@A
	call	??BVector@@QAEPAMXZ			; Vector::operator float *
	mov	edx, 4
	shl	edx, 1
	movss	xmm0, DWORD PTR _z$[ebp]
	movss	DWORD PTR [eax+edx], xmm0

; 3253 : 		idx++;

	mov	eax, DWORD PTR _idx$[ebp]
	add	eax, 1
	mov	DWORD PTR _idx$[ebp], eax

; 3254 : 	}

	jmp	$LN5@PM_CreateS
$LN6@PM_CreateS:

; 3255 : 	y = z = 0;

	xorps	xmm0, xmm0
	movss	DWORD PTR _z$[ebp], xmm0
	movss	xmm0, DWORD PTR _z$[ebp]
	movss	DWORD PTR _y$[ebp], xmm0

; 3256 : 	// X moves
; 3257 : 	for (x = -0.125 ; x <= 0.125 ; x += 0.125)

	movss	xmm0, DWORD PTR __real@be000000
	movss	DWORD PTR _x$[ebp], xmm0
	jmp	SHORT $LN10@PM_CreateS
$LN8@PM_CreateS:
	cvtss2sd xmm0, DWORD PTR _x$[ebp]
	addsd	xmm0, QWORD PTR __real@3fc0000000000000
	cvtsd2ss xmm0, xmm0
	movss	DWORD PTR _x$[ebp], xmm0
$LN10@PM_CreateS:
	cvtss2sd xmm0, DWORD PTR _x$[ebp]
	movsd	xmm1, QWORD PTR __real@3fc0000000000000
	comisd	xmm1, xmm0
	jb	SHORT $LN9@PM_CreateS

; 3258 : 	{
; 3259 : 		rgv3tStuckTable[idx][0] = x;

	imul	ecx, DWORD PTR _idx$[ebp], 12
	add	ecx, OFFSET ?rgv3tStuckTable@@3PAVVector@@A
	call	??BVector@@QAEPAMXZ			; Vector::operator float *
	mov	ecx, 4
	imul	edx, ecx, 0
	movss	xmm0, DWORD PTR _x$[ebp]
	movss	DWORD PTR [eax+edx], xmm0

; 3260 : 		rgv3tStuckTable[idx][1] = y;

	imul	ecx, DWORD PTR _idx$[ebp], 12
	add	ecx, OFFSET ?rgv3tStuckTable@@3PAVVector@@A
	call	??BVector@@QAEPAMXZ			; Vector::operator float *
	mov	ecx, 4
	shl	ecx, 0
	movss	xmm0, DWORD PTR _y$[ebp]
	movss	DWORD PTR [eax+ecx], xmm0

; 3261 : 		rgv3tStuckTable[idx][2] = z;

	imul	ecx, DWORD PTR _idx$[ebp], 12
	add	ecx, OFFSET ?rgv3tStuckTable@@3PAVVector@@A
	call	??BVector@@QAEPAMXZ			; Vector::operator float *
	mov	edx, 4
	shl	edx, 1
	movss	xmm0, DWORD PTR _z$[ebp]
	movss	DWORD PTR [eax+edx], xmm0

; 3262 : 		idx++;

	mov	eax, DWORD PTR _idx$[ebp]
	add	eax, 1
	mov	DWORD PTR _idx$[ebp], eax

; 3263 : 	}

	jmp	$LN8@PM_CreateS
$LN9@PM_CreateS:

; 3264 : 
; 3265 : 	// Remaining multi axis nudges.
; 3266 : 	for ( x = - 0.125; x <= 0.125; x += 0.250 )

	movss	xmm0, DWORD PTR __real@be000000
	movss	DWORD PTR _x$[ebp], xmm0
	jmp	SHORT $LN13@PM_CreateS
$LN11@PM_CreateS:
	cvtss2sd xmm0, DWORD PTR _x$[ebp]
	addsd	xmm0, QWORD PTR __real@3fd0000000000000
	cvtsd2ss xmm0, xmm0
	movss	DWORD PTR _x$[ebp], xmm0
$LN13@PM_CreateS:
	cvtss2sd xmm0, DWORD PTR _x$[ebp]
	movsd	xmm1, QWORD PTR __real@3fc0000000000000
	comisd	xmm1, xmm0
	jb	$LN12@PM_CreateS

; 3267 : 	{
; 3268 : 		for ( y = - 0.125; y <= 0.125; y += 0.250 )

	movss	xmm0, DWORD PTR __real@be000000
	movss	DWORD PTR _y$[ebp], xmm0
	jmp	SHORT $LN16@PM_CreateS
$LN14@PM_CreateS:
	cvtss2sd xmm0, DWORD PTR _y$[ebp]
	addsd	xmm0, QWORD PTR __real@3fd0000000000000
	cvtsd2ss xmm0, xmm0
	movss	DWORD PTR _y$[ebp], xmm0
$LN16@PM_CreateS:
	cvtss2sd xmm0, DWORD PTR _y$[ebp]
	movsd	xmm1, QWORD PTR __real@3fc0000000000000
	comisd	xmm1, xmm0
	jb	$LN15@PM_CreateS

; 3269 : 		{
; 3270 : 			for ( z = - 0.125; z <= 0.125; z += 0.250 )

	movss	xmm0, DWORD PTR __real@be000000
	movss	DWORD PTR _z$[ebp], xmm0
	jmp	SHORT $LN19@PM_CreateS
$LN17@PM_CreateS:
	cvtss2sd xmm0, DWORD PTR _z$[ebp]
	addsd	xmm0, QWORD PTR __real@3fd0000000000000
	cvtsd2ss xmm0, xmm0
	movss	DWORD PTR _z$[ebp], xmm0
$LN19@PM_CreateS:
	cvtss2sd xmm0, DWORD PTR _z$[ebp]
	movsd	xmm1, QWORD PTR __real@3fc0000000000000
	comisd	xmm1, xmm0
	jb	SHORT $LN18@PM_CreateS

; 3271 : 			{
; 3272 : 				rgv3tStuckTable[idx][0] = x;

	imul	ecx, DWORD PTR _idx$[ebp], 12
	add	ecx, OFFSET ?rgv3tStuckTable@@3PAVVector@@A
	call	??BVector@@QAEPAMXZ			; Vector::operator float *
	mov	ecx, 4
	imul	edx, ecx, 0
	movss	xmm0, DWORD PTR _x$[ebp]
	movss	DWORD PTR [eax+edx], xmm0

; 3273 : 				rgv3tStuckTable[idx][1] = y;

	imul	ecx, DWORD PTR _idx$[ebp], 12
	add	ecx, OFFSET ?rgv3tStuckTable@@3PAVVector@@A
	call	??BVector@@QAEPAMXZ			; Vector::operator float *
	mov	ecx, 4
	shl	ecx, 0
	movss	xmm0, DWORD PTR _y$[ebp]
	movss	DWORD PTR [eax+ecx], xmm0

; 3274 : 				rgv3tStuckTable[idx][2] = z;

	imul	ecx, DWORD PTR _idx$[ebp], 12
	add	ecx, OFFSET ?rgv3tStuckTable@@3PAVVector@@A
	call	??BVector@@QAEPAMXZ			; Vector::operator float *
	mov	edx, 4
	shl	edx, 1
	movss	xmm0, DWORD PTR _z$[ebp]
	movss	DWORD PTR [eax+edx], xmm0

; 3275 : 				idx++;

	mov	eax, DWORD PTR _idx$[ebp]
	add	eax, 1
	mov	DWORD PTR _idx$[ebp], eax

; 3276 : 			}

	jmp	$LN17@PM_CreateS
$LN18@PM_CreateS:

; 3277 : 		}

	jmp	$LN14@PM_CreateS
$LN15@PM_CreateS:

; 3278 : 	}

	jmp	$LN11@PM_CreateS
$LN12@PM_CreateS:

; 3279 : 
; 3280 : 	// Big Moves.
; 3281 : 	x = y = 0;

	xorps	xmm0, xmm0
	movss	DWORD PTR _y$[ebp], xmm0
	movss	xmm0, DWORD PTR _y$[ebp]
	movss	DWORD PTR _x$[ebp], xmm0

; 3282 : 	zi[0] = 0.0f;

	mov	ecx, 4
	imul	edx, ecx, 0
	xorps	xmm0, xmm0
	movss	DWORD PTR _zi$[ebp+edx], xmm0

; 3283 : 	zi[1] = 1.0f;

	mov	eax, 4
	shl	eax, 0
	movss	xmm0, DWORD PTR __real@3f800000
	movss	DWORD PTR _zi$[ebp+eax], xmm0

; 3284 : 	zi[2] = 6.0f;

	mov	ecx, 4
	shl	ecx, 1
	movss	xmm0, DWORD PTR __real@40c00000
	movss	DWORD PTR _zi$[ebp+ecx], xmm0

; 3285 : 
; 3286 : 	for (i = 0; i < 3; i++)

	mov	DWORD PTR _i$[ebp], 0
	jmp	SHORT $LN22@PM_CreateS
$LN20@PM_CreateS:
	mov	edx, DWORD PTR _i$[ebp]
	add	edx, 1
	mov	DWORD PTR _i$[ebp], edx
$LN22@PM_CreateS:
	cmp	DWORD PTR _i$[ebp], 3
	jge	SHORT $LN21@PM_CreateS

; 3287 : 	{
; 3288 : 		// Z moves
; 3289 : 		z = zi[i];

	mov	eax, DWORD PTR _i$[ebp]
	movss	xmm0, DWORD PTR _zi$[ebp+eax*4]
	movss	DWORD PTR _z$[ebp], xmm0

; 3290 : 		rgv3tStuckTable[idx][0] = x;

	imul	ecx, DWORD PTR _idx$[ebp], 12
	add	ecx, OFFSET ?rgv3tStuckTable@@3PAVVector@@A
	call	??BVector@@QAEPAMXZ			; Vector::operator float *
	mov	ecx, 4
	imul	edx, ecx, 0
	movss	xmm0, DWORD PTR _x$[ebp]
	movss	DWORD PTR [eax+edx], xmm0

; 3291 : 		rgv3tStuckTable[idx][1] = y;

	imul	ecx, DWORD PTR _idx$[ebp], 12
	add	ecx, OFFSET ?rgv3tStuckTable@@3PAVVector@@A
	call	??BVector@@QAEPAMXZ			; Vector::operator float *
	mov	ecx, 4
	shl	ecx, 0
	movss	xmm0, DWORD PTR _y$[ebp]
	movss	DWORD PTR [eax+ecx], xmm0

; 3292 : 		rgv3tStuckTable[idx][2] = z;

	imul	ecx, DWORD PTR _idx$[ebp], 12
	add	ecx, OFFSET ?rgv3tStuckTable@@3PAVVector@@A
	call	??BVector@@QAEPAMXZ			; Vector::operator float *
	mov	edx, 4
	shl	edx, 1
	movss	xmm0, DWORD PTR _z$[ebp]
	movss	DWORD PTR [eax+edx], xmm0

; 3293 : 		idx++;

	mov	eax, DWORD PTR _idx$[ebp]
	add	eax, 1
	mov	DWORD PTR _idx$[ebp], eax

; 3294 : 	}

	jmp	$LN20@PM_CreateS
$LN21@PM_CreateS:

; 3295 : 
; 3296 : 	x = z = 0;

	xorps	xmm0, xmm0
	movss	DWORD PTR _z$[ebp], xmm0
	movss	xmm0, DWORD PTR _z$[ebp]
	movss	DWORD PTR _x$[ebp], xmm0

; 3297 : 
; 3298 : 	// Y moves
; 3299 : 	for (y = -2.0f ; y <= 2.0f ; y += 2.0)

	movss	xmm0, DWORD PTR __real@c0000000
	movss	DWORD PTR _y$[ebp], xmm0
	jmp	SHORT $LN25@PM_CreateS
$LN23@PM_CreateS:
	cvtss2sd xmm0, DWORD PTR _y$[ebp]
	addsd	xmm0, QWORD PTR __real@4000000000000000
	cvtsd2ss xmm0, xmm0
	movss	DWORD PTR _y$[ebp], xmm0
$LN25@PM_CreateS:
	movss	xmm0, DWORD PTR __real@40000000
	comiss	xmm0, DWORD PTR _y$[ebp]
	jb	SHORT $LN24@PM_CreateS

; 3300 : 	{
; 3301 : 		rgv3tStuckTable[idx][0] = x;

	imul	ecx, DWORD PTR _idx$[ebp], 12
	add	ecx, OFFSET ?rgv3tStuckTable@@3PAVVector@@A
	call	??BVector@@QAEPAMXZ			; Vector::operator float *
	mov	ecx, 4
	imul	edx, ecx, 0
	movss	xmm0, DWORD PTR _x$[ebp]
	movss	DWORD PTR [eax+edx], xmm0

; 3302 : 		rgv3tStuckTable[idx][1] = y;

	imul	ecx, DWORD PTR _idx$[ebp], 12
	add	ecx, OFFSET ?rgv3tStuckTable@@3PAVVector@@A
	call	??BVector@@QAEPAMXZ			; Vector::operator float *
	mov	ecx, 4
	shl	ecx, 0
	movss	xmm0, DWORD PTR _y$[ebp]
	movss	DWORD PTR [eax+ecx], xmm0

; 3303 : 		rgv3tStuckTable[idx][2] = z;

	imul	ecx, DWORD PTR _idx$[ebp], 12
	add	ecx, OFFSET ?rgv3tStuckTable@@3PAVVector@@A
	call	??BVector@@QAEPAMXZ			; Vector::operator float *
	mov	edx, 4
	shl	edx, 1
	movss	xmm0, DWORD PTR _z$[ebp]
	movss	DWORD PTR [eax+edx], xmm0

; 3304 : 		idx++;

	mov	eax, DWORD PTR _idx$[ebp]
	add	eax, 1
	mov	DWORD PTR _idx$[ebp], eax

; 3305 : 	}

	jmp	$LN23@PM_CreateS
$LN24@PM_CreateS:

; 3306 : 	y = z = 0;

	xorps	xmm0, xmm0
	movss	DWORD PTR _z$[ebp], xmm0
	movss	xmm0, DWORD PTR _z$[ebp]
	movss	DWORD PTR _y$[ebp], xmm0

; 3307 : 	// X moves
; 3308 : 	for (x = -2.0f ; x <= 2.0f ; x += 2.0f)

	movss	xmm0, DWORD PTR __real@c0000000
	movss	DWORD PTR _x$[ebp], xmm0
	jmp	SHORT $LN28@PM_CreateS
$LN26@PM_CreateS:
	movss	xmm0, DWORD PTR _x$[ebp]
	addss	xmm0, DWORD PTR __real@40000000
	movss	DWORD PTR _x$[ebp], xmm0
$LN28@PM_CreateS:
	movss	xmm0, DWORD PTR __real@40000000
	comiss	xmm0, DWORD PTR _x$[ebp]
	jb	SHORT $LN27@PM_CreateS

; 3309 : 	{
; 3310 : 		rgv3tStuckTable[idx][0] = x;

	imul	ecx, DWORD PTR _idx$[ebp], 12
	add	ecx, OFFSET ?rgv3tStuckTable@@3PAVVector@@A
	call	??BVector@@QAEPAMXZ			; Vector::operator float *
	mov	ecx, 4
	imul	edx, ecx, 0
	movss	xmm0, DWORD PTR _x$[ebp]
	movss	DWORD PTR [eax+edx], xmm0

; 3311 : 		rgv3tStuckTable[idx][1] = y;

	imul	ecx, DWORD PTR _idx$[ebp], 12
	add	ecx, OFFSET ?rgv3tStuckTable@@3PAVVector@@A
	call	??BVector@@QAEPAMXZ			; Vector::operator float *
	mov	ecx, 4
	shl	ecx, 0
	movss	xmm0, DWORD PTR _y$[ebp]
	movss	DWORD PTR [eax+ecx], xmm0

; 3312 : 		rgv3tStuckTable[idx][2] = z;

	imul	ecx, DWORD PTR _idx$[ebp], 12
	add	ecx, OFFSET ?rgv3tStuckTable@@3PAVVector@@A
	call	??BVector@@QAEPAMXZ			; Vector::operator float *
	mov	edx, 4
	shl	edx, 1
	movss	xmm0, DWORD PTR _z$[ebp]
	movss	DWORD PTR [eax+edx], xmm0

; 3313 : 		idx++;

	mov	eax, DWORD PTR _idx$[ebp]
	add	eax, 1
	mov	DWORD PTR _idx$[ebp], eax

; 3314 : 	}

	jmp	$LN26@PM_CreateS
$LN27@PM_CreateS:

; 3315 : 
; 3316 : 	// Remaining multi axis nudges.
; 3317 : 	for (i = 0 ; i < 3; i++)

	mov	DWORD PTR _i$[ebp], 0
	jmp	SHORT $LN31@PM_CreateS
$LN29@PM_CreateS:
	mov	ecx, DWORD PTR _i$[ebp]
	add	ecx, 1
	mov	DWORD PTR _i$[ebp], ecx
$LN31@PM_CreateS:
	cmp	DWORD PTR _i$[ebp], 3
	jge	$LN30@PM_CreateS

; 3318 : 	{
; 3319 : 		z = zi[i];

	mov	edx, DWORD PTR _i$[ebp]
	movss	xmm0, DWORD PTR _zi$[ebp+edx*4]
	movss	DWORD PTR _z$[ebp], xmm0

; 3320 : 		
; 3321 : 		for (x = -2.0f ; x <= 2.0f ; x += 2.0f)

	movss	xmm0, DWORD PTR __real@c0000000
	movss	DWORD PTR _x$[ebp], xmm0
	jmp	SHORT $LN34@PM_CreateS
$LN32@PM_CreateS:
	movss	xmm0, DWORD PTR _x$[ebp]
	addss	xmm0, DWORD PTR __real@40000000
	movss	DWORD PTR _x$[ebp], xmm0
$LN34@PM_CreateS:
	movss	xmm0, DWORD PTR __real@40000000
	comiss	xmm0, DWORD PTR _x$[ebp]
	jb	$LN33@PM_CreateS

; 3322 : 		{
; 3323 : 			for (y = -2.0f ; y <= 2.0f ; y += 2.0)

	movss	xmm0, DWORD PTR __real@c0000000
	movss	DWORD PTR _y$[ebp], xmm0
	jmp	SHORT $LN37@PM_CreateS
$LN35@PM_CreateS:
	cvtss2sd xmm0, DWORD PTR _y$[ebp]
	addsd	xmm0, QWORD PTR __real@4000000000000000
	cvtsd2ss xmm0, xmm0
	movss	DWORD PTR _y$[ebp], xmm0
$LN37@PM_CreateS:
	movss	xmm0, DWORD PTR __real@40000000
	comiss	xmm0, DWORD PTR _y$[ebp]
	jb	SHORT $LN36@PM_CreateS

; 3324 : 			{
; 3325 : 				rgv3tStuckTable[idx][0] = x;

	imul	ecx, DWORD PTR _idx$[ebp], 12
	add	ecx, OFFSET ?rgv3tStuckTable@@3PAVVector@@A
	call	??BVector@@QAEPAMXZ			; Vector::operator float *
	mov	ecx, 4
	imul	edx, ecx, 0
	movss	xmm0, DWORD PTR _x$[ebp]
	movss	DWORD PTR [eax+edx], xmm0

; 3326 : 				rgv3tStuckTable[idx][1] = y;

	imul	ecx, DWORD PTR _idx$[ebp], 12
	add	ecx, OFFSET ?rgv3tStuckTable@@3PAVVector@@A
	call	??BVector@@QAEPAMXZ			; Vector::operator float *
	mov	ecx, 4
	shl	ecx, 0
	movss	xmm0, DWORD PTR _y$[ebp]
	movss	DWORD PTR [eax+ecx], xmm0

; 3327 : 				rgv3tStuckTable[idx][2] = z;

	imul	ecx, DWORD PTR _idx$[ebp], 12
	add	ecx, OFFSET ?rgv3tStuckTable@@3PAVVector@@A
	call	??BVector@@QAEPAMXZ			; Vector::operator float *
	mov	edx, 4
	shl	edx, 1
	movss	xmm0, DWORD PTR _z$[ebp]
	movss	DWORD PTR [eax+edx], xmm0

; 3328 : 				idx++;

	mov	eax, DWORD PTR _idx$[ebp]
	add	eax, 1
	mov	DWORD PTR _idx$[ebp], eax

; 3329 : 			}

	jmp	$LN35@PM_CreateS
$LN36@PM_CreateS:

; 3330 : 		}

	jmp	$LN32@PM_CreateS
$LN33@PM_CreateS:

; 3331 : 	}

	jmp	$LN29@PM_CreateS
$LN30@PM_CreateS:

; 3332 : 
; 3333 : 	assert( idx < sizeof( rgv3tStuckTable ) / sizeof( rgv3tStuckTable[0] ));

	cmp	DWORD PTR _idx$[ebp], 54		; 00000036H
	jb	SHORT $LN39@PM_CreateS
	push	3333					; 00000d05H
	push	OFFSET $SG16166
	push	OFFSET $SG16167
	call	__wassert
	add	esp, 12					; 0000000cH
$LN39@PM_CreateS:

; 3334 : }

	mov	ecx, DWORD PTR __$ArrayPad$[ebp]
	xor	ecx, ebp
	call	@__security_check_cookie@4
	mov	esp, ebp
	pop	ebp
	ret	0
?PM_CreateStuckTable@@YAXXZ ENDP			; PM_CreateStuckTable
_TEXT	ENDS
; Function compile flags: /Odtp
; File c:\users\user\downloads\xashxt_v0.81_rev.1_with_sources\xashxt_v0.81_rev.1_src\game_shared\playermove.cpp
_TEXT	SEGMENT
tv177 = -8						; size = 4
_pLadder$ = -4						; size = 4
_server$ = 8						; size = 4
?PM_PlayerMove@@YAXH@Z PROC				; PM_PlayerMove

; 2968 : {

	push	ebp
	mov	ebp, esp
	sub	esp, 8

; 2969 : 	physent_t *pLadder = NULL;

	mov	DWORD PTR _pLadder$[ebp], 0

; 2970 : 
; 2971 : 	// Are we running server code?
; 2972 : 	pmove->server = server;                

	mov	eax, DWORD PTR ?pmove@@3PAUplayermove_s@@A ; pmove
	mov	ecx, DWORD PTR _server$[ebp]
	mov	DWORD PTR [eax+4], ecx

; 2973 : 
; 2974 : 	// Adjust speeds etc.
; 2975 : 	PM_CheckParamters();

	call	?PM_CheckParamters@@YAXXZ		; PM_CheckParamters

; 2976 : 
; 2977 : 	// Assume we don't touch anything
; 2978 : 	pmove->numtouch = 0;                    

	mov	edx, DWORD PTR ?pmove@@3PAUplayermove_s@@A ; pmove
	mov	DWORD PTR [edx+283788], 0

; 2979 : 
; 2980 : 	// # of msec to apply movement
; 2981 : 	pmove->frametime = pmove->cmd.msec * 0.001;    

	mov	eax, DWORD PTR ?pmove@@3PAUplayermove_s@@A ; pmove
	movzx	ecx, BYTE PTR [eax+283738]
	cvtsi2sd xmm0, ecx
	mulsd	xmm0, QWORD PTR __real@3f50624dd2f1a9fc
	cvtsd2ss xmm0, xmm0
	mov	edx, DWORD PTR ?pmove@@3PAUplayermove_s@@A ; pmove
	movss	DWORD PTR [edx+16], xmm0

; 2982 : 
; 2983 : 	PM_ReduceTimers();

	call	?PM_ReduceTimers@@YAXXZ			; PM_ReduceTimers

; 2984 : 
; 2985 : 	// Convert view angles to vectors
; 2986 : 	AngleVectors( pmove->angles, pmove->forward, pmove->right, pmove->up );

	mov	ecx, DWORD PTR ?pmove@@3PAUplayermove_s@@A ; pmove
	add	ecx, 44					; 0000002cH
	call	??BVector@@QAEPAMXZ			; Vector::operator float *
	push	eax
	mov	ecx, DWORD PTR ?pmove@@3PAUplayermove_s@@A ; pmove
	add	ecx, 32					; 00000020H
	call	??BVector@@QAEPAMXZ			; Vector::operator float *
	push	eax
	mov	ecx, DWORD PTR ?pmove@@3PAUplayermove_s@@A ; pmove
	add	ecx, 20					; 00000014H
	call	??BVector@@QAEPAMXZ			; Vector::operator float *
	push	eax
	mov	ecx, DWORD PTR ?pmove@@3PAUplayermove_s@@A ; pmove
	add	ecx, 68					; 00000044H
	call	??BVector@@QAEPAMXZ			; Vector::operator float *
	push	eax
	call	DWORD PTR ?gEngfuncs@@3Ucl_enginefuncs_s@@A+96
	add	esp, 16					; 00000010H

; 2987 : 
; 2988 : 	// Special handling for spectator and observers. (iuser1 is set if the player's in observer mode)
; 2989 : 	if ( pmove->spectator || pmove->iuser1 > 0 )

	mov	eax, DWORD PTR ?pmove@@3PAUplayermove_s@@A ; pmove
	cmp	DWORD PTR [eax+216], 0
	jne	SHORT $LN5@PM_PlayerM
	mov	ecx, DWORD PTR ?pmove@@3PAUplayermove_s@@A ; pmove
	cmp	DWORD PTR [ecx+508], 0
	jle	SHORT $LN4@PM_PlayerM
$LN5@PM_PlayerM:

; 2990 : 	{
; 2991 : 		PM_SpectatorMove();

	call	?PM_SpectatorMove@@YAXXZ		; PM_SpectatorMove

; 2992 : 		PM_CatagorizePosition();

	call	?PM_CatagorizePosition@@YAXXZ		; PM_CatagorizePosition

; 2993 : 		return;

	jmp	$LN1@PM_PlayerM
$LN4@PM_PlayerM:

; 2994 : 	}
; 2995 : 
; 2996 : 	// Always try and unstick us unless we are in NOCLIP mode
; 2997 : 	if( pmove->movetype != MOVETYPE_NOCLIP && pmove->movetype != MOVETYPE_NONE )

	mov	edx, DWORD PTR ?pmove@@3PAUplayermove_s@@A ; pmove
	cmp	DWORD PTR [edx+220], 8
	je	SHORT $LN7@PM_PlayerM
	mov	eax, DWORD PTR ?pmove@@3PAUplayermove_s@@A ; pmove
	cmp	DWORD PTR [eax+220], 0
	je	SHORT $LN7@PM_PlayerM

; 2998 : 	{
; 2999 : 		if( PM_CheckStuck() )

	call	?PM_CheckStuck@@YAHXZ			; PM_CheckStuck
	test	eax, eax
	je	SHORT $LN7@PM_PlayerM

; 3000 : 		{
; 3001 : 			return;  // Can't move, we're stuck

	jmp	$LN1@PM_PlayerM
$LN7@PM_PlayerM:

; 3002 : 		}
; 3003 : 	}
; 3004 : 
; 3005 : 	// Now that we are "unstuck", see where we are ( waterlevel and type, pmove->onground ).
; 3006 : 	PM_CatagorizePosition();

	call	?PM_CatagorizePosition@@YAXXZ		; PM_CatagorizePosition

; 3007 : 
; 3008 : 	// Store off the starting water level
; 3009 : 	pmove->oldwaterlevel = pmove->waterlevel;

	mov	ecx, DWORD PTR ?pmove@@3PAUplayermove_s@@A ; pmove
	mov	edx, DWORD PTR ?pmove@@3PAUplayermove_s@@A ; pmove
	mov	eax, DWORD PTR [edx+228]
	mov	DWORD PTR [ecx+236], eax

; 3010 : 	if (pmove->watertype > CONTENT_FLYFIELD)

	mov	ecx, DWORD PTR ?pmove@@3PAUplayermove_s@@A ; pmove
	cmp	DWORD PTR [ecx+232], -17		; ffffffefH
	jle	SHORT $LN8@PM_PlayerM

; 3011 : 		pmove->oldwaterlevel = pmove->waterlevel;

	mov	edx, DWORD PTR ?pmove@@3PAUplayermove_s@@A ; pmove
	mov	eax, DWORD PTR ?pmove@@3PAUplayermove_s@@A ; pmove
	mov	ecx, DWORD PTR [eax+228]
	mov	DWORD PTR [edx+236], ecx

; 3012 : 	else

	jmp	SHORT $LN9@PM_PlayerM
$LN8@PM_PlayerM:

; 3013 : 		pmove->oldwaterlevel = 0;

	mov	edx, DWORD PTR ?pmove@@3PAUplayermove_s@@A ; pmove
	mov	DWORD PTR [edx+236], 0
$LN9@PM_PlayerM:

; 3014 : 
; 3015 : 	// If we are not on ground, store off how fast we are moving down
; 3016 : 	if ( pmove->onground == -1 )

	mov	eax, DWORD PTR ?pmove@@3PAUplayermove_s@@A ; pmove
	cmp	DWORD PTR [eax+224], -1
	jne	SHORT $LN10@PM_PlayerM

; 3017 : 	{
; 3018 : 		pmove->flFallVelocity = -pmove->velocity[2];

	mov	ecx, DWORD PTR ?pmove@@3PAUplayermove_s@@A ; pmove
	add	ecx, 92					; 0000005cH
	call	??BVector@@QAEPAMXZ			; Vector::operator float *
	mov	ecx, 4
	shl	ecx, 1
	movss	xmm0, DWORD PTR [eax+ecx]
	xorps	xmm0, DWORD PTR __xmm@80000000800000008000000080000000
	mov	edx, DWORD PTR ?pmove@@3PAUplayermove_s@@A ; pmove
	movss	DWORD PTR [edx+156], xmm0
$LN10@PM_PlayerM:

; 3019 : 	}
; 3020 : 
; 3021 : 	g_onladder = 0;

	mov	DWORD PTR ?g_onladder@@3HA, 0		; g_onladder

; 3022 : 	// Don't run ladder code if dead or on a train
; 3023 : 	if ( !pmove->dead && !(pmove->flags & FL_ONTRAIN) )

	mov	eax, DWORD PTR ?pmove@@3PAUplayermove_s@@A ; pmove
	cmp	DWORD PTR [eax+208], 0
	jne	SHORT $LN12@PM_PlayerM
	mov	ecx, DWORD PTR ?pmove@@3PAUplayermove_s@@A ; pmove
	mov	edx, DWORD PTR [ecx+184]
	and	edx, 16777216				; 01000000H
	jne	SHORT $LN12@PM_PlayerM

; 3024 : 	{
; 3025 : 		pLadder = PM_Ladder();

	call	?PM_Ladder@@YAPAUphysent_s@@XZ		; PM_Ladder
	mov	DWORD PTR _pLadder$[ebp], eax

; 3026 : 		if ( pLadder )

	cmp	DWORD PTR _pLadder$[ebp], 0
	je	SHORT $LN12@PM_PlayerM

; 3027 : 		{
; 3028 : 			g_onladder = 1;

	mov	DWORD PTR ?g_onladder@@3HA, 1		; g_onladder
$LN12@PM_PlayerM:

; 3029 : 		}
; 3030 : 	}
; 3031 : 
; 3032 : 	PM_UpdateStepSound();

	call	?PM_UpdateStepSound@@YAXXZ		; PM_UpdateStepSound

; 3033 : 
; 3034 : 	PM_Duck();

	call	?PM_Duck@@YAXXZ				; PM_Duck

; 3035 : 	
; 3036 : 	// Don't run ladder code if dead or on a train
; 3037 : 	if ( !pmove->dead && !(pmove->flags & FL_ONTRAIN) )

	mov	eax, DWORD PTR ?pmove@@3PAUplayermove_s@@A ; pmove
	cmp	DWORD PTR [eax+208], 0
	jne	SHORT $LN16@PM_PlayerM
	mov	ecx, DWORD PTR ?pmove@@3PAUplayermove_s@@A ; pmove
	mov	edx, DWORD PTR [ecx+184]
	and	edx, 16777216				; 01000000H
	jne	SHORT $LN16@PM_PlayerM

; 3038 : 	{
; 3039 : 		if ( pLadder )

	cmp	DWORD PTR _pLadder$[ebp], 0
	je	SHORT $LN14@PM_PlayerM

; 3040 : 		{
; 3041 : 			PM_LadderMove( pLadder );

	mov	eax, DWORD PTR _pLadder$[ebp]
	push	eax
	call	?PM_LadderMove@@YAXPAUphysent_s@@@Z	; PM_LadderMove
	add	esp, 4
	jmp	SHORT $LN16@PM_PlayerM
$LN14@PM_PlayerM:

; 3042 : 		}
; 3043 : 		else if ( pmove->movetype != MOVETYPE_WALK &&

	mov	ecx, DWORD PTR ?pmove@@3PAUplayermove_s@@A ; pmove
	cmp	DWORD PTR [ecx+220], 3
	je	SHORT $LN16@PM_PlayerM
	mov	edx, DWORD PTR ?pmove@@3PAUplayermove_s@@A ; pmove
	cmp	DWORD PTR [edx+220], 8
	je	SHORT $LN16@PM_PlayerM

; 3044 : 			      pmove->movetype != MOVETYPE_NOCLIP )
; 3045 : 		{
; 3046 : 			// Clear ladder stuff unless player is noclipping
; 3047 : 			//  it will be set immediately again next frame if necessary
; 3048 : 			pmove->movetype = MOVETYPE_WALK;

	mov	eax, DWORD PTR ?pmove@@3PAUplayermove_s@@A ; pmove
	mov	DWORD PTR [eax+220], 3
$LN16@PM_PlayerM:

; 3049 : 		}
; 3050 : 	}
; 3051 : 
; 3052 : 	// Slow down, I'm pulling it! (a box maybe) but only when I'm standing on ground
; 3053 : 	if ( ( pmove->onground != -1 ) && ( pmove->cmd.buttons & IN_USE) )

	mov	ecx, DWORD PTR ?pmove@@3PAUplayermove_s@@A ; pmove
	cmp	DWORD PTR [ecx+224], -1
	je	SHORT $LN17@PM_PlayerM
	mov	edx, DWORD PTR ?pmove@@3PAUplayermove_s@@A ; pmove
	movzx	eax, WORD PTR [edx+283766]
	and	eax, 32					; 00000020H
	je	SHORT $LN17@PM_PlayerM

; 3054 : 	{
; 3055 : 		pmove->velocity *= 0.3f;

	push	ecx
	movss	xmm0, DWORD PTR __real@3e99999a
	movss	DWORD PTR [esp], xmm0
	mov	ecx, DWORD PTR ?pmove@@3PAUplayermove_s@@A ; pmove
	add	ecx, 92					; 0000005cH
	call	??XVector@@QAEAAV0@M@Z			; Vector::operator*=
$LN17@PM_PlayerM:

; 3056 : 	}
; 3057 : 
; 3058 : 	// Handle movement
; 3059 : 	switch ( pmove->movetype )

	mov	ecx, DWORD PTR ?pmove@@3PAUplayermove_s@@A ; pmove
	mov	edx, DWORD PTR [ecx+220]
	mov	DWORD PTR tv177[ebp], edx
	cmp	DWORD PTR tv177[ebp], 10		; 0000000aH
	ja	SHORT $LN18@PM_PlayerM
	mov	eax, DWORD PTR tv177[ebp]
	movzx	ecx, BYTE PTR $LN44@PM_PlayerM[eax]
	jmp	DWORD PTR $LN45@PM_PlayerM[ecx*4]
$LN18@PM_PlayerM:

; 3060 : 	{
; 3061 : 	default:
; 3062 : 		pmove->Con_DPrintf("Bogus pmove player movetype %i on (%i) 0=cl 1=sv\n", pmove->movetype, pmove->server);

	mov	edx, DWORD PTR ?pmove@@3PAUplayermove_s@@A ; pmove
	mov	eax, DWORD PTR [edx+4]
	push	eax
	mov	ecx, DWORD PTR ?pmove@@3PAUplayermove_s@@A ; pmove
	mov	edx, DWORD PTR [ecx+220]
	push	edx
	push	OFFSET $SG16094
	mov	eax, DWORD PTR ?pmove@@3PAUplayermove_s@@A ; pmove
	mov	ecx, DWORD PTR [eax+324964]
	call	ecx
	add	esp, 12					; 0000000cH

; 3063 : 		break;

	jmp	$LN2@PM_PlayerM
$LN19@PM_PlayerM:

; 3064 : 
; 3065 : 	case MOVETYPE_NONE:
; 3066 : 		break;

	jmp	$LN2@PM_PlayerM
$LN20@PM_PlayerM:

; 3067 : 
; 3068 : 	case MOVETYPE_NOCLIP:
; 3069 : 		PM_NoClip();

	call	?PM_NoClip@@YAXXZ			; PM_NoClip

; 3070 : 		break;

	jmp	$LN2@PM_PlayerM
$LN21@PM_PlayerM:

; 3071 : 
; 3072 : 	case MOVETYPE_TOSS:
; 3073 : 	case MOVETYPE_BOUNCE:
; 3074 : 		PM_Physics_Toss();

	call	?PM_Physics_Toss@@YAXXZ			; PM_Physics_Toss

; 3075 : 		break;

	jmp	$LN2@PM_PlayerM
$LN22@PM_PlayerM:

; 3076 : 
; 3077 : 	case MOVETYPE_FLY:
; 3078 : 	
; 3079 : 		PM_CheckWater();

	call	?PM_CheckWater@@YAHXZ			; PM_CheckWater

; 3080 : 
; 3081 : 		// Was jump button pressed?
; 3082 : 		// If so, set velocity to 270 away from ladder.  This is currently wrong.
; 3083 : 		// Also, set MOVE_TYPE to walk, too.
; 3084 : 		if ( pmove->cmd.buttons & IN_JUMP )

	mov	edx, DWORD PTR ?pmove@@3PAUplayermove_s@@A ; pmove
	movzx	eax, WORD PTR [edx+283766]
	and	eax, 2
	je	SHORT $LN23@PM_PlayerM

; 3085 : 		{
; 3086 : 			if ( !pLadder )

	cmp	DWORD PTR _pLadder$[ebp], 0
	jne	SHORT $LN25@PM_PlayerM

; 3087 : 			{
; 3088 : 				PM_Jump ();

	call	?PM_Jump@@YAXXZ				; PM_Jump
$LN25@PM_PlayerM:

; 3089 : 			}
; 3090 : 		}
; 3091 : 		else

	jmp	SHORT $LN24@PM_PlayerM
$LN23@PM_PlayerM:

; 3092 : 		{
; 3093 : 			pmove->oldbuttons &= ~IN_JUMP;

	mov	ecx, DWORD PTR ?pmove@@3PAUplayermove_s@@A ; pmove
	mov	edx, DWORD PTR [ecx+200]
	and	edx, -3					; fffffffdH
	mov	eax, DWORD PTR ?pmove@@3PAUplayermove_s@@A ; pmove
	mov	DWORD PTR [eax+200], edx
$LN24@PM_PlayerM:

; 3094 : 		}
; 3095 : 		
; 3096 : 		// perform the move accounting for any base velocity.
; 3097 : 		pmove->velocity += pmove->basevelocity;

	mov	ecx, DWORD PTR ?pmove@@3PAUplayermove_s@@A ; pmove
	add	ecx, 116				; 00000074H
	push	ecx
	mov	ecx, DWORD PTR ?pmove@@3PAUplayermove_s@@A ; pmove
	add	ecx, 92					; 0000005cH
	call	??YVector@@QAEAAV0@ABV0@@Z		; Vector::operator+=

; 3098 : 
; 3099 : 		PM_FlyMove();

	call	?PM_FlyMove@@YAHXZ			; PM_FlyMove

; 3100 : 
; 3101 : 		pmove->velocity -= pmove->basevelocity;

	mov	edx, DWORD PTR ?pmove@@3PAUplayermove_s@@A ; pmove
	add	edx, 116				; 00000074H
	push	edx
	mov	ecx, DWORD PTR ?pmove@@3PAUplayermove_s@@A ; pmove
	add	ecx, 92					; 0000005cH
	call	??ZVector@@QAEAAV0@ABV0@@Z		; Vector::operator-=

; 3102 : 		break;

	jmp	$LN2@PM_PlayerM
$LN26@PM_PlayerM:

; 3103 : 
; 3104 : 	case MOVETYPE_WALK:
; 3105 : 		if ( !PM_InWater() )

	call	?PM_InWater@@YAHXZ			; PM_InWater
	test	eax, eax
	jne	SHORT $LN27@PM_PlayerM

; 3106 : 		{
; 3107 : 			PM_AddCorrectGravity();

	call	?PM_AddCorrectGravity@@YAXXZ		; PM_AddCorrectGravity
$LN27@PM_PlayerM:

; 3108 : 		}
; 3109 : 
; 3110 : 		// If we are leaping out of the water, just update the counters.
; 3111 : 		if ( pmove->waterjumptime )

	mov	eax, DWORD PTR ?pmove@@3PAUplayermove_s@@A ; pmove
	movss	xmm0, DWORD PTR [eax+204]
	ucomiss	xmm0, DWORD PTR __real@00000000
	lahf
	test	ah, 68					; 00000044H
	jnp	SHORT $LN28@PM_PlayerM

; 3112 : 		{
; 3113 : 			PM_WaterJump();

	call	?PM_WaterJump@@YAXXZ			; PM_WaterJump

; 3114 : 			PM_FlyMove();

	call	?PM_FlyMove@@YAHXZ			; PM_FlyMove

; 3115 : 
; 3116 : 			// Make sure waterlevel is set correctly
; 3117 : 			PM_CheckWater();

	call	?PM_CheckWater@@YAHXZ			; PM_CheckWater

; 3118 : 			return;

	jmp	$LN1@PM_PlayerM
$LN28@PM_PlayerM:

; 3119 : 		}
; 3120 : 
; 3121 : 		// If we are swimming in the water, see if we are nudging against a place we can jump up out
; 3122 : 		//  of, and, if so, start out jump.  Otherwise, if we are not moving up, then reset jump timer to 0
; 3123 : 		if ( pmove->waterlevel >= 2 && pmove->watertype != CONTENT_FOG) 

	mov	ecx, DWORD PTR ?pmove@@3PAUplayermove_s@@A ; pmove
	cmp	DWORD PTR [ecx+228], 2
	jl	$LN29@PM_PlayerM
	mov	edx, DWORD PTR ?pmove@@3PAUplayermove_s@@A ; pmove
	cmp	DWORD PTR [edx+232], -19		; ffffffedH
	je	$LN29@PM_PlayerM

; 3124 : 		{
; 3125 : 			if ( pmove->waterlevel == 2 )

	mov	eax, DWORD PTR ?pmove@@3PAUplayermove_s@@A ; pmove
	cmp	DWORD PTR [eax+228], 2
	jne	SHORT $LN31@PM_PlayerM

; 3126 : 			{
; 3127 : 				PM_CheckWaterJump();

	call	?PM_CheckWaterJump@@YAXXZ		; PM_CheckWaterJump
$LN31@PM_PlayerM:

; 3128 : 			}
; 3129 : 
; 3130 : 			// If we are falling again, then we must not trying to jump out of water any more.
; 3131 : 			if ( pmove->velocity[2] < 0 && pmove->waterjumptime )

	mov	ecx, DWORD PTR ?pmove@@3PAUplayermove_s@@A ; pmove
	add	ecx, 92					; 0000005cH
	call	??BVector@@QAEPAMXZ			; Vector::operator float *
	mov	ecx, 4
	shl	ecx, 1
	xorps	xmm0, xmm0
	comiss	xmm0, DWORD PTR [eax+ecx]
	jbe	SHORT $LN32@PM_PlayerM
	mov	edx, DWORD PTR ?pmove@@3PAUplayermove_s@@A ; pmove
	movss	xmm0, DWORD PTR [edx+204]
	ucomiss	xmm0, DWORD PTR __real@00000000
	lahf
	test	ah, 68					; 00000044H
	jnp	SHORT $LN32@PM_PlayerM

; 3132 : 			{
; 3133 : 				pmove->waterjumptime = 0;

	mov	eax, DWORD PTR ?pmove@@3PAUplayermove_s@@A ; pmove
	xorps	xmm0, xmm0
	movss	DWORD PTR [eax+204], xmm0
$LN32@PM_PlayerM:

; 3134 : 			}
; 3135 : 
; 3136 : 			// Was jump button pressed?
; 3137 : 			if (pmove->cmd.buttons & IN_JUMP)

	mov	ecx, DWORD PTR ?pmove@@3PAUplayermove_s@@A ; pmove
	movzx	edx, WORD PTR [ecx+283766]
	and	edx, 2
	je	SHORT $LN33@PM_PlayerM

; 3138 : 			{
; 3139 : 				PM_Jump ();

	call	?PM_Jump@@YAXXZ				; PM_Jump

; 3140 : 			}
; 3141 : 			else

	jmp	SHORT $LN34@PM_PlayerM
$LN33@PM_PlayerM:

; 3142 : 			{
; 3143 : 				pmove->oldbuttons &= ~IN_JUMP;

	mov	eax, DWORD PTR ?pmove@@3PAUplayermove_s@@A ; pmove
	mov	ecx, DWORD PTR [eax+200]
	and	ecx, -3					; fffffffdH
	mov	edx, DWORD PTR ?pmove@@3PAUplayermove_s@@A ; pmove
	mov	DWORD PTR [edx+200], ecx
$LN34@PM_PlayerM:

; 3144 : 			}
; 3145 : 
; 3146 : 			// Perform regular water movement
; 3147 : 			PM_WaterMove();

	call	?PM_WaterMove@@YAXXZ			; PM_WaterMove

; 3148 : 			
; 3149 : 			pmove->velocity -= pmove->basevelocity;

	mov	eax, DWORD PTR ?pmove@@3PAUplayermove_s@@A ; pmove
	add	eax, 116				; 00000074H
	push	eax
	mov	ecx, DWORD PTR ?pmove@@3PAUplayermove_s@@A ; pmove
	add	ecx, 92					; 0000005cH
	call	??ZVector@@QAEAAV0@ABV0@@Z		; Vector::operator-=

; 3150 : 
; 3151 : 			// Get a final position
; 3152 : 			PM_CatagorizePosition();

	call	?PM_CatagorizePosition@@YAXXZ		; PM_CatagorizePosition

; 3153 : 		}
; 3154 : 		else

	jmp	$LN30@PM_PlayerM
$LN29@PM_PlayerM:

; 3155 : 
; 3156 : 		// Not underwater
; 3157 : 		{
; 3158 : 			// Was jump button pressed?
; 3159 : 			if ( pmove->cmd.buttons & IN_JUMP )

	mov	ecx, DWORD PTR ?pmove@@3PAUplayermove_s@@A ; pmove
	movzx	edx, WORD PTR [ecx+283766]
	and	edx, 2
	je	SHORT $LN35@PM_PlayerM

; 3160 : 			{
; 3161 : 				if ( !pLadder )

	cmp	DWORD PTR _pLadder$[ebp], 0
	jne	SHORT $LN37@PM_PlayerM

; 3162 : 				{
; 3163 : 					PM_Jump ();

	call	?PM_Jump@@YAXXZ				; PM_Jump
$LN37@PM_PlayerM:

; 3164 : 				}
; 3165 : 			}
; 3166 : 			else

	jmp	SHORT $LN36@PM_PlayerM
$LN35@PM_PlayerM:

; 3167 : 			{
; 3168 : 				pmove->oldbuttons &= ~IN_JUMP;

	mov	eax, DWORD PTR ?pmove@@3PAUplayermove_s@@A ; pmove
	mov	ecx, DWORD PTR [eax+200]
	and	ecx, -3					; fffffffdH
	mov	edx, DWORD PTR ?pmove@@3PAUplayermove_s@@A ; pmove
	mov	DWORD PTR [edx+200], ecx
$LN36@PM_PlayerM:

; 3169 : 			}
; 3170 : 
; 3171 : 			// Fricion is handled before we add in any base velocity. That way, if we are on a conveyor, 
; 3172 : 			//  we don't slow when standing still, relative to the conveyor.
; 3173 : 			if ( pmove->onground != -1 )

	mov	eax, DWORD PTR ?pmove@@3PAUplayermove_s@@A ; pmove
	cmp	DWORD PTR [eax+224], -1
	je	SHORT $LN38@PM_PlayerM

; 3174 : 			{
; 3175 : 				pmove->velocity[2] = 0.0;

	mov	ecx, DWORD PTR ?pmove@@3PAUplayermove_s@@A ; pmove
	add	ecx, 92					; 0000005cH
	call	??BVector@@QAEPAMXZ			; Vector::operator float *
	mov	ecx, 4
	shl	ecx, 1
	xorps	xmm0, xmm0
	movss	DWORD PTR [eax+ecx], xmm0

; 3176 : 				PM_Friction();

	call	?PM_Friction@@YAXXZ			; PM_Friction
$LN38@PM_PlayerM:

; 3177 : 			}
; 3178 : 
; 3179 : 			// Make sure velocity is valid.
; 3180 : 			PM_CheckVelocity();

	call	?PM_CheckVelocity@@YAXXZ		; PM_CheckVelocity

; 3181 : 
; 3182 : 			// Are we on ground now
; 3183 : 			if ( pmove->onground != -1 )

	mov	edx, DWORD PTR ?pmove@@3PAUplayermove_s@@A ; pmove
	cmp	DWORD PTR [edx+224], -1
	je	SHORT $LN39@PM_PlayerM

; 3184 : 			{
; 3185 : 				PM_WalkMove();

	call	?PM_WalkMove@@YAXXZ			; PM_WalkMove

; 3186 : 			}
; 3187 : 			else

	jmp	SHORT $LN40@PM_PlayerM
$LN39@PM_PlayerM:

; 3188 : 			{
; 3189 : 				PM_AirMove();  // Take into account movement when in air.

	call	?PM_AirMove@@YAXXZ			; PM_AirMove
$LN40@PM_PlayerM:

; 3190 : 			}
; 3191 : 
; 3192 : 			// Set final flags.
; 3193 : 			PM_CatagorizePosition();

	call	?PM_CatagorizePosition@@YAXXZ		; PM_CatagorizePosition

; 3194 : 
; 3195 : 			// Now pull the base velocity back out.
; 3196 : 			// Base velocity is set if you are on a moving object, like
; 3197 : 			//  a conveyor (or maybe another monster?)
; 3198 : 			pmove->velocity -= pmove->basevelocity;

	mov	eax, DWORD PTR ?pmove@@3PAUplayermove_s@@A ; pmove
	add	eax, 116				; 00000074H
	push	eax
	mov	ecx, DWORD PTR ?pmove@@3PAUplayermove_s@@A ; pmove
	add	ecx, 92					; 0000005cH
	call	??ZVector@@QAEAAV0@ABV0@@Z		; Vector::operator-=

; 3199 : 				
; 3200 : 			// Make sure velocity is valid.
; 3201 : 			PM_CheckVelocity();

	call	?PM_CheckVelocity@@YAXXZ		; PM_CheckVelocity

; 3202 : 
; 3203 : 			// Add any remaining gravitational component.
; 3204 : 			if ( !PM_InWater() )

	call	?PM_InWater@@YAHXZ			; PM_InWater
	test	eax, eax
	jne	SHORT $LN41@PM_PlayerM

; 3205 : 			{
; 3206 : 				PM_FixupGravityVelocity();

	call	?PM_FixupGravityVelocity@@YAXXZ		; PM_FixupGravityVelocity
$LN41@PM_PlayerM:

; 3207 : 			}
; 3208 : 
; 3209 : 			// If we are on ground, no downward velocity.
; 3210 : 			if ( pmove->onground != -1 )

	mov	ecx, DWORD PTR ?pmove@@3PAUplayermove_s@@A ; pmove
	cmp	DWORD PTR [ecx+224], -1
	je	SHORT $LN42@PM_PlayerM

; 3211 : 			{
; 3212 : 				pmove->velocity[2] = 0;

	mov	ecx, DWORD PTR ?pmove@@3PAUplayermove_s@@A ; pmove
	add	ecx, 92					; 0000005cH
	call	??BVector@@QAEPAMXZ			; Vector::operator float *
	mov	edx, 4
	shl	edx, 1
	xorps	xmm0, xmm0
	movss	DWORD PTR [eax+edx], xmm0
$LN42@PM_PlayerM:

; 3213 : 			}
; 3214 : 
; 3215 : 			// See if we landed on the ground with enough force to play
; 3216 : 			//  a landing sound.
; 3217 : 			PM_CheckFalling();

	call	?PM_CheckFalling@@YAXXZ			; PM_CheckFalling
$LN30@PM_PlayerM:

; 3218 : 		}
; 3219 : 
; 3220 : 		// Did we enter or leave the water?
; 3221 : 		PM_PlayWaterSounds();

	call	?PM_PlayWaterSounds@@YAXXZ		; PM_PlayWaterSounds
$LN2@PM_PlayerM:
$LN1@PM_PlayerM:

; 3222 : 		break;
; 3223 : 	}
; 3224 : }

	mov	esp, ebp
	pop	ebp
	ret	0
	npad	2
$LN45@PM_PlayerM:
	DD	$LN19@PM_PlayerM
	DD	$LN26@PM_PlayerM
	DD	$LN22@PM_PlayerM
	DD	$LN21@PM_PlayerM
	DD	$LN20@PM_PlayerM
	DD	$LN18@PM_PlayerM
$LN44@PM_PlayerM:
	DB	0
	DB	5
	DB	5
	DB	1
	DB	5
	DB	2
	DB	3
	DB	5
	DB	4
	DB	5
	DB	3
?PM_PlayerMove@@YAXH@Z ENDP				; PM_PlayerMove
_TEXT	ENDS
; Function compile flags: /Odtp
; File c:\users\user\downloads\xashxt_v0.81_rev.1_with_sources\xashxt_v0.81_rev.1_src\game_shared\playermove.cpp
_TEXT	SEGMENT
?PM_ReduceTimers@@YAXXZ PROC				; PM_ReduceTimers

; 2930 : {

	push	ebp
	mov	ebp, esp

; 2931 : 	if ( pmove->flTimeStepSound > 0 )

	mov	eax, DWORD PTR ?pmove@@3PAUplayermove_s@@A ; pmove
	cmp	DWORD PTR [eax+148], 0
	jle	SHORT $LN3@PM_ReduceT

; 2932 : 	{
; 2933 : 		pmove->flTimeStepSound -= pmove->cmd.msec;

	mov	ecx, DWORD PTR ?pmove@@3PAUplayermove_s@@A ; pmove
	movzx	edx, BYTE PTR [ecx+283738]
	mov	eax, DWORD PTR ?pmove@@3PAUplayermove_s@@A ; pmove
	mov	ecx, DWORD PTR [eax+148]
	sub	ecx, edx
	mov	edx, DWORD PTR ?pmove@@3PAUplayermove_s@@A ; pmove
	mov	DWORD PTR [edx+148], ecx

; 2934 : 		if ( pmove->flTimeStepSound < 0 )

	mov	eax, DWORD PTR ?pmove@@3PAUplayermove_s@@A ; pmove
	cmp	DWORD PTR [eax+148], 0
	jge	SHORT $LN3@PM_ReduceT

; 2935 : 		{
; 2936 : 			pmove->flTimeStepSound = 0;

	mov	ecx, DWORD PTR ?pmove@@3PAUplayermove_s@@A ; pmove
	mov	DWORD PTR [ecx+148], 0
$LN3@PM_ReduceT:

; 2937 : 		}
; 2938 : 	}
; 2939 : 	if ( pmove->flDuckTime > 0 )

	mov	edx, DWORD PTR ?pmove@@3PAUplayermove_s@@A ; pmove
	movss	xmm0, DWORD PTR [edx+140]
	comiss	xmm0, DWORD PTR __real@00000000
	jbe	SHORT $LN5@PM_ReduceT

; 2940 : 	{
; 2941 : 		pmove->flDuckTime -= pmove->cmd.msec;

	mov	eax, DWORD PTR ?pmove@@3PAUplayermove_s@@A ; pmove
	movzx	ecx, BYTE PTR [eax+283738]
	cvtsi2ss xmm0, ecx
	mov	edx, DWORD PTR ?pmove@@3PAUplayermove_s@@A ; pmove
	movss	xmm1, DWORD PTR [edx+140]
	subss	xmm1, xmm0
	mov	eax, DWORD PTR ?pmove@@3PAUplayermove_s@@A ; pmove
	movss	DWORD PTR [eax+140], xmm1

; 2942 : 		if ( pmove->flDuckTime < 0 )

	mov	ecx, DWORD PTR ?pmove@@3PAUplayermove_s@@A ; pmove
	xorps	xmm0, xmm0
	comiss	xmm0, DWORD PTR [ecx+140]
	jbe	SHORT $LN5@PM_ReduceT

; 2943 : 		{
; 2944 : 			pmove->flDuckTime = 0;

	mov	edx, DWORD PTR ?pmove@@3PAUplayermove_s@@A ; pmove
	xorps	xmm0, xmm0
	movss	DWORD PTR [edx+140], xmm0
$LN5@PM_ReduceT:

; 2945 : 		}
; 2946 : 	}
; 2947 : 	if ( pmove->flSwimTime > 0 )

	mov	eax, DWORD PTR ?pmove@@3PAUplayermove_s@@A ; pmove
	movss	xmm0, DWORD PTR [eax+172]
	comiss	xmm0, DWORD PTR __real@00000000
	jbe	SHORT $LN7@PM_ReduceT

; 2948 : 	{
; 2949 : 		pmove->flSwimTime -= pmove->cmd.msec;

	mov	ecx, DWORD PTR ?pmove@@3PAUplayermove_s@@A ; pmove
	movzx	edx, BYTE PTR [ecx+283738]
	cvtsi2ss xmm0, edx
	mov	eax, DWORD PTR ?pmove@@3PAUplayermove_s@@A ; pmove
	movss	xmm1, DWORD PTR [eax+172]
	subss	xmm1, xmm0
	mov	ecx, DWORD PTR ?pmove@@3PAUplayermove_s@@A ; pmove
	movss	DWORD PTR [ecx+172], xmm1

; 2950 : 		if ( pmove->flSwimTime < 0 )

	mov	edx, DWORD PTR ?pmove@@3PAUplayermove_s@@A ; pmove
	xorps	xmm0, xmm0
	comiss	xmm0, DWORD PTR [edx+172]
	jbe	SHORT $LN7@PM_ReduceT

; 2951 : 		{
; 2952 : 			pmove->flSwimTime = 0;

	mov	eax, DWORD PTR ?pmove@@3PAUplayermove_s@@A ; pmove
	xorps	xmm0, xmm0
	movss	DWORD PTR [eax+172], xmm0
$LN7@PM_ReduceT:

; 2953 : 		}
; 2954 : 	}
; 2955 : }

	pop	ebp
	ret	0
?PM_ReduceTimers@@YAXXZ ENDP				; PM_ReduceTimers
_TEXT	ENDS
; Function compile flags: /Odtp
; File c:\users\user\downloads\xashxt_v0.81_rev.1_with_sources\xashxt_v0.81_rev.1_src\game_shared\playermove.cpp
_TEXT	SEGMENT
_v_angle$ = -40						; size = 12
tv391 = -28						; size = 4
tv359 = -24						; size = 4
tv255 = -20						; size = 4
tv128 = -16						; size = 4
_fRatio$1 = -12						; size = 4
_maxspeed$ = -8						; size = 4
_spd$ = -4						; size = 4
?PM_CheckParamters@@YAXXZ PROC				; PM_CheckParamters

; 2854 : {

	push	ebp
	mov	ebp, esp
	sub	esp, 40					; 00000028H
	push	esi
	push	edi

; 2855 : 	float spd;
; 2856 : 	float maxspeed;
; 2857 : 	Vector	v_angle;

	lea	ecx, DWORD PTR _v_angle$[ebp]
	call	??0Vector@@QAE@XZ			; Vector::Vector

; 2858 : 
; 2859 : 	// clear stuck flag for each frame
; 2860 : 	pmove->flags &= ~FL_STUCKED;

	mov	eax, DWORD PTR ?pmove@@3PAUplayermove_s@@A ; pmove
	mov	ecx, DWORD PTR [eax+184]
	and	ecx, -134217729				; f7ffffffH
	mov	edx, DWORD PTR ?pmove@@3PAUplayermove_s@@A ; pmove
	mov	DWORD PTR [edx+184], ecx

; 2861 : 
; 2862 : 	spd = ( pmove->cmd.forwardmove * pmove->cmd.forwardmove ) +

	mov	eax, DWORD PTR ?pmove@@3PAUplayermove_s@@A ; pmove
	mov	ecx, DWORD PTR ?pmove@@3PAUplayermove_s@@A ; pmove
	movss	xmm0, DWORD PTR [eax+283752]
	mulss	xmm0, DWORD PTR [ecx+283752]
	mov	edx, DWORD PTR ?pmove@@3PAUplayermove_s@@A ; pmove
	mov	eax, DWORD PTR ?pmove@@3PAUplayermove_s@@A ; pmove
	movss	xmm1, DWORD PTR [edx+283756]
	mulss	xmm1, DWORD PTR [eax+283756]
	addss	xmm0, xmm1
	mov	ecx, DWORD PTR ?pmove@@3PAUplayermove_s@@A ; pmove
	mov	edx, DWORD PTR ?pmove@@3PAUplayermove_s@@A ; pmove
	movss	xmm1, DWORD PTR [ecx+283760]
	mulss	xmm1, DWORD PTR [edx+283760]
	addss	xmm0, xmm1
	movss	DWORD PTR _spd$[ebp], xmm0

; 2863 : 		  ( pmove->cmd.sidemove * pmove->cmd.sidemove ) +
; 2864 : 		  ( pmove->cmd.upmove * pmove->cmd.upmove );
; 2865 : 	spd = sqrt( spd );

	cvtss2sd xmm0, DWORD PTR _spd$[ebp]
	sub	esp, 8
	movsd	QWORD PTR [esp], xmm0
	call	_sqrt
	add	esp, 8
	fstp	DWORD PTR _spd$[ebp]

; 2866 : 
; 2867 : 	maxspeed = pmove->clientmaxspeed; //atof( pmove->PM_Info_ValueForKey( pmove->physinfo, "maxspd" ) );

	mov	eax, DWORD PTR ?pmove@@3PAUplayermove_s@@A ; pmove
	movss	xmm0, DWORD PTR [eax+504]
	movss	DWORD PTR _maxspeed$[ebp], xmm0

; 2868 : 	if ( maxspeed != 0.0 )

	cvtss2sd xmm0, DWORD PTR _maxspeed$[ebp]
	ucomisd	xmm0, QWORD PTR __real@0000000000000000
	lahf
	test	ah, 68					; 00000044H
	jnp	SHORT $LN2@PM_CheckPa

; 2869 : 	{
; 2870 : 		pmove->maxspeed = min( maxspeed, pmove->maxspeed );

	mov	ecx, DWORD PTR ?pmove@@3PAUplayermove_s@@A ; pmove
	movss	xmm0, DWORD PTR [ecx+500]
	comiss	xmm0, DWORD PTR _maxspeed$[ebp]
	jbe	SHORT $LN12@PM_CheckPa
	movss	xmm0, DWORD PTR _maxspeed$[ebp]
	movss	DWORD PTR tv128[ebp], xmm0
	jmp	SHORT $LN13@PM_CheckPa
$LN12@PM_CheckPa:
	mov	edx, DWORD PTR ?pmove@@3PAUplayermove_s@@A ; pmove
	movss	xmm0, DWORD PTR [edx+500]
	movss	DWORD PTR tv128[ebp], xmm0
$LN13@PM_CheckPa:
	mov	eax, DWORD PTR ?pmove@@3PAUplayermove_s@@A ; pmove
	movss	xmm0, DWORD PTR tv128[ebp]
	movss	DWORD PTR [eax+500], xmm0
$LN2@PM_CheckPa:

; 2871 : 	}
; 2872 : 
; 2873 : 	if ( ( spd != 0.0 ) &&

	cvtss2sd xmm0, DWORD PTR _spd$[ebp]
	ucomisd	xmm0, QWORD PTR __real@0000000000000000
	lahf
	test	ah, 68					; 00000044H
	jnp	$LN3@PM_CheckPa
	mov	ecx, DWORD PTR ?pmove@@3PAUplayermove_s@@A ; pmove
	movss	xmm0, DWORD PTR _spd$[ebp]
	comiss	xmm0, DWORD PTR [ecx+500]
	jbe	SHORT $LN3@PM_CheckPa

; 2874 : 		 ( spd > pmove->maxspeed ) )
; 2875 : 	{
; 2876 : 		float fRatio = pmove->maxspeed / spd;

	mov	edx, DWORD PTR ?pmove@@3PAUplayermove_s@@A ; pmove
	movss	xmm0, DWORD PTR [edx+500]
	divss	xmm0, DWORD PTR _spd$[ebp]
	movss	DWORD PTR _fRatio$1[ebp], xmm0

; 2877 : 		pmove->cmd.forwardmove *= fRatio;

	mov	eax, DWORD PTR ?pmove@@3PAUplayermove_s@@A ; pmove
	movss	xmm0, DWORD PTR [eax+283752]
	mulss	xmm0, DWORD PTR _fRatio$1[ebp]
	mov	ecx, DWORD PTR ?pmove@@3PAUplayermove_s@@A ; pmove
	movss	DWORD PTR [ecx+283752], xmm0

; 2878 : 		pmove->cmd.sidemove    *= fRatio;

	mov	edx, DWORD PTR ?pmove@@3PAUplayermove_s@@A ; pmove
	movss	xmm0, DWORD PTR [edx+283756]
	mulss	xmm0, DWORD PTR _fRatio$1[ebp]
	mov	eax, DWORD PTR ?pmove@@3PAUplayermove_s@@A ; pmove
	movss	DWORD PTR [eax+283756], xmm0

; 2879 : 		pmove->cmd.upmove      *= fRatio;

	mov	ecx, DWORD PTR ?pmove@@3PAUplayermove_s@@A ; pmove
	movss	xmm0, DWORD PTR [ecx+283760]
	mulss	xmm0, DWORD PTR _fRatio$1[ebp]
	mov	edx, DWORD PTR ?pmove@@3PAUplayermove_s@@A ; pmove
	movss	DWORD PTR [edx+283760], xmm0
$LN3@PM_CheckPa:

; 2880 : 	}
; 2881 : 
; 2882 : 	if ( pmove->flags & FL_FROZEN || pmove->dead )

	mov	eax, DWORD PTR ?pmove@@3PAUplayermove_s@@A ; pmove
	mov	ecx, DWORD PTR [eax+184]
	and	ecx, 4096				; 00001000H
	jne	SHORT $LN5@PM_CheckPa
	mov	edx, DWORD PTR ?pmove@@3PAUplayermove_s@@A ; pmove
	cmp	DWORD PTR [edx+208], 0
	je	SHORT $LN4@PM_CheckPa
$LN5@PM_CheckPa:

; 2883 : 	{
; 2884 : 		pmove->cmd.forwardmove = 0;

	mov	eax, DWORD PTR ?pmove@@3PAUplayermove_s@@A ; pmove
	xorps	xmm0, xmm0
	movss	DWORD PTR [eax+283752], xmm0

; 2885 : 		pmove->cmd.sidemove    = 0;

	mov	ecx, DWORD PTR ?pmove@@3PAUplayermove_s@@A ; pmove
	xorps	xmm0, xmm0
	movss	DWORD PTR [ecx+283756], xmm0

; 2886 : 		pmove->cmd.upmove      = 0;

	mov	edx, DWORD PTR ?pmove@@3PAUplayermove_s@@A ; pmove
	xorps	xmm0, xmm0
	movss	DWORD PTR [edx+283760], xmm0

; 2887 : 		pmove->cmd.buttons     = 0;

	xor	eax, eax
	mov	ecx, DWORD PTR ?pmove@@3PAUplayermove_s@@A ; pmove
	mov	WORD PTR [ecx+283766], ax
$LN4@PM_CheckPa:

; 2888 : 	}
; 2889 : 
; 2890 : 	if ( pmove->flags & FL_ONTRAIN )

	mov	edx, DWORD PTR ?pmove@@3PAUplayermove_s@@A ; pmove
	mov	eax, DWORD PTR [edx+184]
	and	eax, 16777216				; 01000000H
	je	SHORT $LN6@PM_CheckPa

; 2891 : 	{
; 2892 : 		pmove->cmd.forwardmove = 0;

	mov	ecx, DWORD PTR ?pmove@@3PAUplayermove_s@@A ; pmove
	xorps	xmm0, xmm0
	movss	DWORD PTR [ecx+283752], xmm0

; 2893 : 		pmove->cmd.sidemove    = 0;

	mov	edx, DWORD PTR ?pmove@@3PAUplayermove_s@@A ; pmove
	xorps	xmm0, xmm0
	movss	DWORD PTR [edx+283756], xmm0

; 2894 : 		pmove->cmd.upmove      = 0;

	mov	eax, DWORD PTR ?pmove@@3PAUplayermove_s@@A ; pmove
	xorps	xmm0, xmm0
	movss	DWORD PTR [eax+283760], xmm0
$LN6@PM_CheckPa:

; 2895 : 	}
; 2896 : 
; 2897 : 	PM_DropPunchAngle( pmove->punchangle );

	mov	ecx, DWORD PTR ?pmove@@3PAUplayermove_s@@A ; pmove
	add	ecx, 160				; 000000a0H
	push	ecx
	call	?PM_DropPunchAngle@@YAXAAVVector@@@Z	; PM_DropPunchAngle
	add	esp, 4

; 2898 : 
; 2899 : 	// Take angles from command.
; 2900 : 	if ( !pmove->dead )

	mov	edx, DWORD PTR ?pmove@@3PAUplayermove_s@@A ; pmove
	cmp	DWORD PTR [edx+208], 0
	jne	$LN7@PM_CheckPa

; 2901 : 	{
; 2902 : 		v_angle = pmove->cmd.viewangles;          

	mov	eax, DWORD PTR ?pmove@@3PAUplayermove_s@@A ; pmove
	add	eax, 283740				; 0004545cH
	mov	ecx, DWORD PTR [eax]
	mov	DWORD PTR _v_angle$[ebp], ecx
	mov	edx, DWORD PTR [eax+4]
	mov	DWORD PTR _v_angle$[ebp+4], edx
	mov	eax, DWORD PTR [eax+8]
	mov	DWORD PTR _v_angle$[ebp+8], eax

; 2903 : 		v_angle += pmove->punchangle;

	mov	ecx, DWORD PTR ?pmove@@3PAUplayermove_s@@A ; pmove
	add	ecx, 160				; 000000a0H
	push	ecx
	lea	ecx, DWORD PTR _v_angle$[ebp]
	call	??YVector@@QAEAAV0@ABV0@@Z		; Vector::operator+=

; 2904 : 
; 2905 : 		// set up view angles.
; 2906 : 		pmove->angles[PITCH] = v_angle[PITCH];

	lea	ecx, DWORD PTR _v_angle$[ebp]
	call	??BVector@@QAEPAMXZ			; Vector::operator float *
	mov	esi, eax
	mov	edx, 4
	imul	edi, edx, 0
	mov	ecx, DWORD PTR ?pmove@@3PAUplayermove_s@@A ; pmove
	add	ecx, 68					; 00000044H
	call	??BVector@@QAEPAMXZ			; Vector::operator float *
	mov	ecx, 4
	imul	edx, ecx, 0
	mov	ecx, DWORD PTR [esi+edi]
	mov	DWORD PTR [eax+edx], ecx

; 2907 : 		pmove->angles[YAW] = v_angle[YAW];

	lea	ecx, DWORD PTR _v_angle$[ebp]
	call	??BVector@@QAEPAMXZ			; Vector::operator float *
	mov	esi, eax
	mov	edi, 4
	shl	edi, 0
	mov	ecx, DWORD PTR ?pmove@@3PAUplayermove_s@@A ; pmove
	add	ecx, 68					; 00000044H
	call	??BVector@@QAEPAMXZ			; Vector::operator float *
	mov	edx, 4
	shl	edx, 0
	mov	ecx, DWORD PTR [esi+edi]
	mov	DWORD PTR [eax+edx], ecx

; 2908 : 		pmove->angles[ROLL]	= PM_CalcRoll( v_angle, pmove->velocity, pmove->movevars->rollangle, pmove->movevars->rollspeed ) * 4;

	mov	edx, DWORD PTR ?pmove@@3PAUplayermove_s@@A ; pmove
	mov	eax, DWORD PTR [edx+324848]
	push	ecx
	movss	xmm0, DWORD PTR [eax+104]
	movss	DWORD PTR [esp], xmm0
	mov	ecx, DWORD PTR ?pmove@@3PAUplayermove_s@@A ; pmove
	mov	edx, DWORD PTR [ecx+324848]
	push	ecx
	movss	xmm0, DWORD PTR [edx+100]
	movss	DWORD PTR [esp], xmm0
	sub	esp, 12					; 0000000cH
	mov	ecx, esp
	mov	eax, DWORD PTR ?pmove@@3PAUplayermove_s@@A ; pmove
	add	eax, 92					; 0000005cH
	push	eax
	call	??0Vector@@QAE@ABV0@@Z			; Vector::Vector
	sub	esp, 12					; 0000000cH
	mov	ecx, esp
	lea	edx, DWORD PTR _v_angle$[ebp]
	push	edx
	call	??0Vector@@QAE@ABV0@@Z			; Vector::Vector
	call	?PM_CalcRoll@@YAMVVector@@0MM@Z		; PM_CalcRoll
	add	esp, 32					; 00000020H
	fstp	DWORD PTR tv359[ebp]
	movss	xmm0, DWORD PTR tv359[ebp]
	mulss	xmm0, DWORD PTR __real@40800000
	mov	ecx, DWORD PTR ?pmove@@3PAUplayermove_s@@A ; pmove
	add	ecx, 68					; 00000044H
	movss	DWORD PTR tv391[ebp], xmm0
	call	??BVector@@QAEPAMXZ			; Vector::operator float *
	mov	ecx, 4
	shl	ecx, 1
	movss	xmm0, DWORD PTR tv391[ebp]
	movss	DWORD PTR [eax+ecx], xmm0

; 2909 : 	}
; 2910 : 	else

	jmp	SHORT $LN8@PM_CheckPa
$LN7@PM_CheckPa:

; 2911 : 	{
; 2912 : 		pmove->angles = pmove->oldangles;

	mov	edx, DWORD PTR ?pmove@@3PAUplayermove_s@@A ; pmove
	add	edx, 80					; 00000050H
	mov	eax, DWORD PTR ?pmove@@3PAUplayermove_s@@A ; pmove
	add	eax, 68					; 00000044H
	mov	ecx, DWORD PTR [edx]
	mov	DWORD PTR [eax], ecx
	mov	ecx, DWORD PTR [edx+4]
	mov	DWORD PTR [eax+4], ecx
	mov	edx, DWORD PTR [edx+8]
	mov	DWORD PTR [eax+8], edx
$LN8@PM_CheckPa:

; 2913 : 	}
; 2914 : 
; 2915 : 	// Set dead player view_offset
; 2916 : 	if ( pmove->dead )

	mov	eax, DWORD PTR ?pmove@@3PAUplayermove_s@@A ; pmove
	cmp	DWORD PTR [eax+208], 0
	je	SHORT $LN9@PM_CheckPa

; 2917 : 	{
; 2918 : 		pmove->view_ofs[2] = PM_DEAD_VIEWHEIGHT;

	mov	ecx, DWORD PTR ?pmove@@3PAUplayermove_s@@A ; pmove
	add	ecx, 128				; 00000080H
	call	??BVector@@QAEPAMXZ			; Vector::operator float *
	mov	ecx, 4
	shl	ecx, 1
	movss	xmm0, DWORD PTR __real@c1000000
	movss	DWORD PTR [eax+ecx], xmm0
$LN9@PM_CheckPa:

; 2919 : 	}
; 2920 : 
; 2921 : 	// Adjust client view angles to match values used on server.
; 2922 : 	if (pmove->angles[YAW] > 180.0f)

	mov	ecx, DWORD PTR ?pmove@@3PAUplayermove_s@@A ; pmove
	add	ecx, 68					; 00000044H
	call	??BVector@@QAEPAMXZ			; Vector::operator float *
	mov	edx, 4
	shl	edx, 0
	movss	xmm0, DWORD PTR [eax+edx]
	comiss	xmm0, DWORD PTR __real@43340000
	jbe	SHORT $LN10@PM_CheckPa

; 2923 : 	{
; 2924 : 		pmove->angles[YAW] -= 360.0f;

	mov	ecx, DWORD PTR ?pmove@@3PAUplayermove_s@@A ; pmove
	add	ecx, 68					; 00000044H
	call	??BVector@@QAEPAMXZ			; Vector::operator float *
	mov	ecx, 4
	shl	ecx, 0
	add	eax, ecx
	mov	DWORD PTR tv255[ebp], eax
	mov	edx, DWORD PTR tv255[ebp]
	movss	xmm0, DWORD PTR [edx]
	subss	xmm0, DWORD PTR __real@43b40000
	mov	eax, DWORD PTR tv255[ebp]
	movss	DWORD PTR [eax], xmm0
$LN10@PM_CheckPa:

; 2925 : 	}
; 2926 : 
; 2927 : }

	pop	edi
	pop	esi
	mov	esp, ebp
	pop	ebp
	ret	0
?PM_CheckParamters@@YAXXZ ENDP				; PM_CheckParamters
_TEXT	ENDS
; Function compile flags: /Odtp
; File c:\users\user\downloads\xashxt_v0.81_rev.1_with_sources\xashxt_v0.81_rev.1_src\game_shared\playermove.cpp
_TEXT	SEGMENT
$T1 = -24						; size = 12
tv82 = -12						; size = 8
_len$ = -4						; size = 4
_punchangle$ = 8					; size = 4
?PM_DropPunchAngle@@YAXAAVVector@@@Z PROC		; PM_DropPunchAngle

; 2836 : {

	push	ebp
	mov	ebp, esp
	sub	esp, 24					; 00000018H

; 2837 : 	float	len;
; 2838 : 
; 2839 : 	len = punchangle.Length();

	mov	ecx, DWORD PTR _punchangle$[ebp]
	call	?Length@Vector@@QBEMXZ			; Vector::Length
	fstp	DWORD PTR _len$[ebp]

; 2840 : 	punchangle = punchangle.Normalize();

	lea	eax, DWORD PTR $T1[ebp]
	push	eax
	mov	ecx, DWORD PTR _punchangle$[ebp]
	call	?Normalize@Vector@@QBE?AV1@XZ		; Vector::Normalize
	mov	ecx, DWORD PTR _punchangle$[ebp]
	mov	edx, DWORD PTR [eax]
	mov	DWORD PTR [ecx], edx
	mov	edx, DWORD PTR [eax+4]
	mov	DWORD PTR [ecx+4], edx
	mov	eax, DWORD PTR [eax+8]
	mov	DWORD PTR [ecx+8], eax

; 2841 : 
; 2842 : 	len -= (10.0 + len * 0.5) * pmove->frametime;

	cvtss2sd xmm0, DWORD PTR _len$[ebp]
	mulsd	xmm0, QWORD PTR __real@3fe0000000000000
	addsd	xmm0, QWORD PTR __real@4024000000000000
	mov	ecx, DWORD PTR ?pmove@@3PAUplayermove_s@@A ; pmove
	cvtss2sd xmm1, DWORD PTR [ecx+16]
	mulsd	xmm0, xmm1
	cvtss2sd xmm1, DWORD PTR _len$[ebp]
	subsd	xmm1, xmm0
	cvtsd2ss xmm0, xmm1
	movss	DWORD PTR _len$[ebp], xmm0

; 2843 : 	len = max( len, 0.0 );

	cvtss2sd xmm0, DWORD PTR _len$[ebp]
	comisd	xmm0, QWORD PTR __real@0000000000000000
	jbe	SHORT $LN3@PM_DropPun
	cvtss2sd xmm0, DWORD PTR _len$[ebp]
	movsd	QWORD PTR tv82[ebp], xmm0
	jmp	SHORT $LN4@PM_DropPun
$LN3@PM_DropPun:
	xorps	xmm0, xmm0
	movsd	QWORD PTR tv82[ebp], xmm0
$LN4@PM_DropPun:
	cvtsd2ss xmm0, QWORD PTR tv82[ebp]
	movss	DWORD PTR _len$[ebp], xmm0

; 2844 : 	punchangle *= len;

	push	ecx
	movss	xmm0, DWORD PTR _len$[ebp]
	movss	DWORD PTR [esp], xmm0
	mov	ecx, DWORD PTR _punchangle$[ebp]
	call	??XVector@@QAEAAV0@M@Z			; Vector::operator*=

; 2845 : }

	mov	esp, ebp
	pop	ebp
	ret	0
?PM_DropPunchAngle@@YAXAAVVector@@@Z ENDP		; PM_DropPunchAngle
_TEXT	ENDS
; Function compile flags: /Odtp
; File c:\users\user\downloads\xashxt_v0.81_rev.1_with_sources\xashxt_v0.81_rev.1_src\game_shared\playermove.cpp
_TEXT	SEGMENT
_forward$ = -56						; size = 12
_up$ = -44						; size = 12
_right$ = -32						; size = 12
tv144 = -20						; size = 4
_sign$ = -16						; size = 4
_value$ = -12						; size = 4
tv83 = -8						; size = 4
_side$ = -4						; size = 4
_angles$ = 8						; size = 12
_velocity$ = 20						; size = 12
_rollangle$ = 32					; size = 4
_rollspeed$ = 36					; size = 4
?PM_CalcRoll@@YAMVVector@@0MM@Z PROC			; PM_CalcRoll

; 2801 : {

	push	ebp
	mov	ebp, esp
	sub	esp, 56					; 00000038H

; 2802 : 	float   sign;
; 2803 : 	float   side;
; 2804 : 	float   value;
; 2805 : 	Vector  forward, right, up;

	lea	ecx, DWORD PTR _forward$[ebp]
	call	??0Vector@@QAE@XZ			; Vector::Vector
	lea	ecx, DWORD PTR _right$[ebp]
	call	??0Vector@@QAE@XZ			; Vector::Vector
	lea	ecx, DWORD PTR _up$[ebp]
	call	??0Vector@@QAE@XZ			; Vector::Vector

; 2806 :     
; 2807 : 	AngleVectors (angles, forward, right, up);

	lea	ecx, DWORD PTR _up$[ebp]
	call	??BVector@@QAEPAMXZ			; Vector::operator float *
	push	eax
	lea	ecx, DWORD PTR _right$[ebp]
	call	??BVector@@QAEPAMXZ			; Vector::operator float *
	push	eax
	lea	ecx, DWORD PTR _forward$[ebp]
	call	??BVector@@QAEPAMXZ			; Vector::operator float *
	push	eax
	lea	ecx, DWORD PTR _angles$[ebp]
	call	??BVector@@QAEPAMXZ			; Vector::operator float *
	push	eax
	call	DWORD PTR ?gEngfuncs@@3Ucl_enginefuncs_s@@A+96
	add	esp, 16					; 00000010H

; 2808 :     
; 2809 : 	side = DotProduct (velocity, right);

	lea	eax, DWORD PTR _right$[ebp]
	push	eax
	lea	ecx, DWORD PTR _velocity$[ebp]
	push	ecx
	call	?DotProduct@@YAMABVVector@@0@Z		; DotProduct
	add	esp, 8
	fstp	DWORD PTR _side$[ebp]

; 2810 :     
; 2811 : 	sign = side < 0 ? -1 : 1;

	xorps	xmm0, xmm0
	comiss	xmm0, DWORD PTR _side$[ebp]
	jbe	SHORT $LN5@PM_CalcRol
	mov	DWORD PTR tv83[ebp], -1
	jmp	SHORT $LN6@PM_CalcRol
$LN5@PM_CalcRol:
	mov	DWORD PTR tv83[ebp], 1
$LN6@PM_CalcRol:
	cvtsi2ss xmm0, DWORD PTR tv83[ebp]
	movss	DWORD PTR _sign$[ebp], xmm0

; 2812 :     
; 2813 : 	side = fabs(side);

	cvtss2sd xmm0, DWORD PTR _side$[ebp]
	sub	esp, 8
	movsd	QWORD PTR [esp], xmm0
	call	_fabs
	add	esp, 8
	fstp	DWORD PTR _side$[ebp]

; 2814 :     
; 2815 : 	value = rollangle;

	movss	xmm0, DWORD PTR _rollangle$[ebp]
	movss	DWORD PTR _value$[ebp], xmm0

; 2816 :     
; 2817 : 	if (side < rollspeed)

	movss	xmm0, DWORD PTR _rollspeed$[ebp]
	comiss	xmm0, DWORD PTR _side$[ebp]
	jbe	SHORT $LN2@PM_CalcRol

; 2818 : 	{
; 2819 : 		side = side * value / rollspeed;

	movss	xmm0, DWORD PTR _side$[ebp]
	mulss	xmm0, DWORD PTR _value$[ebp]
	divss	xmm0, DWORD PTR _rollspeed$[ebp]
	movss	DWORD PTR _side$[ebp], xmm0

; 2820 : 	}
; 2821 : 	else

	jmp	SHORT $LN3@PM_CalcRol
$LN2@PM_CalcRol:

; 2822 : 	{
; 2823 : 		side = value;

	movss	xmm0, DWORD PTR _value$[ebp]
	movss	DWORD PTR _side$[ebp], xmm0
$LN3@PM_CalcRol:

; 2824 : 	}
; 2825 :   
; 2826 : 	return side * sign;

	movss	xmm0, DWORD PTR _side$[ebp]
	mulss	xmm0, DWORD PTR _sign$[ebp]
	movss	DWORD PTR tv144[ebp], xmm0
	fld	DWORD PTR tv144[ebp]

; 2827 : }

	mov	esp, ebp
	pop	ebp
	ret	0
?PM_CalcRoll@@YAMVVector@@0MM@Z ENDP			; PM_CalcRoll
_TEXT	ENDS
; Function compile flags: /Odtp
; File c:\users\user\downloads\xashxt_v0.81_rev.1_with_sources\xashxt_v0.81_rev.1_src\game_shared\playermove.cpp
_TEXT	SEGMENT
tv78 = -4						; size = 4
?PM_PlayWaterSounds@@YAXXZ PROC				; PM_PlayWaterSounds

; 2771 : {

	push	ebp
	mov	ebp, esp
	push	ecx

; 2772 : 	// Did we enter or leave water?
; 2773 : 	if  ( ( pmove->oldwaterlevel == 0 && pmove->waterlevel != 0 && pmove->watertype > CONTENT_FLYFIELD) ||

	mov	eax, DWORD PTR ?pmove@@3PAUplayermove_s@@A ; pmove
	cmp	DWORD PTR [eax+236], 0
	jne	SHORT $LN6@PM_PlayWat
	mov	ecx, DWORD PTR ?pmove@@3PAUplayermove_s@@A ; pmove
	cmp	DWORD PTR [ecx+228], 0
	je	SHORT $LN6@PM_PlayWat
	mov	edx, DWORD PTR ?pmove@@3PAUplayermove_s@@A ; pmove
	cmp	DWORD PTR [edx+232], -17		; ffffffefH
	jg	SHORT $LN5@PM_PlayWat
$LN6@PM_PlayWat:
	mov	eax, DWORD PTR ?pmove@@3PAUplayermove_s@@A ; pmove
	cmp	DWORD PTR [eax+236], 0
	je	$LN2@PM_PlayWat
	mov	ecx, DWORD PTR ?pmove@@3PAUplayermove_s@@A ; pmove
	cmp	DWORD PTR [ecx+228], 0
	jne	$LN2@PM_PlayWat
$LN5@PM_PlayWat:

; 2774 : 		  ( pmove->oldwaterlevel != 0 && pmove->waterlevel == 0 ))
; 2775 : 	{
; 2776 : 		switch ( pmove->RandomLong(0,3) )

	push	3
	push	0
	mov	edx, DWORD PTR ?pmove@@3PAUplayermove_s@@A ; pmove
	mov	eax, DWORD PTR [edx+325000]
	call	eax
	add	esp, 8
	mov	DWORD PTR tv78[ebp], eax
	cmp	DWORD PTR tv78[ebp], 3
	ja	$LN2@PM_PlayWat
	mov	ecx, DWORD PTR tv78[ebp]
	jmp	DWORD PTR $LN12@PM_PlayWat[ecx*4]
$LN7@PM_PlayWat:

; 2777 : 		{
; 2778 : 		case 0:
; 2779 : 			pmove->PM_PlaySound( CHAN_BODY, "player/pl_wade1.wav", 1, ATTN_NORM, 0, PITCH_NORM );

	push	100					; 00000064H
	push	0
	push	ecx
	movss	xmm0, DWORD PTR __real@3f4ccccd
	movss	DWORD PTR [esp], xmm0
	push	ecx
	movss	xmm0, DWORD PTR __real@3f800000
	movss	DWORD PTR [esp], xmm0
	push	OFFSET $SG16020
	push	4
	mov	edx, DWORD PTR ?pmove@@3PAUplayermove_s@@A ; pmove
	mov	eax, DWORD PTR [edx+325044]
	call	eax
	add	esp, 24					; 00000018H

; 2780 : 			break;

	jmp	$LN2@PM_PlayWat
$LN8@PM_PlayWat:

; 2781 : 		case 1:
; 2782 : 			pmove->PM_PlaySound( CHAN_BODY, "player/pl_wade2.wav", 1, ATTN_NORM, 0, PITCH_NORM );

	push	100					; 00000064H
	push	0
	push	ecx
	movss	xmm0, DWORD PTR __real@3f4ccccd
	movss	DWORD PTR [esp], xmm0
	push	ecx
	movss	xmm0, DWORD PTR __real@3f800000
	movss	DWORD PTR [esp], xmm0
	push	OFFSET $SG16022
	push	4
	mov	ecx, DWORD PTR ?pmove@@3PAUplayermove_s@@A ; pmove
	mov	edx, DWORD PTR [ecx+325044]
	call	edx
	add	esp, 24					; 00000018H

; 2783 : 			break;

	jmp	SHORT $LN2@PM_PlayWat
$LN9@PM_PlayWat:

; 2784 : 		case 2:
; 2785 : 			pmove->PM_PlaySound( CHAN_BODY, "player/pl_wade3.wav", 1, ATTN_NORM, 0, PITCH_NORM );

	push	100					; 00000064H
	push	0
	push	ecx
	movss	xmm0, DWORD PTR __real@3f4ccccd
	movss	DWORD PTR [esp], xmm0
	push	ecx
	movss	xmm0, DWORD PTR __real@3f800000
	movss	DWORD PTR [esp], xmm0
	push	OFFSET $SG16024
	push	4
	mov	eax, DWORD PTR ?pmove@@3PAUplayermove_s@@A ; pmove
	mov	ecx, DWORD PTR [eax+325044]
	call	ecx
	add	esp, 24					; 00000018H

; 2786 : 			break;

	jmp	SHORT $LN2@PM_PlayWat
$LN10@PM_PlayWat:

; 2787 : 		case 3:
; 2788 : 			pmove->PM_PlaySound( CHAN_BODY, "player/pl_wade4.wav", 1, ATTN_NORM, 0, PITCH_NORM );

	push	100					; 00000064H
	push	0
	push	ecx
	movss	xmm0, DWORD PTR __real@3f4ccccd
	movss	DWORD PTR [esp], xmm0
	push	ecx
	movss	xmm0, DWORD PTR __real@3f800000
	movss	DWORD PTR [esp], xmm0
	push	OFFSET $SG16026
	push	4
	mov	edx, DWORD PTR ?pmove@@3PAUplayermove_s@@A ; pmove
	mov	eax, DWORD PTR [edx+325044]
	call	eax
	add	esp, 24					; 00000018H
$LN2@PM_PlayWat:

; 2789 : 			break;
; 2790 : 		}
; 2791 : 	}
; 2792 : }

	mov	esp, ebp
	pop	ebp
	ret	0
	npad	3
$LN12@PM_PlayWat:
	DD	$LN7@PM_PlayWat
	DD	$LN8@PM_PlayWat
	DD	$LN9@PM_PlayWat
	DD	$LN10@PM_PlayWat
?PM_PlayWaterSounds@@YAXXZ ENDP				; PM_PlayWaterSounds
_TEXT	ENDS
; Function compile flags: /Odtp
; File c:\users\user\downloads\xashxt_v0.81_rev.1_with_sources\xashxt_v0.81_rev.1_src\game_shared\playermove.cpp
_TEXT	SEGMENT
tv220 = -16						; size = 4
_tfc$1 = -12						; size = 4
_fvol$2 = -8						; size = 4
tv91 = -1						; size = 1
?PM_CheckFalling@@YAXXZ PROC				; PM_CheckFalling

; 2696 : {

	push	ebp
	mov	ebp, esp
	sub	esp, 16					; 00000010H

; 2697 : 	if ( pmove->onground != -1 &&
; 2698 : 		 !pmove->dead &&

	mov	eax, DWORD PTR ?pmove@@3PAUplayermove_s@@A ; pmove
	cmp	DWORD PTR [eax+224], -1
	je	$LN12@PM_CheckFa
	mov	ecx, DWORD PTR ?pmove@@3PAUplayermove_s@@A ; pmove
	cmp	DWORD PTR [ecx+208], 0
	jne	$LN12@PM_CheckFa
	mov	edx, DWORD PTR ?pmove@@3PAUplayermove_s@@A ; pmove
	movss	xmm0, DWORD PTR [edx+156]
	comiss	xmm0, DWORD PTR __real@43af0000
	jb	$LN12@PM_CheckFa

; 2699 : 		 pmove->flFallVelocity >= PLAYER_FALL_PUNCH_THRESHHOLD )
; 2700 : 	{
; 2701 : 		float fvol = 0.5;

	movss	xmm0, DWORD PTR __real@3f000000
	movss	DWORD PTR _fvol$2[ebp], xmm0

; 2702 : 
; 2703 : 		if ( pmove->waterlevel > 0 )

	mov	eax, DWORD PTR ?pmove@@3PAUplayermove_s@@A ; pmove
	cmp	DWORD PTR [eax+228], 0
	jle	SHORT $LN3@PM_CheckFa
	jmp	$LN10@PM_CheckFa
$LN3@PM_CheckFa:

; 2704 : 		{
; 2705 : 		}
; 2706 : 		else if ( pmove->flFallVelocity > PLAYER_MAX_SAFE_FALL_SPEED )

	mov	ecx, DWORD PTR ?pmove@@3PAUplayermove_s@@A ; pmove
	movss	xmm0, DWORD PTR [ecx+156]
	comiss	xmm0, DWORD PTR __real@44110000
	jbe	SHORT $LN5@PM_CheckFa

; 2707 : 		{
; 2708 : 			// NOTE:  In the original game dll , there were no breaks after these cases, causing the first one to 
; 2709 : 			// cascade into the second
; 2710 : 			//switch ( RandomLong(0,1) )
; 2711 : 			//{
; 2712 : 			//case 0:
; 2713 : 				//pmove->PM_PlaySound( CHAN_VOICE, "player/pl_fallpain2.wav", 1, ATTN_NORM, 0, PITCH_NORM );
; 2714 : 				//break;
; 2715 : 			//case 1:
; 2716 : 				pmove->PM_PlaySound( CHAN_VOICE, "player/pl_fallpain3.wav", 1, ATTN_NORM, 0, PITCH_NORM );

	push	100					; 00000064H
	push	0
	push	ecx
	movss	xmm0, DWORD PTR __real@3f4ccccd
	movss	DWORD PTR [esp], xmm0
	push	ecx
	movss	xmm0, DWORD PTR __real@3f800000
	movss	DWORD PTR [esp], xmm0
	push	OFFSET $SG15997
	push	2
	mov	edx, DWORD PTR ?pmove@@3PAUplayermove_s@@A ; pmove
	mov	eax, DWORD PTR [edx+325044]
	call	eax
	add	esp, 24					; 00000018H

; 2717 : 			//	break;
; 2718 : 			//}
; 2719 : 			fvol = 1.0;

	movss	xmm0, DWORD PTR __real@3f800000
	movss	DWORD PTR _fvol$2[ebp], xmm0
	jmp	$LN10@PM_CheckFa
$LN5@PM_CheckFa:

; 2720 : 		}
; 2721 : 		else if ( pmove->flFallVelocity > PLAYER_MAX_SAFE_FALL_SPEED / 2 )

	mov	ecx, DWORD PTR ?pmove@@3PAUplayermove_s@@A ; pmove
	movss	xmm0, DWORD PTR [ecx+156]
	comiss	xmm0, DWORD PTR __real@43910000
	jbe	$LN7@PM_CheckFa

; 2722 : 		{
; 2723 : 			qboolean tfc = false;

	mov	DWORD PTR _tfc$1[ebp], 0

; 2724 : 			tfc = atoi( pmove->PM_Info_ValueForKey( pmove->physinfo, "tfc" ) ) == 1 ? true : false;

	push	OFFSET $SG16000
	mov	edx, DWORD PTR ?pmove@@3PAUplayermove_s@@A ; pmove
	add	edx, 324592				; 0004f3f0H
	push	edx
	mov	eax, DWORD PTR ?pmove@@3PAUplayermove_s@@A ; pmove
	mov	ecx, DWORD PTR [eax+324948]
	call	ecx
	add	esp, 8
	push	eax
	call	_atoi
	add	esp, 4
	cmp	eax, 1
	jne	SHORT $LN15@PM_CheckFa
	mov	BYTE PTR tv91[ebp], 1
	jmp	SHORT $LN16@PM_CheckFa
$LN15@PM_CheckFa:
	mov	BYTE PTR tv91[ebp], 0
$LN16@PM_CheckFa:
	movzx	edx, BYTE PTR tv91[ebp]
	mov	DWORD PTR _tfc$1[ebp], edx

; 2725 : 
; 2726 : 			if ( tfc )

	cmp	DWORD PTR _tfc$1[ebp], 0
	je	SHORT $LN9@PM_CheckFa

; 2727 : 			{
; 2728 : 				pmove->PM_PlaySound( CHAN_VOICE, "player/pl_fallpain3.wav", 1, ATTN_NORM, 0, PITCH_NORM );

	push	100					; 00000064H
	push	0
	push	ecx
	movss	xmm0, DWORD PTR __real@3f4ccccd
	movss	DWORD PTR [esp], xmm0
	push	ecx
	movss	xmm0, DWORD PTR __real@3f800000
	movss	DWORD PTR [esp], xmm0
	push	OFFSET $SG16002
	push	2
	mov	eax, DWORD PTR ?pmove@@3PAUplayermove_s@@A ; pmove
	mov	ecx, DWORD PTR [eax+325044]
	call	ecx
	add	esp, 24					; 00000018H
$LN9@PM_CheckFa:

; 2729 : 			}
; 2730 : 
; 2731 : 			fvol = 0.85;

	movss	xmm0, DWORD PTR __real@3f59999a
	movss	DWORD PTR _fvol$2[ebp], xmm0
	jmp	SHORT $LN10@PM_CheckFa
$LN7@PM_CheckFa:

; 2732 : 		}
; 2733 : 		else if ( pmove->flFallVelocity < PLAYER_MIN_BOUNCE_SPEED )

	mov	edx, DWORD PTR ?pmove@@3PAUplayermove_s@@A ; pmove
	movss	xmm0, DWORD PTR __real@43480000
	comiss	xmm0, DWORD PTR [edx+156]
	jbe	SHORT $LN10@PM_CheckFa

; 2734 : 		{
; 2735 : 			fvol = 0;

	xorps	xmm0, xmm0
	movss	DWORD PTR _fvol$2[ebp], xmm0
$LN10@PM_CheckFa:

; 2736 : 		}
; 2737 : 
; 2738 : 		if ( fvol > 0.0 )

	cvtss2sd xmm0, DWORD PTR _fvol$2[ebp]
	comisd	xmm0, QWORD PTR __real@0000000000000000
	jbe	$LN12@PM_CheckFa

; 2739 : 		{
; 2740 : 			// Play landing step right away
; 2741 : 			pmove->flTimeStepSound = 0;

	mov	eax, DWORD PTR ?pmove@@3PAUplayermove_s@@A ; pmove
	mov	DWORD PTR [eax+148], 0

; 2742 : 			
; 2743 : 			PM_UpdateStepSound();

	call	?PM_UpdateStepSound@@YAXXZ		; PM_UpdateStepSound

; 2744 : 			
; 2745 : 			// play step sound for current texture
; 2746 : 			PM_PlayStepSound( PM_MapTextureTypeStepType( pmove->chtexturetype ), fvol );

	push	ecx
	movss	xmm0, DWORD PTR _fvol$2[ebp]
	movss	DWORD PTR [esp], xmm0
	mov	ecx, DWORD PTR ?pmove@@3PAUplayermove_s@@A ; pmove
	movzx	edx, BYTE PTR [ecx+496]
	push	edx
	call	?PM_MapTextureTypeStepType@@YAHD@Z	; PM_MapTextureTypeStepType
	add	esp, 4
	push	eax
	call	?PM_PlayStepSound@@YAXHM@Z		; PM_PlayStepSound
	add	esp, 8

; 2747 : 
; 2748 : 			// Knock the screen around a little bit, temporary effect
; 2749 : 			pmove->punchangle[ 2 ] = pmove->flFallVelocity * 0.013;	// punch z axis

	mov	eax, DWORD PTR ?pmove@@3PAUplayermove_s@@A ; pmove
	cvtss2sd xmm0, DWORD PTR [eax+156]
	mulsd	xmm0, QWORD PTR __real@3f8a9fbe76c8b439
	cvtsd2ss xmm0, xmm0
	mov	ecx, DWORD PTR ?pmove@@3PAUplayermove_s@@A ; pmove
	add	ecx, 160				; 000000a0H
	movss	DWORD PTR tv220[ebp], xmm0
	call	??BVector@@QAEPAMXZ			; Vector::operator float *
	mov	ecx, 4
	shl	ecx, 1
	movss	xmm0, DWORD PTR tv220[ebp]
	movss	DWORD PTR [eax+ecx], xmm0

; 2750 : 
; 2751 : 			if ( pmove->punchangle[ 0 ] > 8 )

	mov	ecx, DWORD PTR ?pmove@@3PAUplayermove_s@@A ; pmove
	add	ecx, 160				; 000000a0H
	call	??BVector@@QAEPAMXZ			; Vector::operator float *
	mov	edx, 4
	imul	ecx, edx, 0
	movss	xmm0, DWORD PTR [eax+ecx]
	comiss	xmm0, DWORD PTR __real@41000000
	jbe	SHORT $LN12@PM_CheckFa

; 2752 : 			{
; 2753 : 				pmove->punchangle[ 0 ] = 8;

	mov	ecx, DWORD PTR ?pmove@@3PAUplayermove_s@@A ; pmove
	add	ecx, 160				; 000000a0H
	call	??BVector@@QAEPAMXZ			; Vector::operator float *
	mov	edx, 4
	imul	ecx, edx, 0
	movss	xmm0, DWORD PTR __real@41000000
	movss	DWORD PTR [eax+ecx], xmm0
$LN12@PM_CheckFa:

; 2754 : 			}
; 2755 : 		}
; 2756 : 	}
; 2757 : 
; 2758 : 	if ( pmove->onground != -1 ) 

	mov	edx, DWORD PTR ?pmove@@3PAUplayermove_s@@A ; pmove
	cmp	DWORD PTR [edx+224], -1
	je	SHORT $LN13@PM_CheckFa

; 2759 : 	{		
; 2760 : 		pmove->flFallVelocity = 0;

	mov	eax, DWORD PTR ?pmove@@3PAUplayermove_s@@A ; pmove
	xorps	xmm0, xmm0
	movss	DWORD PTR [eax+156], xmm0
$LN13@PM_CheckFa:

; 2761 : 	}
; 2762 : }

	mov	esp, ebp
	pop	ebp
	ret	0
?PM_CheckFalling@@YAXXZ ENDP				; PM_CheckFalling
_TEXT	ENDS
; Function compile flags: /Odtp
; File c:\users\user\downloads\xashxt_v0.81_rev.1_with_sources\xashxt_v0.81_rev.1_src\game_shared\playermove.cpp
_TEXT	SEGMENT
$T1 = -500						; size = 68
$T2 = -432						; size = 68
$T3 = -364						; size = 68
$T4 = -296						; size = 68
$T5 = -228						; size = 12
$T6 = -216						; size = 12
$T7 = -204						; size = 12
$T8 = -192						; size = 12
$T9 = -180						; size = 12
$T10 = -168						; size = 12
$T11 = -156						; size = 12
_tr$ = -144						; size = 68
tv411 = -76						; size = 8
tv331 = -68						; size = 8
_curspeed$ = -60					; size = 4
_vecEnd$ = -56						; size = 12
_savehull$ = -44					; size = 4
tv218 = -40						; size = 4
_flatvelocity$ = -36					; size = 12
_vecStart$ = -24					; size = 12
_flatforward$ = -12					; size = 12
?PM_CheckWaterJump@@YAXXZ PROC				; PM_CheckWaterJump

; 2631 : {

	push	ebp
	mov	ebp, esp
	sub	esp, 500				; 000001f4H
	push	esi
	push	edi

; 2632 : 	Vector	vecStart, vecEnd;

	lea	ecx, DWORD PTR _vecStart$[ebp]
	call	??0Vector@@QAE@XZ			; Vector::Vector
	lea	ecx, DWORD PTR _vecEnd$[ebp]
	call	??0Vector@@QAE@XZ			; Vector::Vector

; 2633 : 	Vector	flatforward;

	lea	ecx, DWORD PTR _flatforward$[ebp]
	call	??0Vector@@QAE@XZ			; Vector::Vector

; 2634 : 	Vector	flatvelocity;

	lea	ecx, DWORD PTR _flatvelocity$[ebp]
	call	??0Vector@@QAE@XZ			; Vector::Vector

; 2635 : 	float curspeed;
; 2636 : 	pmtrace_t tr;

	lea	ecx, DWORD PTR _tr$[ebp]
	call	??0pmtrace_s@@QAE@XZ

; 2637 : 	int		savehull;
; 2638 : 
; 2639 : 	// Already water jumping.
; 2640 : 	if ( pmove->waterjumptime )

	mov	eax, DWORD PTR ?pmove@@3PAUplayermove_s@@A ; pmove
	movss	xmm0, DWORD PTR [eax+204]
	ucomiss	xmm0, DWORD PTR __real@00000000
	lahf
	test	ah, 68					; 00000044H
	jnp	SHORT $LN2@PM_CheckWa

; 2641 : 		return;

	jmp	$LN1@PM_CheckWa
$LN2@PM_CheckWa:

; 2642 : 
; 2643 : 	// Don't hop out if we just jumped in
; 2644 : 	if ( pmove->velocity[2] < -180 )

	mov	ecx, DWORD PTR ?pmove@@3PAUplayermove_s@@A ; pmove
	add	ecx, 92					; 0000005cH
	call	??BVector@@QAEPAMXZ			; Vector::operator float *
	mov	ecx, 4
	shl	ecx, 1
	movss	xmm0, DWORD PTR __real@c3340000
	comiss	xmm0, DWORD PTR [eax+ecx]
	jbe	SHORT $LN3@PM_CheckWa

; 2645 : 		return; // only hop out if we are moving up

	jmp	$LN1@PM_CheckWa
$LN3@PM_CheckWa:

; 2646 : 
; 2647 : 	// See if we are backing up
; 2648 : 	flatvelocity[0] = pmove->velocity[0];

	mov	ecx, DWORD PTR ?pmove@@3PAUplayermove_s@@A ; pmove
	add	ecx, 92					; 0000005cH
	call	??BVector@@QAEPAMXZ			; Vector::operator float *
	mov	esi, eax
	mov	edx, 4
	imul	edi, edx, 0
	lea	ecx, DWORD PTR _flatvelocity$[ebp]
	call	??BVector@@QAEPAMXZ			; Vector::operator float *
	mov	ecx, 4
	imul	edx, ecx, 0
	mov	ecx, DWORD PTR [esi+edi]
	mov	DWORD PTR [eax+edx], ecx

; 2649 : 	flatvelocity[1] = pmove->velocity[1];

	mov	ecx, DWORD PTR ?pmove@@3PAUplayermove_s@@A ; pmove
	add	ecx, 92					; 0000005cH
	call	??BVector@@QAEPAMXZ			; Vector::operator float *
	mov	esi, eax
	mov	edi, 4
	shl	edi, 0
	lea	ecx, DWORD PTR _flatvelocity$[ebp]
	call	??BVector@@QAEPAMXZ			; Vector::operator float *
	mov	edx, 4
	shl	edx, 0
	mov	ecx, DWORD PTR [esi+edi]
	mov	DWORD PTR [eax+edx], ecx

; 2650 : 	flatvelocity[2] = 0;

	lea	ecx, DWORD PTR _flatvelocity$[ebp]
	call	??BVector@@QAEPAMXZ			; Vector::operator float *
	mov	edx, 4
	shl	edx, 1
	xorps	xmm0, xmm0
	movss	DWORD PTR [eax+edx], xmm0

; 2651 : 
; 2652 : 	// Must be moving
; 2653 : 	curspeed = flatvelocity.Length();

	lea	ecx, DWORD PTR _flatvelocity$[ebp]
	call	?Length@Vector@@QBEMXZ			; Vector::Length
	fstp	DWORD PTR _curspeed$[ebp]

; 2654 : 	flatvelocity = flatvelocity.Normalize();

	lea	eax, DWORD PTR $T11[ebp]
	push	eax
	lea	ecx, DWORD PTR _flatvelocity$[ebp]
	call	?Normalize@Vector@@QBE?AV1@XZ		; Vector::Normalize
	mov	ecx, DWORD PTR [eax]
	mov	DWORD PTR _flatvelocity$[ebp], ecx
	mov	edx, DWORD PTR [eax+4]
	mov	DWORD PTR _flatvelocity$[ebp+4], edx
	mov	eax, DWORD PTR [eax+8]
	mov	DWORD PTR _flatvelocity$[ebp+8], eax

; 2655 : 	
; 2656 : 	// see if near an edge
; 2657 : 	flatforward[0] = pmove->forward[0];

	mov	ecx, DWORD PTR ?pmove@@3PAUplayermove_s@@A ; pmove
	add	ecx, 20					; 00000014H
	call	??BVector@@QAEPAMXZ			; Vector::operator float *
	mov	esi, eax
	mov	ecx, 4
	imul	edi, ecx, 0
	lea	ecx, DWORD PTR _flatforward$[ebp]
	call	??BVector@@QAEPAMXZ			; Vector::operator float *
	mov	edx, 4
	imul	ecx, edx, 0
	mov	edx, DWORD PTR [esi+edi]
	mov	DWORD PTR [eax+ecx], edx

; 2658 : 	flatforward[1] = pmove->forward[1];

	mov	ecx, DWORD PTR ?pmove@@3PAUplayermove_s@@A ; pmove
	add	ecx, 20					; 00000014H
	call	??BVector@@QAEPAMXZ			; Vector::operator float *
	mov	esi, eax
	mov	edi, 4
	shl	edi, 0
	lea	ecx, DWORD PTR _flatforward$[ebp]
	call	??BVector@@QAEPAMXZ			; Vector::operator float *
	mov	ecx, 4
	shl	ecx, 0
	mov	edx, DWORD PTR [esi+edi]
	mov	DWORD PTR [eax+ecx], edx

; 2659 : 	flatforward[2] = 0;

	lea	ecx, DWORD PTR _flatforward$[ebp]
	call	??BVector@@QAEPAMXZ			; Vector::operator float *
	mov	ecx, 4
	shl	ecx, 1
	xorps	xmm0, xmm0
	movss	DWORD PTR [eax+ecx], xmm0

; 2660 : 	flatforward = flatforward.Normalize();

	lea	edx, DWORD PTR $T10[ebp]
	push	edx
	lea	ecx, DWORD PTR _flatforward$[ebp]
	call	?Normalize@Vector@@QBE?AV1@XZ		; Vector::Normalize
	mov	ecx, DWORD PTR [eax]
	mov	DWORD PTR _flatforward$[ebp], ecx
	mov	edx, DWORD PTR [eax+4]
	mov	DWORD PTR _flatforward$[ebp+4], edx
	mov	eax, DWORD PTR [eax+8]
	mov	DWORD PTR _flatforward$[ebp+8], eax

; 2661 : 
; 2662 : 	// Are we backing into water from steps or something?  If so, don't pop forward
; 2663 : 	if ( curspeed != 0.0 && ( DotProduct( flatvelocity, flatforward ) < 0.0 ) )

	cvtss2sd xmm0, DWORD PTR _curspeed$[ebp]
	ucomisd	xmm0, QWORD PTR __real@0000000000000000
	lahf
	test	ah, 68					; 00000044H
	jnp	SHORT $LN4@PM_CheckWa
	lea	ecx, DWORD PTR _flatforward$[ebp]
	push	ecx
	lea	edx, DWORD PTR _flatvelocity$[ebp]
	push	edx
	call	?DotProduct@@YAMABVVector@@0@Z		; DotProduct
	add	esp, 8
	fstp	QWORD PTR tv331[ebp]
	xorps	xmm0, xmm0
	comisd	xmm0, QWORD PTR tv331[ebp]
	jbe	SHORT $LN4@PM_CheckWa

; 2664 : 		return;

	jmp	$LN1@PM_CheckWa
$LN4@PM_CheckWa:

; 2665 : 
; 2666 : 	vecStart = pmove->origin;

	mov	eax, DWORD PTR ?pmove@@3PAUplayermove_s@@A ; pmove
	add	eax, 56					; 00000038H
	mov	ecx, DWORD PTR [eax]
	mov	DWORD PTR _vecStart$[ebp], ecx
	mov	edx, DWORD PTR [eax+4]
	mov	DWORD PTR _vecStart$[ebp+4], edx
	mov	eax, DWORD PTR [eax+8]
	mov	DWORD PTR _vecStart$[ebp+8], eax

; 2667 : 	vecStart.z += WJ_HEIGHT;

	movss	xmm0, DWORD PTR _vecStart$[ebp+8]
	addss	xmm0, DWORD PTR __real@41000000
	movss	DWORD PTR _vecStart$[ebp+8], xmm0

; 2668 : 
; 2669 : 	vecEnd = vecStart + flatforward * 24;

	push	ecx
	movss	xmm0, DWORD PTR __real@41c00000
	movss	DWORD PTR [esp], xmm0
	lea	ecx, DWORD PTR $T9[ebp]
	push	ecx
	lea	ecx, DWORD PTR _flatforward$[ebp]
	call	??DVector@@QBE?AV0@M@Z			; Vector::operator*
	push	eax
	lea	edx, DWORD PTR $T8[ebp]
	push	edx
	lea	ecx, DWORD PTR _vecStart$[ebp]
	call	??HVector@@QBE?AV0@ABV0@@Z		; Vector::operator+
	mov	ecx, DWORD PTR [eax]
	mov	DWORD PTR _vecEnd$[ebp], ecx
	mov	edx, DWORD PTR [eax+4]
	mov	DWORD PTR _vecEnd$[ebp+4], edx
	mov	eax, DWORD PTR [eax+8]
	mov	DWORD PTR _vecEnd$[ebp+8], eax

; 2670 : 	
; 2671 : 	// Trace, this trace should use the point sized collision hull
; 2672 : 	savehull = pmove->usehull;

	mov	ecx, DWORD PTR ?pmove@@3PAUplayermove_s@@A ; pmove
	mov	edx, DWORD PTR [ecx+188]
	mov	DWORD PTR _savehull$[ebp], edx

; 2673 : 	pmove->usehull = 2;

	mov	eax, DWORD PTR ?pmove@@3PAUplayermove_s@@A ; pmove
	mov	DWORD PTR [eax+188], 2

; 2674 : 	tr = pmove->PM_PlayerTrace( vecStart, vecEnd, PM_NORMAL, -1 );

	push	-1
	push	0
	lea	ecx, DWORD PTR _vecEnd$[ebp]
	call	??BVector@@QAEPAMXZ			; Vector::operator float *
	push	eax
	lea	ecx, DWORD PTR _vecStart$[ebp]
	call	??BVector@@QAEPAMXZ			; Vector::operator float *
	push	eax
	lea	ecx, DWORD PTR $T2[ebp]
	push	ecx
	mov	edx, DWORD PTR ?pmove@@3PAUplayermove_s@@A ; pmove
	mov	eax, DWORD PTR [edx+324992]
	call	eax
	add	esp, 20					; 00000014H
	mov	ecx, 17					; 00000011H
	mov	esi, eax
	lea	edi, DWORD PTR $T4[ebp]
	rep movsd
	mov	ecx, 17					; 00000011H
	lea	esi, DWORD PTR $T4[ebp]
	lea	edi, DWORD PTR _tr$[ebp]
	rep movsd

; 2675 : 	if ( tr.fraction < 1.0 && fabs( tr.plane.normal[2] ) < 0.1f )  // Facing a near vertical wall?

	cvtss2sd xmm0, DWORD PTR _tr$[ebp+16]
	movsd	xmm1, QWORD PTR __real@3ff0000000000000
	comisd	xmm1, xmm0
	jbe	$LN6@PM_CheckWa
	lea	ecx, DWORD PTR _tr$[ebp+32]
	call	??BVector@@QAEPAMXZ			; Vector::operator float *
	mov	ecx, 4
	shl	ecx, 1
	cvtss2sd xmm0, DWORD PTR [eax+ecx]
	sub	esp, 8
	movsd	QWORD PTR [esp], xmm0
	call	_fabs
	add	esp, 8
	fstp	QWORD PTR tv411[ebp]
	movsd	xmm0, QWORD PTR __real@3fb99999a0000000
	comisd	xmm0, QWORD PTR tv411[ebp]
	jbe	$LN6@PM_CheckWa

; 2676 : 	{
; 2677 : 		vecStart[2] += pmove->player_maxs[ savehull ][2] - WJ_HEIGHT;

	lea	ecx, DWORD PTR _vecStart$[ebp]
	call	??BVector@@QAEPAMXZ			; Vector::operator float *
	mov	edx, 4
	shl	edx, 1
	add	eax, edx
	mov	DWORD PTR tv218[ebp], eax
	imul	eax, DWORD PTR _savehull$[ebp], 12
	mov	ecx, DWORD PTR ?pmove@@3PAUplayermove_s@@A ; pmove
	lea	ecx, DWORD PTR [ecx+eax+324900]
	call	??BVector@@QAEPAMXZ			; Vector::operator float *
	mov	edx, 4
	shl	edx, 1
	movss	xmm0, DWORD PTR [eax+edx]
	subss	xmm0, DWORD PTR __real@41000000
	mov	eax, DWORD PTR tv218[ebp]
	addss	xmm0, DWORD PTR [eax]
	mov	ecx, DWORD PTR tv218[ebp]
	movss	DWORD PTR [ecx], xmm0

; 2678 : 		vecEnd = vecStart + flatforward * 24;

	push	ecx
	movss	xmm0, DWORD PTR __real@41c00000
	movss	DWORD PTR [esp], xmm0
	lea	edx, DWORD PTR $T7[ebp]
	push	edx
	lea	ecx, DWORD PTR _flatforward$[ebp]
	call	??DVector@@QBE?AV0@M@Z			; Vector::operator*
	push	eax
	lea	eax, DWORD PTR $T6[ebp]
	push	eax
	lea	ecx, DWORD PTR _vecStart$[ebp]
	call	??HVector@@QBE?AV0@ABV0@@Z		; Vector::operator+
	mov	ecx, DWORD PTR [eax]
	mov	DWORD PTR _vecEnd$[ebp], ecx
	mov	edx, DWORD PTR [eax+4]
	mov	DWORD PTR _vecEnd$[ebp+4], edx
	mov	eax, DWORD PTR [eax+8]
	mov	DWORD PTR _vecEnd$[ebp+8], eax

; 2679 : 		pmove->movedir = tr.plane.normal * -50;

	push	ecx
	movss	xmm0, DWORD PTR __real@c2480000
	movss	DWORD PTR [esp], xmm0
	lea	ecx, DWORD PTR $T5[ebp]
	push	ecx
	lea	ecx, DWORD PTR _tr$[ebp+32]
	call	??DVector@@QBE?AV0@M@Z			; Vector::operator*
	mov	edx, DWORD PTR ?pmove@@3PAUplayermove_s@@A ; pmove
	add	edx, 104				; 00000068H
	mov	ecx, DWORD PTR [eax]
	mov	DWORD PTR [edx], ecx
	mov	ecx, DWORD PTR [eax+4]
	mov	DWORD PTR [edx+4], ecx
	mov	eax, DWORD PTR [eax+8]
	mov	DWORD PTR [edx+8], eax

; 2680 : 
; 2681 : 		tr = pmove->PM_PlayerTrace( vecStart, vecEnd, PM_NORMAL, -1 );

	push	-1
	push	0
	lea	ecx, DWORD PTR _vecEnd$[ebp]
	call	??BVector@@QAEPAMXZ			; Vector::operator float *
	push	eax
	lea	ecx, DWORD PTR _vecStart$[ebp]
	call	??BVector@@QAEPAMXZ			; Vector::operator float *
	push	eax
	lea	ecx, DWORD PTR $T1[ebp]
	push	ecx
	mov	edx, DWORD PTR ?pmove@@3PAUplayermove_s@@A ; pmove
	mov	eax, DWORD PTR [edx+324992]
	call	eax
	add	esp, 20					; 00000014H
	mov	ecx, 17					; 00000011H
	mov	esi, eax
	lea	edi, DWORD PTR $T3[ebp]
	rep movsd
	mov	ecx, 17					; 00000011H
	lea	esi, DWORD PTR $T3[ebp]
	lea	edi, DWORD PTR _tr$[ebp]
	rep movsd

; 2682 : 		if ( tr.fraction == 1.0 )

	cvtss2sd xmm0, DWORD PTR _tr$[ebp+16]
	ucomisd	xmm0, QWORD PTR __real@3ff0000000000000
	lahf
	test	ah, 68					; 00000044H
	jp	SHORT $LN6@PM_CheckWa

; 2683 : 		{
; 2684 : 			pmove->waterjumptime = 2000;

	mov	ecx, DWORD PTR ?pmove@@3PAUplayermove_s@@A ; pmove
	movss	xmm0, DWORD PTR __real@44fa0000
	movss	DWORD PTR [ecx+204], xmm0

; 2685 : 			pmove->velocity[2] = 225;

	mov	ecx, DWORD PTR ?pmove@@3PAUplayermove_s@@A ; pmove
	add	ecx, 92					; 0000005cH
	call	??BVector@@QAEPAMXZ			; Vector::operator float *
	mov	edx, 4
	shl	edx, 1
	movss	xmm0, DWORD PTR __real@43610000
	movss	DWORD PTR [eax+edx], xmm0

; 2686 : 			pmove->oldbuttons |= IN_JUMP;

	mov	eax, DWORD PTR ?pmove@@3PAUplayermove_s@@A ; pmove
	mov	ecx, DWORD PTR [eax+200]
	or	ecx, 2
	mov	edx, DWORD PTR ?pmove@@3PAUplayermove_s@@A ; pmove
	mov	DWORD PTR [edx+200], ecx

; 2687 : 			pmove->flags |= FL_WATERJUMP;

	mov	eax, DWORD PTR ?pmove@@3PAUplayermove_s@@A ; pmove
	mov	ecx, DWORD PTR [eax+184]
	or	ecx, 2048				; 00000800H
	mov	edx, DWORD PTR ?pmove@@3PAUplayermove_s@@A ; pmove
	mov	DWORD PTR [edx+184], ecx
$LN6@PM_CheckWa:

; 2688 : 		}
; 2689 : 	}
; 2690 : 
; 2691 : 	// Reset the collision hull
; 2692 : 	pmove->usehull = savehull;

	mov	eax, DWORD PTR ?pmove@@3PAUplayermove_s@@A ; pmove
	mov	ecx, DWORD PTR _savehull$[ebp]
	mov	DWORD PTR [eax+188], ecx
$LN1@PM_CheckWa:

; 2693 : }

	pop	edi
	pop	esi
	mov	esp, ebp
	pop	ebp
	ret	0
?PM_CheckWaterJump@@YAXXZ ENDP				; PM_CheckWaterJump
_TEXT	ENDS
; Function compile flags: /Odtp
; File c:\users\user\downloads\xashxt_v0.81_rev.1_with_sources\xashxt_v0.81_rev.1_src\game_shared\playermove.cpp
_TEXT	SEGMENT
tv440 = -52						; size = 4
tv427 = -48						; size = 4
tv438 = -44						; size = 4
tv419 = -40						; size = 4
tv436 = -36						; size = 4
tv411 = -32						; size = 4
tv434 = -28						; size = 4
tv391 = -24						; size = 4
_cansuperjump$ = -20					; size = 4
tv157 = -16						; size = 4
_tfc$ = -12						; size = 4
_i$ = -8						; size = 4
tv217 = -2						; size = 1
tv77 = -1						; size = 1
?PM_Jump@@YAXXZ PROC					; PM_Jump

; 2488 : {

	push	ebp
	mov	ebp, esp
	sub	esp, 52					; 00000034H

; 2489 : 	int i;
; 2490 : 	qboolean tfc = false;

	mov	DWORD PTR _tfc$[ebp], 0

; 2491 : 
; 2492 : 	qboolean cansuperjump = false;

	mov	DWORD PTR _cansuperjump$[ebp], 0

; 2493 : 
; 2494 : 	if (pmove->dead)

	mov	eax, DWORD PTR ?pmove@@3PAUplayermove_s@@A ; pmove
	cmp	DWORD PTR [eax+208], 0
	je	SHORT $LN7@PM_Jump

; 2495 : 	{
; 2496 : 		pmove->oldbuttons |= IN_JUMP ;	// don't jump again until released

	mov	ecx, DWORD PTR ?pmove@@3PAUplayermove_s@@A ; pmove
	mov	edx, DWORD PTR [ecx+200]
	or	edx, 2
	mov	eax, DWORD PTR ?pmove@@3PAUplayermove_s@@A ; pmove
	mov	DWORD PTR [eax+200], edx

; 2497 : 		return;

	jmp	$LN1@PM_Jump
$LN7@PM_Jump:

; 2498 : 	}
; 2499 : 
; 2500 : 	tfc = atoi( pmove->PM_Info_ValueForKey( pmove->physinfo, "tfc" ) ) == 1 ? true : false;

	push	OFFSET $SG15930
	mov	ecx, DWORD PTR ?pmove@@3PAUplayermove_s@@A ; pmove
	add	ecx, 324592				; 0004f3f0H
	push	ecx
	mov	edx, DWORD PTR ?pmove@@3PAUplayermove_s@@A ; pmove
	mov	eax, DWORD PTR [edx+324948]
	call	eax
	add	esp, 8
	push	eax
	call	_atoi
	add	esp, 4
	cmp	eax, 1
	jne	SHORT $LN31@PM_Jump
	mov	BYTE PTR tv77[ebp], 1
	jmp	SHORT $LN32@PM_Jump
$LN31@PM_Jump:
	mov	BYTE PTR tv77[ebp], 0
$LN32@PM_Jump:
	movzx	ecx, BYTE PTR tv77[ebp]
	mov	DWORD PTR _tfc$[ebp], ecx

; 2501 : 
; 2502 : 	// Spy that's feigning death cannot jump
; 2503 : 	if ( tfc && 

	cmp	DWORD PTR _tfc$[ebp], 0
	je	SHORT $LN8@PM_Jump
	mov	edx, DWORD PTR ?pmove@@3PAUplayermove_s@@A ; pmove
	cmp	DWORD PTR [edx+212], 5
	jne	SHORT $LN8@PM_Jump

; 2504 : 		( pmove->deadflag == ( DEAD_DISCARDBODY + 1 ) ) )
; 2505 : 	{
; 2506 : 		return;

	jmp	$LN1@PM_Jump
$LN8@PM_Jump:

; 2507 : 	}
; 2508 : 
; 2509 : 	// See if we are waterjumping.  If so, decrement count and return.
; 2510 : 	if ( pmove->waterjumptime )

	mov	eax, DWORD PTR ?pmove@@3PAUplayermove_s@@A ; pmove
	movss	xmm0, DWORD PTR [eax+204]
	ucomiss	xmm0, DWORD PTR __real@00000000
	lahf
	test	ah, 68					; 00000044H
	jnp	SHORT $LN9@PM_Jump

; 2511 : 	{
; 2512 : 		pmove->waterjumptime -= pmove->cmd.msec;

	mov	ecx, DWORD PTR ?pmove@@3PAUplayermove_s@@A ; pmove
	movzx	edx, BYTE PTR [ecx+283738]
	cvtsi2ss xmm0, edx
	mov	eax, DWORD PTR ?pmove@@3PAUplayermove_s@@A ; pmove
	movss	xmm1, DWORD PTR [eax+204]
	subss	xmm1, xmm0
	mov	ecx, DWORD PTR ?pmove@@3PAUplayermove_s@@A ; pmove
	movss	DWORD PTR [ecx+204], xmm1

; 2513 : 		if (pmove->waterjumptime < 0)

	mov	edx, DWORD PTR ?pmove@@3PAUplayermove_s@@A ; pmove
	xorps	xmm0, xmm0
	comiss	xmm0, DWORD PTR [edx+204]
	jbe	SHORT $LN10@PM_Jump

; 2514 : 		{
; 2515 : 			pmove->waterjumptime = 0;

	mov	eax, DWORD PTR ?pmove@@3PAUplayermove_s@@A ; pmove
	xorps	xmm0, xmm0
	movss	DWORD PTR [eax+204], xmm0
$LN10@PM_Jump:

; 2516 : 		}
; 2517 : 		return;

	jmp	$LN1@PM_Jump
$LN9@PM_Jump:

; 2518 : 	}
; 2519 : 
; 2520 : 	// If we are in the water most of the way...
; 2521 : 	if (pmove->waterlevel >= 2 && pmove->watertype != CONTENTS_FOG)

	mov	ecx, DWORD PTR ?pmove@@3PAUplayermove_s@@A ; pmove
	cmp	DWORD PTR [ecx+228], 2
	jl	$LN11@PM_Jump
	mov	edx, DWORD PTR ?pmove@@3PAUplayermove_s@@A ; pmove
	cmp	DWORD PTR [edx+232], -19		; ffffffedH
	je	$LN11@PM_Jump

; 2522 : 	{	// swimming, not jumping
; 2523 : 		pmove->onground = -1;

	mov	eax, DWORD PTR ?pmove@@3PAUplayermove_s@@A ; pmove
	mov	DWORD PTR [eax+224], -1

; 2524 : 
; 2525 : 		if (pmove->watertype == CONTENTS_WATER)    // We move up a certain amount

	mov	ecx, DWORD PTR ?pmove@@3PAUplayermove_s@@A ; pmove
	cmp	DWORD PTR [ecx+232], -3			; fffffffdH
	jne	SHORT $LN12@PM_Jump

; 2526 : 			pmove->velocity[2] = 100;

	mov	ecx, DWORD PTR ?pmove@@3PAUplayermove_s@@A ; pmove
	add	ecx, 92					; 0000005cH
	call	??BVector@@QAEPAMXZ			; Vector::operator float *
	mov	edx, 4
	shl	edx, 1
	movss	xmm0, DWORD PTR __real@42c80000
	movss	DWORD PTR [eax+edx], xmm0
	jmp	SHORT $LN15@PM_Jump
$LN12@PM_Jump:

; 2527 : 		else if (pmove->watertype == CONTENTS_SLIME)

	mov	eax, DWORD PTR ?pmove@@3PAUplayermove_s@@A ; pmove
	cmp	DWORD PTR [eax+232], -4			; fffffffcH
	jne	SHORT $LN14@PM_Jump

; 2528 : 			pmove->velocity[2] = 80;

	mov	ecx, DWORD PTR ?pmove@@3PAUplayermove_s@@A ; pmove
	add	ecx, 92					; 0000005cH
	call	??BVector@@QAEPAMXZ			; Vector::operator float *
	mov	ecx, 4
	shl	ecx, 1
	movss	xmm0, DWORD PTR __real@42a00000
	movss	DWORD PTR [eax+ecx], xmm0

; 2529 : 		else  // LAVA

	jmp	SHORT $LN15@PM_Jump
$LN14@PM_Jump:

; 2530 : 			pmove->velocity[2] = 50;

	mov	ecx, DWORD PTR ?pmove@@3PAUplayermove_s@@A ; pmove
	add	ecx, 92					; 0000005cH
	call	??BVector@@QAEPAMXZ			; Vector::operator float *
	mov	edx, 4
	shl	edx, 1
	movss	xmm0, DWORD PTR __real@42480000
	movss	DWORD PTR [eax+edx], xmm0
$LN15@PM_Jump:

; 2531 : 
; 2532 : 		// play swiming sound
; 2533 : 		if ( pmove->flSwimTime <= 0 )

	mov	eax, DWORD PTR ?pmove@@3PAUplayermove_s@@A ; pmove
	xorps	xmm0, xmm0
	comiss	xmm0, DWORD PTR [eax+172]
	jb	$LN2@PM_Jump

; 2534 : 		{
; 2535 : 			// Don't play sound again for 1 second
; 2536 : 			pmove->flSwimTime = 1000;

	mov	ecx, DWORD PTR ?pmove@@3PAUplayermove_s@@A ; pmove
	movss	xmm0, DWORD PTR __real@447a0000
	movss	DWORD PTR [ecx+172], xmm0

; 2537 : 			switch ( pmove->RandomLong( 0, 3 ) )

	push	3
	push	0
	mov	edx, DWORD PTR ?pmove@@3PAUplayermove_s@@A ; pmove
	mov	eax, DWORD PTR [edx+325000]
	call	eax
	add	esp, 8
	mov	DWORD PTR tv157[ebp], eax
	cmp	DWORD PTR tv157[ebp], 3
	ja	$LN2@PM_Jump
	mov	ecx, DWORD PTR tv157[ebp]
	jmp	DWORD PTR $LN35@PM_Jump[ecx*4]
$LN17@PM_Jump:

; 2538 : 			{ 
; 2539 : 			case 0:
; 2540 : 				pmove->PM_PlaySound( CHAN_BODY, "player/pl_wade1.wav", 1, ATTN_NORM, 0, PITCH_NORM );

	push	100					; 00000064H
	push	0
	push	ecx
	movss	xmm0, DWORD PTR __real@3f4ccccd
	movss	DWORD PTR [esp], xmm0
	push	ecx
	movss	xmm0, DWORD PTR __real@3f800000
	movss	DWORD PTR [esp], xmm0
	push	OFFSET $SG15941
	push	4
	mov	edx, DWORD PTR ?pmove@@3PAUplayermove_s@@A ; pmove
	mov	eax, DWORD PTR [edx+325044]
	call	eax
	add	esp, 24					; 00000018H

; 2541 : 				break;

	jmp	$LN2@PM_Jump
$LN18@PM_Jump:

; 2542 : 			case 1:
; 2543 : 				pmove->PM_PlaySound( CHAN_BODY, "player/pl_wade2.wav", 1, ATTN_NORM, 0, PITCH_NORM );

	push	100					; 00000064H
	push	0
	push	ecx
	movss	xmm0, DWORD PTR __real@3f4ccccd
	movss	DWORD PTR [esp], xmm0
	push	ecx
	movss	xmm0, DWORD PTR __real@3f800000
	movss	DWORD PTR [esp], xmm0
	push	OFFSET $SG15943
	push	4
	mov	ecx, DWORD PTR ?pmove@@3PAUplayermove_s@@A ; pmove
	mov	edx, DWORD PTR [ecx+325044]
	call	edx
	add	esp, 24					; 00000018H

; 2544 : 				break;

	jmp	SHORT $LN2@PM_Jump
$LN19@PM_Jump:

; 2545 : 			case 2:
; 2546 : 				pmove->PM_PlaySound( CHAN_BODY, "player/pl_wade3.wav", 1, ATTN_NORM, 0, PITCH_NORM );

	push	100					; 00000064H
	push	0
	push	ecx
	movss	xmm0, DWORD PTR __real@3f4ccccd
	movss	DWORD PTR [esp], xmm0
	push	ecx
	movss	xmm0, DWORD PTR __real@3f800000
	movss	DWORD PTR [esp], xmm0
	push	OFFSET $SG15945
	push	4
	mov	eax, DWORD PTR ?pmove@@3PAUplayermove_s@@A ; pmove
	mov	ecx, DWORD PTR [eax+325044]
	call	ecx
	add	esp, 24					; 00000018H

; 2547 : 				break;

	jmp	SHORT $LN2@PM_Jump
$LN20@PM_Jump:

; 2548 : 			case 3:
; 2549 : 				pmove->PM_PlaySound( CHAN_BODY, "player/pl_wade4.wav", 1, ATTN_NORM, 0, PITCH_NORM );

	push	100					; 00000064H
	push	0
	push	ecx
	movss	xmm0, DWORD PTR __real@3f4ccccd
	movss	DWORD PTR [esp], xmm0
	push	ecx
	movss	xmm0, DWORD PTR __real@3f800000
	movss	DWORD PTR [esp], xmm0
	push	OFFSET $SG15947
	push	4
	mov	edx, DWORD PTR ?pmove@@3PAUplayermove_s@@A ; pmove
	mov	eax, DWORD PTR [edx+325044]
	call	eax
	add	esp, 24					; 00000018H
$LN2@PM_Jump:

; 2550 : 				break;
; 2551 : 			}
; 2552 : 		}
; 2553 : 
; 2554 : 		return;

	jmp	$LN1@PM_Jump
$LN11@PM_Jump:

; 2555 : 	}
; 2556 : 
; 2557 : 	// No more effect
; 2558 :  	if ( pmove->onground == -1 )

	mov	ecx, DWORD PTR ?pmove@@3PAUplayermove_s@@A ; pmove
	cmp	DWORD PTR [ecx+224], -1
	jne	SHORT $LN21@PM_Jump

; 2559 : 	{
; 2560 : 		// Flag that we jumped.
; 2561 : 		// HACK HACK HACK
; 2562 : 		// Remove this when the game .dll no longer does physics code!!!!
; 2563 : 		pmove->oldbuttons |= IN_JUMP;	// don't jump again until released

	mov	edx, DWORD PTR ?pmove@@3PAUplayermove_s@@A ; pmove
	mov	eax, DWORD PTR [edx+200]
	or	eax, 2
	mov	ecx, DWORD PTR ?pmove@@3PAUplayermove_s@@A ; pmove
	mov	DWORD PTR [ecx+200], eax

; 2564 : 		return;		// in air, so no effect

	jmp	$LN1@PM_Jump
$LN21@PM_Jump:

; 2565 : 	}
; 2566 : 
; 2567 : 	if ( pmove->oldbuttons & IN_JUMP )

	mov	edx, DWORD PTR ?pmove@@3PAUplayermove_s@@A ; pmove
	mov	eax, DWORD PTR [edx+200]
	and	eax, 2
	je	SHORT $LN22@PM_Jump

; 2568 : 		return;		// don't pogo stick

	jmp	$LN1@PM_Jump
$LN22@PM_Jump:

; 2569 : 
; 2570 : 	// In the air now.
; 2571 : 	pmove->onground = -1;

	mov	ecx, DWORD PTR ?pmove@@3PAUplayermove_s@@A ; pmove
	mov	DWORD PTR [ecx+224], -1

; 2572 : 
; 2573 : 	PM_PreventMegaBunnyJumping();

	call	?PM_PreventMegaBunnyJumping@@YAXXZ	; PM_PreventMegaBunnyJumping

; 2574 : 
; 2575 : 	if ( tfc )

	cmp	DWORD PTR _tfc$[ebp], 0
	je	SHORT $LN23@PM_Jump

; 2576 : 	{
; 2577 : 		pmove->PM_PlaySound( CHAN_BODY, "player/plyrjmp8.wav", 0.5, ATTN_NORM, 0, PITCH_NORM );

	push	100					; 00000064H
	push	0
	push	ecx
	movss	xmm0, DWORD PTR __real@3f4ccccd
	movss	DWORD PTR [esp], xmm0
	push	ecx
	movss	xmm0, DWORD PTR __real@3f000000
	movss	DWORD PTR [esp], xmm0
	push	OFFSET $SG15952
	push	4
	mov	edx, DWORD PTR ?pmove@@3PAUplayermove_s@@A ; pmove
	mov	eax, DWORD PTR [edx+325044]
	call	eax
	add	esp, 24					; 00000018H

; 2578 : 	}
; 2579 : 	else

	jmp	SHORT $LN24@PM_Jump
$LN23@PM_Jump:

; 2580 : 	{
; 2581 : 		PM_PlayStepSound( PM_MapTextureTypeStepType( pmove->chtexturetype ), 1.0 );

	push	ecx
	movss	xmm0, DWORD PTR __real@3f800000
	movss	DWORD PTR [esp], xmm0
	mov	ecx, DWORD PTR ?pmove@@3PAUplayermove_s@@A ; pmove
	movzx	edx, BYTE PTR [ecx+496]
	push	edx
	call	?PM_MapTextureTypeStepType@@YAHD@Z	; PM_MapTextureTypeStepType
	add	esp, 4
	push	eax
	call	?PM_PlayStepSound@@YAXHM@Z		; PM_PlayStepSound
	add	esp, 8
$LN24@PM_Jump:

; 2582 : 	}
; 2583 : 
; 2584 : 	// See if user can super long jump?
; 2585 : 	cansuperjump = atoi( pmove->PM_Info_ValueForKey( pmove->physinfo, "slj" ) ) == 1 ? true : false;

	push	OFFSET $SG15953
	mov	eax, DWORD PTR ?pmove@@3PAUplayermove_s@@A ; pmove
	add	eax, 324592				; 0004f3f0H
	push	eax
	mov	ecx, DWORD PTR ?pmove@@3PAUplayermove_s@@A ; pmove
	mov	edx, DWORD PTR [ecx+324948]
	call	edx
	add	esp, 8
	push	eax
	call	_atoi
	add	esp, 4
	cmp	eax, 1
	jne	SHORT $LN33@PM_Jump
	mov	BYTE PTR tv217[ebp], 1
	jmp	SHORT $LN34@PM_Jump
$LN33@PM_Jump:
	mov	BYTE PTR tv217[ebp], 0
$LN34@PM_Jump:
	movzx	eax, BYTE PTR tv217[ebp]
	mov	DWORD PTR _cansuperjump$[ebp], eax

; 2586 : 
; 2587 : 	// Acclerate upward
; 2588 : 	// If we are ducking...
; 2589 : 	if ( ( pmove->bInDuck ) || ( pmove->flags & FL_DUCKING ) )

	mov	ecx, DWORD PTR ?pmove@@3PAUplayermove_s@@A ; pmove
	cmp	DWORD PTR [ecx+144], 0
	jne	SHORT $LN27@PM_Jump
	mov	edx, DWORD PTR ?pmove@@3PAUplayermove_s@@A ; pmove
	mov	eax, DWORD PTR [edx+184]
	and	eax, 16384				; 00004000H
	je	$LN25@PM_Jump
$LN27@PM_Jump:

; 2590 : 	{
; 2591 : 		// Adjust for super long jump module
; 2592 : 		// UNDONE -- note this should be based on forward angles, not current velocity.
; 2593 : 		if ( cansuperjump &&
; 2594 : 			( pmove->cmd.buttons & IN_DUCK ) &&
; 2595 : 			( pmove->flDuckTime > 0 ) &&

	cmp	DWORD PTR _cansuperjump$[ebp], 0
	je	$LN28@PM_Jump
	mov	ecx, DWORD PTR ?pmove@@3PAUplayermove_s@@A ; pmove
	movzx	edx, WORD PTR [ecx+283766]
	and	edx, 4
	je	$LN28@PM_Jump
	mov	eax, DWORD PTR ?pmove@@3PAUplayermove_s@@A ; pmove
	movss	xmm0, DWORD PTR [eax+140]
	comiss	xmm0, DWORD PTR __real@00000000
	jbe	$LN28@PM_Jump
	mov	ecx, DWORD PTR ?pmove@@3PAUplayermove_s@@A ; pmove
	add	ecx, 92					; 0000005cH
	call	?Length@Vector@@QBEMXZ			; Vector::Length
	fstp	DWORD PTR tv391[ebp]
	movss	xmm0, DWORD PTR tv391[ebp]
	comiss	xmm0, DWORD PTR __real@42480000
	jbe	$LN28@PM_Jump

; 2596 : 			pmove->velocity.Length() > 50 )
; 2597 : 		{
; 2598 : 			pmove->punchangle[0] = -5;

	mov	ecx, DWORD PTR ?pmove@@3PAUplayermove_s@@A ; pmove
	add	ecx, 160				; 000000a0H
	call	??BVector@@QAEPAMXZ			; Vector::operator float *
	mov	ecx, 4
	imul	edx, ecx, 0
	movss	xmm0, DWORD PTR __real@c0a00000
	movss	DWORD PTR [eax+edx], xmm0

; 2599 : 
; 2600 : 			for (i =0; i < 2; i++)

	mov	DWORD PTR _i$[ebp], 0
	jmp	SHORT $LN6@PM_Jump
$LN4@PM_Jump:
	mov	eax, DWORD PTR _i$[ebp]
	add	eax, 1
	mov	DWORD PTR _i$[ebp], eax
$LN6@PM_Jump:
	cmp	DWORD PTR _i$[ebp], 2
	jge	SHORT $LN5@PM_Jump

; 2601 : 			{
; 2602 : 				pmove->velocity[i] = pmove->forward[i] * PLAYER_LONGJUMP_SPEED * 1.6;

	mov	ecx, DWORD PTR ?pmove@@3PAUplayermove_s@@A ; pmove
	add	ecx, 20					; 00000014H
	call	??BVector@@QAEPAMXZ			; Vector::operator float *
	mov	ecx, DWORD PTR ?pmove@@3PAUplayermove_s@@A ; pmove
	movss	xmm0, DWORD PTR [ecx+500]
	mulss	xmm0, DWORD PTR __real@3f8c28f6
	mov	edx, DWORD PTR _i$[ebp]
	mulss	xmm0, DWORD PTR [eax+edx*4]
	cvtss2sd xmm0, xmm0
	mulsd	xmm0, QWORD PTR __real@3ff999999999999a
	cvtsd2ss xmm0, xmm0
	mov	ecx, DWORD PTR ?pmove@@3PAUplayermove_s@@A ; pmove
	add	ecx, 92					; 0000005cH
	movss	DWORD PTR tv434[ebp], xmm0
	call	??BVector@@QAEPAMXZ			; Vector::operator float *
	mov	ecx, DWORD PTR _i$[ebp]
	movss	xmm0, DWORD PTR tv434[ebp]
	movss	DWORD PTR [eax+ecx*4], xmm0

; 2603 : 			}

	jmp	SHORT $LN4@PM_Jump
$LN5@PM_Jump:

; 2604 : 		
; 2605 : 			pmove->velocity[2] = sqrt(2 * 800 * 56.0);

	sub	esp, 8
	movsd	xmm0, QWORD PTR __real@40f5e00000000000
	movsd	QWORD PTR [esp], xmm0
	call	_sqrt
	add	esp, 8
	fstp	DWORD PTR tv411[ebp]
	fld	DWORD PTR tv411[ebp]
	mov	ecx, DWORD PTR ?pmove@@3PAUplayermove_s@@A ; pmove
	add	ecx, 92					; 0000005cH
	fstp	DWORD PTR tv436[ebp]
	call	??BVector@@QAEPAMXZ			; Vector::operator float *
	mov	edx, 4
	shl	edx, 1
	fld	DWORD PTR tv436[ebp]
	fstp	DWORD PTR [eax+edx]

; 2606 : 		}
; 2607 : 		else

	jmp	SHORT $LN29@PM_Jump
$LN28@PM_Jump:

; 2608 : 		{
; 2609 : 			pmove->velocity[2] = sqrt(2 * 800 * 45.0);

	sub	esp, 8
	movsd	xmm0, QWORD PTR __real@40f1940000000000
	movsd	QWORD PTR [esp], xmm0
	call	_sqrt
	add	esp, 8
	fstp	DWORD PTR tv419[ebp]
	fld	DWORD PTR tv419[ebp]
	mov	ecx, DWORD PTR ?pmove@@3PAUplayermove_s@@A ; pmove
	add	ecx, 92					; 0000005cH
	fstp	DWORD PTR tv438[ebp]
	call	??BVector@@QAEPAMXZ			; Vector::operator float *
	mov	ecx, 4
	shl	ecx, 1
	fld	DWORD PTR tv438[ebp]
	fstp	DWORD PTR [eax+ecx]
$LN29@PM_Jump:

; 2610 : 		}
; 2611 : 	}
; 2612 : 	else

	jmp	SHORT $LN26@PM_Jump
$LN25@PM_Jump:

; 2613 : 	{
; 2614 : 		pmove->velocity[2] = sqrt(2 * 800 * 45.0);

	sub	esp, 8
	movsd	xmm0, QWORD PTR __real@40f1940000000000
	movsd	QWORD PTR [esp], xmm0
	call	_sqrt
	add	esp, 8
	fstp	DWORD PTR tv427[ebp]
	fld	DWORD PTR tv427[ebp]
	mov	ecx, DWORD PTR ?pmove@@3PAUplayermove_s@@A ; pmove
	add	ecx, 92					; 0000005cH
	fstp	DWORD PTR tv440[ebp]
	call	??BVector@@QAEPAMXZ			; Vector::operator float *
	mov	edx, 4
	shl	edx, 1
	fld	DWORD PTR tv440[ebp]
	fstp	DWORD PTR [eax+edx]
$LN26@PM_Jump:

; 2615 : 	}
; 2616 : 
; 2617 : 	// Decay it for simulation
; 2618 : 	PM_FixupGravityVelocity();

	call	?PM_FixupGravityVelocity@@YAXXZ		; PM_FixupGravityVelocity

; 2619 : 
; 2620 : 	// Flag that we jumped.
; 2621 : 	pmove->oldbuttons |= IN_JUMP;	// don't jump again until released

	mov	eax, DWORD PTR ?pmove@@3PAUplayermove_s@@A ; pmove
	mov	ecx, DWORD PTR [eax+200]
	or	ecx, 2
	mov	edx, DWORD PTR ?pmove@@3PAUplayermove_s@@A ; pmove
	mov	DWORD PTR [edx+200], ecx
$LN1@PM_Jump:

; 2622 : }

	mov	esp, ebp
	pop	ebp
	ret	0
	npad	1
$LN35@PM_Jump:
	DD	$LN17@PM_Jump
	DD	$LN18@PM_Jump
	DD	$LN19@PM_Jump
	DD	$LN20@PM_Jump
?PM_Jump@@YAXXZ ENDP					; PM_Jump
_TEXT	ENDS
; Function compile flags: /Odtp
; File c:\users\user\downloads\xashxt_v0.81_rev.1_with_sources\xashxt_v0.81_rev.1_src\game_shared\playermove.cpp
_TEXT	SEGMENT
_fraction$ = -12					; size = 4
_spd$ = -8						; size = 4
_maxscaledspeed$ = -4					; size = 4
?PM_PreventMegaBunnyJumping@@YAXXZ PROC			; PM_PreventMegaBunnyJumping

; 2458 : {

	push	ebp
	mov	ebp, esp
	sub	esp, 12					; 0000000cH

; 2459 : 	// Current player speed
; 2460 : 	float spd;
; 2461 : 	// If we have to crop, apply this cropping fraction to velocity
; 2462 : 	float fraction;
; 2463 : 	// Speed at which bunny jumping is limited
; 2464 : 	float maxscaledspeed;
; 2465 : 
; 2466 : 	maxscaledspeed = BUNNYJUMP_MAX_SPEED_FACTOR * pmove->maxspeed;

	mov	eax, DWORD PTR ?pmove@@3PAUplayermove_s@@A ; pmove
	movss	xmm0, DWORD PTR __real@3fd9999a
	mulss	xmm0, DWORD PTR [eax+500]
	movss	DWORD PTR _maxscaledspeed$[ebp], xmm0

; 2467 : 
; 2468 : 	// Don't divide by zero
; 2469 : 	if ( maxscaledspeed <= 0.0f )

	xorps	xmm0, xmm0
	comiss	xmm0, DWORD PTR _maxscaledspeed$[ebp]
	jb	SHORT $LN2@PM_Prevent

; 2470 : 		return;

	jmp	SHORT $LN1@PM_Prevent
$LN2@PM_Prevent:

; 2471 : 
; 2472 : 	spd = pmove->velocity.Length();

	mov	ecx, DWORD PTR ?pmove@@3PAUplayermove_s@@A ; pmove
	add	ecx, 92					; 0000005cH
	call	?Length@Vector@@QBEMXZ			; Vector::Length
	fstp	DWORD PTR _spd$[ebp]

; 2473 : 
; 2474 : 	if ( spd <= maxscaledspeed )

	movss	xmm0, DWORD PTR _maxscaledspeed$[ebp]
	comiss	xmm0, DWORD PTR _spd$[ebp]
	jb	SHORT $LN3@PM_Prevent

; 2475 : 		return;

	jmp	SHORT $LN1@PM_Prevent
$LN3@PM_Prevent:

; 2476 : 
; 2477 : 	fraction = ( maxscaledspeed / spd ) * 0.65; //Returns the modifier for the velocity

	movss	xmm0, DWORD PTR _maxscaledspeed$[ebp]
	divss	xmm0, DWORD PTR _spd$[ebp]
	cvtss2sd xmm0, xmm0
	mulsd	xmm0, QWORD PTR __real@3fe4cccccccccccd
	cvtsd2ss xmm0, xmm0
	movss	DWORD PTR _fraction$[ebp], xmm0

; 2478 : 	
; 2479 : 	pmove->velocity *= fraction; //Crop it down!.

	push	ecx
	movss	xmm0, DWORD PTR _fraction$[ebp]
	movss	DWORD PTR [esp], xmm0
	mov	ecx, DWORD PTR ?pmove@@3PAUplayermove_s@@A ; pmove
	add	ecx, 92					; 0000005cH
	call	??XVector@@QAEAAV0@M@Z			; Vector::operator*=
$LN1@PM_Prevent:

; 2480 : }

	mov	esp, ebp
	pop	ebp
	ret	0
?PM_PreventMegaBunnyJumping@@YAXXZ ENDP			; PM_PreventMegaBunnyJumping
_TEXT	ENDS
; Function compile flags: /Odtp
; File c:\users\user\downloads\xashxt_v0.81_rev.1_with_sources\xashxt_v0.81_rev.1_src\game_shared\playermove.cpp
_TEXT	SEGMENT
$T1 = -96						; size = 12
$T2 = -84						; size = 12
$T3 = -72						; size = 12
$T4 = -60						; size = 12
$T5 = -48						; size = 12
$T6 = -36						; size = 12
_wishvel$ = -24						; size = 12
_fmove$ = -12						; size = 4
_smove$ = -8						; size = 4
tv134 = -4						; size = 4
?PM_NoClip@@YAXXZ PROC					; PM_NoClip

; 2424 : {

	push	ebp
	mov	ebp, esp
	sub	esp, 96					; 00000060H

; 2425 : 	Vector		wishvel;

	lea	ecx, DWORD PTR _wishvel$[ebp]
	call	??0Vector@@QAE@XZ			; Vector::Vector

; 2426 : 	float		fmove, smove;
; 2427 : //	float		currentspeed, addspeed, accelspeed;
; 2428 : 
; 2429 : 	// Copy movement amounts
; 2430 : 	fmove = pmove->cmd.forwardmove;

	mov	eax, DWORD PTR ?pmove@@3PAUplayermove_s@@A ; pmove
	movss	xmm0, DWORD PTR [eax+283752]
	movss	DWORD PTR _fmove$[ebp], xmm0

; 2431 : 	smove = pmove->cmd.sidemove;

	mov	ecx, DWORD PTR ?pmove@@3PAUplayermove_s@@A ; pmove
	movss	xmm0, DWORD PTR [ecx+283756]
	movss	DWORD PTR _smove$[ebp], xmm0

; 2432 : 	
; 2433 : 	pmove->forward = pmove->forward.Normalize();

	lea	edx, DWORD PTR $T6[ebp]
	push	edx
	mov	ecx, DWORD PTR ?pmove@@3PAUplayermove_s@@A ; pmove
	add	ecx, 20					; 00000014H
	call	?Normalize@Vector@@QBE?AV1@XZ		; Vector::Normalize
	mov	ecx, DWORD PTR ?pmove@@3PAUplayermove_s@@A ; pmove
	add	ecx, 20					; 00000014H
	mov	edx, DWORD PTR [eax]
	mov	DWORD PTR [ecx], edx
	mov	edx, DWORD PTR [eax+4]
	mov	DWORD PTR [ecx+4], edx
	mov	eax, DWORD PTR [eax+8]
	mov	DWORD PTR [ecx+8], eax

; 2434 : 	pmove->right = pmove->right.Normalize(); 

	lea	ecx, DWORD PTR $T5[ebp]
	push	ecx
	mov	ecx, DWORD PTR ?pmove@@3PAUplayermove_s@@A ; pmove
	add	ecx, 32					; 00000020H
	call	?Normalize@Vector@@QBE?AV1@XZ		; Vector::Normalize
	mov	edx, DWORD PTR ?pmove@@3PAUplayermove_s@@A ; pmove
	add	edx, 32					; 00000020H
	mov	ecx, DWORD PTR [eax]
	mov	DWORD PTR [edx], ecx
	mov	ecx, DWORD PTR [eax+4]
	mov	DWORD PTR [edx+4], ecx
	mov	eax, DWORD PTR [eax+8]
	mov	DWORD PTR [edx+8], eax

; 2435 : 
; 2436 : 	// Determine x and y parts of velocity
; 2437 : 	wishvel = pmove->forward * fmove + pmove->right * smove;

	push	ecx
	movss	xmm0, DWORD PTR _smove$[ebp]
	movss	DWORD PTR [esp], xmm0
	lea	ecx, DWORD PTR $T4[ebp]
	push	ecx
	mov	ecx, DWORD PTR ?pmove@@3PAUplayermove_s@@A ; pmove
	add	ecx, 32					; 00000020H
	call	??DVector@@QBE?AV0@M@Z			; Vector::operator*
	push	eax
	lea	edx, DWORD PTR $T3[ebp]
	push	edx
	push	ecx
	movss	xmm0, DWORD PTR _fmove$[ebp]
	movss	DWORD PTR [esp], xmm0
	lea	eax, DWORD PTR $T2[ebp]
	push	eax
	mov	ecx, DWORD PTR ?pmove@@3PAUplayermove_s@@A ; pmove
	add	ecx, 20					; 00000014H
	call	??DVector@@QBE?AV0@M@Z			; Vector::operator*
	mov	ecx, eax
	call	??HVector@@QBE?AV0@ABV0@@Z		; Vector::operator+
	mov	ecx, DWORD PTR [eax]
	mov	DWORD PTR _wishvel$[ebp], ecx
	mov	edx, DWORD PTR [eax+4]
	mov	DWORD PTR _wishvel$[ebp+4], edx
	mov	eax, DWORD PTR [eax+8]
	mov	DWORD PTR _wishvel$[ebp+8], eax

; 2438 : 
; 2439 : 	wishvel[2] += pmove->cmd.upmove;

	lea	ecx, DWORD PTR _wishvel$[ebp]
	call	??BVector@@QAEPAMXZ			; Vector::operator float *
	mov	ecx, 4
	shl	ecx, 1
	add	eax, ecx
	mov	DWORD PTR tv134[ebp], eax
	mov	edx, DWORD PTR tv134[ebp]
	mov	eax, DWORD PTR ?pmove@@3PAUplayermove_s@@A ; pmove
	movss	xmm0, DWORD PTR [edx]
	addss	xmm0, DWORD PTR [eax+283760]
	mov	ecx, DWORD PTR tv134[ebp]
	movss	DWORD PTR [ecx], xmm0

; 2440 : 	pmove->origin += wishvel * pmove->frametime;

	mov	edx, DWORD PTR ?pmove@@3PAUplayermove_s@@A ; pmove
	push	ecx
	movss	xmm0, DWORD PTR [edx+16]
	movss	DWORD PTR [esp], xmm0
	lea	eax, DWORD PTR $T1[ebp]
	push	eax
	lea	ecx, DWORD PTR _wishvel$[ebp]
	call	??DVector@@QBE?AV0@M@Z			; Vector::operator*
	push	eax
	mov	ecx, DWORD PTR ?pmove@@3PAUplayermove_s@@A ; pmove
	add	ecx, 56					; 00000038H
	call	??YVector@@QAEAAV0@ABV0@@Z		; Vector::operator+=

; 2441 : 	
; 2442 : 	// Zero out the velocity so that we don't accumulate a huge downward velocity from
; 2443 : 	//  gravity, etc.
; 2444 : 	pmove->velocity = g_vecZero;

	mov	ecx, DWORD PTR ?pmove@@3PAUplayermove_s@@A ; pmove
	add	ecx, 92					; 0000005cH
	mov	edx, DWORD PTR ?g_vecZero@@3VVector@@B
	mov	DWORD PTR [ecx], edx
	mov	eax, DWORD PTR ?g_vecZero@@3VVector@@B+4
	mov	DWORD PTR [ecx+4], eax
	mov	edx, DWORD PTR ?g_vecZero@@3VVector@@B+8
	mov	DWORD PTR [ecx+8], edx

; 2445 : 
; 2446 : }

	mov	esp, ebp
	pop	ebp
	ret	0
?PM_NoClip@@YAXXZ ENDP					; PM_NoClip
_TEXT	ENDS
; Function compile flags: /Odtp
; File c:\users\user\downloads\xashxt_v0.81_rev.1_with_sources\xashxt_v0.81_rev.1_src\game_shared\playermove.cpp
_TEXT	SEGMENT
$T1 = -396						; size = 68
$T2 = -328						; size = 68
$T3 = -260						; size = 68
$T4 = -192						; size = 68
$T5 = -124						; size = 12
$T6 = -112						; size = 12
_trace$ = -100						; size = 68
_base$7 = -32						; size = 12
_vel$8 = -20						; size = 4
_move$ = -16						; size = 12
_backoff$ = -4						; size = 4
?PM_Physics_Toss@@YAXXZ PROC				; PM_Physics_Toss

; 2317 : {

	push	ebp
	mov	ebp, esp
	sub	esp, 396				; 0000018cH
	push	esi
	push	edi

; 2318 : 	pmtrace_t trace;

	lea	ecx, DWORD PTR _trace$[ebp]
	call	??0pmtrace_s@@QAE@XZ

; 2319 : 	Vector	move;

	lea	ecx, DWORD PTR _move$[ebp]
	call	??0Vector@@QAE@XZ			; Vector::Vector

; 2320 : 	float	backoff;
; 2321 : 
; 2322 : 	PM_CheckWater();

	call	?PM_CheckWater@@YAHXZ			; PM_CheckWater

; 2323 : 
; 2324 : 	if (pmove->velocity[2] > 0)

	mov	ecx, DWORD PTR ?pmove@@3PAUplayermove_s@@A ; pmove
	add	ecx, 92					; 0000005cH
	call	??BVector@@QAEPAMXZ			; Vector::operator float *
	mov	ecx, 4
	shl	ecx, 1
	movss	xmm0, DWORD PTR [eax+ecx]
	comiss	xmm0, DWORD PTR __real@00000000
	jbe	SHORT $LN2@PM_Physics

; 2325 : 		pmove->onground = -1;

	mov	edx, DWORD PTR ?pmove@@3PAUplayermove_s@@A ; pmove
	mov	DWORD PTR [edx+224], -1
$LN2@PM_Physics:

; 2326 : 
; 2327 : 	// If on ground and not moving, return.
; 2328 : 	if ( pmove->onground != -1 )

	mov	eax, DWORD PTR ?pmove@@3PAUplayermove_s@@A ; pmove
	cmp	DWORD PTR [eax+224], -1
	je	SHORT $LN4@PM_Physics

; 2329 : 	{
; 2330 : 		if(( pmove->basevelocity == g_vecZero) && ( pmove->velocity == g_vecZero ))

	push	OFFSET ?g_vecZero@@3VVector@@B		; g_vecZero
	mov	ecx, DWORD PTR ?pmove@@3PAUplayermove_s@@A ; pmove
	add	ecx, 116				; 00000074H
	call	??8Vector@@QBEHABV0@@Z			; Vector::operator==
	test	eax, eax
	je	SHORT $LN4@PM_Physics
	push	OFFSET ?g_vecZero@@3VVector@@B		; g_vecZero
	mov	ecx, DWORD PTR ?pmove@@3PAUplayermove_s@@A ; pmove
	add	ecx, 92					; 0000005cH
	call	??8Vector@@QBEHABV0@@Z			; Vector::operator==
	test	eax, eax
	je	SHORT $LN4@PM_Physics

; 2331 : 			return;

	jmp	$LN1@PM_Physics
$LN4@PM_Physics:

; 2332 : 	}
; 2333 : 
; 2334 : 	PM_CheckVelocity ();

	call	?PM_CheckVelocity@@YAXXZ		; PM_CheckVelocity

; 2335 : 
; 2336 : // add gravity
; 2337 : 	if ( pmove->movetype != MOVETYPE_FLY &&
; 2338 : 		 pmove->movetype != MOVETYPE_BOUNCEMISSILE &&

	mov	ecx, DWORD PTR ?pmove@@3PAUplayermove_s@@A ; pmove
	cmp	DWORD PTR [ecx+220], 5
	je	SHORT $LN5@PM_Physics
	mov	edx, DWORD PTR ?pmove@@3PAUplayermove_s@@A ; pmove
	cmp	DWORD PTR [edx+220], 11			; 0000000bH
	je	SHORT $LN5@PM_Physics
	mov	eax, DWORD PTR ?pmove@@3PAUplayermove_s@@A ; pmove
	cmp	DWORD PTR [eax+220], 9
	je	SHORT $LN5@PM_Physics

; 2339 : 		 pmove->movetype != MOVETYPE_FLYMISSILE )
; 2340 : 		PM_AddGravity ();

	call	?PM_AddGravity@@YAXXZ			; PM_AddGravity
$LN5@PM_Physics:

; 2341 : 
; 2342 : // move origin
; 2343 : 	// Base velocity is not properly accounted for since this entity will move again after the bounce without
; 2344 : 	// taking it into account
; 2345 : 	pmove->velocity += pmove->basevelocity;

	mov	ecx, DWORD PTR ?pmove@@3PAUplayermove_s@@A ; pmove
	add	ecx, 116				; 00000074H
	push	ecx
	mov	ecx, DWORD PTR ?pmove@@3PAUplayermove_s@@A ; pmove
	add	ecx, 92					; 0000005cH
	call	??YVector@@QAEAAV0@ABV0@@Z		; Vector::operator+=

; 2346 : 	
; 2347 : 	PM_CheckVelocity();

	call	?PM_CheckVelocity@@YAXXZ		; PM_CheckVelocity

; 2348 : 
; 2349 : 	move = pmove->velocity * pmove->frametime;

	mov	edx, DWORD PTR ?pmove@@3PAUplayermove_s@@A ; pmove
	push	ecx
	movss	xmm0, DWORD PTR [edx+16]
	movss	DWORD PTR [esp], xmm0
	lea	eax, DWORD PTR $T6[ebp]
	push	eax
	mov	ecx, DWORD PTR ?pmove@@3PAUplayermove_s@@A ; pmove
	add	ecx, 92					; 0000005cH
	call	??DVector@@QBE?AV0@M@Z			; Vector::operator*
	mov	ecx, DWORD PTR [eax]
	mov	DWORD PTR _move$[ebp], ecx
	mov	edx, DWORD PTR [eax+4]
	mov	DWORD PTR _move$[ebp+4], edx
	mov	eax, DWORD PTR [eax+8]
	mov	DWORD PTR _move$[ebp+8], eax

; 2350 : 	pmove->velocity -= pmove->basevelocity;

	mov	ecx, DWORD PTR ?pmove@@3PAUplayermove_s@@A ; pmove
	add	ecx, 116				; 00000074H
	push	ecx
	mov	ecx, DWORD PTR ?pmove@@3PAUplayermove_s@@A ; pmove
	add	ecx, 92					; 0000005cH
	call	??ZVector@@QAEAAV0@ABV0@@Z		; Vector::operator-=

; 2351 : 
; 2352 : 	trace = PM_PushEntity (move);	// Should this clear basevelocity

	lea	edx, DWORD PTR _move$[ebp]
	push	edx
	lea	eax, DWORD PTR $T2[ebp]
	push	eax
	call	?PM_PushEntity@@YA?AUpmtrace_s@@ABVVector@@@Z ; PM_PushEntity
	add	esp, 8
	mov	ecx, 17					; 00000011H
	mov	esi, eax
	lea	edi, DWORD PTR $T4[ebp]
	rep movsd
	mov	ecx, 17					; 00000011H
	lea	esi, DWORD PTR $T4[ebp]
	lea	edi, DWORD PTR _trace$[ebp]
	rep movsd

; 2353 : 
; 2354 : 	PM_CheckVelocity();

	call	?PM_CheckVelocity@@YAXXZ		; PM_CheckVelocity

; 2355 : 
; 2356 : 	if (trace.allsolid)

	cmp	DWORD PTR _trace$[ebp], 0
	je	SHORT $LN6@PM_Physics

; 2357 : 	{	
; 2358 : 		// entity is trapped in another solid
; 2359 : 		pmove->onground = trace.ent;

	mov	ecx, DWORD PTR ?pmove@@3PAUplayermove_s@@A ; pmove
	mov	edx, DWORD PTR _trace$[ebp+48]
	mov	DWORD PTR [ecx+224], edx

; 2360 : 		pmove->velocity = g_vecZero;

	mov	eax, DWORD PTR ?pmove@@3PAUplayermove_s@@A ; pmove
	add	eax, 92					; 0000005cH
	mov	ecx, DWORD PTR ?g_vecZero@@3VVector@@B
	mov	DWORD PTR [eax], ecx
	mov	edx, DWORD PTR ?g_vecZero@@3VVector@@B+4
	mov	DWORD PTR [eax+4], edx
	mov	ecx, DWORD PTR ?g_vecZero@@3VVector@@B+8
	mov	DWORD PTR [eax+8], ecx

; 2361 : 		return;

	jmp	$LN1@PM_Physics
$LN6@PM_Physics:

; 2362 : 	}
; 2363 : 	
; 2364 : 	if (trace.fraction == 1)

	movss	xmm0, DWORD PTR _trace$[ebp+16]
	ucomiss	xmm0, DWORD PTR __real@3f800000
	lahf
	test	ah, 68					; 00000044H
	jp	SHORT $LN7@PM_Physics

; 2365 : 	{
; 2366 : 		PM_CheckWater();

	call	?PM_CheckWater@@YAHXZ			; PM_CheckWater

; 2367 : 		return;

	jmp	$LN1@PM_Physics
$LN7@PM_Physics:

; 2368 : 	}
; 2369 : 
; 2370 : 
; 2371 : 	if (pmove->movetype == MOVETYPE_BOUNCE)

	mov	edx, DWORD PTR ?pmove@@3PAUplayermove_s@@A ; pmove
	cmp	DWORD PTR [edx+220], 10			; 0000000aH
	jne	SHORT $LN8@PM_Physics

; 2372 : 		backoff = 2.0 - pmove->friction;

	mov	eax, DWORD PTR ?pmove@@3PAUplayermove_s@@A ; pmove
	cvtss2sd xmm0, DWORD PTR [eax+196]
	movsd	xmm1, QWORD PTR __real@4000000000000000
	subsd	xmm1, xmm0
	cvtsd2ss xmm0, xmm1
	movss	DWORD PTR _backoff$[ebp], xmm0
	jmp	SHORT $LN11@PM_Physics
$LN8@PM_Physics:

; 2373 : 	else if (pmove->movetype == MOVETYPE_BOUNCEMISSILE)

	mov	ecx, DWORD PTR ?pmove@@3PAUplayermove_s@@A ; pmove
	cmp	DWORD PTR [ecx+220], 11			; 0000000bH
	jne	SHORT $LN10@PM_Physics

; 2374 : 		backoff = 2.0;

	movss	xmm0, DWORD PTR __real@40000000
	movss	DWORD PTR _backoff$[ebp], xmm0

; 2375 : 	else

	jmp	SHORT $LN11@PM_Physics
$LN10@PM_Physics:

; 2376 : 		backoff = 1;

	movss	xmm0, DWORD PTR __real@3f800000
	movss	DWORD PTR _backoff$[ebp], xmm0
$LN11@PM_Physics:

; 2377 : 
; 2378 : 	PM_ClipVelocity (pmove->velocity, trace.plane.normal, pmove->velocity, backoff);

	push	ecx
	movss	xmm0, DWORD PTR _backoff$[ebp]
	movss	DWORD PTR [esp], xmm0
	mov	edx, DWORD PTR ?pmove@@3PAUplayermove_s@@A ; pmove
	add	edx, 92					; 0000005cH
	push	edx
	sub	esp, 12					; 0000000cH
	mov	ecx, esp
	lea	eax, DWORD PTR _trace$[ebp+32]
	push	eax
	call	??0Vector@@QAE@ABV0@@Z			; Vector::Vector
	sub	esp, 12					; 0000000cH
	mov	ecx, esp
	mov	edx, DWORD PTR ?pmove@@3PAUplayermove_s@@A ; pmove
	add	edx, 92					; 0000005cH
	push	edx
	call	??0Vector@@QAE@ABV0@@Z			; Vector::Vector
	call	?PM_ClipVelocity@@YAHVVector@@0AAV1@M@Z	; PM_ClipVelocity
	add	esp, 32					; 00000020H

; 2379 : 
; 2380 : 	// stop if on ground
; 2381 : 	if (trace.plane.normal[2] > 0.7)

	lea	ecx, DWORD PTR _trace$[ebp+32]
	call	??BVector@@QAEPAMXZ			; Vector::operator float *
	mov	ecx, 4
	shl	ecx, 1
	cvtss2sd xmm0, DWORD PTR [eax+ecx]
	comisd	xmm0, QWORD PTR __real@3fe6666666666666
	jbe	$LN12@PM_Physics

; 2382 : 	{		
; 2383 : 		float vel;
; 2384 : 		Vector base;

	lea	ecx, DWORD PTR _base$7[ebp]
	call	??0Vector@@QAE@XZ			; Vector::Vector

; 2385 : 
; 2386 : 		base = g_vecZero;

	mov	edx, DWORD PTR ?g_vecZero@@3VVector@@B
	mov	DWORD PTR _base$7[ebp], edx
	mov	eax, DWORD PTR ?g_vecZero@@3VVector@@B+4
	mov	DWORD PTR _base$7[ebp+4], eax
	mov	ecx, DWORD PTR ?g_vecZero@@3VVector@@B+8
	mov	DWORD PTR _base$7[ebp+8], ecx

; 2387 : 
; 2388 : 		if( pmove->velocity[2] < pmove->movevars->gravity * pmove->frametime )

	mov	ecx, DWORD PTR ?pmove@@3PAUplayermove_s@@A ; pmove
	add	ecx, 92					; 0000005cH
	call	??BVector@@QAEPAMXZ			; Vector::operator float *
	mov	edx, 4
	shl	edx, 1
	mov	ecx, DWORD PTR ?pmove@@3PAUplayermove_s@@A ; pmove
	mov	ecx, DWORD PTR [ecx+324848]
	mov	esi, DWORD PTR ?pmove@@3PAUplayermove_s@@A ; pmove
	movss	xmm0, DWORD PTR [ecx]
	mulss	xmm0, DWORD PTR [esi+16]
	comiss	xmm0, DWORD PTR [eax+edx]
	jbe	SHORT $LN13@PM_Physics

; 2389 : 		{
; 2390 : 			// we're rolling on the ground, add static friction.
; 2391 : 			pmove->onground = trace.ent;

	mov	edx, DWORD PTR ?pmove@@3PAUplayermove_s@@A ; pmove
	mov	eax, DWORD PTR _trace$[ebp+48]
	mov	DWORD PTR [edx+224], eax

; 2392 : 			pmove->velocity[2] = 0;

	mov	ecx, DWORD PTR ?pmove@@3PAUplayermove_s@@A ; pmove
	add	ecx, 92					; 0000005cH
	call	??BVector@@QAEPAMXZ			; Vector::operator float *
	mov	ecx, 4
	shl	ecx, 1
	xorps	xmm0, xmm0
	movss	DWORD PTR [eax+ecx], xmm0
$LN13@PM_Physics:

; 2393 : 		}
; 2394 : 
; 2395 : 		vel = DotProduct( pmove->velocity, pmove->velocity );

	mov	edx, DWORD PTR ?pmove@@3PAUplayermove_s@@A ; pmove
	add	edx, 92					; 0000005cH
	push	edx
	mov	eax, DWORD PTR ?pmove@@3PAUplayermove_s@@A ; pmove
	add	eax, 92					; 0000005cH
	push	eax
	call	?DotProduct@@YAMABVVector@@0@Z		; DotProduct
	add	esp, 8
	fstp	DWORD PTR _vel$8[ebp]

; 2396 : 
; 2397 : 		// Con_DPrintf("%f %f: %.0f %.0f %.0f\n", vel, trace.fraction, ent->velocity[0], ent->velocity[1], ent->velocity[2] );
; 2398 : 
; 2399 : 		if (vel < (30 * 30) || (pmove->movetype != MOVETYPE_BOUNCE && pmove->movetype != MOVETYPE_BOUNCEMISSILE))

	movss	xmm0, DWORD PTR __real@44610000
	comiss	xmm0, DWORD PTR _vel$8[ebp]
	ja	SHORT $LN16@PM_Physics
	mov	ecx, DWORD PTR ?pmove@@3PAUplayermove_s@@A ; pmove
	cmp	DWORD PTR [ecx+220], 10			; 0000000aH
	je	SHORT $LN14@PM_Physics
	mov	edx, DWORD PTR ?pmove@@3PAUplayermove_s@@A ; pmove
	cmp	DWORD PTR [edx+220], 11			; 0000000bH
	je	SHORT $LN14@PM_Physics
$LN16@PM_Physics:

; 2400 : 		{
; 2401 : 			pmove->onground = trace.ent;

	mov	eax, DWORD PTR ?pmove@@3PAUplayermove_s@@A ; pmove
	mov	ecx, DWORD PTR _trace$[ebp+48]
	mov	DWORD PTR [eax+224], ecx

; 2402 : 			pmove->velocity = g_vecZero;

	mov	edx, DWORD PTR ?pmove@@3PAUplayermove_s@@A ; pmove
	add	edx, 92					; 0000005cH
	mov	eax, DWORD PTR ?g_vecZero@@3VVector@@B
	mov	DWORD PTR [edx], eax
	mov	ecx, DWORD PTR ?g_vecZero@@3VVector@@B+4
	mov	DWORD PTR [edx+4], ecx
	mov	eax, DWORD PTR ?g_vecZero@@3VVector@@B+8
	mov	DWORD PTR [edx+8], eax

; 2403 : 		}
; 2404 : 		else

	jmp	SHORT $LN15@PM_Physics
$LN14@PM_Physics:

; 2405 : 		{
; 2406 : 			move = pmove->velocity * (( 1.0f - trace.fraction ) * pmove->frametime * 0.9f );

	movss	xmm0, DWORD PTR __real@3f800000
	subss	xmm0, DWORD PTR _trace$[ebp+16]
	mov	ecx, DWORD PTR ?pmove@@3PAUplayermove_s@@A ; pmove
	mulss	xmm0, DWORD PTR [ecx+16]
	mulss	xmm0, DWORD PTR __real@3f666666
	push	ecx
	movss	DWORD PTR [esp], xmm0
	lea	edx, DWORD PTR $T5[ebp]
	push	edx
	mov	ecx, DWORD PTR ?pmove@@3PAUplayermove_s@@A ; pmove
	add	ecx, 92					; 0000005cH
	call	??DVector@@QBE?AV0@M@Z			; Vector::operator*
	mov	ecx, DWORD PTR [eax]
	mov	DWORD PTR _move$[ebp], ecx
	mov	edx, DWORD PTR [eax+4]
	mov	DWORD PTR _move$[ebp+4], edx
	mov	eax, DWORD PTR [eax+8]
	mov	DWORD PTR _move$[ebp+8], eax

; 2407 : 			trace = PM_PushEntity (move);

	lea	ecx, DWORD PTR _move$[ebp]
	push	ecx
	lea	edx, DWORD PTR $T1[ebp]
	push	edx
	call	?PM_PushEntity@@YA?AUpmtrace_s@@ABVVector@@@Z ; PM_PushEntity
	add	esp, 8
	mov	ecx, 17					; 00000011H
	mov	esi, eax
	lea	edi, DWORD PTR $T3[ebp]
	rep movsd
	mov	ecx, 17					; 00000011H
	lea	esi, DWORD PTR $T3[ebp]
	lea	edi, DWORD PTR _trace$[ebp]
	rep movsd
$LN15@PM_Physics:

; 2408 : 		}
; 2409 : 
; 2410 : 		pmove->velocity -= base;

	lea	eax, DWORD PTR _base$7[ebp]
	push	eax
	mov	ecx, DWORD PTR ?pmove@@3PAUplayermove_s@@A ; pmove
	add	ecx, 92					; 0000005cH
	call	??ZVector@@QAEAAV0@ABV0@@Z		; Vector::operator-=
$LN12@PM_Physics:

; 2411 : 	}
; 2412 : 	
; 2413 : // check for in water
; 2414 : 	PM_CheckWater();

	call	?PM_CheckWater@@YAHXZ			; PM_CheckWater
$LN1@PM_Physics:

; 2415 : }

	pop	edi
	pop	esi
	mov	esp, ebp
	pop	ebp
	ret	0
?PM_Physics_Toss@@YAXXZ ENDP				; PM_Physics_Toss
_TEXT	ENDS
; Function compile flags: /Odtp
; File c:\users\user\downloads\xashxt_v0.81_rev.1_with_sources\xashxt_v0.81_rev.1_src\game_shared\playermove.cpp
_TEXT	SEGMENT
$T1 = -296						; size = 68
$T2 = -228						; size = 68
$T3 = -160						; size = 68
$T4 = -92						; size = 12
_trace$ = -80						; size = 68
_end$ = -12						; size = 12
$T5 = 8							; size = 4
_push$ = 12						; size = 4
?PM_PushEntity@@YA?AUpmtrace_s@@ABVVector@@@Z PROC	; PM_PushEntity

; 2289 : {

	push	ebp
	mov	ebp, esp
	sub	esp, 296				; 00000128H
	push	esi
	push	edi

; 2290 : 	pmtrace_t	trace;

	lea	ecx, DWORD PTR _trace$[ebp]
	call	??0pmtrace_s@@QAE@XZ

; 2291 : 	Vector	end;

	lea	ecx, DWORD PTR _end$[ebp]
	call	??0Vector@@QAE@XZ			; Vector::Vector

; 2292 : 		
; 2293 : 	end = pmove->origin + push;

	mov	eax, DWORD PTR _push$[ebp]
	push	eax
	lea	ecx, DWORD PTR $T4[ebp]
	push	ecx
	mov	ecx, DWORD PTR ?pmove@@3PAUplayermove_s@@A ; pmove
	add	ecx, 56					; 00000038H
	call	??HVector@@QBE?AV0@ABV0@@Z		; Vector::operator+
	mov	edx, DWORD PTR [eax]
	mov	DWORD PTR _end$[ebp], edx
	mov	ecx, DWORD PTR [eax+4]
	mov	DWORD PTR _end$[ebp+4], ecx
	mov	edx, DWORD PTR [eax+8]
	mov	DWORD PTR _end$[ebp+8], edx

; 2294 : 
; 2295 : 	trace = pmove->PM_PlayerTrace( pmove->origin, end, PM_NORMAL, -1 );

	push	-1
	push	0
	lea	ecx, DWORD PTR _end$[ebp]
	call	??BVector@@QAEPAMXZ			; Vector::operator float *
	push	eax
	mov	ecx, DWORD PTR ?pmove@@3PAUplayermove_s@@A ; pmove
	add	ecx, 56					; 00000038H
	call	??BVector@@QAEPAMXZ			; Vector::operator float *
	push	eax
	lea	eax, DWORD PTR $T2[ebp]
	push	eax
	mov	ecx, DWORD PTR ?pmove@@3PAUplayermove_s@@A ; pmove
	mov	edx, DWORD PTR [ecx+324992]
	call	edx
	add	esp, 20					; 00000014H
	mov	ecx, 17					; 00000011H
	mov	esi, eax
	lea	edi, DWORD PTR $T3[ebp]
	rep movsd
	mov	ecx, 17					; 00000011H
	lea	esi, DWORD PTR $T3[ebp]
	lea	edi, DWORD PTR _trace$[ebp]
	rep movsd

; 2296 : 	
; 2297 : 	pmove->origin = trace.endpos;

	mov	eax, DWORD PTR ?pmove@@3PAUplayermove_s@@A ; pmove
	add	eax, 56					; 00000038H
	mov	ecx, DWORD PTR _trace$[ebp+20]
	mov	DWORD PTR [eax], ecx
	mov	edx, DWORD PTR _trace$[ebp+24]
	mov	DWORD PTR [eax+4], edx
	mov	ecx, DWORD PTR _trace$[ebp+28]
	mov	DWORD PTR [eax+8], ecx

; 2298 : 
; 2299 : 	// So we can run impact function afterwards.
; 2300 : 	if( trace.fraction < 1.0 && !trace.allsolid )

	cvtss2sd xmm0, DWORD PTR _trace$[ebp+16]
	movsd	xmm1, QWORD PTR __real@3ff0000000000000
	comisd	xmm1, xmm0
	jbe	SHORT $LN2@PM_PushEnt
	cmp	DWORD PTR _trace$[ebp], 0
	jne	SHORT $LN2@PM_PushEnt

; 2301 : 	{
; 2302 : 		PM_AddToTouched( trace, pmove->velocity );

	sub	esp, 12					; 0000000cH
	mov	ecx, esp
	mov	edx, DWORD PTR ?pmove@@3PAUplayermove_s@@A ; pmove
	add	edx, 92					; 0000005cH
	push	edx
	call	??0Vector@@QAE@ABV0@@Z			; Vector::Vector
	sub	esp, 68					; 00000044H
	mov	ecx, esp
	lea	eax, DWORD PTR _trace$[ebp]
	push	eax
	call	??0pmtrace_s@@QAE@ABU0@@Z
	call	?PM_AddToTouched@@YAHUpmtrace_s@@VVector@@@Z ; PM_AddToTouched
	add	esp, 80					; 00000050H
$LN2@PM_PushEnt:

; 2303 : 	}
; 2304 : 
; 2305 : 
; 2306 : 	return trace;

	lea	ecx, DWORD PTR _trace$[ebp]
	push	ecx
	lea	ecx, DWORD PTR $T1[ebp]
	call	??0pmtrace_s@@QAE@$$QAU0@@Z
	mov	ecx, 17					; 00000011H
	mov	esi, eax
	mov	edi, DWORD PTR $T5[ebp]
	rep movsd
	mov	eax, DWORD PTR $T5[ebp]

; 2307 : }	

	pop	edi
	pop	esi
	mov	esp, ebp
	pop	ebp
	ret	0
?PM_PushEntity@@YA?AUpmtrace_s@@ABVVector@@@Z ENDP	; PM_PushEntity
_TEXT	ENDS
; Function compile flags: /Odtp
; File c:\users\user\downloads\xashxt_v0.81_rev.1_with_sources\xashxt_v0.81_rev.1_src\game_shared\playermove.cpp
_TEXT	SEGMENT
tv91 = -12						; size = 4
tv77 = -8						; size = 4
_ent_gravity$ = -4					; size = 4
?PM_AddGravity@@YAXXZ PROC				; PM_AddGravity

; 2267 : {

	push	ebp
	mov	ebp, esp
	sub	esp, 12					; 0000000cH

; 2268 : 	float	ent_gravity;
; 2269 : 
; 2270 : 	if (pmove->gravity)

	mov	eax, DWORD PTR ?pmove@@3PAUplayermove_s@@A ; pmove
	movss	xmm0, DWORD PTR [eax+192]
	ucomiss	xmm0, DWORD PTR __real@00000000
	lahf
	test	ah, 68					; 00000044H
	jnp	SHORT $LN2@PM_AddGrav

; 2271 : 		ent_gravity = pmove->gravity;

	mov	ecx, DWORD PTR ?pmove@@3PAUplayermove_s@@A ; pmove
	movss	xmm0, DWORD PTR [ecx+192]
	movss	DWORD PTR _ent_gravity$[ebp], xmm0

; 2272 : 	else

	jmp	SHORT $LN3@PM_AddGrav
$LN2@PM_AddGrav:

; 2273 : 		ent_gravity = 1.0;

	movss	xmm0, DWORD PTR __real@3f800000
	movss	DWORD PTR _ent_gravity$[ebp], xmm0
$LN3@PM_AddGrav:

; 2274 : 
; 2275 : 	// Add gravity incorrectly
; 2276 : 	pmove->velocity[2] -= (ent_gravity * pmove->movevars->gravity * pmove->frametime );

	mov	ecx, DWORD PTR ?pmove@@3PAUplayermove_s@@A ; pmove
	add	ecx, 92					; 0000005cH
	call	??BVector@@QAEPAMXZ			; Vector::operator float *
	mov	edx, 4
	shl	edx, 1
	add	eax, edx
	mov	DWORD PTR tv77[ebp], eax
	mov	eax, DWORD PTR ?pmove@@3PAUplayermove_s@@A ; pmove
	mov	ecx, DWORD PTR [eax+324848]
	movss	xmm0, DWORD PTR _ent_gravity$[ebp]
	mulss	xmm0, DWORD PTR [ecx]
	mov	edx, DWORD PTR ?pmove@@3PAUplayermove_s@@A ; pmove
	mulss	xmm0, DWORD PTR [edx+16]
	mov	eax, DWORD PTR tv77[ebp]
	movss	xmm1, DWORD PTR [eax]
	subss	xmm1, xmm0
	mov	ecx, DWORD PTR tv77[ebp]
	movss	DWORD PTR [ecx], xmm1

; 2277 : 	pmove->velocity[2] += pmove->basevelocity[2] * pmove->frametime;

	mov	ecx, DWORD PTR ?pmove@@3PAUplayermove_s@@A ; pmove
	add	ecx, 92					; 0000005cH
	call	??BVector@@QAEPAMXZ			; Vector::operator float *
	mov	edx, 4
	shl	edx, 1
	add	eax, edx
	mov	DWORD PTR tv91[ebp], eax
	mov	ecx, DWORD PTR ?pmove@@3PAUplayermove_s@@A ; pmove
	add	ecx, 116				; 00000074H
	call	??BVector@@QAEPAMXZ			; Vector::operator float *
	mov	ecx, 4
	shl	ecx, 1
	mov	edx, DWORD PTR ?pmove@@3PAUplayermove_s@@A ; pmove
	movss	xmm0, DWORD PTR [eax+ecx]
	mulss	xmm0, DWORD PTR [edx+16]
	mov	eax, DWORD PTR tv91[ebp]
	addss	xmm0, DWORD PTR [eax]
	mov	ecx, DWORD PTR tv91[ebp]
	movss	DWORD PTR [ecx], xmm0

; 2278 : 	pmove->basevelocity[2] = 0;

	mov	ecx, DWORD PTR ?pmove@@3PAUplayermove_s@@A ; pmove
	add	ecx, 116				; 00000074H
	call	??BVector@@QAEPAMXZ			; Vector::operator float *
	mov	edx, 4
	shl	edx, 1
	xorps	xmm0, xmm0
	movss	DWORD PTR [eax+edx], xmm0

; 2279 : 	PM_CheckVelocity();

	call	?PM_CheckVelocity@@YAXXZ		; PM_CheckVelocity

; 2280 : }

	mov	esp, ebp
	pop	ebp
	ret	0
?PM_AddGravity@@YAXXZ ENDP				; PM_AddGravity
_TEXT	ENDS
; Function compile flags: /Odtp
; File c:\users\user\downloads\xashxt_v0.81_rev.1_with_sources\xashxt_v0.81_rev.1_src\game_shared\playermove.cpp
_TEXT	SEGMENT
?PM_WaterJump@@YAXXZ PROC				; PM_WaterJump

; 2239 : {

	push	ebp
	mov	ebp, esp
	push	esi
	push	edi

; 2240 : 	if ( pmove->waterjumptime > 10000 )

	mov	eax, DWORD PTR ?pmove@@3PAUplayermove_s@@A ; pmove
	movss	xmm0, DWORD PTR [eax+204]
	comiss	xmm0, DWORD PTR __real@461c4000
	jbe	SHORT $LN2@PM_WaterJu

; 2241 : 	{
; 2242 : 		pmove->waterjumptime = 10000;

	mov	ecx, DWORD PTR ?pmove@@3PAUplayermove_s@@A ; pmove
	movss	xmm0, DWORD PTR __real@461c4000
	movss	DWORD PTR [ecx+204], xmm0
$LN2@PM_WaterJu:

; 2243 : 	}
; 2244 : 
; 2245 : 	if ( !pmove->waterjumptime )

	mov	edx, DWORD PTR ?pmove@@3PAUplayermove_s@@A ; pmove
	movss	xmm0, DWORD PTR [edx+204]
	ucomiss	xmm0, DWORD PTR __real@00000000
	lahf
	test	ah, 68					; 00000044H
	jp	SHORT $LN3@PM_WaterJu

; 2246 : 		return;

	jmp	$LN1@PM_WaterJu
$LN3@PM_WaterJu:

; 2247 : 
; 2248 : 	pmove->waterjumptime -= pmove->cmd.msec;

	mov	eax, DWORD PTR ?pmove@@3PAUplayermove_s@@A ; pmove
	movzx	ecx, BYTE PTR [eax+283738]
	cvtsi2ss xmm0, ecx
	mov	edx, DWORD PTR ?pmove@@3PAUplayermove_s@@A ; pmove
	movss	xmm1, DWORD PTR [edx+204]
	subss	xmm1, xmm0
	mov	eax, DWORD PTR ?pmove@@3PAUplayermove_s@@A ; pmove
	movss	DWORD PTR [eax+204], xmm1

; 2249 : 	if ( pmove->waterjumptime < 0 ||

	mov	ecx, DWORD PTR ?pmove@@3PAUplayermove_s@@A ; pmove
	xorps	xmm0, xmm0
	comiss	xmm0, DWORD PTR [ecx+204]
	ja	SHORT $LN5@PM_WaterJu
	mov	edx, DWORD PTR ?pmove@@3PAUplayermove_s@@A ; pmove
	cmp	DWORD PTR [edx+228], 0
	jne	SHORT $LN4@PM_WaterJu
$LN5@PM_WaterJu:

; 2250 : 		 !pmove->waterlevel )
; 2251 : 	{
; 2252 : 		pmove->waterjumptime = 0;

	mov	eax, DWORD PTR ?pmove@@3PAUplayermove_s@@A ; pmove
	xorps	xmm0, xmm0
	movss	DWORD PTR [eax+204], xmm0

; 2253 : 		pmove->flags &= ~FL_WATERJUMP;

	mov	ecx, DWORD PTR ?pmove@@3PAUplayermove_s@@A ; pmove
	mov	edx, DWORD PTR [ecx+184]
	and	edx, -2049				; fffff7ffH
	mov	eax, DWORD PTR ?pmove@@3PAUplayermove_s@@A ; pmove
	mov	DWORD PTR [eax+184], edx
$LN4@PM_WaterJu:

; 2254 : 	}
; 2255 : 
; 2256 : 	pmove->velocity[0] = pmove->movedir[0];

	mov	ecx, DWORD PTR ?pmove@@3PAUplayermove_s@@A ; pmove
	add	ecx, 104				; 00000068H
	call	??BVector@@QAEPAMXZ			; Vector::operator float *
	mov	esi, eax
	mov	ecx, 4
	imul	edi, ecx, 0
	mov	ecx, DWORD PTR ?pmove@@3PAUplayermove_s@@A ; pmove
	add	ecx, 92					; 0000005cH
	call	??BVector@@QAEPAMXZ			; Vector::operator float *
	mov	edx, 4
	imul	ecx, edx, 0
	mov	edx, DWORD PTR [esi+edi]
	mov	DWORD PTR [eax+ecx], edx

; 2257 : 	pmove->velocity[1] = pmove->movedir[1];

	mov	ecx, DWORD PTR ?pmove@@3PAUplayermove_s@@A ; pmove
	add	ecx, 104				; 00000068H
	call	??BVector@@QAEPAMXZ			; Vector::operator float *
	mov	esi, eax
	mov	edi, 4
	shl	edi, 0
	mov	ecx, DWORD PTR ?pmove@@3PAUplayermove_s@@A ; pmove
	add	ecx, 92					; 0000005cH
	call	??BVector@@QAEPAMXZ			; Vector::operator float *
	mov	ecx, 4
	shl	ecx, 0
	mov	edx, DWORD PTR [esi+edi]
	mov	DWORD PTR [eax+ecx], edx
$LN1@PM_WaterJu:

; 2258 : }

	pop	edi
	pop	esi
	pop	ebp
	ret	0
?PM_WaterJump@@YAXXZ ENDP				; PM_WaterJump
_TEXT	ENDS
; Function compile flags: /Odtp
; File c:\users\user\downloads\xashxt_v0.81_rev.1_with_sources\xashxt_v0.81_rev.1_src\game_shared\playermove.cpp
_TEXT	SEGMENT
$T1 = -132						; size = 12
$T2 = -120						; size = 12
_offset$ = -108						; size = 12
_num$3 = -96						; size = 4
_test$ = -92						; size = 12
_hull$4 = -80						; size = 4
_i$5 = -76						; size = 4
_pe$ = -72						; size = 4
_entityToWorld$6 = -68					; size = 64
__$ArrayPad$ = -4					; size = 4
?PM_Ladder@@YAPAUphysent_s@@XZ PROC			; PM_Ladder

; 2202 : {

	push	ebp
	mov	ebp, esp
	sub	esp, 132				; 00000084H
	mov	eax, DWORD PTR ___security_cookie
	xor	eax, ebp
	mov	DWORD PTR __$ArrayPad$[ebp], eax

; 2203 : 	physent_t	*pe;
; 2204 : 	Vector	offset, test;

	lea	ecx, DWORD PTR _offset$[ebp]
	call	??0Vector@@QAE@XZ			; Vector::Vector
	lea	ecx, DWORD PTR _test$[ebp]
	call	??0Vector@@QAE@XZ			; Vector::Vector

; 2205 : 
; 2206 : 	for( int i = 0; i < pmove->nummoveent; i++ )

	mov	DWORD PTR _i$5[ebp], 0
	jmp	SHORT $LN4@PM_Ladder
$LN2@PM_Ladder:
	mov	eax, DWORD PTR _i$5[ebp]
	add	eax, 1
	mov	DWORD PTR _i$5[ebp], eax
$LN4@PM_Ladder:
	mov	ecx, DWORD PTR ?pmove@@3PAUplayermove_s@@A ; pmove
	mov	edx, DWORD PTR _i$5[ebp]
	cmp	edx, DWORD PTR [ecx+134992]
	jge	$LN3@PM_Ladder

; 2207 : 	{
; 2208 : 		pe = &pmove->moveents[i];

	imul	eax, DWORD PTR _i$5[ebp], 224
	mov	ecx, DWORD PTR ?pmove@@3PAUplayermove_s@@A ; pmove
	lea	edx, DWORD PTR [ecx+eax+134996]
	mov	DWORD PTR _pe$[ebp], edx

; 2209 : 		
; 2210 : 		if( pe->model && (modtype_t)pmove->PM_GetModelType( pe->model ) == mod_brush && pe->skin == CONTENTS_LADDER )

	mov	eax, DWORD PTR _pe$[ebp]
	cmp	DWORD PTR [eax+48], 0
	je	$LN5@PM_Ladder
	mov	ecx, DWORD PTR _pe$[ebp]
	mov	edx, DWORD PTR [ecx+48]
	push	edx
	mov	eax, DWORD PTR ?pmove@@3PAUplayermove_s@@A ; pmove
	mov	ecx, DWORD PTR [eax+325008]
	call	ecx
	add	esp, 4
	test	eax, eax
	jne	$LN5@PM_Ladder
	mov	edx, DWORD PTR _pe$[ebp]
	cmp	DWORD PTR [edx+100], -16		; fffffff0H
	jne	$LN5@PM_Ladder

; 2211 : 		{
; 2212 : 			hull_t *hull = (hull_t *)pmove->PM_HullForBsp( pe, offset );

	lea	ecx, DWORD PTR _offset$[ebp]
	call	??BVector@@QAEPAMXZ			; Vector::operator float *
	push	eax
	mov	eax, DWORD PTR _pe$[ebp]
	push	eax
	mov	ecx, DWORD PTR ?pmove@@3PAUplayermove_s@@A ; pmove
	mov	edx, DWORD PTR [ecx+325016]
	call	edx
	add	esp, 8
	mov	DWORD PTR _hull$4[ebp], eax

; 2213 : 			int num = hull->firstclipnode;

	mov	eax, DWORD PTR _hull$4[ebp]
	mov	ecx, DWORD PTR [eax+8]
	mov	DWORD PTR _num$3[ebp], ecx

; 2214 : 
; 2215 : 			// Offset the test point appropriately for this hull.
; 2216 : 			test = pmove->origin - offset;

	lea	edx, DWORD PTR _offset$[ebp]
	push	edx
	lea	eax, DWORD PTR $T2[ebp]
	push	eax
	mov	ecx, DWORD PTR ?pmove@@3PAUplayermove_s@@A ; pmove
	add	ecx, 56					; 00000038H
	call	??GVector@@QBE?AV0@ABV0@@Z		; Vector::operator-
	mov	ecx, DWORD PTR [eax]
	mov	DWORD PTR _test$[ebp], ecx
	mov	edx, DWORD PTR [eax+4]
	mov	DWORD PTR _test$[ebp+4], edx
	mov	eax, DWORD PTR [eax+8]
	mov	DWORD PTR _test$[ebp+8], eax

; 2217 : 
; 2218 : 			// support for rotational triggers
; 2219 : 			if(( pe->model->flags & 2 ) && pe->angles != g_vecZero )

	mov	ecx, DWORD PTR _pe$[ebp]
	mov	edx, DWORD PTR [ecx+48]
	mov	eax, DWORD PTR [edx+80]
	and	eax, 2
	je	SHORT $LN6@PM_Ladder
	push	OFFSET ?g_vecZero@@3VVector@@B		; g_vecZero
	mov	ecx, DWORD PTR _pe$[ebp]
	add	ecx, 84					; 00000054H
	call	??9Vector@@QBEHABV0@@Z			; Vector::operator!=
	test	eax, eax
	je	SHORT $LN6@PM_Ladder

; 2220 : 			{
; 2221 : 				// g-cont. can't acess to CBase->EntityToWorldTransform() :'-(
; 2222 : 				// so we build matrix from scratch
; 2223 : 				matrix4x4	entityToWorld( offset, pe->angles );

	push	ecx
	movss	xmm0, DWORD PTR __real@3f800000
	movss	DWORD PTR [esp], xmm0
	mov	ecx, DWORD PTR _pe$[ebp]
	add	ecx, 84					; 00000054H
	push	ecx
	lea	edx, DWORD PTR _offset$[ebp]
	push	edx
	lea	ecx, DWORD PTR _entityToWorld$6[ebp]
	call	??0matrix4x4@@QAE@ABVVector@@0M@Z	; matrix4x4::matrix4x4

; 2224 : 				test = entityToWorld.VectorITransform( pmove->origin );

	mov	eax, DWORD PTR ?pmove@@3PAUplayermove_s@@A ; pmove
	add	eax, 56					; 00000038H
	push	eax
	lea	ecx, DWORD PTR $T1[ebp]
	push	ecx
	lea	ecx, DWORD PTR _entityToWorld$6[ebp]
	call	?VectorITransform@matrix4x4@@QBE?AVVector@@ABV2@@Z ; matrix4x4::VectorITransform
	mov	edx, DWORD PTR [eax]
	mov	DWORD PTR _test$[ebp], edx
	mov	ecx, DWORD PTR [eax+4]
	mov	DWORD PTR _test$[ebp+4], ecx
	mov	edx, DWORD PTR [eax+8]
	mov	DWORD PTR _test$[ebp+8], edx
$LN6@PM_Ladder:

; 2225 : 			}
; 2226 : 
; 2227 : 			// Test the player's hull for intersection with this model
; 2228 : 			if( pmove->PM_HullPointContents( hull, num, test ) == CONTENTS_EMPTY )

	lea	ecx, DWORD PTR _test$[ebp]
	call	??BVector@@QAEPAMXZ			; Vector::operator float *
	push	eax
	mov	eax, DWORD PTR _num$3[ebp]
	push	eax
	mov	ecx, DWORD PTR _hull$4[ebp]
	push	ecx
	mov	edx, DWORD PTR ?pmove@@3PAUplayermove_s@@A ; pmove
	mov	eax, DWORD PTR [edx+324988]
	call	eax
	add	esp, 12					; 0000000cH
	cmp	eax, -1
	jne	SHORT $LN7@PM_Ladder

; 2229 : 				continue;

	jmp	$LN2@PM_Ladder
$LN7@PM_Ladder:

; 2230 : 			
; 2231 : 			return pe;

	mov	eax, DWORD PTR _pe$[ebp]
	jmp	SHORT $LN1@PM_Ladder
$LN5@PM_Ladder:

; 2232 : 		}
; 2233 : 	}

	jmp	$LN2@PM_Ladder
$LN3@PM_Ladder:

; 2234 : 
; 2235 : 	return NULL;

	xor	eax, eax
$LN1@PM_Ladder:

; 2236 : }

	mov	ecx, DWORD PTR __$ArrayPad$[ebp]
	xor	ecx, ebp
	call	@__security_check_cookie@4
	mov	esp, ebp
	pop	ebp
	ret	0
?PM_Ladder@@YAPAUphysent_s@@XZ ENDP			; PM_Ladder
_TEXT	ENDS
; Function compile flags: /Odtp
; File c:\users\user\downloads\xashxt_v0.81_rev.1_with_sources\xashxt_v0.81_rev.1_src\game_shared\playermove.cpp
_TEXT	SEGMENT
$T1 = -376						; size = 12
$T2 = -364						; size = 12
$T3 = -352						; size = 12
$T4 = -340						; size = 12
$T5 = -328						; size = 12
$T6 = -316						; size = 12
$T7 = -304						; size = 12
$T8 = -292						; size = 12
$T9 = -280						; size = 12
$T10 = -268						; size = 12
$T11 = -256						; size = 12
$T12 = -244						; size = 12
$T13 = -232						; size = 12
$T14 = -220						; size = 12
_trace$ = -208						; size = 56
_v_right$15 = -152					; size = 12
_vpn$16 = -140						; size = 12
_modelmins$ = -128					; size = 12
_modelmaxs$ = -116					; size = 12
_lateral$17 = -104					; size = 12
_tmp$18 = -92						; size = 12
_cross$19 = -80						; size = 12
_ladderCenter$ = -68					; size = 12
_perp$20 = -56						; size = 12
_tr$ = -44						; size = 4
_velocity$21 = -40					; size = 12
_floor$ = -28						; size = 12
_onFloor$ = -16						; size = 4
_normal$22 = -12					; size = 4
_right$23 = -8						; size = 4
_forward$24 = -4					; size = 4
_pLadder$ = 8						; size = 4
?PM_LadderMove@@YAXPAUphysent_s@@@Z PROC		; PM_LadderMove

; 2099 : {

	push	ebp
	mov	ebp, esp
	sub	esp, 376				; 00000178H

; 2100 : 	Vector	ladderCenter;

	lea	ecx, DWORD PTR _ladderCenter$[ebp]
	call	??0Vector@@QAE@XZ			; Vector::Vector

; 2101 : 	trace_t	trace;

	lea	ecx, DWORD PTR _trace$[ebp]
	call	??0trace_s@@QAE@XZ

; 2102 : 	qboolean	onFloor;
; 2103 : 	Vector	floor;

	lea	ecx, DWORD PTR _floor$[ebp]
	call	??0Vector@@QAE@XZ			; Vector::Vector

; 2104 : 	Vector	modelmins, modelmaxs;

	lea	ecx, DWORD PTR _modelmins$[ebp]
	call	??0Vector@@QAE@XZ			; Vector::Vector
	lea	ecx, DWORD PTR _modelmaxs$[ebp]
	call	??0Vector@@QAE@XZ			; Vector::Vector

; 2105 : 	pmtrace_t	*tr;
; 2106 : 
; 2107 : 	if( pmove->movetype == MOVETYPE_NOCLIP )

	mov	eax, DWORD PTR ?pmove@@3PAUplayermove_s@@A ; pmove
	cmp	DWORD PTR [eax+220], 8
	jne	SHORT $LN2@PM_LadderM

; 2108 : 		return;

	jmp	$LN1@PM_LadderM
$LN2@PM_LadderM:

; 2109 : 
; 2110 : 	pmove->PM_GetModelBounds( pLadder->model, modelmins, modelmaxs );

	lea	ecx, DWORD PTR _modelmaxs$[ebp]
	call	??BVector@@QAEPAMXZ			; Vector::operator float *
	push	eax
	lea	ecx, DWORD PTR _modelmins$[ebp]
	call	??BVector@@QAEPAMXZ			; Vector::operator float *
	push	eax
	mov	ecx, DWORD PTR _pLadder$[ebp]
	mov	edx, DWORD PTR [ecx+48]
	push	edx
	mov	eax, DWORD PTR ?pmove@@3PAUplayermove_s@@A ; pmove
	mov	ecx, DWORD PTR [eax+325012]
	call	ecx
	add	esp, 12					; 0000000cH

; 2111 : 	ladderCenter = pLadder->origin + ( modelmins + modelmaxs ) * 0.5f;

	push	ecx
	movss	xmm0, DWORD PTR __real@3f000000
	movss	DWORD PTR [esp], xmm0
	lea	edx, DWORD PTR $T14[ebp]
	push	edx
	lea	eax, DWORD PTR _modelmaxs$[ebp]
	push	eax
	lea	ecx, DWORD PTR $T13[ebp]
	push	ecx
	lea	ecx, DWORD PTR _modelmins$[ebp]
	call	??HVector@@QBE?AV0@ABV0@@Z		; Vector::operator+
	mov	ecx, eax
	call	??DVector@@QBE?AV0@M@Z			; Vector::operator*
	push	eax
	lea	edx, DWORD PTR $T12[ebp]
	push	edx
	mov	ecx, DWORD PTR _pLadder$[ebp]
	add	ecx, 36					; 00000024H
	call	??HVector@@QBE?AV0@ABV0@@Z		; Vector::operator+
	mov	ecx, DWORD PTR [eax]
	mov	DWORD PTR _ladderCenter$[ebp], ecx
	mov	edx, DWORD PTR [eax+4]
	mov	DWORD PTR _ladderCenter$[ebp+4], edx
	mov	eax, DWORD PTR [eax+8]
	mov	DWORD PTR _ladderCenter$[ebp+8], eax

; 2112 : 
; 2113 : 	pmove->movetype = MOVETYPE_FLY;

	mov	ecx, DWORD PTR ?pmove@@3PAUplayermove_s@@A ; pmove
	mov	DWORD PTR [ecx+220], 5

; 2114 : 
; 2115 : 	// On ladder, convert movement to be relative to the ladder
; 2116 : 	floor = pmove->origin;

	mov	edx, DWORD PTR ?pmove@@3PAUplayermove_s@@A ; pmove
	add	edx, 56					; 00000038H
	mov	eax, DWORD PTR [edx]
	mov	DWORD PTR _floor$[ebp], eax
	mov	ecx, DWORD PTR [edx+4]
	mov	DWORD PTR _floor$[ebp+4], ecx
	mov	edx, DWORD PTR [edx+8]
	mov	DWORD PTR _floor$[ebp+8], edx

; 2117 : 	floor.z += pmove->player_mins[pmove->usehull][2] - 1;

	mov	eax, DWORD PTR ?pmove@@3PAUplayermove_s@@A ; pmove
	imul	ecx, DWORD PTR [eax+188], 12
	mov	edx, DWORD PTR ?pmove@@3PAUplayermove_s@@A ; pmove
	lea	ecx, DWORD PTR [edx+ecx+324852]
	call	??BVector@@QAEPAMXZ			; Vector::operator float *
	mov	ecx, 4
	shl	ecx, 1
	movss	xmm0, DWORD PTR [eax+ecx]
	subss	xmm0, DWORD PTR __real@3f800000
	addss	xmm0, DWORD PTR _floor$[ebp+8]
	movss	DWORD PTR _floor$[ebp+8], xmm0

; 2118 : 
; 2119 : 	// g-cont. check bmodels ground too
; 2120 : 	tr = pmove->PM_TraceLine( floor, floor, PM_STUDIO_IGNORE, 2, -1 );

	push	-1
	push	2
	push	1
	lea	ecx, DWORD PTR _floor$[ebp]
	call	??BVector@@QAEPAMXZ			; Vector::operator float *
	push	eax
	lea	ecx, DWORD PTR _floor$[ebp]
	call	??BVector@@QAEPAMXZ			; Vector::operator float *
	push	eax
	mov	edx, DWORD PTR ?pmove@@3PAUplayermove_s@@A ; pmove
	mov	eax, DWORD PTR [edx+324996]
	call	eax
	add	esp, 20					; 00000014H
	mov	DWORD PTR _tr$[ebp], eax

; 2121 : 
; 2122 : 	if( /*pmove->PM_PointContents( floor, NULL ) == CONTENTS_SOLID || */ tr->ent != -1 )

	mov	ecx, DWORD PTR _tr$[ebp]
	cmp	DWORD PTR [ecx+48], -1
	je	SHORT $LN3@PM_LadderM

; 2123 : 		onFloor = true;

	mov	DWORD PTR _onFloor$[ebp], 1
	jmp	SHORT $LN4@PM_LadderM
$LN3@PM_LadderM:

; 2124 : 	else onFloor = false;

	mov	DWORD PTR _onFloor$[ebp], 0
$LN4@PM_LadderM:

; 2125 : 
; 2126 : 	pmove->gravity = 0;

	mov	edx, DWORD PTR ?pmove@@3PAUplayermove_s@@A ; pmove
	xorps	xmm0, xmm0
	movss	DWORD PTR [edx+192], xmm0

; 2127 : 	pLadder->solid = SOLID_BSP;	// HACKHACK: to allow rotating on ladder model

	mov	eax, DWORD PTR _pLadder$[ebp]
	mov	DWORD PTR [eax+96], 4

; 2128 : 	pmove->PM_TraceModel( pLadder, pmove->origin, ladderCenter, &trace );

	lea	ecx, DWORD PTR _trace$[ebp]
	push	ecx
	lea	ecx, DWORD PTR _ladderCenter$[ebp]
	call	??BVector@@QAEPAMXZ			; Vector::operator float *
	push	eax
	mov	ecx, DWORD PTR ?pmove@@3PAUplayermove_s@@A ; pmove
	add	ecx, 56					; 00000038H
	call	??BVector@@QAEPAMXZ			; Vector::operator float *
	push	eax
	mov	edx, DWORD PTR _pLadder$[ebp]
	push	edx
	mov	eax, DWORD PTR ?pmove@@3PAUplayermove_s@@A ; pmove
	mov	ecx, DWORD PTR [eax+325020]
	call	ecx
	fstp	ST(0)
	add	esp, 16					; 00000010H

; 2129 : 	pLadder->solid = SOLID_NOT;

	mov	edx, DWORD PTR _pLadder$[ebp]
	mov	DWORD PTR [edx+96], 0

; 2130 : 
; 2131 : 	if( trace.fraction != 1.0 )

	cvtss2sd xmm0, DWORD PTR _trace$[ebp+16]
	ucomisd	xmm0, QWORD PTR __real@3ff0000000000000
	lahf
	test	ah, 68					; 00000044H
	jnp	$LN13@PM_LadderM

; 2132 : 	{
; 2133 : 		float forward = 0, right = 0;

	xorps	xmm0, xmm0
	movss	DWORD PTR _forward$24[ebp], xmm0
	xorps	xmm0, xmm0
	movss	DWORD PTR _right$23[ebp], xmm0

; 2134 : 		Vector vpn, v_right;

	lea	ecx, DWORD PTR _vpn$16[ebp]
	call	??0Vector@@QAE@XZ			; Vector::Vector
	lea	ecx, DWORD PTR _v_right$15[ebp]
	call	??0Vector@@QAE@XZ			; Vector::Vector

; 2135 : 
; 2136 : 		AngleVectors( pmove->angles, vpn, v_right, NULL );

	push	0
	lea	ecx, DWORD PTR _v_right$15[ebp]
	call	??BVector@@QAEPAMXZ			; Vector::operator float *
	push	eax
	lea	ecx, DWORD PTR _vpn$16[ebp]
	call	??BVector@@QAEPAMXZ			; Vector::operator float *
	push	eax
	mov	ecx, DWORD PTR ?pmove@@3PAUplayermove_s@@A ; pmove
	add	ecx, 68					; 00000044H
	call	??BVector@@QAEPAMXZ			; Vector::operator float *
	push	eax
	call	DWORD PTR ?gEngfuncs@@3Ucl_enginefuncs_s@@A+96
	add	esp, 16					; 00000010H

; 2137 : 		if ( pmove->cmd.buttons & IN_BACK )

	mov	eax, DWORD PTR ?pmove@@3PAUplayermove_s@@A ; pmove
	movzx	ecx, WORD PTR [eax+283766]
	and	ecx, 16					; 00000010H
	je	SHORT $LN6@PM_LadderM

; 2138 : 			forward -= MAX_CLIMB_SPEED;

	movss	xmm0, DWORD PTR _forward$24[ebp]
	subss	xmm0, DWORD PTR __real@43480000
	movss	DWORD PTR _forward$24[ebp], xmm0
$LN6@PM_LadderM:

; 2139 : 		if ( pmove->cmd.buttons & IN_FORWARD )

	mov	edx, DWORD PTR ?pmove@@3PAUplayermove_s@@A ; pmove
	movzx	eax, WORD PTR [edx+283766]
	and	eax, 8
	je	SHORT $LN7@PM_LadderM

; 2140 : 			forward += MAX_CLIMB_SPEED;

	movss	xmm0, DWORD PTR _forward$24[ebp]
	addss	xmm0, DWORD PTR __real@43480000
	movss	DWORD PTR _forward$24[ebp], xmm0
$LN7@PM_LadderM:

; 2141 : 		if ( pmove->cmd.buttons & IN_MOVELEFT )

	mov	ecx, DWORD PTR ?pmove@@3PAUplayermove_s@@A ; pmove
	movzx	edx, WORD PTR [ecx+283766]
	and	edx, 512				; 00000200H
	je	SHORT $LN8@PM_LadderM

; 2142 : 			right -= MAX_CLIMB_SPEED;

	movss	xmm0, DWORD PTR _right$23[ebp]
	subss	xmm0, DWORD PTR __real@43480000
	movss	DWORD PTR _right$23[ebp], xmm0
$LN8@PM_LadderM:

; 2143 : 		if ( pmove->cmd.buttons & IN_MOVERIGHT )

	mov	eax, DWORD PTR ?pmove@@3PAUplayermove_s@@A ; pmove
	movzx	ecx, WORD PTR [eax+283766]
	and	ecx, 1024				; 00000400H
	je	SHORT $LN9@PM_LadderM

; 2144 : 			right += MAX_CLIMB_SPEED;

	movss	xmm0, DWORD PTR _right$23[ebp]
	addss	xmm0, DWORD PTR __real@43480000
	movss	DWORD PTR _right$23[ebp], xmm0
$LN9@PM_LadderM:

; 2145 : 
; 2146 : 		if ( pmove->cmd.buttons & IN_JUMP )

	mov	edx, DWORD PTR ?pmove@@3PAUplayermove_s@@A ; pmove
	movzx	eax, WORD PTR [edx+283766]
	and	eax, 2
	je	SHORT $LN10@PM_LadderM

; 2147 : 		{
; 2148 : 			pmove->movetype = MOVETYPE_WALK;

	mov	ecx, DWORD PTR ?pmove@@3PAUplayermove_s@@A ; pmove
	mov	DWORD PTR [ecx+220], 3

; 2149 : 			pmove->velocity = trace.plane.normal * 270;

	push	ecx
	movss	xmm0, DWORD PTR __real@43870000
	movss	DWORD PTR [esp], xmm0
	lea	edx, DWORD PTR $T11[ebp]
	push	edx
	lea	ecx, DWORD PTR _trace$[ebp+32]
	call	??DVector@@QBE?AV0@M@Z			; Vector::operator*
	mov	ecx, DWORD PTR ?pmove@@3PAUplayermove_s@@A ; pmove
	add	ecx, 92					; 0000005cH
	mov	edx, DWORD PTR [eax]
	mov	DWORD PTR [ecx], edx
	mov	edx, DWORD PTR [eax+4]
	mov	DWORD PTR [ecx+4], edx
	mov	eax, DWORD PTR [eax+8]
	mov	DWORD PTR [ecx+8], eax

; 2150 : 		}
; 2151 : 		else

	jmp	$LN13@PM_LadderM
$LN10@PM_LadderM:

; 2152 : 		{
; 2153 : 			if ( forward != 0 || right != 0 )

	movss	xmm0, DWORD PTR _forward$24[ebp]
	ucomiss	xmm0, DWORD PTR __real@00000000
	lahf
	test	ah, 68					; 00000044H
	jp	SHORT $LN14@PM_LadderM
	movss	xmm0, DWORD PTR _right$23[ebp]
	ucomiss	xmm0, DWORD PTR __real@00000000
	lahf
	test	ah, 68					; 00000044H
	jnp	$LN12@PM_LadderM
$LN14@PM_LadderM:

; 2154 : 			{
; 2155 : 				Vector velocity, cross, lateral, tmp;

	lea	ecx, DWORD PTR _velocity$21[ebp]
	call	??0Vector@@QAE@XZ			; Vector::Vector
	lea	ecx, DWORD PTR _cross$19[ebp]
	call	??0Vector@@QAE@XZ			; Vector::Vector
	lea	ecx, DWORD PTR _lateral$17[ebp]
	call	??0Vector@@QAE@XZ			; Vector::Vector
	lea	ecx, DWORD PTR _tmp$18[ebp]
	call	??0Vector@@QAE@XZ			; Vector::Vector

; 2156 : 				float normal;
; 2157 : 
; 2158 : 				//ALERT(at_console, "pev %.2f %.2f %.2f - ",
; 2159 : 				//	pev->velocity.x, pev->velocity.y, pev->velocity.z);
; 2160 : 				// Calculate player's intended velocity
; 2161 : 				//Vector velocity = (forward * gpGlobals->v_forward) + (right * gpGlobals->v_right);
; 2162 : 				velocity = vpn * forward;

	push	ecx
	movss	xmm0, DWORD PTR _forward$24[ebp]
	movss	DWORD PTR [esp], xmm0
	lea	ecx, DWORD PTR $T10[ebp]
	push	ecx
	lea	ecx, DWORD PTR _vpn$16[ebp]
	call	??DVector@@QBE?AV0@M@Z			; Vector::operator*
	mov	edx, DWORD PTR [eax]
	mov	DWORD PTR _velocity$21[ebp], edx
	mov	ecx, DWORD PTR [eax+4]
	mov	DWORD PTR _velocity$21[ebp+4], ecx
	mov	edx, DWORD PTR [eax+8]
	mov	DWORD PTR _velocity$21[ebp+8], edx

; 2163 : 				velocity += v_right * right;

	push	ecx
	movss	xmm0, DWORD PTR _right$23[ebp]
	movss	DWORD PTR [esp], xmm0
	lea	eax, DWORD PTR $T9[ebp]
	push	eax
	lea	ecx, DWORD PTR _v_right$15[ebp]
	call	??DVector@@QBE?AV0@M@Z			; Vector::operator*
	push	eax
	lea	ecx, DWORD PTR _velocity$21[ebp]
	call	??YVector@@QAEAAV0@ABV0@@Z		; Vector::operator+=

; 2164 : 
; 2165 : 				
; 2166 : 				// Perpendicular in the ladder plane
; 2167 : 				Vector perp = CrossProduct( Vector(0,0,1), trace.plane.normal );

	lea	ecx, DWORD PTR _trace$[ebp+32]
	push	ecx
	push	ecx
	movss	xmm0, DWORD PTR __real@3f800000
	movss	DWORD PTR [esp], xmm0
	push	ecx
	xorps	xmm0, xmm0
	movss	DWORD PTR [esp], xmm0
	push	ecx
	xorps	xmm0, xmm0
	movss	DWORD PTR [esp], xmm0
	lea	ecx, DWORD PTR $T8[ebp]
	call	??0Vector@@QAE@MMM@Z			; Vector::Vector
	push	eax
	lea	edx, DWORD PTR _perp$20[ebp]
	push	edx
	call	?CrossProduct@@YA?AVVector@@ABV1@0@Z	; CrossProduct
	add	esp, 12					; 0000000cH

; 2168 : 				perp = perp.Normalize();

	lea	eax, DWORD PTR $T7[ebp]
	push	eax
	lea	ecx, DWORD PTR _perp$20[ebp]
	call	?Normalize@Vector@@QBE?AV1@XZ		; Vector::Normalize
	mov	ecx, DWORD PTR [eax]
	mov	DWORD PTR _perp$20[ebp], ecx
	mov	edx, DWORD PTR [eax+4]
	mov	DWORD PTR _perp$20[ebp+4], edx
	mov	eax, DWORD PTR [eax+8]
	mov	DWORD PTR _perp$20[ebp+8], eax

; 2169 : 
; 2170 : 				// decompose velocity into ladder plane
; 2171 : 				normal = DotProduct( velocity, trace.plane.normal );

	lea	ecx, DWORD PTR _trace$[ebp+32]
	push	ecx
	lea	edx, DWORD PTR _velocity$21[ebp]
	push	edx
	call	?DotProduct@@YAMABVVector@@0@Z		; DotProduct
	add	esp, 8
	fstp	DWORD PTR _normal$22[ebp]

; 2172 : 				// This is the velocity into the face of the ladder
; 2173 : 				cross = trace.plane.normal * normal;

	push	ecx
	movss	xmm0, DWORD PTR _normal$22[ebp]
	movss	DWORD PTR [esp], xmm0
	lea	eax, DWORD PTR $T6[ebp]
	push	eax
	lea	ecx, DWORD PTR _trace$[ebp+32]
	call	??DVector@@QBE?AV0@M@Z			; Vector::operator*
	mov	ecx, DWORD PTR [eax]
	mov	DWORD PTR _cross$19[ebp], ecx
	mov	edx, DWORD PTR [eax+4]
	mov	DWORD PTR _cross$19[ebp+4], edx
	mov	eax, DWORD PTR [eax+8]
	mov	DWORD PTR _cross$19[ebp+8], eax

; 2174 : 
; 2175 : 
; 2176 : 				// This is the player's additional velocity
; 2177 : 				lateral = velocity - cross;

	lea	ecx, DWORD PTR _cross$19[ebp]
	push	ecx
	lea	edx, DWORD PTR $T5[ebp]
	push	edx
	lea	ecx, DWORD PTR _velocity$21[ebp]
	call	??GVector@@QBE?AV0@ABV0@@Z		; Vector::operator-
	mov	ecx, DWORD PTR [eax]
	mov	DWORD PTR _lateral$17[ebp], ecx
	mov	edx, DWORD PTR [eax+4]
	mov	DWORD PTR _lateral$17[ebp+4], edx
	mov	eax, DWORD PTR [eax+8]
	mov	DWORD PTR _lateral$17[ebp+8], eax

; 2178 : 
; 2179 : 				// This turns the velocity into the face of the ladder into velocity that
; 2180 : 				// is roughly vertically perpendicular to the face of the ladder.
; 2181 : 				// NOTE: It IS possible to face up and move down or face down and move up
; 2182 : 				// because the velocity is a sum of the directional velocity and the converted
; 2183 : 				// velocity through the face of the ladder -- by design.
; 2184 : 				tmp = CrossProduct( trace.plane.normal, perp );

	lea	ecx, DWORD PTR _perp$20[ebp]
	push	ecx
	lea	edx, DWORD PTR _trace$[ebp+32]
	push	edx
	lea	eax, DWORD PTR $T4[ebp]
	push	eax
	call	?CrossProduct@@YA?AVVector@@ABV1@0@Z	; CrossProduct
	add	esp, 12					; 0000000cH
	mov	ecx, DWORD PTR [eax]
	mov	DWORD PTR _tmp$18[ebp], ecx
	mov	edx, DWORD PTR [eax+4]
	mov	DWORD PTR _tmp$18[ebp+4], edx
	mov	eax, DWORD PTR [eax+8]
	mov	DWORD PTR _tmp$18[ebp+8], eax

; 2185 : 				pmove->velocity = lateral + tmp * -normal;

	movss	xmm0, DWORD PTR _normal$22[ebp]
	xorps	xmm0, DWORD PTR __xmm@80000000800000008000000080000000
	push	ecx
	movss	DWORD PTR [esp], xmm0
	lea	ecx, DWORD PTR $T3[ebp]
	push	ecx
	lea	ecx, DWORD PTR _tmp$18[ebp]
	call	??DVector@@QBE?AV0@M@Z			; Vector::operator*
	push	eax
	lea	edx, DWORD PTR $T2[ebp]
	push	edx
	lea	ecx, DWORD PTR _lateral$17[ebp]
	call	??HVector@@QBE?AV0@ABV0@@Z		; Vector::operator+
	mov	ecx, DWORD PTR ?pmove@@3PAUplayermove_s@@A ; pmove
	add	ecx, 92					; 0000005cH
	mov	edx, DWORD PTR [eax]
	mov	DWORD PTR [ecx], edx
	mov	edx, DWORD PTR [eax+4]
	mov	DWORD PTR [ecx+4], edx
	mov	eax, DWORD PTR [eax+8]
	mov	DWORD PTR [ecx+8], eax

; 2186 : 
; 2187 : 				if( onFloor && normal > 0 )	// On ground moving away from the ladder

	cmp	DWORD PTR _onFloor$[ebp], 0
	je	SHORT $LN15@PM_LadderM
	movss	xmm0, DWORD PTR _normal$22[ebp]
	comiss	xmm0, DWORD PTR __real@00000000
	jbe	SHORT $LN15@PM_LadderM

; 2188 : 				{
; 2189 : 					pmove->velocity += trace.plane.normal * MAX_CLIMB_SPEED;

	push	ecx
	movss	xmm0, DWORD PTR __real@43480000
	movss	DWORD PTR [esp], xmm0
	lea	ecx, DWORD PTR $T1[ebp]
	push	ecx
	lea	ecx, DWORD PTR _trace$[ebp+32]
	call	??DVector@@QBE?AV0@M@Z			; Vector::operator*
	push	eax
	mov	ecx, DWORD PTR ?pmove@@3PAUplayermove_s@@A ; pmove
	add	ecx, 92					; 0000005cH
	call	??YVector@@QAEAAV0@ABV0@@Z		; Vector::operator+=
$LN15@PM_LadderM:

; 2190 : 				}
; 2191 : 				//pev->velocity = lateral - (CrossProduct( trace.vecPlaneNormal, perp ) * normal);
; 2192 : 			}
; 2193 : 			else

	jmp	SHORT $LN13@PM_LadderM
$LN12@PM_LadderM:

; 2194 : 			{
; 2195 : 				pmove->velocity = g_vecZero;

	mov	edx, DWORD PTR ?pmove@@3PAUplayermove_s@@A ; pmove
	add	edx, 92					; 0000005cH
	mov	eax, DWORD PTR ?g_vecZero@@3VVector@@B
	mov	DWORD PTR [edx], eax
	mov	ecx, DWORD PTR ?g_vecZero@@3VVector@@B+4
	mov	DWORD PTR [edx+4], ecx
	mov	eax, DWORD PTR ?g_vecZero@@3VVector@@B+8
	mov	DWORD PTR [edx+8], eax
$LN13@PM_LadderM:
$LN1@PM_LadderM:

; 2196 : 			}
; 2197 : 		}
; 2198 : 	}
; 2199 : }

	mov	esp, ebp
	pop	ebp
	ret	0
?PM_LadderMove@@YAXPAUphysent_s@@@Z ENDP		; PM_LadderMove
_TEXT	ENDS
; Function compile flags: /Odtp
; File c:\users\user\downloads\xashxt_v0.81_rev.1_with_sources\xashxt_v0.81_rev.1_src\game_shared\playermove.cpp
_TEXT	SEGMENT
tv186 = -56						; size = 8
_duckpressed$ = -48					; size = 4
_duckchange$ = -44					; size = 4
tv333 = -40						; size = 4
_fMore$1 = -36						; size = 4
_time$ = -32						; size = 4
_duckFraction$ = -28					; size = 4
tv230 = -24						; size = 4
_nButtonPressed$ = -20					; size = 4
tv78 = -16						; size = 4
tv75 = -12						; size = 4
_buttonsChanged$ = -8					; size = 4
_i$ = -4						; size = 4
?PM_Duck@@YAXXZ PROC					; PM_Duck

; 1999 : {

	push	ebp
	mov	ebp, esp
	sub	esp, 56					; 00000038H
	push	esi

; 2000 : 	int i;
; 2001 : 	float time;
; 2002 : 	float duckFraction;
; 2003 : 
; 2004 : 	int buttonsChanged	= ( pmove->oldbuttons ^ pmove->cmd.buttons );	// These buttons have changed this frame

	mov	eax, DWORD PTR ?pmove@@3PAUplayermove_s@@A ; pmove
	movzx	ecx, WORD PTR [eax+283766]
	mov	edx, DWORD PTR ?pmove@@3PAUplayermove_s@@A ; pmove
	xor	ecx, DWORD PTR [edx+200]
	mov	DWORD PTR _buttonsChanged$[ebp], ecx

; 2005 : 	int nButtonPressed	=  buttonsChanged & pmove->cmd.buttons;		// The changed ones still down are "pressed"

	mov	eax, DWORD PTR ?pmove@@3PAUplayermove_s@@A ; pmove
	movzx	ecx, WORD PTR [eax+283766]
	and	ecx, DWORD PTR _buttonsChanged$[ebp]
	mov	DWORD PTR _nButtonPressed$[ebp], ecx

; 2006 : 
; 2007 : 	int duckchange		= buttonsChanged & IN_DUCK ? 1 : 0;

	mov	edx, DWORD PTR _buttonsChanged$[ebp]
	and	edx, 4
	je	SHORT $LN22@PM_Duck
	mov	DWORD PTR tv75[ebp], 1
	jmp	SHORT $LN23@PM_Duck
$LN22@PM_Duck:
	mov	DWORD PTR tv75[ebp], 0
$LN23@PM_Duck:
	mov	eax, DWORD PTR tv75[ebp]
	mov	DWORD PTR _duckchange$[ebp], eax

; 2008 : 	int duckpressed		= nButtonPressed & IN_DUCK ? 1 : 0;

	mov	ecx, DWORD PTR _nButtonPressed$[ebp]
	and	ecx, 4
	je	SHORT $LN24@PM_Duck
	mov	DWORD PTR tv78[ebp], 1
	jmp	SHORT $LN25@PM_Duck
$LN24@PM_Duck:
	mov	DWORD PTR tv78[ebp], 0
$LN25@PM_Duck:
	mov	edx, DWORD PTR tv78[ebp]
	mov	DWORD PTR _duckpressed$[ebp], edx

; 2009 : 
; 2010 : 	if ( pmove->cmd.buttons & IN_DUCK )

	mov	eax, DWORD PTR ?pmove@@3PAUplayermove_s@@A ; pmove
	movzx	ecx, WORD PTR [eax+283766]
	and	ecx, 4
	je	SHORT $LN5@PM_Duck

; 2011 : 	{
; 2012 : 		pmove->oldbuttons |= IN_DUCK;

	mov	edx, DWORD PTR ?pmove@@3PAUplayermove_s@@A ; pmove
	mov	eax, DWORD PTR [edx+200]
	or	eax, 4
	mov	ecx, DWORD PTR ?pmove@@3PAUplayermove_s@@A ; pmove
	mov	DWORD PTR [ecx+200], eax

; 2013 : 	}
; 2014 : 	else

	jmp	SHORT $LN6@PM_Duck
$LN5@PM_Duck:

; 2015 : 	{
; 2016 : 		pmove->oldbuttons &= ~IN_DUCK;

	mov	edx, DWORD PTR ?pmove@@3PAUplayermove_s@@A ; pmove
	mov	eax, DWORD PTR [edx+200]
	and	eax, -5					; fffffffbH
	mov	ecx, DWORD PTR ?pmove@@3PAUplayermove_s@@A ; pmove
	mov	DWORD PTR [ecx+200], eax
$LN6@PM_Duck:

; 2017 : 	}
; 2018 : 
; 2019 : 	// Prevent ducking if the iuser3 variable is set
; 2020 : 	if ( pmove->iuser3 || pmove->dead )

	mov	edx, DWORD PTR ?pmove@@3PAUplayermove_s@@A ; pmove
	cmp	DWORD PTR [edx+516], 0
	jne	SHORT $LN8@PM_Duck
	mov	eax, DWORD PTR ?pmove@@3PAUplayermove_s@@A ; pmove
	cmp	DWORD PTR [eax+208], 0
	je	SHORT $LN7@PM_Duck
$LN8@PM_Duck:

; 2021 : 	{
; 2022 : 		// Try to unduck
; 2023 : 		if ( pmove->flags & FL_DUCKING )

	mov	ecx, DWORD PTR ?pmove@@3PAUplayermove_s@@A ; pmove
	mov	edx, DWORD PTR [ecx+184]
	and	edx, 16384				; 00004000H
	je	SHORT $LN9@PM_Duck

; 2024 : 		{
; 2025 : 			PM_UnDuck();

	call	?PM_UnDuck@@YAXXZ			; PM_UnDuck
$LN9@PM_Duck:

; 2026 : 		}
; 2027 : 		return;

	jmp	$LN1@PM_Duck
$LN7@PM_Duck:

; 2028 : 	}
; 2029 : 
; 2030 : 	if ( pmove->flags & FL_DUCKING )

	mov	eax, DWORD PTR ?pmove@@3PAUplayermove_s@@A ; pmove
	mov	ecx, DWORD PTR [eax+184]
	and	ecx, 16384				; 00004000H
	je	SHORT $LN10@PM_Duck

; 2031 : 	{
; 2032 : 		pmove->cmd.forwardmove *= 0.333;

	mov	edx, DWORD PTR ?pmove@@3PAUplayermove_s@@A ; pmove
	cvtss2sd xmm0, DWORD PTR [edx+283752]
	mulsd	xmm0, QWORD PTR __real@3fd54fdf3b645a1d
	cvtsd2ss xmm0, xmm0
	mov	eax, DWORD PTR ?pmove@@3PAUplayermove_s@@A ; pmove
	movss	DWORD PTR [eax+283752], xmm0

; 2033 : 		pmove->cmd.sidemove    *= 0.333;

	mov	ecx, DWORD PTR ?pmove@@3PAUplayermove_s@@A ; pmove
	cvtss2sd xmm0, DWORD PTR [ecx+283756]
	mulsd	xmm0, QWORD PTR __real@3fd54fdf3b645a1d
	cvtsd2ss xmm0, xmm0
	mov	edx, DWORD PTR ?pmove@@3PAUplayermove_s@@A ; pmove
	movss	DWORD PTR [edx+283756], xmm0

; 2034 : 		pmove->cmd.upmove      *= 0.333;

	mov	eax, DWORD PTR ?pmove@@3PAUplayermove_s@@A ; pmove
	cvtss2sd xmm0, DWORD PTR [eax+283760]
	mulsd	xmm0, QWORD PTR __real@3fd54fdf3b645a1d
	cvtsd2ss xmm0, xmm0
	mov	ecx, DWORD PTR ?pmove@@3PAUplayermove_s@@A ; pmove
	movss	DWORD PTR [ecx+283760], xmm0
$LN10@PM_Duck:

; 2035 : 	}
; 2036 : 
; 2037 : 	if ( ( pmove->cmd.buttons & IN_DUCK ) || ( pmove->bInDuck ) || ( pmove->flags & FL_DUCKING ) )

	mov	edx, DWORD PTR ?pmove@@3PAUplayermove_s@@A ; pmove
	movzx	eax, WORD PTR [edx+283766]
	and	eax, 4
	jne	SHORT $LN12@PM_Duck
	mov	ecx, DWORD PTR ?pmove@@3PAUplayermove_s@@A ; pmove
	cmp	DWORD PTR [ecx+144], 0
	jne	SHORT $LN12@PM_Duck
	mov	edx, DWORD PTR ?pmove@@3PAUplayermove_s@@A ; pmove
	mov	eax, DWORD PTR [edx+184]
	and	eax, 16384				; 00004000H
	je	$LN14@PM_Duck
$LN12@PM_Duck:

; 2038 : 	{
; 2039 : 		if ( pmove->cmd.buttons & IN_DUCK )

	mov	ecx, DWORD PTR ?pmove@@3PAUplayermove_s@@A ; pmove
	movzx	edx, WORD PTR [ecx+283766]
	and	edx, 4
	je	$LN13@PM_Duck

; 2040 : 		{
; 2041 : 			if ( (nButtonPressed & IN_DUCK ) && !( pmove->flags & FL_DUCKING ) )

	mov	eax, DWORD PTR _nButtonPressed$[ebp]
	and	eax, 4
	je	SHORT $LN15@PM_Duck
	mov	ecx, DWORD PTR ?pmove@@3PAUplayermove_s@@A ; pmove
	mov	edx, DWORD PTR [ecx+184]
	and	edx, 16384				; 00004000H
	jne	SHORT $LN15@PM_Duck

; 2042 : 			{
; 2043 : 				// Use 1 second so super long jump will work
; 2044 : 				pmove->flDuckTime = 1000;

	mov	eax, DWORD PTR ?pmove@@3PAUplayermove_s@@A ; pmove
	movss	xmm0, DWORD PTR __real@447a0000
	movss	DWORD PTR [eax+140], xmm0

; 2045 : 				pmove->bInDuck    = true;

	mov	ecx, DWORD PTR ?pmove@@3PAUplayermove_s@@A ; pmove
	mov	DWORD PTR [ecx+144], 1
$LN15@PM_Duck:

; 2046 : 			}
; 2047 : 
; 2048 : 			time = max( 0.0, ( 1.0 - (float)pmove->flDuckTime / 1000.0 ) );

	mov	edx, DWORD PTR ?pmove@@3PAUplayermove_s@@A ; pmove
	cvtss2sd xmm0, DWORD PTR [edx+140]
	divsd	xmm0, QWORD PTR __real@408f400000000000
	movsd	xmm1, QWORD PTR __real@3ff0000000000000
	subsd	xmm1, xmm0
	xorps	xmm0, xmm0
	comisd	xmm0, xmm1
	jbe	SHORT $LN26@PM_Duck
	xorps	xmm0, xmm0
	movsd	QWORD PTR tv186[ebp], xmm0
	jmp	SHORT $LN27@PM_Duck
$LN26@PM_Duck:
	mov	eax, DWORD PTR ?pmove@@3PAUplayermove_s@@A ; pmove
	cvtss2sd xmm0, DWORD PTR [eax+140]
	divsd	xmm0, QWORD PTR __real@408f400000000000
	movsd	xmm1, QWORD PTR __real@3ff0000000000000
	subsd	xmm1, xmm0
	movsd	QWORD PTR tv186[ebp], xmm1
$LN27@PM_Duck:
	cvtsd2ss xmm0, QWORD PTR tv186[ebp]
	movss	DWORD PTR _time$[ebp], xmm0

; 2049 : 			
; 2050 : 			if ( pmove->bInDuck )

	mov	ecx, DWORD PTR ?pmove@@3PAUplayermove_s@@A ; pmove
	cmp	DWORD PTR [ecx+144], 0
	je	$LN18@PM_Duck

; 2051 : 			{
; 2052 : #if 0
; 2053 : 				pmove->usehull = 1;
; 2054 : 				pmove->view_ofs[2] = VEC_DUCK_VIEW;
; 2055 : 				pmove->flags |= FL_DUCKING;
; 2056 : #endif
; 2057 : 				// Finish ducking immediately if duck time is over or not on ground
; 2058 : 				if ( ( (float)pmove->flDuckTime / 1000.0 <= ( 1.0 - TIME_TO_DUCK ) ) ||

	mov	edx, DWORD PTR ?pmove@@3PAUplayermove_s@@A ; pmove
	cvtss2sd xmm0, DWORD PTR [edx+140]
	divsd	xmm0, QWORD PTR __real@408f400000000000
	movsd	xmm1, QWORD PTR __real@3fe3333333333333
	comisd	xmm1, xmm0
	jae	SHORT $LN19@PM_Duck
	mov	eax, DWORD PTR ?pmove@@3PAUplayermove_s@@A ; pmove
	cmp	DWORD PTR [eax+224], -1
	jne	$LN17@PM_Duck
$LN19@PM_Duck:

; 2059 : 					 ( pmove->onground == -1 ) )
; 2060 : 				{
; 2061 : 					pmove->usehull = 1;

	mov	ecx, DWORD PTR ?pmove@@3PAUplayermove_s@@A ; pmove
	mov	DWORD PTR [ecx+188], 1

; 2062 : 					pmove->view_ofs[2] = VEC_DUCK_VIEW;

	mov	ecx, DWORD PTR ?pmove@@3PAUplayermove_s@@A ; pmove
	add	ecx, 128				; 00000080H
	call	??BVector@@QAEPAMXZ			; Vector::operator float *
	mov	edx, 4
	shl	edx, 1
	movss	xmm0, DWORD PTR __real@41400000
	movss	DWORD PTR [eax+edx], xmm0

; 2063 : 					pmove->flags |= FL_DUCKING;

	mov	eax, DWORD PTR ?pmove@@3PAUplayermove_s@@A ; pmove
	mov	ecx, DWORD PTR [eax+184]
	or	ecx, 16384				; 00004000H
	mov	edx, DWORD PTR ?pmove@@3PAUplayermove_s@@A ; pmove
	mov	DWORD PTR [edx+184], ecx

; 2064 : 					pmove->bInDuck = false;

	mov	eax, DWORD PTR ?pmove@@3PAUplayermove_s@@A ; pmove
	mov	DWORD PTR [eax+144], 0

; 2065 : 
; 2066 : 					// HACKHACK - Fudge for collision bug - no time to fix this properly
; 2067 : 					if ( pmove->onground != -1 )

	mov	ecx, DWORD PTR ?pmove@@3PAUplayermove_s@@A ; pmove
	cmp	DWORD PTR [ecx+224], -1
	je	$LN20@PM_Duck

; 2068 : 					{
; 2069 : 						for( i = 0; i < 3; i++ )

	mov	DWORD PTR _i$[ebp], 0
	jmp	SHORT $LN4@PM_Duck
$LN2@PM_Duck:
	mov	edx, DWORD PTR _i$[ebp]
	add	edx, 1
	mov	DWORD PTR _i$[ebp], edx
$LN4@PM_Duck:
	cmp	DWORD PTR _i$[ebp], 3
	jge	SHORT $LN3@PM_Duck

; 2070 : 						{
; 2071 : 							pmove->origin[i] -= ( pmove->player_mins[1][i] - pmove->player_mins[0][i] );

	mov	ecx, DWORD PTR ?pmove@@3PAUplayermove_s@@A ; pmove
	add	ecx, 56					; 00000038H
	call	??BVector@@QAEPAMXZ			; Vector::operator float *
	mov	ecx, DWORD PTR _i$[ebp]
	lea	edx, DWORD PTR [eax+ecx*4]
	mov	DWORD PTR tv230[ebp], edx
	mov	eax, 12					; 0000000cH
	shl	eax, 0
	mov	ecx, DWORD PTR ?pmove@@3PAUplayermove_s@@A ; pmove
	lea	ecx, DWORD PTR [ecx+eax+324852]
	call	??BVector@@QAEPAMXZ			; Vector::operator float *
	mov	esi, eax
	mov	edx, 12					; 0000000cH
	imul	eax, edx, 0
	mov	ecx, DWORD PTR ?pmove@@3PAUplayermove_s@@A ; pmove
	lea	ecx, DWORD PTR [ecx+eax+324852]
	call	??BVector@@QAEPAMXZ			; Vector::operator float *
	mov	edx, DWORD PTR _i$[ebp]
	mov	ecx, DWORD PTR _i$[ebp]
	movss	xmm0, DWORD PTR [esi+edx*4]
	subss	xmm0, DWORD PTR [eax+ecx*4]
	mov	edx, DWORD PTR tv230[ebp]
	movss	xmm1, DWORD PTR [edx]
	subss	xmm1, xmm0
	mov	eax, DWORD PTR tv230[ebp]
	movss	DWORD PTR [eax], xmm1

; 2072 : 						}

	jmp	SHORT $LN2@PM_Duck
$LN3@PM_Duck:

; 2073 : 						// See if we are stuck?
; 2074 : 						PM_FixPlayerCrouchStuck( STUCK_MOVEUP );

	push	1
	call	?PM_FixPlayerCrouchStuck@@YAXH@Z	; PM_FixPlayerCrouchStuck
	add	esp, 4

; 2075 : 
; 2076 : 						// Recatagorize position since ducking can change origin
; 2077 : 						PM_CatagorizePosition();

	call	?PM_CatagorizePosition@@YAXXZ		; PM_CatagorizePosition
$LN20@PM_Duck:

; 2078 : 					}
; 2079 : 				}
; 2080 : 				else

	jmp	$LN18@PM_Duck
$LN17@PM_Duck:

; 2081 : 				{
; 2082 : 					float fMore = (VEC_DUCK_HULL_MIN - VEC_HULL_MIN);

	movss	xmm0, DWORD PTR __real@41900000
	movss	DWORD PTR _fMore$1[ebp], xmm0

; 2083 : 
; 2084 : 					// Calc parametric time
; 2085 : 					duckFraction = PM_SplineFraction( time, (1.0/TIME_TO_DUCK) );

	push	ecx
	movss	xmm0, DWORD PTR __real@40200000
	movss	DWORD PTR [esp], xmm0
	push	ecx
	movss	xmm0, DWORD PTR _time$[ebp]
	movss	DWORD PTR [esp], xmm0
	call	?PM_SplineFraction@@YAMMM@Z		; PM_SplineFraction
	add	esp, 8
	fstp	DWORD PTR _duckFraction$[ebp]

; 2086 : 					pmove->view_ofs[2] = ((VEC_DUCK_VIEW - fMore ) * duckFraction) + (VEC_VIEW * (1-duckFraction));

	movss	xmm0, DWORD PTR __real@41400000
	subss	xmm0, DWORD PTR _fMore$1[ebp]
	mulss	xmm0, DWORD PTR _duckFraction$[ebp]
	movss	xmm1, DWORD PTR __real@3f800000
	subss	xmm1, DWORD PTR _duckFraction$[ebp]
	mulss	xmm1, DWORD PTR __real@41e00000
	addss	xmm0, xmm1
	mov	ecx, DWORD PTR ?pmove@@3PAUplayermove_s@@A ; pmove
	add	ecx, 128				; 00000080H
	movss	DWORD PTR tv333[ebp], xmm0
	call	??BVector@@QAEPAMXZ			; Vector::operator float *
	mov	ecx, 4
	shl	ecx, 1
	movss	xmm0, DWORD PTR tv333[ebp]
	movss	DWORD PTR [eax+ecx], xmm0
$LN18@PM_Duck:

; 2087 : 				}
; 2088 : 			}
; 2089 : 		}
; 2090 : 		else

	jmp	SHORT $LN14@PM_Duck
$LN13@PM_Duck:

; 2091 : 		{
; 2092 : 			// Try to unduck
; 2093 : 			PM_UnDuck();

	call	?PM_UnDuck@@YAXXZ			; PM_UnDuck
$LN14@PM_Duck:
$LN1@PM_Duck:

; 2094 : 		}
; 2095 : 	}
; 2096 : }

	pop	esi
	mov	esp, ebp
	pop	ebp
	ret	0
?PM_Duck@@YAXXZ ENDP					; PM_Duck
_TEXT	ENDS
; Function compile flags: /Odtp
; File c:\users\user\downloads\xashxt_v0.81_rev.1_with_sources\xashxt_v0.81_rev.1_src\game_shared\playermove.cpp
_TEXT	SEGMENT
$T1 = -360						; size = 68
$T2 = -292						; size = 68
$T3 = -224						; size = 68
$T4 = -156						; size = 68
_trace$ = -88						; size = 68
tv128 = -20						; size = 4
_newOrigin$ = -16					; size = 12
_i$ = -4						; size = 4
?PM_UnDuck@@YAXXZ PROC					; PM_UnDuck

; 1955 : {

	push	ebp
	mov	ebp, esp
	sub	esp, 360				; 00000168H
	push	esi
	push	edi

; 1956 : 	int i;
; 1957 : 	pmtrace_t trace;

	lea	ecx, DWORD PTR _trace$[ebp]
	call	??0pmtrace_s@@QAE@XZ

; 1958 : 	Vector newOrigin;

	lea	ecx, DWORD PTR _newOrigin$[ebp]
	call	??0Vector@@QAE@XZ			; Vector::Vector

; 1959 : 
; 1960 : 	newOrigin = pmove->origin;

	mov	eax, DWORD PTR ?pmove@@3PAUplayermove_s@@A ; pmove
	add	eax, 56					; 00000038H
	mov	ecx, DWORD PTR [eax]
	mov	DWORD PTR _newOrigin$[ebp], ecx
	mov	edx, DWORD PTR [eax+4]
	mov	DWORD PTR _newOrigin$[ebp+4], edx
	mov	eax, DWORD PTR [eax+8]
	mov	DWORD PTR _newOrigin$[ebp+8], eax

; 1961 : 
; 1962 : 	if ( pmove->onground != -1 && pmove->flags & FL_DUCKING && pmove->bInDuck == false)

	mov	ecx, DWORD PTR ?pmove@@3PAUplayermove_s@@A ; pmove
	cmp	DWORD PTR [ecx+224], -1
	je	$LN3@PM_UnDuck
	mov	edx, DWORD PTR ?pmove@@3PAUplayermove_s@@A ; pmove
	mov	eax, DWORD PTR [edx+184]
	and	eax, 16384				; 00004000H
	je	$LN3@PM_UnDuck
	mov	ecx, DWORD PTR ?pmove@@3PAUplayermove_s@@A ; pmove
	cmp	DWORD PTR [ecx+144], 0
	jne	SHORT $LN3@PM_UnDuck

; 1963 : 	{
; 1964 : 		for ( i = 0; i < 3; i++ )

	mov	DWORD PTR _i$[ebp], 0
	jmp	SHORT $LN4@PM_UnDuck
$LN2@PM_UnDuck:
	mov	edx, DWORD PTR _i$[ebp]
	add	edx, 1
	mov	DWORD PTR _i$[ebp], edx
$LN4@PM_UnDuck:
	cmp	DWORD PTR _i$[ebp], 3
	jge	SHORT $LN3@PM_UnDuck

; 1965 : 		{
; 1966 : 			newOrigin[i] += ( pmove->player_mins[1][i] - pmove->player_mins[0][i] );

	lea	ecx, DWORD PTR _newOrigin$[ebp]
	call	??BVector@@QAEPAMXZ			; Vector::operator float *
	mov	ecx, DWORD PTR _i$[ebp]
	lea	edx, DWORD PTR [eax+ecx*4]
	mov	DWORD PTR tv128[ebp], edx
	mov	eax, 12					; 0000000cH
	shl	eax, 0
	mov	ecx, DWORD PTR ?pmove@@3PAUplayermove_s@@A ; pmove
	lea	ecx, DWORD PTR [ecx+eax+324852]
	call	??BVector@@QAEPAMXZ			; Vector::operator float *
	mov	esi, eax
	mov	edx, 12					; 0000000cH
	imul	eax, edx, 0
	mov	ecx, DWORD PTR ?pmove@@3PAUplayermove_s@@A ; pmove
	lea	ecx, DWORD PTR [ecx+eax+324852]
	call	??BVector@@QAEPAMXZ			; Vector::operator float *
	mov	edx, DWORD PTR _i$[ebp]
	mov	ecx, DWORD PTR _i$[ebp]
	movss	xmm0, DWORD PTR [esi+edx*4]
	subss	xmm0, DWORD PTR [eax+ecx*4]
	mov	edx, DWORD PTR tv128[ebp]
	addss	xmm0, DWORD PTR [edx]
	mov	eax, DWORD PTR tv128[ebp]
	movss	DWORD PTR [eax], xmm0

; 1967 : 		}

	jmp	SHORT $LN2@PM_UnDuck
$LN3@PM_UnDuck:

; 1968 : 	}
; 1969 : 	
; 1970 : 	trace = pmove->PM_PlayerTrace( newOrigin, newOrigin, PM_NORMAL, -1 );

	push	-1
	push	0
	lea	ecx, DWORD PTR _newOrigin$[ebp]
	call	??BVector@@QAEPAMXZ			; Vector::operator float *
	push	eax
	lea	ecx, DWORD PTR _newOrigin$[ebp]
	call	??BVector@@QAEPAMXZ			; Vector::operator float *
	push	eax
	lea	ecx, DWORD PTR $T2[ebp]
	push	ecx
	mov	edx, DWORD PTR ?pmove@@3PAUplayermove_s@@A ; pmove
	mov	eax, DWORD PTR [edx+324992]
	call	eax
	add	esp, 20					; 00000014H
	mov	ecx, 17					; 00000011H
	mov	esi, eax
	lea	edi, DWORD PTR $T4[ebp]
	rep movsd
	mov	ecx, 17					; 00000011H
	lea	esi, DWORD PTR $T4[ebp]
	lea	edi, DWORD PTR _trace$[ebp]
	rep movsd

; 1971 : 
; 1972 : 	if ( !trace.startsolid )

	cmp	DWORD PTR _trace$[ebp+4], 0
	jne	$LN6@PM_UnDuck

; 1973 : 	{
; 1974 : 		pmove->usehull = 0;

	mov	ecx, DWORD PTR ?pmove@@3PAUplayermove_s@@A ; pmove
	mov	DWORD PTR [ecx+188], 0

; 1975 : 
; 1976 : 		// Oh, no, changing hulls stuck us into something, try unsticking downward first.
; 1977 : 		trace = pmove->PM_PlayerTrace( newOrigin, newOrigin, PM_NORMAL, -1  );

	push	-1
	push	0
	lea	ecx, DWORD PTR _newOrigin$[ebp]
	call	??BVector@@QAEPAMXZ			; Vector::operator float *
	push	eax
	lea	ecx, DWORD PTR _newOrigin$[ebp]
	call	??BVector@@QAEPAMXZ			; Vector::operator float *
	push	eax
	lea	edx, DWORD PTR $T1[ebp]
	push	edx
	mov	eax, DWORD PTR ?pmove@@3PAUplayermove_s@@A ; pmove
	mov	ecx, DWORD PTR [eax+324992]
	call	ecx
	add	esp, 20					; 00000014H
	mov	ecx, 17					; 00000011H
	mov	esi, eax
	lea	edi, DWORD PTR $T3[ebp]
	rep movsd
	mov	ecx, 17					; 00000011H
	lea	esi, DWORD PTR $T3[ebp]
	lea	edi, DWORD PTR _trace$[ebp]
	rep movsd

; 1978 : 		if ( trace.startsolid )

	cmp	DWORD PTR _trace$[ebp+4], 0
	je	SHORT $LN7@PM_UnDuck

; 1979 : 		{
; 1980 : 			// See if we are stuck?  If so, stay ducked with the duck hull until we have a clear spot
; 1981 : 			//Con_Printf( "unstick got stuck\n" );
; 1982 : 			pmove->usehull = 1;

	mov	edx, DWORD PTR ?pmove@@3PAUplayermove_s@@A ; pmove
	mov	DWORD PTR [edx+188], 1

; 1983 : 			return;

	jmp	$LN1@PM_UnDuck
$LN7@PM_UnDuck:

; 1984 : 		}
; 1985 : 
; 1986 : 		pmove->flags &= ~FL_DUCKING;

	mov	eax, DWORD PTR ?pmove@@3PAUplayermove_s@@A ; pmove
	mov	ecx, DWORD PTR [eax+184]
	and	ecx, -16385				; ffffbfffH
	mov	edx, DWORD PTR ?pmove@@3PAUplayermove_s@@A ; pmove
	mov	DWORD PTR [edx+184], ecx

; 1987 : 		pmove->bInDuck  = false;

	mov	eax, DWORD PTR ?pmove@@3PAUplayermove_s@@A ; pmove
	mov	DWORD PTR [eax+144], 0

; 1988 : 		pmove->view_ofs[2] = VEC_VIEW;

	mov	ecx, DWORD PTR ?pmove@@3PAUplayermove_s@@A ; pmove
	add	ecx, 128				; 00000080H
	call	??BVector@@QAEPAMXZ			; Vector::operator float *
	mov	ecx, 4
	shl	ecx, 1
	movss	xmm0, DWORD PTR __real@41e00000
	movss	DWORD PTR [eax+ecx], xmm0

; 1989 : 		pmove->flDuckTime = 0;

	mov	edx, DWORD PTR ?pmove@@3PAUplayermove_s@@A ; pmove
	xorps	xmm0, xmm0
	movss	DWORD PTR [edx+140], xmm0

; 1990 : 		
; 1991 : 		pmove->origin = newOrigin;

	mov	eax, DWORD PTR ?pmove@@3PAUplayermove_s@@A ; pmove
	add	eax, 56					; 00000038H
	mov	ecx, DWORD PTR _newOrigin$[ebp]
	mov	DWORD PTR [eax], ecx
	mov	edx, DWORD PTR _newOrigin$[ebp+4]
	mov	DWORD PTR [eax+4], edx
	mov	ecx, DWORD PTR _newOrigin$[ebp+8]
	mov	DWORD PTR [eax+8], ecx

; 1992 : 
; 1993 : 		// Recatagorize position since ducking can change origin
; 1994 : 		PM_CatagorizePosition();

	call	?PM_CatagorizePosition@@YAXXZ		; PM_CatagorizePosition
$LN6@PM_UnDuck:
$LN1@PM_UnDuck:

; 1995 : 	}
; 1996 : }

	pop	edi
	pop	esi
	mov	esp, ebp
	pop	ebp
	ret	0
?PM_UnDuck@@YAXXZ ENDP					; PM_UnDuck
_TEXT	ENDS
; Function compile flags: /Odtp
; File c:\users\user\downloads\xashxt_v0.81_rev.1_with_sources\xashxt_v0.81_rev.1_src\game_shared\playermove.cpp
_TEXT	SEGMENT
_test$ = -16						; size = 12
_i$1 = -4						; size = 4
_direction$ = 8						; size = 4
?PM_FixPlayerCrouchStuck@@YAXH@Z PROC			; PM_FixPlayerCrouchStuck

; 1937 : {

	push	ebp
	mov	ebp, esp
	sub	esp, 16					; 00000010H

; 1938 : 	if( pmove->PM_TestPlayerPosition ( pmove->origin, NULL ) == -1 )

	push	0
	mov	ecx, DWORD PTR ?pmove@@3PAUplayermove_s@@A ; pmove
	add	ecx, 56					; 00000038H
	call	??BVector@@QAEPAMXZ			; Vector::operator float *
	push	eax
	mov	eax, DWORD PTR ?pmove@@3PAUplayermove_s@@A ; pmove
	mov	ecx, DWORD PTR [eax+324956]
	call	ecx
	add	esp, 8
	cmp	eax, -1
	jne	SHORT $LN5@PM_FixPlay

; 1939 : 		return;

	jmp	$LN1@PM_FixPlay
$LN5@PM_FixPlay:

; 1940 : 	
; 1941 : 	Vector test = pmove->origin;

	mov	edx, DWORD PTR ?pmove@@3PAUplayermove_s@@A ; pmove
	add	edx, 56					; 00000038H
	push	edx
	lea	ecx, DWORD PTR _test$[ebp]
	call	??0Vector@@QAE@ABV0@@Z			; Vector::Vector

; 1942 : 	
; 1943 : 	for( int i = 0; i < 36; i++ )

	mov	DWORD PTR _i$1[ebp], 0
	jmp	SHORT $LN4@PM_FixPlay
$LN2@PM_FixPlay:
	mov	eax, DWORD PTR _i$1[ebp]
	add	eax, 1
	mov	DWORD PTR _i$1[ebp], eax
$LN4@PM_FixPlay:
	cmp	DWORD PTR _i$1[ebp], 36			; 00000024H
	jge	SHORT $LN3@PM_FixPlay

; 1944 : 	{
; 1945 : 		pmove->origin.z += direction;

	cvtsi2ss xmm0, DWORD PTR _direction$[ebp]
	mov	ecx, DWORD PTR ?pmove@@3PAUplayermove_s@@A ; pmove
	addss	xmm0, DWORD PTR [ecx+64]
	mov	edx, DWORD PTR ?pmove@@3PAUplayermove_s@@A ; pmove
	movss	DWORD PTR [edx+64], xmm0

; 1946 : 
; 1947 : 		if( pmove->PM_TestPlayerPosition ( pmove->origin, NULL ) == -1 )

	push	0
	mov	ecx, DWORD PTR ?pmove@@3PAUplayermove_s@@A ; pmove
	add	ecx, 56					; 00000038H
	call	??BVector@@QAEPAMXZ			; Vector::operator float *
	push	eax
	mov	eax, DWORD PTR ?pmove@@3PAUplayermove_s@@A ; pmove
	mov	ecx, DWORD PTR [eax+324956]
	call	ecx
	add	esp, 8
	cmp	eax, -1
	jne	SHORT $LN6@PM_FixPlay

; 1948 : 			return;

	jmp	SHORT $LN1@PM_FixPlay
$LN6@PM_FixPlay:

; 1949 : 	}

	jmp	SHORT $LN2@PM_FixPlay
$LN3@PM_FixPlay:

; 1950 : 
; 1951 : 	pmove->origin = test; // Failed

	mov	edx, DWORD PTR ?pmove@@3PAUplayermove_s@@A ; pmove
	add	edx, 56					; 00000038H
	mov	eax, DWORD PTR _test$[ebp]
	mov	DWORD PTR [edx], eax
	mov	ecx, DWORD PTR _test$[ebp+4]
	mov	DWORD PTR [edx+4], ecx
	mov	eax, DWORD PTR _test$[ebp+8]
	mov	DWORD PTR [edx+8], eax
$LN1@PM_FixPlay:

; 1952 : }

	mov	esp, ebp
	pop	ebp
	ret	0
?PM_FixPlayerCrouchStuck@@YAXH@Z ENDP			; PM_FixPlayerCrouchStuck
_TEXT	ENDS
; Function compile flags: /Odtp
; File c:\users\user\downloads\xashxt_v0.81_rev.1_with_sources\xashxt_v0.81_rev.1_src\game_shared\playermove.cpp
_TEXT	SEGMENT
tv75 = -8						; size = 4
_valueSquared$ = -4					; size = 4
_value$ = 8						; size = 4
_scale$ = 12						; size = 4
?PM_SplineFraction@@YAMMM@Z PROC			; PM_SplineFraction

; 1926 : {

	push	ebp
	mov	ebp, esp
	sub	esp, 8

; 1927 : 	float valueSquared;
; 1928 : 
; 1929 : 	value = scale * value;

	movss	xmm0, DWORD PTR _scale$[ebp]
	mulss	xmm0, DWORD PTR _value$[ebp]
	movss	DWORD PTR _value$[ebp], xmm0

; 1930 : 	valueSquared = value * value;

	movss	xmm0, DWORD PTR _value$[ebp]
	mulss	xmm0, DWORD PTR _value$[ebp]
	movss	DWORD PTR _valueSquared$[ebp], xmm0

; 1931 : 
; 1932 : 	// Nice little ease-in, ease-out spline-like curve
; 1933 : 	return 3 * valueSquared - 2 * valueSquared * value;

	movss	xmm0, DWORD PTR __real@40400000
	mulss	xmm0, DWORD PTR _valueSquared$[ebp]
	movss	xmm1, DWORD PTR __real@40000000
	mulss	xmm1, DWORD PTR _valueSquared$[ebp]
	mulss	xmm1, DWORD PTR _value$[ebp]
	subss	xmm0, xmm1
	movss	DWORD PTR tv75[ebp], xmm0
	fld	DWORD PTR tv75[ebp]

; 1934 : }

	mov	esp, ebp
	pop	ebp
	ret	0
?PM_SplineFraction@@YAMMM@Z ENDP			; PM_SplineFraction
_TEXT	ENDS
; Function compile flags: /Odtp
; File c:\users\user\downloads\xashxt_v0.81_rev.1_with_sources\xashxt_v0.81_rev.1_src\game_shared\playermove.cpp
_TEXT	SEGMENT
$T1 = -152						; size = 12
$T2 = -140						; size = 12
$T3 = -128						; size = 12
$T4 = -116						; size = 12
$T5 = -104						; size = 12
_currentspeed$ = -92					; size = 4
tv453 = -88						; size = 4
tv451 = -84						; size = 4
_smove$ = -80						; size = 4
_fmove$ = -76						; size = 4
_friction$ = -72					; size = 4
_control$ = -68						; size = 4
_wishvel$ = -64						; size = 12
tv167 = -52						; size = 4
tv83 = -48						; size = 4
_wishdir$ = -44						; size = 12
_accelspeed$ = -32					; size = 4
_addspeed$ = -28					; size = 4
_drop$ = -24						; size = 4
_wishspeed$ = -20					; size = 4
_newspeed$ = -16					; size = 4
_speed$ = -12						; size = 4
_i$ = -8						; size = 4
_target$6 = -4						; size = 4
?PM_SpectatorMove@@YAXXZ PROC				; PM_SpectatorMove

; 1807 : {

	push	ebp
	mov	ebp, esp
	sub	esp, 152				; 00000098H

; 1808 : 	float	speed, drop, friction, control, newspeed;
; 1809 : 	//float   accel;
; 1810 : 	float	currentspeed, addspeed, accelspeed;
; 1811 : 	int			i;
; 1812 : 	Vector		wishvel;

	lea	ecx, DWORD PTR _wishvel$[ebp]
	call	??0Vector@@QAE@XZ			; Vector::Vector

; 1813 : 	float		fmove, smove;
; 1814 : 	Vector		wishdir;

	lea	ecx, DWORD PTR _wishdir$[ebp]
	call	??0Vector@@QAE@XZ			; Vector::Vector

; 1815 : 	float		wishspeed;
; 1816 : 	// this routine keeps track of the spectators psoition
; 1817 : 	// there a two different main move types : track player or moce freely (OBS_ROAMING)
; 1818 : 	// doesn't need excate track position, only to generate PVS, so just copy
; 1819 : 	// targets position and real view position is calculated on client (saves server CPU)
; 1820 : 	
; 1821 : 	if ( pmove->iuser1 == OBS_ROAMING)

	mov	eax, DWORD PTR ?pmove@@3PAUplayermove_s@@A ; pmove
	cmp	DWORD PTR [eax+508], 3
	jne	$LN8@PM_Spectat

; 1822 : 	{
; 1823 : 		// Move around in normal spectator method
; 1824 : 
; 1825 : 		speed = pmove->velocity.Length();

	mov	ecx, DWORD PTR ?pmove@@3PAUplayermove_s@@A ; pmove
	add	ecx, 92					; 0000005cH
	call	?Length@Vector@@QBEMXZ			; Vector::Length
	fstp	DWORD PTR _speed$[ebp]

; 1826 : 
; 1827 : 		if (speed < 1)

	movss	xmm0, DWORD PTR __real@3f800000
	comiss	xmm0, DWORD PTR _speed$[ebp]
	jbe	SHORT $LN10@PM_Spectat

; 1828 : 		{
; 1829 : 			pmove->velocity = g_vecZero;

	mov	ecx, DWORD PTR ?pmove@@3PAUplayermove_s@@A ; pmove
	add	ecx, 92					; 0000005cH
	mov	edx, DWORD PTR ?g_vecZero@@3VVector@@B
	mov	DWORD PTR [ecx], edx
	mov	eax, DWORD PTR ?g_vecZero@@3VVector@@B+4
	mov	DWORD PTR [ecx+4], eax
	mov	edx, DWORD PTR ?g_vecZero@@3VVector@@B+8
	mov	DWORD PTR [ecx+8], edx

; 1830 : 		}
; 1831 : 		else

	jmp	$LN11@PM_Spectat
$LN10@PM_Spectat:

; 1832 : 		{
; 1833 : 			drop = 0;

	xorps	xmm0, xmm0
	movss	DWORD PTR _drop$[ebp], xmm0

; 1834 : 
; 1835 : 			friction = pmove->movevars->friction*1.5;	// extra friction

	mov	eax, DWORD PTR ?pmove@@3PAUplayermove_s@@A ; pmove
	mov	ecx, DWORD PTR [eax+324848]
	cvtss2sd xmm0, DWORD PTR [ecx+28]
	mulsd	xmm0, QWORD PTR __real@3ff8000000000000
	cvtsd2ss xmm0, xmm0
	movss	DWORD PTR _friction$[ebp], xmm0

; 1836 : 			control = speed < pmove->movevars->stopspeed ? pmove->movevars->stopspeed : speed;

	mov	edx, DWORD PTR ?pmove@@3PAUplayermove_s@@A ; pmove
	mov	eax, DWORD PTR [edx+324848]
	movss	xmm0, DWORD PTR [eax+4]
	comiss	xmm0, DWORD PTR _speed$[ebp]
	jbe	SHORT $LN20@PM_Spectat
	mov	ecx, DWORD PTR ?pmove@@3PAUplayermove_s@@A ; pmove
	mov	edx, DWORD PTR [ecx+324848]
	movss	xmm0, DWORD PTR [edx+4]
	movss	DWORD PTR tv83[ebp], xmm0
	jmp	SHORT $LN21@PM_Spectat
$LN20@PM_Spectat:
	movss	xmm0, DWORD PTR _speed$[ebp]
	movss	DWORD PTR tv83[ebp], xmm0
$LN21@PM_Spectat:
	movss	xmm0, DWORD PTR tv83[ebp]
	movss	DWORD PTR _control$[ebp], xmm0

; 1837 : 			drop += control*friction*pmove->frametime;

	movss	xmm0, DWORD PTR _control$[ebp]
	mulss	xmm0, DWORD PTR _friction$[ebp]
	mov	eax, DWORD PTR ?pmove@@3PAUplayermove_s@@A ; pmove
	mulss	xmm0, DWORD PTR [eax+16]
	addss	xmm0, DWORD PTR _drop$[ebp]
	movss	DWORD PTR _drop$[ebp], xmm0

; 1838 : 
; 1839 : 			// scale the velocity
; 1840 : 			newspeed = speed - drop;

	movss	xmm0, DWORD PTR _speed$[ebp]
	subss	xmm0, DWORD PTR _drop$[ebp]
	movss	DWORD PTR _newspeed$[ebp], xmm0

; 1841 : 			if (newspeed < 0)

	xorps	xmm0, xmm0
	comiss	xmm0, DWORD PTR _newspeed$[ebp]
	jbe	SHORT $LN12@PM_Spectat

; 1842 : 				newspeed = 0;

	xorps	xmm0, xmm0
	movss	DWORD PTR _newspeed$[ebp], xmm0
$LN12@PM_Spectat:

; 1843 : 			newspeed /= speed;

	movss	xmm0, DWORD PTR _newspeed$[ebp]
	divss	xmm0, DWORD PTR _speed$[ebp]
	movss	DWORD PTR _newspeed$[ebp], xmm0

; 1844 : 
; 1845 : 			pmove->velocity *= newspeed;

	push	ecx
	movss	xmm0, DWORD PTR _newspeed$[ebp]
	movss	DWORD PTR [esp], xmm0
	mov	ecx, DWORD PTR ?pmove@@3PAUplayermove_s@@A ; pmove
	add	ecx, 92					; 0000005cH
	call	??XVector@@QAEAAV0@M@Z			; Vector::operator*=
$LN11@PM_Spectat:

; 1846 : 		}
; 1847 : 
; 1848 : 		// accelerate
; 1849 : 		fmove = pmove->cmd.forwardmove;

	mov	ecx, DWORD PTR ?pmove@@3PAUplayermove_s@@A ; pmove
	movss	xmm0, DWORD PTR [ecx+283752]
	movss	DWORD PTR _fmove$[ebp], xmm0

; 1850 : 		smove = pmove->cmd.sidemove;

	mov	edx, DWORD PTR ?pmove@@3PAUplayermove_s@@A ; pmove
	movss	xmm0, DWORD PTR [edx+283756]
	movss	DWORD PTR _smove$[ebp], xmm0

; 1851 : 		
; 1852 : 		pmove->forward = pmove->forward.Normalize();

	lea	eax, DWORD PTR $T5[ebp]
	push	eax
	mov	ecx, DWORD PTR ?pmove@@3PAUplayermove_s@@A ; pmove
	add	ecx, 20					; 00000014H
	call	?Normalize@Vector@@QBE?AV1@XZ		; Vector::Normalize
	mov	ecx, DWORD PTR ?pmove@@3PAUplayermove_s@@A ; pmove
	add	ecx, 20					; 00000014H
	mov	edx, DWORD PTR [eax]
	mov	DWORD PTR [ecx], edx
	mov	edx, DWORD PTR [eax+4]
	mov	DWORD PTR [ecx+4], edx
	mov	eax, DWORD PTR [eax+8]
	mov	DWORD PTR [ecx+8], eax

; 1853 : 		pmove->right = pmove->right.Normalize();

	lea	ecx, DWORD PTR $T4[ebp]
	push	ecx
	mov	ecx, DWORD PTR ?pmove@@3PAUplayermove_s@@A ; pmove
	add	ecx, 32					; 00000020H
	call	?Normalize@Vector@@QBE?AV1@XZ		; Vector::Normalize
	mov	edx, DWORD PTR ?pmove@@3PAUplayermove_s@@A ; pmove
	add	edx, 32					; 00000020H
	mov	ecx, DWORD PTR [eax]
	mov	DWORD PTR [edx], ecx
	mov	ecx, DWORD PTR [eax+4]
	mov	DWORD PTR [edx+4], ecx
	mov	eax, DWORD PTR [eax+8]
	mov	DWORD PTR [edx+8], eax

; 1854 : 
; 1855 : 		for (i=0 ; i<3 ; i++)

	mov	DWORD PTR _i$[ebp], 0
	jmp	SHORT $LN4@PM_Spectat
$LN2@PM_Spectat:
	mov	ecx, DWORD PTR _i$[ebp]
	add	ecx, 1
	mov	DWORD PTR _i$[ebp], ecx
$LN4@PM_Spectat:
	cmp	DWORD PTR _i$[ebp], 3
	jge	SHORT $LN3@PM_Spectat

; 1856 : 		{
; 1857 : 			wishvel[i] = pmove->forward[i]*fmove + pmove->right[i]*smove;

	mov	ecx, DWORD PTR ?pmove@@3PAUplayermove_s@@A ; pmove
	add	ecx, 20					; 00000014H
	call	??BVector@@QAEPAMXZ			; Vector::operator float *
	mov	edx, DWORD PTR _i$[ebp]
	movss	xmm0, DWORD PTR [eax+edx*4]
	mulss	xmm0, DWORD PTR _fmove$[ebp]
	mov	ecx, DWORD PTR ?pmove@@3PAUplayermove_s@@A ; pmove
	add	ecx, 32					; 00000020H
	movss	DWORD PTR tv451[ebp], xmm0
	call	??BVector@@QAEPAMXZ			; Vector::operator float *
	mov	ecx, DWORD PTR _i$[ebp]
	movss	xmm0, DWORD PTR [eax+ecx*4]
	mulss	xmm0, DWORD PTR _smove$[ebp]
	movss	xmm1, DWORD PTR tv451[ebp]
	addss	xmm1, xmm0
	lea	ecx, DWORD PTR _wishvel$[ebp]
	movss	DWORD PTR tv453[ebp], xmm1
	call	??BVector@@QAEPAMXZ			; Vector::operator float *
	mov	edx, DWORD PTR _i$[ebp]
	movss	xmm0, DWORD PTR tv453[ebp]
	movss	DWORD PTR [eax+edx*4], xmm0

; 1858 : 		}

	jmp	SHORT $LN2@PM_Spectat
$LN3@PM_Spectat:

; 1859 : 		wishvel[2] += pmove->cmd.upmove;

	lea	ecx, DWORD PTR _wishvel$[ebp]
	call	??BVector@@QAEPAMXZ			; Vector::operator float *
	mov	ecx, 4
	shl	ecx, 1
	add	eax, ecx
	mov	DWORD PTR tv167[ebp], eax
	mov	edx, DWORD PTR tv167[ebp]
	mov	eax, DWORD PTR ?pmove@@3PAUplayermove_s@@A ; pmove
	movss	xmm0, DWORD PTR [edx]
	addss	xmm0, DWORD PTR [eax+283760]
	mov	ecx, DWORD PTR tv167[ebp]
	movss	DWORD PTR [ecx], xmm0

; 1860 : 
; 1861 : 		wishdir = wishvel;

	mov	edx, DWORD PTR _wishvel$[ebp]
	mov	DWORD PTR _wishdir$[ebp], edx
	mov	eax, DWORD PTR _wishvel$[ebp+4]
	mov	DWORD PTR _wishdir$[ebp+4], eax
	mov	ecx, DWORD PTR _wishvel$[ebp+8]
	mov	DWORD PTR _wishdir$[ebp+8], ecx

; 1862 : 		wishspeed = wishdir.Length();

	lea	ecx, DWORD PTR _wishdir$[ebp]
	call	?Length@Vector@@QBEMXZ			; Vector::Length
	fstp	DWORD PTR _wishspeed$[ebp]

; 1863 : 		wishdir = wishdir.Normalize();

	lea	edx, DWORD PTR $T3[ebp]
	push	edx
	lea	ecx, DWORD PTR _wishdir$[ebp]
	call	?Normalize@Vector@@QBE?AV1@XZ		; Vector::Normalize
	mov	ecx, DWORD PTR [eax]
	mov	DWORD PTR _wishdir$[ebp], ecx
	mov	edx, DWORD PTR [eax+4]
	mov	DWORD PTR _wishdir$[ebp+4], edx
	mov	eax, DWORD PTR [eax+8]
	mov	DWORD PTR _wishdir$[ebp+8], eax

; 1864 : 
; 1865 : 		//
; 1866 : 		// clamp to server defined max speed
; 1867 : 		//
; 1868 : 		if (wishspeed > pmove->movevars->spectatormaxspeed)

	mov	ecx, DWORD PTR ?pmove@@3PAUplayermove_s@@A ; pmove
	mov	edx, DWORD PTR [ecx+324848]
	movss	xmm0, DWORD PTR _wishspeed$[ebp]
	comiss	xmm0, DWORD PTR [edx+12]
	jbe	SHORT $LN13@PM_Spectat

; 1869 : 		{
; 1870 : 			wishvel *= ( pmove->movevars->spectatormaxspeed / wishspeed );

	mov	eax, DWORD PTR ?pmove@@3PAUplayermove_s@@A ; pmove
	mov	ecx, DWORD PTR [eax+324848]
	movss	xmm0, DWORD PTR [ecx+12]
	divss	xmm0, DWORD PTR _wishspeed$[ebp]
	push	ecx
	movss	DWORD PTR [esp], xmm0
	lea	ecx, DWORD PTR _wishvel$[ebp]
	call	??XVector@@QAEAAV0@M@Z			; Vector::operator*=

; 1871 : 			wishspeed = pmove->movevars->spectatormaxspeed;

	mov	edx, DWORD PTR ?pmove@@3PAUplayermove_s@@A ; pmove
	mov	eax, DWORD PTR [edx+324848]
	movss	xmm0, DWORD PTR [eax+12]
	movss	DWORD PTR _wishspeed$[ebp], xmm0
$LN13@PM_Spectat:

; 1872 : 		}
; 1873 : 
; 1874 : 		currentspeed = DotProduct(pmove->velocity, wishdir);

	lea	ecx, DWORD PTR _wishdir$[ebp]
	push	ecx
	mov	edx, DWORD PTR ?pmove@@3PAUplayermove_s@@A ; pmove
	add	edx, 92					; 0000005cH
	push	edx
	call	?DotProduct@@YAMABVVector@@0@Z		; DotProduct
	add	esp, 8
	fstp	DWORD PTR _currentspeed$[ebp]

; 1875 : 		addspeed = wishspeed - currentspeed;

	movss	xmm0, DWORD PTR _wishspeed$[ebp]
	subss	xmm0, DWORD PTR _currentspeed$[ebp]
	movss	DWORD PTR _addspeed$[ebp], xmm0

; 1876 : 		if (addspeed <= 0)

	xorps	xmm0, xmm0
	comiss	xmm0, DWORD PTR _addspeed$[ebp]
	jb	SHORT $LN14@PM_Spectat

; 1877 : 			return;

	jmp	$LN1@PM_Spectat
$LN14@PM_Spectat:

; 1878 : 
; 1879 : 		accelspeed = pmove->movevars->accelerate*pmove->frametime*wishspeed;

	mov	eax, DWORD PTR ?pmove@@3PAUplayermove_s@@A ; pmove
	mov	ecx, DWORD PTR [eax+324848]
	mov	edx, DWORD PTR ?pmove@@3PAUplayermove_s@@A ; pmove
	movss	xmm0, DWORD PTR [ecx+16]
	mulss	xmm0, DWORD PTR [edx+16]
	mulss	xmm0, DWORD PTR _wishspeed$[ebp]
	movss	DWORD PTR _accelspeed$[ebp], xmm0

; 1880 : 		if (accelspeed > addspeed)

	movss	xmm0, DWORD PTR _accelspeed$[ebp]
	comiss	xmm0, DWORD PTR _addspeed$[ebp]
	jbe	SHORT $LN15@PM_Spectat

; 1881 : 			accelspeed = addspeed;

	movss	xmm0, DWORD PTR _addspeed$[ebp]
	movss	DWORD PTR _accelspeed$[ebp], xmm0
$LN15@PM_Spectat:

; 1882 : 		
; 1883 : 		pmove->velocity += wishdir * accelspeed;	

	push	ecx
	movss	xmm0, DWORD PTR _accelspeed$[ebp]
	movss	DWORD PTR [esp], xmm0
	lea	eax, DWORD PTR $T2[ebp]
	push	eax
	lea	ecx, DWORD PTR _wishdir$[ebp]
	call	??DVector@@QBE?AV0@M@Z			; Vector::operator*
	push	eax
	mov	ecx, DWORD PTR ?pmove@@3PAUplayermove_s@@A ; pmove
	add	ecx, 92					; 0000005cH
	call	??YVector@@QAEAAV0@ABV0@@Z		; Vector::operator+=

; 1884 : 
; 1885 : 		// move
; 1886 : 		pmove->origin += pmove->velocity * pmove->frametime;

	mov	ecx, DWORD PTR ?pmove@@3PAUplayermove_s@@A ; pmove
	push	ecx
	movss	xmm0, DWORD PTR [ecx+16]
	movss	DWORD PTR [esp], xmm0
	lea	edx, DWORD PTR $T1[ebp]
	push	edx
	mov	ecx, DWORD PTR ?pmove@@3PAUplayermove_s@@A ; pmove
	add	ecx, 92					; 0000005cH
	call	??DVector@@QBE?AV0@M@Z			; Vector::operator*
	push	eax
	mov	ecx, DWORD PTR ?pmove@@3PAUplayermove_s@@A ; pmove
	add	ecx, 56					; 00000038H
	call	??YVector@@QAEAAV0@ABV0@@Z		; Vector::operator+=

; 1887 : 	}
; 1888 : 	else

	jmp	$LN9@PM_Spectat
$LN8@PM_Spectat:

; 1889 : 	{
; 1890 : 		// all other modes just track some kind of target, so spectator PVS = target PVS
; 1891 : 
; 1892 : 		int target;
; 1893 : 
; 1894 : 		// no valid target ?
; 1895 : 		if ( pmove->iuser2 <= 0)

	mov	eax, DWORD PTR ?pmove@@3PAUplayermove_s@@A ; pmove
	cmp	DWORD PTR [eax+512], 0
	jg	SHORT $LN16@PM_Spectat

; 1896 : 			return;

	jmp	$LN1@PM_Spectat
$LN16@PM_Spectat:

; 1897 : 
; 1898 : 		// Find the client this player's targeting
; 1899 : 		for (target = 0; target < pmove->numphysent; target++)

	mov	DWORD PTR _target$6[ebp], 0
	jmp	SHORT $LN7@PM_Spectat
$LN5@PM_Spectat:
	mov	ecx, DWORD PTR _target$6[ebp]
	add	ecx, 1
	mov	DWORD PTR _target$6[ebp], ecx
$LN7@PM_Spectat:
	mov	edx, DWORD PTR ?pmove@@3PAUplayermove_s@@A ; pmove
	mov	eax, DWORD PTR _target$6[ebp]
	cmp	eax, DWORD PTR [edx+588]
	jge	SHORT $LN6@PM_Spectat

; 1900 : 		{
; 1901 : 			if ( pmove->physents[target].info == pmove->iuser2 )

	imul	ecx, DWORD PTR _target$6[ebp], 224
	mov	edx, DWORD PTR ?pmove@@3PAUplayermove_s@@A ; pmove
	mov	eax, DWORD PTR ?pmove@@3PAUplayermove_s@@A ; pmove
	mov	ecx, DWORD PTR [edx+ecx+672]
	cmp	ecx, DWORD PTR [eax+512]
	jne	SHORT $LN17@PM_Spectat

; 1902 : 				break;

	jmp	SHORT $LN6@PM_Spectat
$LN17@PM_Spectat:

; 1903 : 		}

	jmp	SHORT $LN5@PM_Spectat
$LN6@PM_Spectat:

; 1904 : 
; 1905 : 		if (target == pmove->numphysent)

	mov	edx, DWORD PTR ?pmove@@3PAUplayermove_s@@A ; pmove
	mov	eax, DWORD PTR _target$6[ebp]
	cmp	eax, DWORD PTR [edx+588]
	jne	SHORT $LN18@PM_Spectat

; 1906 : 			return;

	jmp	SHORT $LN1@PM_Spectat
$LN18@PM_Spectat:

; 1907 : 
; 1908 : 		// use targets position as own origin for PVS
; 1909 : 		pmove->angles = pmove->physents[target].angles;

	imul	ecx, DWORD PTR _target$6[ebp], 224
	mov	edx, DWORD PTR ?pmove@@3PAUplayermove_s@@A ; pmove
	lea	eax, DWORD PTR [edx+ecx+676]
	mov	ecx, DWORD PTR ?pmove@@3PAUplayermove_s@@A ; pmove
	add	ecx, 68					; 00000044H
	mov	edx, DWORD PTR [eax]
	mov	DWORD PTR [ecx], edx
	mov	edx, DWORD PTR [eax+4]
	mov	DWORD PTR [ecx+4], edx
	mov	eax, DWORD PTR [eax+8]
	mov	DWORD PTR [ecx+8], eax

; 1910 : 		pmove->origin = pmove->physents[target].origin;

	imul	ecx, DWORD PTR _target$6[ebp], 224
	mov	edx, DWORD PTR ?pmove@@3PAUplayermove_s@@A ; pmove
	lea	eax, DWORD PTR [edx+ecx+628]
	mov	ecx, DWORD PTR ?pmove@@3PAUplayermove_s@@A ; pmove
	add	ecx, 56					; 00000038H
	mov	edx, DWORD PTR [eax]
	mov	DWORD PTR [ecx], edx
	mov	edx, DWORD PTR [eax+4]
	mov	DWORD PTR [ecx+4], edx
	mov	eax, DWORD PTR [eax+8]
	mov	DWORD PTR [ecx+8], eax

; 1911 : 
; 1912 : 		// no velocity
; 1913 : 		pmove->velocity = g_vecZero;

	mov	ecx, DWORD PTR ?pmove@@3PAUplayermove_s@@A ; pmove
	add	ecx, 92					; 0000005cH
	mov	edx, DWORD PTR ?g_vecZero@@3VVector@@B
	mov	DWORD PTR [ecx], edx
	mov	eax, DWORD PTR ?g_vecZero@@3VVector@@B+4
	mov	DWORD PTR [ecx+4], eax
	mov	edx, DWORD PTR ?g_vecZero@@3VVector@@B+8
	mov	DWORD PTR [ecx+8], edx
$LN9@PM_Spectat:
$LN1@PM_Spectat:

; 1914 : 	}
; 1915 : }

	mov	esp, ebp
	pop	ebp
	ret	0
?PM_SpectatorMove@@YAXXZ ENDP				; PM_SpectatorMove
_TEXT	ENDS
; Function compile flags: /Odtp
; File c:\users\user\downloads\xashxt_v0.81_rev.1_with_sources\xashxt_v0.81_rev.1_src\game_shared\playermove.cpp
_TEXT	SEGMENT
_traceresult$ = -172					; size = 68
$T1 = -104						; size = 12
$T2 = -92						; size = 12
_i$ = -80						; size = 4
_i$3 = -76						; size = 4
_offset$ = -72						; size = 12
_base$ = -60						; size = 12
_fTime$ = -48						; size = 4
_idx$ = -44						; size = 4
tv165 = -40						; size = 4
tv90 = -36						; size = 4
_nReps$4 = -32						; size = 4
_z$5 = -28						; size = 4
_y$6 = -24						; size = 4
_x$7 = -20						; size = 4
_test$ = -16						; size = 12
_hitent$ = -4						; size = 4
?PM_CheckStuck@@YAHXZ PROC				; PM_CheckStuck

; 1703 : {

	push	ebp
	mov	ebp, esp
	sub	esp, 172				; 000000acH

; 1704 : 	pmtrace_t traceresult;

	lea	ecx, DWORD PTR _traceresult$[ebp]
	call	??0pmtrace_s@@QAE@XZ

; 1705 : 
; 1706 : 	// If position is okay, exit
; 1707 : 	int hitent = pmove->PM_TestPlayerPosition( pmove->origin, &traceresult );

	lea	eax, DWORD PTR _traceresult$[ebp]
	push	eax
	mov	ecx, DWORD PTR ?pmove@@3PAUplayermove_s@@A ; pmove
	add	ecx, 56					; 00000038H
	call	??BVector@@QAEPAMXZ			; Vector::operator float *
	push	eax
	mov	ecx, DWORD PTR ?pmove@@3PAUplayermove_s@@A ; pmove
	mov	edx, DWORD PTR [ecx+324956]
	call	edx
	add	esp, 8
	mov	DWORD PTR _hitent$[ebp], eax

; 1708 : 
; 1709 : 	if( hitent == -1 )

	cmp	DWORD PTR _hitent$[ebp], -1
	jne	SHORT $LN14@PM_CheckSt

; 1710 : 	{
; 1711 : 		PM_ResetStuckOffsets( pmove->player_index, pmove->server );

	mov	eax, DWORD PTR ?pmove@@3PAUplayermove_s@@A ; pmove
	mov	ecx, DWORD PTR [eax+4]
	push	ecx
	mov	edx, DWORD PTR ?pmove@@3PAUplayermove_s@@A ; pmove
	mov	eax, DWORD PTR [edx]
	push	eax
	call	?PM_ResetStuckOffsets@@YAXHH@Z		; PM_ResetStuckOffsets
	add	esp, 8

; 1712 : 		return 0;

	xor	eax, eax
	jmp	$LN1@PM_CheckSt
$LN14@PM_CheckSt:

; 1713 : 	}
; 1714 : 
; 1715 : 	Vector base = pmove->origin;

	mov	ecx, DWORD PTR ?pmove@@3PAUplayermove_s@@A ; pmove
	add	ecx, 56					; 00000038H
	push	ecx
	lea	ecx, DWORD PTR _base$[ebp]
	call	??0Vector@@QAE@ABV0@@Z			; Vector::Vector

; 1716 : 	Vector offset, test;

	lea	ecx, DWORD PTR _offset$[ebp]
	call	??0Vector@@QAE@XZ			; Vector::Vector
	lea	ecx, DWORD PTR _test$[ebp]
	call	??0Vector@@QAE@XZ			; Vector::Vector

; 1717 : 
; 1718 : 	// Deal with precision error in network or stuck with physics body
; 1719 : 	if( !pmove->server || pmove->physents[hitent].solid == SOLID_CUSTOM )

	mov	edx, DWORD PTR ?pmove@@3PAUplayermove_s@@A ; pmove
	cmp	DWORD PTR [edx+4], 0
	je	SHORT $LN16@PM_CheckSt
	imul	eax, DWORD PTR _hitent$[ebp], 224
	mov	ecx, DWORD PTR ?pmove@@3PAUplayermove_s@@A ; pmove
	cmp	DWORD PTR [ecx+eax+688], 5
	jne	$LN3@PM_CheckSt
$LN16@PM_CheckSt:

; 1720 : 	{
; 1721 : 		// world, BSP model or custom convex hull
; 1722 : 		if(( !hitent == 0 ) || pmove->physents[hitent].model || pmove->physents[hitent].solid == SOLID_CUSTOM )

	cmp	DWORD PTR _hitent$[ebp], 0
	jne	SHORT $LN25@PM_CheckSt
	mov	DWORD PTR tv90[ebp], 1
	jmp	SHORT $LN26@PM_CheckSt
$LN25@PM_CheckSt:
	mov	DWORD PTR tv90[ebp], 0
$LN26@PM_CheckSt:
	cmp	DWORD PTR tv90[ebp], 0
	je	SHORT $LN18@PM_CheckSt
	imul	edx, DWORD PTR _hitent$[ebp], 224
	mov	eax, DWORD PTR ?pmove@@3PAUplayermove_s@@A ; pmove
	cmp	DWORD PTR [eax+edx+640], 0
	jne	SHORT $LN18@PM_CheckSt
	imul	ecx, DWORD PTR _hitent$[ebp], 224
	mov	edx, DWORD PTR ?pmove@@3PAUplayermove_s@@A ; pmove
	cmp	DWORD PTR [edx+ecx+688], 5
	jne	$LN3@PM_CheckSt
$LN18@PM_CheckSt:

; 1723 : 		{
; 1724 : 			int nReps = 0;

	mov	DWORD PTR _nReps$4[ebp], 0

; 1725 : 			PM_ResetStuckOffsets( pmove->player_index, pmove->server );

	mov	eax, DWORD PTR ?pmove@@3PAUplayermove_s@@A ; pmove
	mov	ecx, DWORD PTR [eax+4]
	push	ecx
	mov	edx, DWORD PTR ?pmove@@3PAUplayermove_s@@A ; pmove
	mov	eax, DWORD PTR [edx]
	push	eax
	call	?PM_ResetStuckOffsets@@YAXHH@Z		; PM_ResetStuckOffsets
	add	esp, 8
$LN4@PM_CheckSt:

; 1726 : 
; 1727 : 			do 
; 1728 : 			{
; 1729 : 				int i = PM_GetRandomStuckOffsets( pmove->player_index, pmove->server, offset );

	lea	ecx, DWORD PTR _offset$[ebp]
	push	ecx
	mov	edx, DWORD PTR ?pmove@@3PAUplayermove_s@@A ; pmove
	mov	eax, DWORD PTR [edx+4]
	push	eax
	mov	ecx, DWORD PTR ?pmove@@3PAUplayermove_s@@A ; pmove
	mov	edx, DWORD PTR [ecx]
	push	edx
	call	?PM_GetRandomStuckOffsets@@YAHHHAAVVector@@@Z ; PM_GetRandomStuckOffsets
	add	esp, 12					; 0000000cH
	mov	DWORD PTR _i$3[ebp], eax

; 1730 : 				test = base + offset;

	lea	eax, DWORD PTR _offset$[ebp]
	push	eax
	lea	ecx, DWORD PTR $T2[ebp]
	push	ecx
	lea	ecx, DWORD PTR _base$[ebp]
	call	??HVector@@QBE?AV0@ABV0@@Z		; Vector::operator+
	mov	edx, DWORD PTR [eax]
	mov	DWORD PTR _test$[ebp], edx
	mov	ecx, DWORD PTR [eax+4]
	mov	DWORD PTR _test$[ebp+4], ecx
	mov	edx, DWORD PTR [eax+8]
	mov	DWORD PTR _test$[ebp+8], edx

; 1731 : 
; 1732 : 				if( pmove->PM_TestPlayerPosition( test, &traceresult ) == -1 )

	lea	eax, DWORD PTR _traceresult$[ebp]
	push	eax
	lea	ecx, DWORD PTR _test$[ebp]
	call	??BVector@@QAEPAMXZ			; Vector::operator float *
	push	eax
	mov	ecx, DWORD PTR ?pmove@@3PAUplayermove_s@@A ; pmove
	mov	edx, DWORD PTR [ecx+324956]
	call	edx
	add	esp, 8
	cmp	eax, -1
	jne	SHORT $LN19@PM_CheckSt

; 1733 : 				{
; 1734 : 					PM_ResetStuckOffsets( pmove->player_index, pmove->server );

	mov	eax, DWORD PTR ?pmove@@3PAUplayermove_s@@A ; pmove
	mov	ecx, DWORD PTR [eax+4]
	push	ecx
	mov	edx, DWORD PTR ?pmove@@3PAUplayermove_s@@A ; pmove
	mov	eax, DWORD PTR [edx]
	push	eax
	call	?PM_ResetStuckOffsets@@YAXHH@Z		; PM_ResetStuckOffsets
	add	esp, 8

; 1735 : //					pmove->Con_Printf( "Unstick by %i\n", i );
; 1736 : 					pmove->origin = test;

	mov	ecx, DWORD PTR ?pmove@@3PAUplayermove_s@@A ; pmove
	add	ecx, 56					; 00000038H
	mov	edx, DWORD PTR _test$[ebp]
	mov	DWORD PTR [ecx], edx
	mov	eax, DWORD PTR _test$[ebp+4]
	mov	DWORD PTR [ecx+4], eax
	mov	edx, DWORD PTR _test$[ebp+8]
	mov	DWORD PTR [ecx+8], edx

; 1737 : 
; 1738 : 					return 0;

	xor	eax, eax
	jmp	$LN1@PM_CheckSt
$LN19@PM_CheckSt:

; 1739 : 				}
; 1740 : 			} while( ++nReps < 54 );

	mov	eax, DWORD PTR _nReps$4[ebp]
	add	eax, 1
	mov	DWORD PTR _nReps$4[ebp], eax
	cmp	DWORD PTR _nReps$4[ebp], 54		; 00000036H
	jl	$LN4@PM_CheckSt
$LN3@PM_CheckSt:

; 1741 : 		}
; 1742 : 	}
; 1743 : 
; 1744 : 	// only an issue on the client.
; 1745 : 	int idx = (pmove->server) ? 0 : 1;

	mov	ecx, DWORD PTR ?pmove@@3PAUplayermove_s@@A ; pmove
	cmp	DWORD PTR [ecx+4], 0
	je	SHORT $LN27@PM_CheckSt
	mov	DWORD PTR tv165[ebp], 0
	jmp	SHORT $LN28@PM_CheckSt
$LN27@PM_CheckSt:
	mov	DWORD PTR tv165[ebp], 1
$LN28@PM_CheckSt:
	mov	edx, DWORD PTR tv165[ebp]
	mov	DWORD PTR _idx$[ebp], edx

; 1746 : 	float fTime = pmove->Sys_FloatTime();

	mov	eax, DWORD PTR ?pmove@@3PAUplayermove_s@@A ; pmove
	mov	ecx, DWORD PTR [eax+324972]
	call	ecx
	fstp	DWORD PTR _fTime$[ebp]

; 1747 : 
; 1748 : 	// too soon?
; 1749 : 	if( rgStuckCheckTime[pmove->player_index][idx] >= ( fTime - PM_CHECKSTUCK_MINTIME ))

	mov	edx, DWORD PTR ?pmove@@3PAUplayermove_s@@A ; pmove
	mov	eax, DWORD PTR [edx]
	mov	ecx, DWORD PTR _idx$[ebp]
	shl	ecx, 2
	movss	xmm0, DWORD PTR _fTime$[ebp]
	subss	xmm0, DWORD PTR __real@3d4ccccd
	movss	xmm1, DWORD PTR ?rgStuckCheckTime@@3PAY01MA[ecx+eax*8]
	comiss	xmm1, xmm0
	jb	SHORT $LN20@PM_CheckSt

; 1750 : 	{
; 1751 : 		// can't move we're stuck!
; 1752 : 		pmove->flags |= FL_STUCKED;

	mov	edx, DWORD PTR ?pmove@@3PAUplayermove_s@@A ; pmove
	mov	eax, DWORD PTR [edx+184]
	or	eax, 134217728				; 08000000H
	mov	ecx, DWORD PTR ?pmove@@3PAUplayermove_s@@A ; pmove
	mov	DWORD PTR [ecx+184], eax

; 1753 : 		return 1;

	mov	eax, 1
	jmp	$LN1@PM_CheckSt
$LN20@PM_CheckSt:

; 1754 : 	}
; 1755 : 
; 1756 : 	rgStuckCheckTime[pmove->player_index][idx] = fTime;

	mov	edx, DWORD PTR ?pmove@@3PAUplayermove_s@@A ; pmove
	mov	eax, DWORD PTR [edx]
	mov	ecx, DWORD PTR _idx$[ebp]
	shl	ecx, 2
	movss	xmm0, DWORD PTR _fTime$[ebp]
	movss	DWORD PTR ?rgStuckCheckTime@@3PAY01MA[ecx+eax*8], xmm0

; 1757 : 	pmove->PM_StuckTouch( hitent, &traceresult );

	lea	edx, DWORD PTR _traceresult$[ebp]
	push	edx
	mov	eax, DWORD PTR _hitent$[ebp]
	push	eax
	mov	ecx, DWORD PTR ?pmove@@3PAUplayermove_s@@A ; pmove
	mov	edx, DWORD PTR [ecx+324976]
	call	edx
	add	esp, 8

; 1758 : 
; 1759 : 	int i = PM_GetRandomStuckOffsets( pmove->player_index, pmove->server, offset );

	lea	eax, DWORD PTR _offset$[ebp]
	push	eax
	mov	ecx, DWORD PTR ?pmove@@3PAUplayermove_s@@A ; pmove
	mov	edx, DWORD PTR [ecx+4]
	push	edx
	mov	eax, DWORD PTR ?pmove@@3PAUplayermove_s@@A ; pmove
	mov	ecx, DWORD PTR [eax]
	push	ecx
	call	?PM_GetRandomStuckOffsets@@YAHHHAAVVector@@@Z ; PM_GetRandomStuckOffsets
	add	esp, 12					; 0000000cH
	mov	DWORD PTR _i$[ebp], eax

; 1760 : 	test = base + offset;

	lea	edx, DWORD PTR _offset$[ebp]
	push	edx
	lea	eax, DWORD PTR $T1[ebp]
	push	eax
	lea	ecx, DWORD PTR _base$[ebp]
	call	??HVector@@QBE?AV0@ABV0@@Z		; Vector::operator+
	mov	ecx, DWORD PTR [eax]
	mov	DWORD PTR _test$[ebp], ecx
	mov	edx, DWORD PTR [eax+4]
	mov	DWORD PTR _test$[ebp+4], edx
	mov	eax, DWORD PTR [eax+8]
	mov	DWORD PTR _test$[ebp+8], eax

; 1761 : 
; 1762 : 	if(( hitent = pmove->PM_TestPlayerPosition( test, NULL )) == -1 )

	push	0
	lea	ecx, DWORD PTR _test$[ebp]
	call	??BVector@@QAEPAMXZ			; Vector::operator float *
	push	eax
	mov	ecx, DWORD PTR ?pmove@@3PAUplayermove_s@@A ; pmove
	mov	edx, DWORD PTR [ecx+324956]
	call	edx
	add	esp, 8
	mov	DWORD PTR _hitent$[ebp], eax
	cmp	DWORD PTR _hitent$[ebp], -1
	jne	SHORT $LN21@PM_CheckSt

; 1763 : 	{
; 1764 : 		PM_ResetStuckOffsets( pmove->player_index, pmove->server );

	mov	eax, DWORD PTR ?pmove@@3PAUplayermove_s@@A ; pmove
	mov	ecx, DWORD PTR [eax+4]
	push	ecx
	mov	edx, DWORD PTR ?pmove@@3PAUplayermove_s@@A ; pmove
	mov	eax, DWORD PTR [edx]
	push	eax
	call	?PM_ResetStuckOffsets@@YAXHH@Z		; PM_ResetStuckOffsets
	add	esp, 8

; 1765 : 		pmove->origin = test;

	mov	ecx, DWORD PTR ?pmove@@3PAUplayermove_s@@A ; pmove
	add	ecx, 56					; 00000038H
	mov	edx, DWORD PTR _test$[ebp]
	mov	DWORD PTR [ecx], edx
	mov	eax, DWORD PTR _test$[ebp+4]
	mov	DWORD PTR [ecx+4], eax
	mov	edx, DWORD PTR _test$[ebp+8]
	mov	DWORD PTR [ecx+8], edx

; 1766 : 
; 1767 : 		return 0;

	xor	eax, eax
	jmp	$LN1@PM_CheckSt
$LN21@PM_CheckSt:

; 1768 : 	}
; 1769 : 
; 1770 : 	// If player is flailing while stuck in another player ( should never happen ), then see
; 1771 : 	// if we can't "unstick" them forceably.
; 1772 : 	if( pmove->cmd.buttons & ( IN_JUMP|IN_DUCK|IN_ATTACK ) && pmove->physents[hitent].player )

	mov	eax, DWORD PTR ?pmove@@3PAUplayermove_s@@A ; pmove
	movzx	ecx, WORD PTR [eax+283766]
	and	ecx, 7
	je	$LN6@PM_CheckSt
	imul	edx, DWORD PTR _hitent$[ebp], 224
	mov	eax, DWORD PTR ?pmove@@3PAUplayermove_s@@A ; pmove
	cmp	DWORD PTR [eax+edx+624], 0
	je	$LN6@PM_CheckSt

; 1773 : 	{
; 1774 : 		for( float z = 0; z <= (4 * pmove->movevars->stepsize); z += pmove->movevars->stepsize )

	xorps	xmm0, xmm0
	movss	DWORD PTR _z$5[ebp], xmm0
	jmp	SHORT $LN7@PM_CheckSt
$LN5@PM_CheckSt:
	mov	ecx, DWORD PTR ?pmove@@3PAUplayermove_s@@A ; pmove
	mov	edx, DWORD PTR [ecx+324848]
	movss	xmm0, DWORD PTR _z$5[ebp]
	addss	xmm0, DWORD PTR [edx+48]
	movss	DWORD PTR _z$5[ebp], xmm0
$LN7@PM_CheckSt:
	mov	eax, DWORD PTR ?pmove@@3PAUplayermove_s@@A ; pmove
	mov	ecx, DWORD PTR [eax+324848]
	movss	xmm0, DWORD PTR __real@40800000
	mulss	xmm0, DWORD PTR [ecx+48]
	comiss	xmm0, DWORD PTR _z$5[ebp]
	jb	$LN6@PM_CheckSt

; 1775 : 		{
; 1776 : 			for( float x = -8.0f; x <= 8.0f; x += 8.0f )

	movss	xmm0, DWORD PTR __real@c1000000
	movss	DWORD PTR _x$7[ebp], xmm0
	jmp	SHORT $LN10@PM_CheckSt
$LN8@PM_CheckSt:
	movss	xmm0, DWORD PTR _x$7[ebp]
	addss	xmm0, DWORD PTR __real@41000000
	movss	DWORD PTR _x$7[ebp], xmm0
$LN10@PM_CheckSt:
	movss	xmm0, DWORD PTR __real@41000000
	comiss	xmm0, DWORD PTR _x$7[ebp]
	jb	$LN9@PM_CheckSt

; 1777 : 			{
; 1778 : 				for( float y = -8.0f; y <= 8.0f; y += 8.0f )

	movss	xmm0, DWORD PTR __real@c1000000
	movss	DWORD PTR _y$6[ebp], xmm0
	jmp	SHORT $LN13@PM_CheckSt
$LN11@PM_CheckSt:
	movss	xmm0, DWORD PTR _y$6[ebp]
	addss	xmm0, DWORD PTR __real@41000000
	movss	DWORD PTR _y$6[ebp], xmm0
$LN13@PM_CheckSt:
	movss	xmm0, DWORD PTR __real@41000000
	comiss	xmm0, DWORD PTR _y$6[ebp]
	jb	$LN12@PM_CheckSt

; 1779 : 				{
; 1780 : 					test = base;

	mov	edx, DWORD PTR _base$[ebp]
	mov	DWORD PTR _test$[ebp], edx
	mov	eax, DWORD PTR _base$[ebp+4]
	mov	DWORD PTR _test$[ebp+4], eax
	mov	ecx, DWORD PTR _base$[ebp+8]
	mov	DWORD PTR _test$[ebp+8], ecx

; 1781 : 					test.x += x;

	movss	xmm0, DWORD PTR _test$[ebp]
	addss	xmm0, DWORD PTR _x$7[ebp]
	movss	DWORD PTR _test$[ebp], xmm0

; 1782 : 					test.y += y;

	movss	xmm0, DWORD PTR _test$[ebp+4]
	addss	xmm0, DWORD PTR _y$6[ebp]
	movss	DWORD PTR _test$[ebp+4], xmm0

; 1783 : 					test.z += z;

	movss	xmm0, DWORD PTR _test$[ebp+8]
	addss	xmm0, DWORD PTR _z$5[ebp]
	movss	DWORD PTR _test$[ebp+8], xmm0

; 1784 : 
; 1785 : 					if( pmove->PM_TestPlayerPosition( test, NULL ) == -1 )

	push	0
	lea	ecx, DWORD PTR _test$[ebp]
	call	??BVector@@QAEPAMXZ			; Vector::operator float *
	push	eax
	mov	edx, DWORD PTR ?pmove@@3PAUplayermove_s@@A ; pmove
	mov	eax, DWORD PTR [edx+324956]
	call	eax
	add	esp, 8
	cmp	eax, -1
	jne	SHORT $LN23@PM_CheckSt

; 1786 : 					{
; 1787 : 						pmove->origin = test;

	mov	ecx, DWORD PTR ?pmove@@3PAUplayermove_s@@A ; pmove
	add	ecx, 56					; 00000038H
	mov	edx, DWORD PTR _test$[ebp]
	mov	DWORD PTR [ecx], edx
	mov	eax, DWORD PTR _test$[ebp+4]
	mov	DWORD PTR [ecx+4], eax
	mov	edx, DWORD PTR _test$[ebp+8]
	mov	DWORD PTR [ecx+8], edx

; 1788 : 						return 0;

	xor	eax, eax
	jmp	SHORT $LN1@PM_CheckSt
$LN23@PM_CheckSt:

; 1789 : 					}
; 1790 : 				}

	jmp	$LN11@PM_CheckSt
$LN12@PM_CheckSt:

; 1791 : 			}

	jmp	$LN8@PM_CheckSt
$LN9@PM_CheckSt:

; 1792 : 		}

	jmp	$LN5@PM_CheckSt
$LN6@PM_CheckSt:

; 1793 : 	}
; 1794 : 
; 1795 : 	// can't move we're stuck!
; 1796 : 	pmove->flags |= FL_STUCKED;

	mov	eax, DWORD PTR ?pmove@@3PAUplayermove_s@@A ; pmove
	mov	ecx, DWORD PTR [eax+184]
	or	ecx, 134217728				; 08000000H
	mov	edx, DWORD PTR ?pmove@@3PAUplayermove_s@@A ; pmove
	mov	DWORD PTR [edx+184], ecx

; 1797 : 
; 1798 : 	return 1;

	mov	eax, 1
$LN1@PM_CheckSt:

; 1799 : }

	mov	esp, ebp
	pop	ebp
	ret	0
?PM_CheckStuck@@YAHXZ ENDP				; PM_CheckStuck
_TEXT	ENDS
; Function compile flags: /Odtp
; File c:\users\user\downloads\xashxt_v0.81_rev.1_with_sources\xashxt_v0.81_rev.1_src\game_shared\playermove.cpp
_TEXT	SEGMENT
_nIndex$ = 8						; size = 4
_server$ = 12						; size = 4
?PM_ResetStuckOffsets@@YAXHH@Z PROC			; PM_ResetStuckOffsets

; 1689 : {

	push	ebp
	mov	ebp, esp

; 1690 : 	rgStuckLast[nIndex][server] = 0;

	mov	eax, DWORD PTR _server$[ebp]
	shl	eax, 2
	mov	ecx, DWORD PTR _nIndex$[ebp]
	mov	DWORD PTR ?rgStuckLast@@3PAY01HA[eax+ecx*8], 0

; 1691 : }

	pop	ebp
	ret	0
?PM_ResetStuckOffsets@@YAXHH@Z ENDP			; PM_ResetStuckOffsets
_TEXT	ENDS
; Function compile flags: /Odtp
; File c:\users\user\downloads\xashxt_v0.81_rev.1_with_sources\xashxt_v0.81_rev.1_src\game_shared\playermove.cpp
_TEXT	SEGMENT
_idx$ = -4						; size = 4
_nIndex$ = 8						; size = 4
_server$ = 12						; size = 4
_offset$ = 16						; size = 4
?PM_GetRandomStuckOffsets@@YAHHHAAVVector@@@Z PROC	; PM_GetRandomStuckOffsets

; 1680 : {

	push	ebp
	mov	ebp, esp
	push	ecx

; 1681 : 	// last time we did a full
; 1682 : 	int idx = rgStuckLast[nIndex][server]++;

	mov	eax, DWORD PTR _server$[ebp]
	shl	eax, 2
	mov	ecx, DWORD PTR _nIndex$[ebp]
	mov	edx, DWORD PTR ?rgStuckLast@@3PAY01HA[eax+ecx*8]
	mov	DWORD PTR _idx$[ebp], edx
	mov	eax, DWORD PTR _server$[ebp]
	shl	eax, 2
	mov	ecx, DWORD PTR _nIndex$[ebp]
	mov	edx, DWORD PTR ?rgStuckLast@@3PAY01HA[eax+ecx*8]
	add	edx, 1
	mov	eax, DWORD PTR _server$[ebp]
	shl	eax, 2
	mov	ecx, DWORD PTR _nIndex$[ebp]
	mov	DWORD PTR ?rgStuckLast@@3PAY01HA[eax+ecx*8], edx

; 1683 : 	offset = rgv3tStuckTable[idx % 54];

	mov	eax, DWORD PTR _idx$[ebp]
	cdq
	mov	ecx, 54					; 00000036H
	idiv	ecx
	imul	edx, edx, 12
	add	edx, OFFSET ?rgv3tStuckTable@@3PAVVector@@A
	mov	eax, DWORD PTR _offset$[ebp]
	mov	ecx, DWORD PTR [edx]
	mov	DWORD PTR [eax], ecx
	mov	ecx, DWORD PTR [edx+4]
	mov	DWORD PTR [eax+4], ecx
	mov	edx, DWORD PTR [edx+8]
	mov	DWORD PTR [eax+8], edx

; 1684 : 
; 1685 : 	return (idx % 54);

	mov	eax, DWORD PTR _idx$[ebp]
	cdq
	mov	ecx, 54					; 00000036H
	idiv	ecx
	mov	eax, edx

; 1686 : }

	mov	esp, ebp
	pop	ebp
	ret	0
?PM_GetRandomStuckOffsets@@YAHHHAAVVector@@@Z ENDP	; PM_GetRandomStuckOffsets
_TEXT	ENDS
; Function compile flags: /Odtp
; File c:\users\user\downloads\xashxt_v0.81_rev.1_with_sources\xashxt_v0.81_rev.1_src\game_shared\playermove.cpp
_TEXT	SEGMENT
$T1 = -220						; size = 68
$T2 = -152						; size = 68
_tr$ = -84						; size = 68
_point$ = -16						; size = 12
tv243 = -4						; size = 4
?PM_CatagorizePosition@@YAXXZ PROC			; PM_CatagorizePosition

; 1619 : {

	push	ebp
	mov	ebp, esp
	sub	esp, 220				; 000000dcH
	push	esi
	push	edi

; 1620 : 	Vector		point;

	lea	ecx, DWORD PTR _point$[ebp]
	call	??0Vector@@QAE@XZ			; Vector::Vector

; 1621 : 	pmtrace_t		tr;

	lea	ecx, DWORD PTR _tr$[ebp]
	call	??0pmtrace_s@@QAE@XZ

; 1622 : 
; 1623 : // if the player hull point one unit down is solid, the player
; 1624 : // is on ground
; 1625 : 
; 1626 : // see if standing on something solid	
; 1627 : 
; 1628 : 	// Doing this before we move may introduce a potential latency in water detection, but
; 1629 : 	// doing it after can get us stuck on the bottom in water if the amount we move up
; 1630 : 	// is less than the 1 pixel 'threshold' we're about to snap to.	Also, we'll call
; 1631 : 	// this several times per frame, so we really need to avoid sticking to the bottom of
; 1632 : 	// water on each call, and the converse case will correct itself if called twice.
; 1633 : 	PM_CheckWater();

	call	?PM_CheckWater@@YAHXZ			; PM_CheckWater

; 1634 : 
; 1635 : 	point[0] = pmove->origin[0];

	mov	ecx, DWORD PTR ?pmove@@3PAUplayermove_s@@A ; pmove
	add	ecx, 56					; 00000038H
	call	??BVector@@QAEPAMXZ			; Vector::operator float *
	mov	esi, eax
	mov	eax, 4
	imul	edi, eax, 0
	lea	ecx, DWORD PTR _point$[ebp]
	call	??BVector@@QAEPAMXZ			; Vector::operator float *
	mov	ecx, 4
	imul	edx, ecx, 0
	mov	ecx, DWORD PTR [esi+edi]
	mov	DWORD PTR [eax+edx], ecx

; 1636 : 	point[1] = pmove->origin[1];

	mov	ecx, DWORD PTR ?pmove@@3PAUplayermove_s@@A ; pmove
	add	ecx, 56					; 00000038H
	call	??BVector@@QAEPAMXZ			; Vector::operator float *
	mov	esi, eax
	mov	edi, 4
	shl	edi, 0
	lea	ecx, DWORD PTR _point$[ebp]
	call	??BVector@@QAEPAMXZ			; Vector::operator float *
	mov	edx, 4
	shl	edx, 0
	mov	ecx, DWORD PTR [esi+edi]
	mov	DWORD PTR [eax+edx], ecx

; 1637 : 	point[2] = pmove->origin[2] - 2;

	mov	ecx, DWORD PTR ?pmove@@3PAUplayermove_s@@A ; pmove
	add	ecx, 56					; 00000038H
	call	??BVector@@QAEPAMXZ			; Vector::operator float *
	mov	edx, 4
	shl	edx, 1
	movss	xmm0, DWORD PTR [eax+edx]
	subss	xmm0, DWORD PTR __real@40000000
	lea	ecx, DWORD PTR _point$[ebp]
	movss	DWORD PTR tv243[ebp], xmm0
	call	??BVector@@QAEPAMXZ			; Vector::operator float *
	mov	ecx, 4
	shl	ecx, 1
	movss	xmm0, DWORD PTR tv243[ebp]
	movss	DWORD PTR [eax+ecx], xmm0

; 1638 : 
; 1639 : 	if (pmove->velocity[2] > 180)   // Shooting up really fast.  Definitely not on ground.

	mov	ecx, DWORD PTR ?pmove@@3PAUplayermove_s@@A ; pmove
	add	ecx, 92					; 0000005cH
	call	??BVector@@QAEPAMXZ			; Vector::operator float *
	mov	edx, 4
	shl	edx, 1
	movss	xmm0, DWORD PTR [eax+edx]
	comiss	xmm0, DWORD PTR __real@43340000
	jbe	SHORT $LN2@PM_Catagor

; 1640 : 	{
; 1641 : 		pmove->onground = -1;

	mov	eax, DWORD PTR ?pmove@@3PAUplayermove_s@@A ; pmove
	mov	DWORD PTR [eax+224], -1

; 1642 : 	}
; 1643 : 	else

	jmp	$LN8@PM_Catagor
$LN2@PM_Catagor:

; 1644 : 	{
; 1645 : 		// Try and move down.
; 1646 : 		tr = pmove->PM_PlayerTrace (pmove->origin, point, PM_NORMAL, -1 );

	push	-1
	push	0
	lea	ecx, DWORD PTR _point$[ebp]
	call	??BVector@@QAEPAMXZ			; Vector::operator float *
	push	eax
	mov	ecx, DWORD PTR ?pmove@@3PAUplayermove_s@@A ; pmove
	add	ecx, 56					; 00000038H
	call	??BVector@@QAEPAMXZ			; Vector::operator float *
	push	eax
	lea	ecx, DWORD PTR $T1[ebp]
	push	ecx
	mov	edx, DWORD PTR ?pmove@@3PAUplayermove_s@@A ; pmove
	mov	eax, DWORD PTR [edx+324992]
	call	eax
	add	esp, 20					; 00000014H
	mov	ecx, 17					; 00000011H
	mov	esi, eax
	lea	edi, DWORD PTR $T2[ebp]
	rep movsd
	mov	ecx, 17					; 00000011H
	lea	esi, DWORD PTR $T2[ebp]
	lea	edi, DWORD PTR _tr$[ebp]
	rep movsd

; 1647 : 		// If we hit a steep plane, we are not on ground
; 1648 : 		if ( tr.plane.normal[2] < 0.7)

	lea	ecx, DWORD PTR _tr$[ebp+32]
	call	??BVector@@QAEPAMXZ			; Vector::operator float *
	mov	ecx, 4
	shl	ecx, 1
	cvtss2sd xmm0, DWORD PTR [eax+ecx]
	movsd	xmm1, QWORD PTR __real@3fe6666666666666
	comisd	xmm1, xmm0
	jbe	SHORT $LN4@PM_Catagor

; 1649 : 			pmove->onground = -1;	// too steep

	mov	edx, DWORD PTR ?pmove@@3PAUplayermove_s@@A ; pmove
	mov	DWORD PTR [edx+224], -1

; 1650 : 		else

	jmp	SHORT $LN5@PM_Catagor
$LN4@PM_Catagor:

; 1651 : 			pmove->onground = tr.ent;  // Otherwise, point to index of ent under us.

	mov	eax, DWORD PTR ?pmove@@3PAUplayermove_s@@A ; pmove
	mov	ecx, DWORD PTR _tr$[ebp+48]
	mov	DWORD PTR [eax+224], ecx
$LN5@PM_Catagor:

; 1652 : 
; 1653 : 		// If we are on something...
; 1654 : 		if (pmove->onground != -1)

	mov	edx, DWORD PTR ?pmove@@3PAUplayermove_s@@A ; pmove
	cmp	DWORD PTR [edx+224], -1
	je	SHORT $LN7@PM_Catagor

; 1655 : 		{
; 1656 : 			// Then we are not in water jump sequence
; 1657 : 			pmove->waterjumptime = 0;

	mov	eax, DWORD PTR ?pmove@@3PAUplayermove_s@@A ; pmove
	xorps	xmm0, xmm0
	movss	DWORD PTR [eax+204], xmm0

; 1658 : 			// If we could make the move, drop us down that 1 pixel
; 1659 : 			if (pmove->waterlevel < 2 && !tr.startsolid && !tr.allsolid)

	mov	ecx, DWORD PTR ?pmove@@3PAUplayermove_s@@A ; pmove
	cmp	DWORD PTR [ecx+228], 2
	jge	SHORT $LN7@PM_Catagor
	cmp	DWORD PTR _tr$[ebp+4], 0
	jne	SHORT $LN7@PM_Catagor
	cmp	DWORD PTR _tr$[ebp], 0
	jne	SHORT $LN7@PM_Catagor

; 1660 : 				pmove->origin = tr.endpos;

	mov	edx, DWORD PTR ?pmove@@3PAUplayermove_s@@A ; pmove
	add	edx, 56					; 00000038H
	mov	eax, DWORD PTR _tr$[ebp+20]
	mov	DWORD PTR [edx], eax
	mov	ecx, DWORD PTR _tr$[ebp+24]
	mov	DWORD PTR [edx+4], ecx
	mov	eax, DWORD PTR _tr$[ebp+28]
	mov	DWORD PTR [edx+8], eax
$LN7@PM_Catagor:

; 1661 : 		}
; 1662 : 
; 1663 : 		// Standing on an entity other than the world
; 1664 : 		if (tr.ent > 0)   // So signal that we are touching something.

	cmp	DWORD PTR _tr$[ebp+48], 0
	jle	SHORT $LN8@PM_Catagor

; 1665 : 		{
; 1666 : 			PM_AddToTouched(tr, pmove->velocity);

	sub	esp, 12					; 0000000cH
	mov	ecx, esp
	mov	edx, DWORD PTR ?pmove@@3PAUplayermove_s@@A ; pmove
	add	edx, 92					; 0000005cH
	push	edx
	call	??0Vector@@QAE@ABV0@@Z			; Vector::Vector
	sub	esp, 68					; 00000044H
	mov	ecx, esp
	lea	eax, DWORD PTR _tr$[ebp]
	push	eax
	call	??0pmtrace_s@@QAE@ABU0@@Z
	call	?PM_AddToTouched@@YAHUpmtrace_s@@VVector@@@Z ; PM_AddToTouched
	add	esp, 80					; 00000050H
$LN8@PM_Catagor:

; 1667 : 		}
; 1668 : 	}
; 1669 : }

	pop	edi
	pop	esi
	mov	esp, ebp
	pop	ebp
	ret	0
?PM_CatagorizePosition@@YAXXZ ENDP			; PM_CatagorizePosition
_TEXT	ENDS
; Function compile flags: /Odtp
; File c:\users\user\downloads\xashxt_v0.81_rev.1_with_sources\xashxt_v0.81_rev.1_src\game_shared\playermove.cpp
_TEXT	SEGMENT
$T2 = -104						; size = 12
$T3 = -92						; size = 12
_point$ = -80						; size = 12
tv461 = -68						; size = 8
tv457 = -60						; size = 8
tv469 = -52						; size = 4
tv467 = -48						; size = 4
_heightover2$ = -44					; size = 4
_height$ = -40						; size = 4
tv465 = -36						; size = 4
tv463 = -32						; size = 4
tv459 = -28						; size = 4
tv312 = -24						; size = 4
_truecont$ = -20					; size = 4
_cont$ = -16						; size = 4
__$EHRec$ = -12						; size = 12
?PM_CheckWater@@YAHXZ PROC				; PM_CheckWater

; 1544 : {

	push	ebp
	mov	ebp, esp
	push	-1
	push	__ehhandler$?PM_CheckWater@@YAHXZ
	mov	eax, DWORD PTR fs:0
	push	eax
	sub	esp, 92					; 0000005cH
	push	esi
	push	edi
	mov	eax, DWORD PTR ___security_cookie
	xor	eax, ebp
	push	eax
	lea	eax, DWORD PTR __$EHRec$[ebp]
	mov	DWORD PTR fs:0, eax

; 1545 : 	Vector	point;

	lea	ecx, DWORD PTR _point$[ebp]
	call	??0Vector@@QAE@XZ			; Vector::Vector

; 1546 : 	int		cont;
; 1547 : 	int		truecont;
; 1548 : 	float     height;
; 1549 : 	float		heightover2;
; 1550 : 
; 1551 : 	// Pick a spot just above the players feet.
; 1552 : 	point[0] = pmove->origin[0] + (pmove->player_mins[pmove->usehull][0] + pmove->player_maxs[pmove->usehull][0]) * 0.5;

	mov	ecx, DWORD PTR ?pmove@@3PAUplayermove_s@@A ; pmove
	add	ecx, 56					; 00000038H
	call	??BVector@@QAEPAMXZ			; Vector::operator float *
	mov	ecx, 4
	imul	edx, ecx, 0
	cvtss2sd xmm0, DWORD PTR [eax+edx]
	mov	eax, DWORD PTR ?pmove@@3PAUplayermove_s@@A ; pmove
	imul	ecx, DWORD PTR [eax+188], 12
	mov	edx, DWORD PTR ?pmove@@3PAUplayermove_s@@A ; pmove
	lea	ecx, DWORD PTR [edx+ecx+324852]
	movsd	QWORD PTR tv457[ebp], xmm0
	call	??BVector@@QAEPAMXZ			; Vector::operator float *
	mov	esi, eax
	mov	eax, 4
	imul	edi, eax, 0
	mov	ecx, DWORD PTR ?pmove@@3PAUplayermove_s@@A ; pmove
	imul	edx, DWORD PTR [ecx+188], 12
	mov	eax, DWORD PTR ?pmove@@3PAUplayermove_s@@A ; pmove
	lea	ecx, DWORD PTR [eax+edx+324900]
	call	??BVector@@QAEPAMXZ			; Vector::operator float *
	mov	ecx, 4
	imul	edx, ecx, 0
	movss	xmm0, DWORD PTR [esi+edi]
	addss	xmm0, DWORD PTR [eax+edx]
	cvtss2sd xmm0, xmm0
	mulsd	xmm0, QWORD PTR __real@3fe0000000000000
	movsd	xmm1, QWORD PTR tv457[ebp]
	addsd	xmm1, xmm0
	cvtsd2ss xmm0, xmm1
	lea	ecx, DWORD PTR _point$[ebp]
	movss	DWORD PTR tv459[ebp], xmm0
	call	??BVector@@QAEPAMXZ			; Vector::operator float *
	mov	ecx, 4
	imul	edx, ecx, 0
	movss	xmm0, DWORD PTR tv459[ebp]
	movss	DWORD PTR [eax+edx], xmm0

; 1553 : 	point[1] = pmove->origin[1] + (pmove->player_mins[pmove->usehull][1] + pmove->player_maxs[pmove->usehull][1]) * 0.5;

	mov	ecx, DWORD PTR ?pmove@@3PAUplayermove_s@@A ; pmove
	add	ecx, 56					; 00000038H
	call	??BVector@@QAEPAMXZ			; Vector::operator float *
	mov	ecx, 4
	shl	ecx, 0
	cvtss2sd xmm0, DWORD PTR [eax+ecx]
	mov	edx, DWORD PTR ?pmove@@3PAUplayermove_s@@A ; pmove
	imul	eax, DWORD PTR [edx+188], 12
	mov	ecx, DWORD PTR ?pmove@@3PAUplayermove_s@@A ; pmove
	lea	ecx, DWORD PTR [ecx+eax+324852]
	movsd	QWORD PTR tv461[ebp], xmm0
	call	??BVector@@QAEPAMXZ			; Vector::operator float *
	mov	esi, eax
	mov	edi, 4
	shl	edi, 0
	mov	edx, DWORD PTR ?pmove@@3PAUplayermove_s@@A ; pmove
	imul	eax, DWORD PTR [edx+188], 12
	mov	ecx, DWORD PTR ?pmove@@3PAUplayermove_s@@A ; pmove
	lea	ecx, DWORD PTR [ecx+eax+324900]
	call	??BVector@@QAEPAMXZ			; Vector::operator float *
	mov	edx, 4
	shl	edx, 0
	movss	xmm0, DWORD PTR [esi+edi]
	addss	xmm0, DWORD PTR [eax+edx]
	cvtss2sd xmm0, xmm0
	mulsd	xmm0, QWORD PTR __real@3fe0000000000000
	movsd	xmm1, QWORD PTR tv461[ebp]
	addsd	xmm1, xmm0
	cvtsd2ss xmm0, xmm1
	lea	ecx, DWORD PTR _point$[ebp]
	movss	DWORD PTR tv463[ebp], xmm0
	call	??BVector@@QAEPAMXZ			; Vector::operator float *
	mov	ecx, 4
	shl	ecx, 0
	movss	xmm0, DWORD PTR tv463[ebp]
	movss	DWORD PTR [eax+ecx], xmm0

; 1554 : 	point[2] = pmove->origin[2] + pmove->player_mins[pmove->usehull][2] + 1;

	mov	ecx, DWORD PTR ?pmove@@3PAUplayermove_s@@A ; pmove
	add	ecx, 56					; 00000038H
	call	??BVector@@QAEPAMXZ			; Vector::operator float *
	mov	esi, eax
	mov	edi, 4
	shl	edi, 1
	mov	edx, DWORD PTR ?pmove@@3PAUplayermove_s@@A ; pmove
	imul	eax, DWORD PTR [edx+188], 12
	mov	ecx, DWORD PTR ?pmove@@3PAUplayermove_s@@A ; pmove
	lea	ecx, DWORD PTR [ecx+eax+324852]
	call	??BVector@@QAEPAMXZ			; Vector::operator float *
	mov	edx, 4
	shl	edx, 1
	movss	xmm0, DWORD PTR [esi+edi]
	addss	xmm0, DWORD PTR [eax+edx]
	addss	xmm0, DWORD PTR __real@3f800000
	lea	ecx, DWORD PTR _point$[ebp]
	movss	DWORD PTR tv465[ebp], xmm0
	call	??BVector@@QAEPAMXZ			; Vector::operator float *
	mov	ecx, 4
	shl	ecx, 1
	movss	xmm0, DWORD PTR tv465[ebp]
	movss	DWORD PTR [eax+ecx], xmm0

; 1555 : 	
; 1556 : 	// Assume that we are not in water at all.
; 1557 : 	pmove->waterlevel = 0;

	mov	edx, DWORD PTR ?pmove@@3PAUplayermove_s@@A ; pmove
	mov	DWORD PTR [edx+228], 0

; 1558 : 	pmove->watertype = CONTENTS_EMPTY;

	mov	eax, DWORD PTR ?pmove@@3PAUplayermove_s@@A ; pmove
	mov	DWORD PTR [eax+232], -1

; 1559 : 
; 1560 : 	// Grab point contents.
; 1561 : 	cont = pmove->PM_PointContents (point, &truecont );

	lea	ecx, DWORD PTR _truecont$[ebp]
	push	ecx
	lea	ecx, DWORD PTR _point$[ebp]
	call	??BVector@@QAEPAMXZ			; Vector::operator float *
	push	eax
	mov	edx, DWORD PTR ?pmove@@3PAUplayermove_s@@A ; pmove
	mov	eax, DWORD PTR [edx+324980]
	call	eax
	add	esp, 8
	mov	DWORD PTR _cont$[ebp], eax

; 1562 : 	// Are we under water? (not solid and not empty?)
; 1563 : 	if ((cont <= CONTENTS_WATER && cont > CONTENTS_TRANSLUCENT ) || (cont >= CONTENTS_FOG && cont <= CONTENTS_FLYFIELD))

	cmp	DWORD PTR _cont$[ebp], -3		; fffffffdH
	jg	SHORT $LN5@PM_CheckWa
	cmp	DWORD PTR _cont$[ebp], -15		; fffffff1H
	jg	SHORT $LN4@PM_CheckWa
$LN5@PM_CheckWa:
	cmp	DWORD PTR _cont$[ebp], -19		; ffffffedH
	jl	$LN12@PM_CheckWa
	cmp	DWORD PTR _cont$[ebp], -17		; ffffffefH
	jg	$LN12@PM_CheckWa
$LN4@PM_CheckWa:

; 1564 : 	{
; 1565 : 		// Set water type
; 1566 : 		pmove->watertype = cont;

	mov	ecx, DWORD PTR ?pmove@@3PAUplayermove_s@@A ; pmove
	mov	edx, DWORD PTR _cont$[ebp]
	mov	DWORD PTR [ecx+232], edx

; 1567 : 
; 1568 : 		// We are at least at level one
; 1569 : 		pmove->waterlevel = 1;

	mov	eax, DWORD PTR ?pmove@@3PAUplayermove_s@@A ; pmove
	mov	DWORD PTR [eax+228], 1

; 1570 : 
; 1571 : 		height = (pmove->player_mins[pmove->usehull][2] + pmove->player_maxs[pmove->usehull][2]);

	mov	ecx, DWORD PTR ?pmove@@3PAUplayermove_s@@A ; pmove
	imul	edx, DWORD PTR [ecx+188], 12
	mov	eax, DWORD PTR ?pmove@@3PAUplayermove_s@@A ; pmove
	lea	ecx, DWORD PTR [eax+edx+324852]
	call	??BVector@@QAEPAMXZ			; Vector::operator float *
	mov	esi, eax
	mov	edi, 4
	shl	edi, 1
	mov	ecx, DWORD PTR ?pmove@@3PAUplayermove_s@@A ; pmove
	imul	edx, DWORD PTR [ecx+188], 12
	mov	eax, DWORD PTR ?pmove@@3PAUplayermove_s@@A ; pmove
	lea	ecx, DWORD PTR [eax+edx+324900]
	call	??BVector@@QAEPAMXZ			; Vector::operator float *
	mov	ecx, 4
	shl	ecx, 1
	movss	xmm0, DWORD PTR [esi+edi]
	addss	xmm0, DWORD PTR [eax+ecx]
	movss	DWORD PTR _height$[ebp], xmm0

; 1572 : 		heightover2 = height * 0.5;

	cvtss2sd xmm0, DWORD PTR _height$[ebp]
	mulsd	xmm0, QWORD PTR __real@3fe0000000000000
	cvtsd2ss xmm0, xmm0
	movss	DWORD PTR _heightover2$[ebp], xmm0

; 1573 : 
; 1574 : 		// Now check a point that is at the player hull midpoint.
; 1575 : 		point[2] = pmove->origin[2] + heightover2;

	mov	ecx, DWORD PTR ?pmove@@3PAUplayermove_s@@A ; pmove
	add	ecx, 56					; 00000038H
	call	??BVector@@QAEPAMXZ			; Vector::operator float *
	mov	edx, 4
	shl	edx, 1
	movss	xmm0, DWORD PTR [eax+edx]
	addss	xmm0, DWORD PTR _heightover2$[ebp]
	lea	ecx, DWORD PTR _point$[ebp]
	movss	DWORD PTR tv467[ebp], xmm0
	call	??BVector@@QAEPAMXZ			; Vector::operator float *
	mov	ecx, 4
	shl	ecx, 1
	movss	xmm0, DWORD PTR tv467[ebp]
	movss	DWORD PTR [eax+ecx], xmm0

; 1576 : 		cont = pmove->PM_PointContents (point, NULL );

	push	0
	lea	ecx, DWORD PTR _point$[ebp]
	call	??BVector@@QAEPAMXZ			; Vector::operator float *
	push	eax
	mov	edx, DWORD PTR ?pmove@@3PAUplayermove_s@@A ; pmove
	mov	eax, DWORD PTR [edx+324980]
	call	eax
	add	esp, 8
	mov	DWORD PTR _cont$[ebp], eax

; 1577 : 		// If that point is also under water...
; 1578 : 		if ((cont <= CONTENTS_WATER && cont > CONTENTS_TRANSLUCENT ) || (cont >= CONTENTS_FOG && cont <= CONTENTS_FLYFIELD))

	cmp	DWORD PTR _cont$[ebp], -3		; fffffffdH
	jg	SHORT $LN8@PM_CheckWa
	cmp	DWORD PTR _cont$[ebp], -15		; fffffff1H
	jg	SHORT $LN7@PM_CheckWa
$LN8@PM_CheckWa:
	cmp	DWORD PTR _cont$[ebp], -19		; ffffffedH
	jl	$LN9@PM_CheckWa
	cmp	DWORD PTR _cont$[ebp], -17		; ffffffefH
	jg	$LN9@PM_CheckWa
$LN7@PM_CheckWa:

; 1579 : 		{
; 1580 : 			// Set a higher water level.
; 1581 : 			pmove->waterlevel = 2;

	mov	ecx, DWORD PTR ?pmove@@3PAUplayermove_s@@A ; pmove
	mov	DWORD PTR [ecx+228], 2

; 1582 : 
; 1583 : 			// Now check the eye position.  (view_ofs is relative to the origin)
; 1584 : 			point[2] = pmove->origin[2] + pmove->view_ofs[2];

	mov	ecx, DWORD PTR ?pmove@@3PAUplayermove_s@@A ; pmove
	add	ecx, 56					; 00000038H
	call	??BVector@@QAEPAMXZ			; Vector::operator float *
	mov	esi, eax
	mov	edi, 4
	shl	edi, 1
	mov	ecx, DWORD PTR ?pmove@@3PAUplayermove_s@@A ; pmove
	add	ecx, 128				; 00000080H
	call	??BVector@@QAEPAMXZ			; Vector::operator float *
	mov	edx, 4
	shl	edx, 1
	movss	xmm0, DWORD PTR [esi+edi]
	addss	xmm0, DWORD PTR [eax+edx]
	lea	ecx, DWORD PTR _point$[ebp]
	movss	DWORD PTR tv469[ebp], xmm0
	call	??BVector@@QAEPAMXZ			; Vector::operator float *
	mov	ecx, 4
	shl	ecx, 1
	movss	xmm0, DWORD PTR tv469[ebp]
	movss	DWORD PTR [eax+ecx], xmm0

; 1585 : 
; 1586 : 			cont = pmove->PM_PointContents (point, NULL );

	push	0
	lea	ecx, DWORD PTR _point$[ebp]
	call	??BVector@@QAEPAMXZ			; Vector::operator float *
	push	eax
	mov	edx, DWORD PTR ?pmove@@3PAUplayermove_s@@A ; pmove
	mov	eax, DWORD PTR [edx+324980]
	call	eax
	add	esp, 8
	mov	DWORD PTR _cont$[ebp], eax

; 1587 : 			if ((cont <= CONTENTS_WATER && cont > CONTENTS_TRANSLUCENT ) || cont == CONTENTS_FOG) // Flyfields never cover the eyes

	cmp	DWORD PTR _cont$[ebp], -3		; fffffffdH
	jg	SHORT $LN11@PM_CheckWa
	cmp	DWORD PTR _cont$[ebp], -15		; fffffff1H
	jg	SHORT $LN10@PM_CheckWa
$LN11@PM_CheckWa:
	cmp	DWORD PTR _cont$[ebp], -19		; ffffffedH
	jne	SHORT $LN9@PM_CheckWa
$LN10@PM_CheckWa:

