; Listing generated by Microsoft (R) Optimizing Compiler Version 19.16.27045.0 

	TITLE	C:\Users\USER\Downloads\XashXT_v0.81_rev.1_with_sources\XashXT_v0.81_rev.1_src\server\game.cpp
	.686P
	.XMM
	include listing.inc
	.model	flat

INCLUDELIB LIBCMT
INCLUDELIB OLDNAMES

PUBLIC	?fragsleft@@3Ucvar_s@@A				; fragsleft
PUBLIC	?timeleft@@3Ucvar_s@@A				; timeleft
PUBLIC	?mp_chattime@@3Ucvar_s@@A			; mp_chattime
PUBLIC	?debugdraw@@3Ucvar_s@@A				; debugdraw
PUBLIC	?physdebug@@3Ucvar_s@@A				; physdebug
PUBLIC	?physstats@@3Ucvar_s@@A				; physstats
PUBLIC	?sk_agrunt_health1@@3Ucvar_s@@A			; sk_agrunt_health1
PUBLIC	?sk_agrunt_health2@@3Ucvar_s@@A			; sk_agrunt_health2
PUBLIC	?sk_agrunt_health3@@3Ucvar_s@@A			; sk_agrunt_health3
PUBLIC	?sk_agrunt_dmg_punch1@@3Ucvar_s@@A		; sk_agrunt_dmg_punch1
PUBLIC	?sk_agrunt_dmg_punch2@@3Ucvar_s@@A		; sk_agrunt_dmg_punch2
PUBLIC	?sk_agrunt_dmg_punch3@@3Ucvar_s@@A		; sk_agrunt_dmg_punch3
PUBLIC	?sk_apache_health1@@3Ucvar_s@@A			; sk_apache_health1
PUBLIC	?sk_apache_health2@@3Ucvar_s@@A			; sk_apache_health2
PUBLIC	?sk_apache_health3@@3Ucvar_s@@A			; sk_apache_health3
PUBLIC	?sk_barney_health1@@3Ucvar_s@@A			; sk_barney_health1
PUBLIC	?sk_barney_health2@@3Ucvar_s@@A			; sk_barney_health2
PUBLIC	?sk_barney_health3@@3Ucvar_s@@A			; sk_barney_health3
PUBLIC	?sk_bullsquid_health1@@3Ucvar_s@@A		; sk_bullsquid_health1
PUBLIC	?sk_bullsquid_health2@@3Ucvar_s@@A		; sk_bullsquid_health2
PUBLIC	?sk_bullsquid_health3@@3Ucvar_s@@A		; sk_bullsquid_health3
PUBLIC	?sk_bullsquid_dmg_bite1@@3Ucvar_s@@A		; sk_bullsquid_dmg_bite1
PUBLIC	?sk_bullsquid_dmg_bite2@@3Ucvar_s@@A		; sk_bullsquid_dmg_bite2
PUBLIC	?sk_bullsquid_dmg_bite3@@3Ucvar_s@@A		; sk_bullsquid_dmg_bite3
PUBLIC	?sk_bullsquid_dmg_whip1@@3Ucvar_s@@A		; sk_bullsquid_dmg_whip1
PUBLIC	?sk_bullsquid_dmg_whip2@@3Ucvar_s@@A		; sk_bullsquid_dmg_whip2
PUBLIC	?sk_bullsquid_dmg_whip3@@3Ucvar_s@@A		; sk_bullsquid_dmg_whip3
PUBLIC	?sk_bullsquid_dmg_spit1@@3Ucvar_s@@A		; sk_bullsquid_dmg_spit1
PUBLIC	?sk_bullsquid_dmg_spit2@@3Ucvar_s@@A		; sk_bullsquid_dmg_spit2
PUBLIC	?sk_bullsquid_dmg_spit3@@3Ucvar_s@@A		; sk_bullsquid_dmg_spit3
PUBLIC	?sk_bigmomma_health_factor1@@3Ucvar_s@@A	; sk_bigmomma_health_factor1
PUBLIC	?sk_bigmomma_health_factor2@@3Ucvar_s@@A	; sk_bigmomma_health_factor2
PUBLIC	?sk_bigmomma_health_factor3@@3Ucvar_s@@A	; sk_bigmomma_health_factor3
PUBLIC	?sk_bigmomma_dmg_slash1@@3Ucvar_s@@A		; sk_bigmomma_dmg_slash1
PUBLIC	?sk_bigmomma_dmg_slash2@@3Ucvar_s@@A		; sk_bigmomma_dmg_slash2
PUBLIC	?sk_bigmomma_dmg_slash3@@3Ucvar_s@@A		; sk_bigmomma_dmg_slash3
PUBLIC	?sk_bigmomma_dmg_blast1@@3Ucvar_s@@A		; sk_bigmomma_dmg_blast1
PUBLIC	?sk_bigmomma_dmg_blast2@@3Ucvar_s@@A		; sk_bigmomma_dmg_blast2
PUBLIC	?sk_bigmomma_dmg_blast3@@3Ucvar_s@@A		; sk_bigmomma_dmg_blast3
PUBLIC	?sk_bigmomma_radius_blast1@@3Ucvar_s@@A		; sk_bigmomma_radius_blast1
PUBLIC	?sk_bigmomma_radius_blast2@@3Ucvar_s@@A		; sk_bigmomma_radius_blast2
PUBLIC	?sk_bigmomma_radius_blast3@@3Ucvar_s@@A		; sk_bigmomma_radius_blast3
PUBLIC	?sk_gargantua_health1@@3Ucvar_s@@A		; sk_gargantua_health1
PUBLIC	?sk_gargantua_health2@@3Ucvar_s@@A		; sk_gargantua_health2
PUBLIC	?sk_gargantua_health3@@3Ucvar_s@@A		; sk_gargantua_health3
PUBLIC	?sk_gargantua_dmg_slash1@@3Ucvar_s@@A		; sk_gargantua_dmg_slash1
PUBLIC	?sk_gargantua_dmg_slash2@@3Ucvar_s@@A		; sk_gargantua_dmg_slash2
PUBLIC	?sk_gargantua_dmg_slash3@@3Ucvar_s@@A		; sk_gargantua_dmg_slash3
PUBLIC	?sk_gargantua_dmg_fire1@@3Ucvar_s@@A		; sk_gargantua_dmg_fire1
PUBLIC	?sk_gargantua_dmg_fire2@@3Ucvar_s@@A		; sk_gargantua_dmg_fire2
PUBLIC	?sk_gargantua_dmg_fire3@@3Ucvar_s@@A		; sk_gargantua_dmg_fire3
PUBLIC	?sk_gargantua_dmg_stomp1@@3Ucvar_s@@A		; sk_gargantua_dmg_stomp1
PUBLIC	?sk_gargantua_dmg_stomp2@@3Ucvar_s@@A		; sk_gargantua_dmg_stomp2
PUBLIC	?sk_gargantua_dmg_stomp3@@3Ucvar_s@@A		; sk_gargantua_dmg_stomp3
PUBLIC	?sk_hassassin_health1@@3Ucvar_s@@A		; sk_hassassin_health1
PUBLIC	?sk_hassassin_health2@@3Ucvar_s@@A		; sk_hassassin_health2
PUBLIC	?sk_hassassin_health3@@3Ucvar_s@@A		; sk_hassassin_health3
PUBLIC	?sk_headcrab_health1@@3Ucvar_s@@A		; sk_headcrab_health1
PUBLIC	?sk_headcrab_health2@@3Ucvar_s@@A		; sk_headcrab_health2
PUBLIC	?sk_headcrab_health3@@3Ucvar_s@@A		; sk_headcrab_health3
PUBLIC	?sk_headcrab_dmg_bite1@@3Ucvar_s@@A		; sk_headcrab_dmg_bite1
PUBLIC	?sk_headcrab_dmg_bite2@@3Ucvar_s@@A		; sk_headcrab_dmg_bite2
PUBLIC	?sk_headcrab_dmg_bite3@@3Ucvar_s@@A		; sk_headcrab_dmg_bite3
PUBLIC	?sk_hgrunt_health1@@3Ucvar_s@@A			; sk_hgrunt_health1
PUBLIC	?sk_hgrunt_health2@@3Ucvar_s@@A			; sk_hgrunt_health2
PUBLIC	?sk_hgrunt_health3@@3Ucvar_s@@A			; sk_hgrunt_health3
PUBLIC	?sk_hgrunt_kick1@@3Ucvar_s@@A			; sk_hgrunt_kick1
PUBLIC	?sk_hgrunt_kick2@@3Ucvar_s@@A			; sk_hgrunt_kick2
PUBLIC	?sk_hgrunt_kick3@@3Ucvar_s@@A			; sk_hgrunt_kick3
PUBLIC	?sk_hgrunt_pellets1@@3Ucvar_s@@A		; sk_hgrunt_pellets1
PUBLIC	?sk_hgrunt_pellets2@@3Ucvar_s@@A		; sk_hgrunt_pellets2
PUBLIC	?sk_hgrunt_pellets3@@3Ucvar_s@@A		; sk_hgrunt_pellets3
PUBLIC	?sk_hgrunt_gspeed1@@3Ucvar_s@@A			; sk_hgrunt_gspeed1
PUBLIC	?sk_hgrunt_gspeed2@@3Ucvar_s@@A			; sk_hgrunt_gspeed2
PUBLIC	?sk_hgrunt_gspeed3@@3Ucvar_s@@A			; sk_hgrunt_gspeed3
PUBLIC	?sk_houndeye_health1@@3Ucvar_s@@A		; sk_houndeye_health1
PUBLIC	?sk_houndeye_health2@@3Ucvar_s@@A		; sk_houndeye_health2
PUBLIC	?sk_houndeye_health3@@3Ucvar_s@@A		; sk_houndeye_health3
PUBLIC	?sk_houndeye_dmg_blast1@@3Ucvar_s@@A		; sk_houndeye_dmg_blast1
PUBLIC	?sk_houndeye_dmg_blast2@@3Ucvar_s@@A		; sk_houndeye_dmg_blast2
PUBLIC	?sk_houndeye_dmg_blast3@@3Ucvar_s@@A		; sk_houndeye_dmg_blast3
PUBLIC	?sk_islave_health1@@3Ucvar_s@@A			; sk_islave_health1
PUBLIC	?sk_islave_health2@@3Ucvar_s@@A			; sk_islave_health2
PUBLIC	?sk_islave_health3@@3Ucvar_s@@A			; sk_islave_health3
PUBLIC	?sk_islave_dmg_claw1@@3Ucvar_s@@A		; sk_islave_dmg_claw1
PUBLIC	?sk_islave_dmg_claw2@@3Ucvar_s@@A		; sk_islave_dmg_claw2
PUBLIC	?sk_islave_dmg_claw3@@3Ucvar_s@@A		; sk_islave_dmg_claw3
PUBLIC	?sk_islave_dmg_clawrake1@@3Ucvar_s@@A		; sk_islave_dmg_clawrake1
PUBLIC	?sk_islave_dmg_clawrake2@@3Ucvar_s@@A		; sk_islave_dmg_clawrake2
PUBLIC	?sk_islave_dmg_clawrake3@@3Ucvar_s@@A		; sk_islave_dmg_clawrake3
PUBLIC	?sk_islave_dmg_zap1@@3Ucvar_s@@A		; sk_islave_dmg_zap1
PUBLIC	?sk_islave_dmg_zap2@@3Ucvar_s@@A		; sk_islave_dmg_zap2
PUBLIC	?sk_islave_dmg_zap3@@3Ucvar_s@@A		; sk_islave_dmg_zap3
PUBLIC	?sk_ichthyosaur_health1@@3Ucvar_s@@A		; sk_ichthyosaur_health1
PUBLIC	?sk_ichthyosaur_health2@@3Ucvar_s@@A		; sk_ichthyosaur_health2
PUBLIC	?sk_ichthyosaur_health3@@3Ucvar_s@@A		; sk_ichthyosaur_health3
PUBLIC	?sk_ichthyosaur_shake1@@3Ucvar_s@@A		; sk_ichthyosaur_shake1
PUBLIC	?sk_ichthyosaur_shake2@@3Ucvar_s@@A		; sk_ichthyosaur_shake2
PUBLIC	?sk_ichthyosaur_shake3@@3Ucvar_s@@A		; sk_ichthyosaur_shake3
PUBLIC	?sk_leech_health1@@3Ucvar_s@@A			; sk_leech_health1
PUBLIC	?sk_leech_health2@@3Ucvar_s@@A			; sk_leech_health2
PUBLIC	?sk_leech_health3@@3Ucvar_s@@A			; sk_leech_health3
PUBLIC	?sk_leech_dmg_bite1@@3Ucvar_s@@A		; sk_leech_dmg_bite1
PUBLIC	?sk_leech_dmg_bite2@@3Ucvar_s@@A		; sk_leech_dmg_bite2
PUBLIC	?sk_leech_dmg_bite3@@3Ucvar_s@@A		; sk_leech_dmg_bite3
PUBLIC	?sk_controller_health1@@3Ucvar_s@@A		; sk_controller_health1
PUBLIC	?sk_controller_health2@@3Ucvar_s@@A		; sk_controller_health2
PUBLIC	?sk_controller_health3@@3Ucvar_s@@A		; sk_controller_health3
PUBLIC	?sk_controller_dmgzap1@@3Ucvar_s@@A		; sk_controller_dmgzap1
PUBLIC	?sk_controller_dmgzap2@@3Ucvar_s@@A		; sk_controller_dmgzap2
PUBLIC	?sk_controller_dmgzap3@@3Ucvar_s@@A		; sk_controller_dmgzap3
PUBLIC	?sk_controller_speedball1@@3Ucvar_s@@A		; sk_controller_speedball1
PUBLIC	?sk_controller_speedball2@@3Ucvar_s@@A		; sk_controller_speedball2
PUBLIC	?sk_controller_speedball3@@3Ucvar_s@@A		; sk_controller_speedball3
PUBLIC	?sk_controller_dmgball1@@3Ucvar_s@@A		; sk_controller_dmgball1
PUBLIC	?sk_controller_dmgball2@@3Ucvar_s@@A		; sk_controller_dmgball2
PUBLIC	?sk_controller_dmgball3@@3Ucvar_s@@A		; sk_controller_dmgball3
PUBLIC	?sk_nihilanth_health1@@3Ucvar_s@@A		; sk_nihilanth_health1
PUBLIC	?sk_nihilanth_health2@@3Ucvar_s@@A		; sk_nihilanth_health2
PUBLIC	?sk_nihilanth_health3@@3Ucvar_s@@A		; sk_nihilanth_health3
PUBLIC	?sk_nihilanth_zap1@@3Ucvar_s@@A			; sk_nihilanth_zap1
PUBLIC	?sk_nihilanth_zap2@@3Ucvar_s@@A			; sk_nihilanth_zap2
PUBLIC	?sk_nihilanth_zap3@@3Ucvar_s@@A			; sk_nihilanth_zap3
PUBLIC	?sk_scientist_health1@@3Ucvar_s@@A		; sk_scientist_health1
PUBLIC	?sk_scientist_health2@@3Ucvar_s@@A		; sk_scientist_health2
PUBLIC	?sk_scientist_health3@@3Ucvar_s@@A		; sk_scientist_health3
PUBLIC	?sk_snark_health1@@3Ucvar_s@@A			; sk_snark_health1
PUBLIC	?sk_snark_health2@@3Ucvar_s@@A			; sk_snark_health2
PUBLIC	?sk_snark_health3@@3Ucvar_s@@A			; sk_snark_health3
PUBLIC	?sk_snark_dmg_bite1@@3Ucvar_s@@A		; sk_snark_dmg_bite1
PUBLIC	?sk_snark_dmg_bite2@@3Ucvar_s@@A		; sk_snark_dmg_bite2
PUBLIC	?sk_snark_dmg_bite3@@3Ucvar_s@@A		; sk_snark_dmg_bite3
PUBLIC	?sk_snark_dmg_pop1@@3Ucvar_s@@A			; sk_snark_dmg_pop1
PUBLIC	?sk_snark_dmg_pop2@@3Ucvar_s@@A			; sk_snark_dmg_pop2
PUBLIC	?sk_snark_dmg_pop3@@3Ucvar_s@@A			; sk_snark_dmg_pop3
PUBLIC	?sk_zombie_health1@@3Ucvar_s@@A			; sk_zombie_health1
PUBLIC	?sk_zombie_health2@@3Ucvar_s@@A			; sk_zombie_health2
PUBLIC	?sk_zombie_health3@@3Ucvar_s@@A			; sk_zombie_health3
PUBLIC	?sk_zombie_dmg_one_slash1@@3Ucvar_s@@A		; sk_zombie_dmg_one_slash1
PUBLIC	?sk_zombie_dmg_one_slash2@@3Ucvar_s@@A		; sk_zombie_dmg_one_slash2
PUBLIC	?sk_zombie_dmg_one_slash3@@3Ucvar_s@@A		; sk_zombie_dmg_one_slash3
PUBLIC	?sk_zombie_dmg_both_slash1@@3Ucvar_s@@A		; sk_zombie_dmg_both_slash1
PUBLIC	?sk_zombie_dmg_both_slash2@@3Ucvar_s@@A		; sk_zombie_dmg_both_slash2
PUBLIC	?sk_zombie_dmg_both_slash3@@3Ucvar_s@@A		; sk_zombie_dmg_both_slash3
PUBLIC	?sk_turret_health1@@3Ucvar_s@@A			; sk_turret_health1
PUBLIC	?sk_turret_health2@@3Ucvar_s@@A			; sk_turret_health2
PUBLIC	?sk_turret_health3@@3Ucvar_s@@A			; sk_turret_health3
PUBLIC	?sk_miniturret_health1@@3Ucvar_s@@A		; sk_miniturret_health1
PUBLIC	?sk_miniturret_health2@@3Ucvar_s@@A		; sk_miniturret_health2
PUBLIC	?sk_miniturret_health3@@3Ucvar_s@@A		; sk_miniturret_health3
PUBLIC	?sk_sentry_health1@@3Ucvar_s@@A			; sk_sentry_health1
PUBLIC	?sk_sentry_health2@@3Ucvar_s@@A			; sk_sentry_health2
PUBLIC	?sk_sentry_health3@@3Ucvar_s@@A			; sk_sentry_health3
PUBLIC	?sk_plr_crowbar1@@3Ucvar_s@@A			; sk_plr_crowbar1
PUBLIC	?sk_plr_crowbar2@@3Ucvar_s@@A			; sk_plr_crowbar2
PUBLIC	?sk_plr_crowbar3@@3Ucvar_s@@A			; sk_plr_crowbar3
PUBLIC	?sk_plr_9mm_bullet1@@3Ucvar_s@@A		; sk_plr_9mm_bullet1
PUBLIC	?sk_plr_9mm_bullet2@@3Ucvar_s@@A		; sk_plr_9mm_bullet2
PUBLIC	?sk_plr_9mm_bullet3@@3Ucvar_s@@A		; sk_plr_9mm_bullet3
PUBLIC	?sk_plr_357_bullet1@@3Ucvar_s@@A		; sk_plr_357_bullet1
PUBLIC	?sk_plr_357_bullet2@@3Ucvar_s@@A		; sk_plr_357_bullet2
PUBLIC	?sk_plr_357_bullet3@@3Ucvar_s@@A		; sk_plr_357_bullet3
PUBLIC	?sk_plr_9mmAR_bullet1@@3Ucvar_s@@A		; sk_plr_9mmAR_bullet1
PUBLIC	?sk_plr_9mmAR_bullet2@@3Ucvar_s@@A		; sk_plr_9mmAR_bullet2
PUBLIC	?sk_plr_9mmAR_bullet3@@3Ucvar_s@@A		; sk_plr_9mmAR_bullet3
PUBLIC	?sk_plr_9mmAR_grenade1@@3Ucvar_s@@A		; sk_plr_9mmAR_grenade1
PUBLIC	?sk_plr_9mmAR_grenade2@@3Ucvar_s@@A		; sk_plr_9mmAR_grenade2
PUBLIC	?sk_plr_9mmAR_grenade3@@3Ucvar_s@@A		; sk_plr_9mmAR_grenade3
PUBLIC	?sk_plr_buckshot1@@3Ucvar_s@@A			; sk_plr_buckshot1
PUBLIC	?sk_plr_buckshot2@@3Ucvar_s@@A			; sk_plr_buckshot2
PUBLIC	?sk_plr_buckshot3@@3Ucvar_s@@A			; sk_plr_buckshot3
PUBLIC	?sk_plr_xbow_bolt_client1@@3Ucvar_s@@A		; sk_plr_xbow_bolt_client1
PUBLIC	?sk_plr_xbow_bolt_client2@@3Ucvar_s@@A		; sk_plr_xbow_bolt_client2
PUBLIC	?sk_plr_xbow_bolt_client3@@3Ucvar_s@@A		; sk_plr_xbow_bolt_client3
PUBLIC	?sk_plr_xbow_bolt_monster1@@3Ucvar_s@@A		; sk_plr_xbow_bolt_monster1
PUBLIC	?sk_plr_xbow_bolt_monster2@@3Ucvar_s@@A		; sk_plr_xbow_bolt_monster2
PUBLIC	?sk_plr_xbow_bolt_monster3@@3Ucvar_s@@A		; sk_plr_xbow_bolt_monster3
PUBLIC	?sk_plr_rpg1@@3Ucvar_s@@A			; sk_plr_rpg1
PUBLIC	?sk_plr_rpg2@@3Ucvar_s@@A			; sk_plr_rpg2
PUBLIC	?sk_plr_rpg3@@3Ucvar_s@@A			; sk_plr_rpg3
PUBLIC	?sk_plr_gauss1@@3Ucvar_s@@A			; sk_plr_gauss1
PUBLIC	?sk_plr_gauss2@@3Ucvar_s@@A			; sk_plr_gauss2
PUBLIC	?sk_plr_gauss3@@3Ucvar_s@@A			; sk_plr_gauss3
PUBLIC	?sk_plr_egon_narrow1@@3Ucvar_s@@A		; sk_plr_egon_narrow1
PUBLIC	?sk_plr_egon_narrow2@@3Ucvar_s@@A		; sk_plr_egon_narrow2
PUBLIC	?sk_plr_egon_narrow3@@3Ucvar_s@@A		; sk_plr_egon_narrow3
PUBLIC	?sk_plr_egon_wide1@@3Ucvar_s@@A			; sk_plr_egon_wide1
PUBLIC	?sk_plr_egon_wide2@@3Ucvar_s@@A			; sk_plr_egon_wide2
PUBLIC	?sk_plr_egon_wide3@@3Ucvar_s@@A			; sk_plr_egon_wide3
PUBLIC	?sk_plr_hand_grenade1@@3Ucvar_s@@A		; sk_plr_hand_grenade1
PUBLIC	?sk_plr_hand_grenade2@@3Ucvar_s@@A		; sk_plr_hand_grenade2
PUBLIC	?sk_plr_hand_grenade3@@3Ucvar_s@@A		; sk_plr_hand_grenade3
PUBLIC	?sk_plr_satchel1@@3Ucvar_s@@A			; sk_plr_satchel1
PUBLIC	?sk_plr_satchel2@@3Ucvar_s@@A			; sk_plr_satchel2
PUBLIC	?sk_plr_satchel3@@3Ucvar_s@@A			; sk_plr_satchel3
PUBLIC	?sk_plr_tripmine1@@3Ucvar_s@@A			; sk_plr_tripmine1
PUBLIC	?sk_plr_tripmine2@@3Ucvar_s@@A			; sk_plr_tripmine2
PUBLIC	?sk_plr_tripmine3@@3Ucvar_s@@A			; sk_plr_tripmine3
PUBLIC	?sk_12mm_bullet1@@3Ucvar_s@@A			; sk_12mm_bullet1
PUBLIC	?sk_12mm_bullet2@@3Ucvar_s@@A			; sk_12mm_bullet2
PUBLIC	?sk_12mm_bullet3@@3Ucvar_s@@A			; sk_12mm_bullet3
PUBLIC	?sk_9mmAR_bullet1@@3Ucvar_s@@A			; sk_9mmAR_bullet1
PUBLIC	?sk_9mmAR_bullet2@@3Ucvar_s@@A			; sk_9mmAR_bullet2
PUBLIC	?sk_9mmAR_bullet3@@3Ucvar_s@@A			; sk_9mmAR_bullet3
PUBLIC	?sk_9mm_bullet1@@3Ucvar_s@@A			; sk_9mm_bullet1
PUBLIC	?sk_9mm_bullet2@@3Ucvar_s@@A			; sk_9mm_bullet2
PUBLIC	?sk_9mm_bullet3@@3Ucvar_s@@A			; sk_9mm_bullet3
PUBLIC	?sk_hornet_dmg1@@3Ucvar_s@@A			; sk_hornet_dmg1
PUBLIC	?sk_hornet_dmg2@@3Ucvar_s@@A			; sk_hornet_dmg2
PUBLIC	?sk_hornet_dmg3@@3Ucvar_s@@A			; sk_hornet_dmg3
PUBLIC	?sk_suitcharger1@@3Ucvar_s@@A			; sk_suitcharger1
PUBLIC	?sk_suitcharger2@@3Ucvar_s@@A			; sk_suitcharger2
PUBLIC	?sk_suitcharger3@@3Ucvar_s@@A			; sk_suitcharger3
PUBLIC	?sk_battery1@@3Ucvar_s@@A			; sk_battery1
PUBLIC	?sk_battery2@@3Ucvar_s@@A			; sk_battery2
PUBLIC	?sk_battery3@@3Ucvar_s@@A			; sk_battery3
PUBLIC	?sk_healthcharger1@@3Ucvar_s@@A			; sk_healthcharger1
PUBLIC	?sk_healthcharger2@@3Ucvar_s@@A			; sk_healthcharger2
PUBLIC	?sk_healthcharger3@@3Ucvar_s@@A			; sk_healthcharger3
PUBLIC	?sk_healthkit1@@3Ucvar_s@@A			; sk_healthkit1
PUBLIC	?sk_healthkit2@@3Ucvar_s@@A			; sk_healthkit2
PUBLIC	?sk_healthkit3@@3Ucvar_s@@A			; sk_healthkit3
PUBLIC	?sk_scientist_heal1@@3Ucvar_s@@A		; sk_scientist_heal1
PUBLIC	?sk_scientist_heal2@@3Ucvar_s@@A		; sk_scientist_heal2
PUBLIC	?sk_scientist_heal3@@3Ucvar_s@@A		; sk_scientist_heal3
PUBLIC	?sk_monster_head1@@3Ucvar_s@@A			; sk_monster_head1
PUBLIC	?sk_monster_head2@@3Ucvar_s@@A			; sk_monster_head2
PUBLIC	?sk_monster_head3@@3Ucvar_s@@A			; sk_monster_head3
PUBLIC	?sk_monster_chest1@@3Ucvar_s@@A			; sk_monster_chest1
PUBLIC	?sk_monster_chest2@@3Ucvar_s@@A			; sk_monster_chest2
PUBLIC	?sk_monster_chest3@@3Ucvar_s@@A			; sk_monster_chest3
PUBLIC	?sk_monster_stomach1@@3Ucvar_s@@A		; sk_monster_stomach1
PUBLIC	?sk_monster_stomach2@@3Ucvar_s@@A		; sk_monster_stomach2
PUBLIC	?sk_monster_stomach3@@3Ucvar_s@@A		; sk_monster_stomach3
PUBLIC	?sk_monster_arm1@@3Ucvar_s@@A			; sk_monster_arm1
PUBLIC	?sk_monster_arm2@@3Ucvar_s@@A			; sk_monster_arm2
PUBLIC	?sk_monster_arm3@@3Ucvar_s@@A			; sk_monster_arm3
PUBLIC	?sk_monster_leg1@@3Ucvar_s@@A			; sk_monster_leg1
PUBLIC	?sk_monster_leg2@@3Ucvar_s@@A			; sk_monster_leg2
PUBLIC	?sk_monster_leg3@@3Ucvar_s@@A			; sk_monster_leg3
PUBLIC	?sk_player_head1@@3Ucvar_s@@A			; sk_player_head1
PUBLIC	?sk_player_head2@@3Ucvar_s@@A			; sk_player_head2
PUBLIC	?sk_player_head3@@3Ucvar_s@@A			; sk_player_head3
PUBLIC	?sk_player_chest1@@3Ucvar_s@@A			; sk_player_chest1
PUBLIC	?sk_player_chest2@@3Ucvar_s@@A			; sk_player_chest2
PUBLIC	?sk_player_chest3@@3Ucvar_s@@A			; sk_player_chest3
PUBLIC	?sk_player_stomach1@@3Ucvar_s@@A		; sk_player_stomach1
PUBLIC	?sk_player_stomach2@@3Ucvar_s@@A		; sk_player_stomach2
PUBLIC	?sk_player_stomach3@@3Ucvar_s@@A		; sk_player_stomach3
PUBLIC	?sk_player_arm1@@3Ucvar_s@@A			; sk_player_arm1
PUBLIC	?sk_player_arm2@@3Ucvar_s@@A			; sk_player_arm2
PUBLIC	?sk_player_arm3@@3Ucvar_s@@A			; sk_player_arm3
PUBLIC	?sk_player_leg1@@3Ucvar_s@@A			; sk_player_leg1
PUBLIC	?sk_player_leg2@@3Ucvar_s@@A			; sk_player_leg2
PUBLIC	?sk_player_leg3@@3Ucvar_s@@A			; sk_player_leg3
PUBLIC	?displaysoundlist@@3Ucvar_s@@A			; displaysoundlist
PUBLIC	?teamplay@@3Ucvar_s@@A				; teamplay
PUBLIC	?fraglimit@@3Ucvar_s@@A				; fraglimit
PUBLIC	?timelimit@@3Ucvar_s@@A				; timelimit
PUBLIC	?friendlyfire@@3Ucvar_s@@A			; friendlyfire
PUBLIC	?falldamage@@3Ucvar_s@@A			; falldamage
PUBLIC	?weaponstay@@3Ucvar_s@@A			; weaponstay
PUBLIC	?forcerespawn@@3Ucvar_s@@A			; forcerespawn
PUBLIC	?flashlight@@3Ucvar_s@@A			; flashlight
PUBLIC	?aimcrosshair@@3Ucvar_s@@A			; aimcrosshair
PUBLIC	?decalfrequency@@3Ucvar_s@@A			; decalfrequency
PUBLIC	?teamlist@@3Ucvar_s@@A				; teamlist
PUBLIC	?teamoverride@@3Ucvar_s@@A			; teamoverride
PUBLIC	?defaultteam@@3Ucvar_s@@A			; defaultteam
PUBLIC	?allowmonsters@@3Ucvar_s@@A			; allowmonsters
PUBLIC	?g_psv_gravity@@3PAUcvar_s@@A			; g_psv_gravity
PUBLIC	?g_psv_aim@@3PAUcvar_s@@A			; g_psv_aim
PUBLIC	?g_psv_stepsize@@3PAUcvar_s@@A			; g_psv_stepsize
PUBLIC	?g_footsteps@@3PAUcvar_s@@A			; g_footsteps
PUBLIC	?g_debugdraw@@3PAUcvar_s@@A			; g_debugdraw
PUBLIC	?p_speeds@@3PAUcvar_s@@A			; p_speeds
PUBLIC	?g_physdebug@@3PAUcvar_s@@A			; g_physdebug
PUBLIC	?g_allow_physx@@3PAUcvar_s@@A			; g_allow_physx
PUBLIC	?g_sync_physic@@3Ucvar_s@@A			; g_sync_physic
_BSS	SEGMENT
?g_psv_gravity@@3PAUcvar_s@@A DD 01H DUP (?)		; g_psv_gravity
?g_psv_aim@@3PAUcvar_s@@A DD 01H DUP (?)		; g_psv_aim
?g_psv_stepsize@@3PAUcvar_s@@A DD 01H DUP (?)		; g_psv_stepsize
?g_footsteps@@3PAUcvar_s@@A DD 01H DUP (?)		; g_footsteps
?g_debugdraw@@3PAUcvar_s@@A DD 01H DUP (?)		; g_debugdraw
?p_speeds@@3PAUcvar_s@@A DD 01H DUP (?)			; p_speeds
?g_physdebug@@3PAUcvar_s@@A DD 01H DUP (?)		; g_physdebug
?g_allow_physx@@3PAUcvar_s@@A DD 01H DUP (?)		; g_allow_physx
_BSS	ENDS
_DATA	SEGMENT
?fragsleft@@3Ucvar_s@@A DD FLAT:$SG74477		; fragsleft
	DD	FLAT:$SG74478
	DD	0104H
	DD	000000000r			; 0
	DD	00H
?timeleft@@3Ucvar_s@@A DD FLAT:$SG74480			; timeleft
	DD	FLAT:$SG74481
	DD	0104H
	DD	000000000r			; 0
	DD	00H
?mp_chattime@@3Ucvar_s@@A DD FLAT:$SG74511		; mp_chattime
	DD	FLAT:$SG74512
	DD	04H
	DD	000000000r			; 0
	DD	00H
?debugdraw@@3Ucvar_s@@A DD FLAT:$SG74514		; debugdraw
	DD	FLAT:$SG74515
	DD	01H
	DD	000000000r			; 0
	DD	00H
?physdebug@@3Ucvar_s@@A DD FLAT:$SG74517		; physdebug
	DD	FLAT:$SG74518
	DD	00H
	DD	000000000r			; 0
	DD	00H
?physstats@@3Ucvar_s@@A DD FLAT:$SG74520		; physstats
	DD	FLAT:$SG74521
	DD	01H
	DD	000000000r			; 0
	DD	00H
?sk_agrunt_health1@@3Ucvar_s@@A DD FLAT:$SG74525	; sk_agrunt_health1
	DD	FLAT:$SG74526
	DD	00H
	DD	000000000r			; 0
	DD	00H
?sk_agrunt_health2@@3Ucvar_s@@A DD FLAT:$SG74528	; sk_agrunt_health2
	DD	FLAT:$SG74529
	DD	00H
	DD	000000000r			; 0
	DD	00H
?sk_agrunt_health3@@3Ucvar_s@@A DD FLAT:$SG74531	; sk_agrunt_health3
	DD	FLAT:$SG74532
	DD	00H
	DD	000000000r			; 0
	DD	00H
?sk_agrunt_dmg_punch1@@3Ucvar_s@@A DD FLAT:$SG74534	; sk_agrunt_dmg_punch1
	DD	FLAT:$SG74535
	DD	00H
	DD	000000000r			; 0
	DD	00H
?sk_agrunt_dmg_punch2@@3Ucvar_s@@A DD FLAT:$SG74537	; sk_agrunt_dmg_punch2
	DD	FLAT:$SG74538
	DD	00H
	DD	000000000r			; 0
	DD	00H
?sk_agrunt_dmg_punch3@@3Ucvar_s@@A DD FLAT:$SG74540	; sk_agrunt_dmg_punch3
	DD	FLAT:$SG74541
	DD	00H
	DD	000000000r			; 0
	DD	00H
?sk_apache_health1@@3Ucvar_s@@A DD FLAT:$SG74543	; sk_apache_health1
	DD	FLAT:$SG74544
	DD	00H
	DD	000000000r			; 0
	DD	00H
?sk_apache_health2@@3Ucvar_s@@A DD FLAT:$SG74546	; sk_apache_health2
	DD	FLAT:$SG74547
	DD	00H
	DD	000000000r			; 0
	DD	00H
?sk_apache_health3@@3Ucvar_s@@A DD FLAT:$SG74549	; sk_apache_health3
	DD	FLAT:$SG74550
	DD	00H
	DD	000000000r			; 0
	DD	00H
?sk_barney_health1@@3Ucvar_s@@A DD FLAT:$SG74552	; sk_barney_health1
	DD	FLAT:$SG74553
	DD	00H
	DD	000000000r			; 0
	DD	00H
?sk_barney_health2@@3Ucvar_s@@A DD FLAT:$SG74555	; sk_barney_health2
	DD	FLAT:$SG74556
	DD	00H
	DD	000000000r			; 0
	DD	00H
?sk_barney_health3@@3Ucvar_s@@A DD FLAT:$SG74558	; sk_barney_health3
	DD	FLAT:$SG74559
	DD	00H
	DD	000000000r			; 0
	DD	00H
?sk_bullsquid_health1@@3Ucvar_s@@A DD FLAT:$SG74561	; sk_bullsquid_health1
	DD	FLAT:$SG74562
	DD	00H
	DD	000000000r			; 0
	DD	00H
?sk_bullsquid_health2@@3Ucvar_s@@A DD FLAT:$SG74564	; sk_bullsquid_health2
	DD	FLAT:$SG74565
	DD	00H
	DD	000000000r			; 0
	DD	00H
?sk_bullsquid_health3@@3Ucvar_s@@A DD FLAT:$SG74567	; sk_bullsquid_health3
	DD	FLAT:$SG74568
	DD	00H
	DD	000000000r			; 0
	DD	00H
?sk_bullsquid_dmg_bite1@@3Ucvar_s@@A DD FLAT:$SG74570	; sk_bullsquid_dmg_bite1
	DD	FLAT:$SG74571
	DD	00H
	DD	000000000r			; 0
	DD	00H
?sk_bullsquid_dmg_bite2@@3Ucvar_s@@A DD FLAT:$SG74573	; sk_bullsquid_dmg_bite2
	DD	FLAT:$SG74574
	DD	00H
	DD	000000000r			; 0
	DD	00H
?sk_bullsquid_dmg_bite3@@3Ucvar_s@@A DD FLAT:$SG74576	; sk_bullsquid_dmg_bite3
	DD	FLAT:$SG74577
	DD	00H
	DD	000000000r			; 0
	DD	00H
?sk_bullsquid_dmg_whip1@@3Ucvar_s@@A DD FLAT:$SG74579	; sk_bullsquid_dmg_whip1
	DD	FLAT:$SG74580
	DD	00H
	DD	000000000r			; 0
	DD	00H
?sk_bullsquid_dmg_whip2@@3Ucvar_s@@A DD FLAT:$SG74582	; sk_bullsquid_dmg_whip2
	DD	FLAT:$SG74583
	DD	00H
	DD	000000000r			; 0
	DD	00H
?sk_bullsquid_dmg_whip3@@3Ucvar_s@@A DD FLAT:$SG74585	; sk_bullsquid_dmg_whip3
	DD	FLAT:$SG74586
	DD	00H
	DD	000000000r			; 0
	DD	00H
?sk_bullsquid_dmg_spit1@@3Ucvar_s@@A DD FLAT:$SG74588	; sk_bullsquid_dmg_spit1
	DD	FLAT:$SG74589
	DD	00H
	DD	000000000r			; 0
	DD	00H
?sk_bullsquid_dmg_spit2@@3Ucvar_s@@A DD FLAT:$SG74591	; sk_bullsquid_dmg_spit2
	DD	FLAT:$SG74592
	DD	00H
	DD	000000000r			; 0
	DD	00H
?sk_bullsquid_dmg_spit3@@3Ucvar_s@@A DD FLAT:$SG74594	; sk_bullsquid_dmg_spit3
	DD	FLAT:$SG74595
	DD	00H
	DD	000000000r			; 0
	DD	00H
?sk_bigmomma_health_factor1@@3Ucvar_s@@A DD FLAT:$SG74597 ; sk_bigmomma_health_factor1
	DD	FLAT:$SG74598
	DD	00H
	DD	000000000r			; 0
	DD	00H
?sk_bigmomma_health_factor2@@3Ucvar_s@@A DD FLAT:$SG74600 ; sk_bigmomma_health_factor2
	DD	FLAT:$SG74601
	DD	00H
	DD	000000000r			; 0
	DD	00H
?sk_bigmomma_health_factor3@@3Ucvar_s@@A DD FLAT:$SG74603 ; sk_bigmomma_health_factor3
	DD	FLAT:$SG74604
	DD	00H
	DD	000000000r			; 0
	DD	00H
?sk_bigmomma_dmg_slash1@@3Ucvar_s@@A DD FLAT:$SG74606	; sk_bigmomma_dmg_slash1
	DD	FLAT:$SG74607
	DD	00H
	DD	000000000r			; 0
	DD	00H
?sk_bigmomma_dmg_slash2@@3Ucvar_s@@A DD FLAT:$SG74609	; sk_bigmomma_dmg_slash2
	DD	FLAT:$SG74610
	DD	00H
	DD	000000000r			; 0
	DD	00H
?sk_bigmomma_dmg_slash3@@3Ucvar_s@@A DD FLAT:$SG74612	; sk_bigmomma_dmg_slash3
	DD	FLAT:$SG74613
	DD	00H
	DD	000000000r			; 0
	DD	00H
?sk_bigmomma_dmg_blast1@@3Ucvar_s@@A DD FLAT:$SG74615	; sk_bigmomma_dmg_blast1
	DD	FLAT:$SG74616
	DD	00H
	DD	000000000r			; 0
	DD	00H
?sk_bigmomma_dmg_blast2@@3Ucvar_s@@A DD FLAT:$SG74618	; sk_bigmomma_dmg_blast2
	DD	FLAT:$SG74619
	DD	00H
	DD	000000000r			; 0
	DD	00H
?sk_bigmomma_dmg_blast3@@3Ucvar_s@@A DD FLAT:$SG74621	; sk_bigmomma_dmg_blast3
	DD	FLAT:$SG74622
	DD	00H
	DD	000000000r			; 0
	DD	00H
?sk_bigmomma_radius_blast1@@3Ucvar_s@@A DD FLAT:$SG74624 ; sk_bigmomma_radius_blast1
	DD	FLAT:$SG74625
	DD	00H
	DD	000000000r			; 0
	DD	00H
?sk_bigmomma_radius_blast2@@3Ucvar_s@@A DD FLAT:$SG74627 ; sk_bigmomma_radius_blast2
	DD	FLAT:$SG74628
	DD	00H
	DD	000000000r			; 0
	DD	00H
?sk_bigmomma_radius_blast3@@3Ucvar_s@@A DD FLAT:$SG74630 ; sk_bigmomma_radius_blast3
	DD	FLAT:$SG74631
	DD	00H
	DD	000000000r			; 0
	DD	00H
?sk_gargantua_health1@@3Ucvar_s@@A DD FLAT:$SG74633	; sk_gargantua_health1
	DD	FLAT:$SG74634
	DD	00H
	DD	000000000r			; 0
	DD	00H
?sk_gargantua_health2@@3Ucvar_s@@A DD FLAT:$SG74636	; sk_gargantua_health2
	DD	FLAT:$SG74637
	DD	00H
	DD	000000000r			; 0
	DD	00H
?sk_gargantua_health3@@3Ucvar_s@@A DD FLAT:$SG74639	; sk_gargantua_health3
	DD	FLAT:$SG74640
	DD	00H
	DD	000000000r			; 0
	DD	00H
?sk_gargantua_dmg_slash1@@3Ucvar_s@@A DD FLAT:$SG74642	; sk_gargantua_dmg_slash1
	DD	FLAT:$SG74643
	DD	00H
	DD	000000000r			; 0
	DD	00H
?sk_gargantua_dmg_slash2@@3Ucvar_s@@A DD FLAT:$SG74645	; sk_gargantua_dmg_slash2
	DD	FLAT:$SG74646
	DD	00H
	DD	000000000r			; 0
	DD	00H
?sk_gargantua_dmg_slash3@@3Ucvar_s@@A DD FLAT:$SG74648	; sk_gargantua_dmg_slash3
	DD	FLAT:$SG74649
	DD	00H
	DD	000000000r			; 0
	DD	00H
?sk_gargantua_dmg_fire1@@3Ucvar_s@@A DD FLAT:$SG74651	; sk_gargantua_dmg_fire1
	DD	FLAT:$SG74652
	DD	00H
	DD	000000000r			; 0
	DD	00H
?sk_gargantua_dmg_fire2@@3Ucvar_s@@A DD FLAT:$SG74654	; sk_gargantua_dmg_fire2
	DD	FLAT:$SG74655
	DD	00H
	DD	000000000r			; 0
	DD	00H
?sk_gargantua_dmg_fire3@@3Ucvar_s@@A DD FLAT:$SG74657	; sk_gargantua_dmg_fire3
	DD	FLAT:$SG74658
	DD	00H
	DD	000000000r			; 0
	DD	00H
?sk_gargantua_dmg_stomp1@@3Ucvar_s@@A DD FLAT:$SG74660	; sk_gargantua_dmg_stomp1
	DD	FLAT:$SG74661
	DD	00H
	DD	000000000r			; 0
	DD	00H
?sk_gargantua_dmg_stomp2@@3Ucvar_s@@A DD FLAT:$SG74663	; sk_gargantua_dmg_stomp2
	DD	FLAT:$SG74664
	DD	00H
	DD	000000000r			; 0
	DD	00H
?sk_gargantua_dmg_stomp3@@3Ucvar_s@@A DD FLAT:$SG74666	; sk_gargantua_dmg_stomp3
	DD	FLAT:$SG74667
	DD	00H
	DD	000000000r			; 0
	DD	00H
?sk_hassassin_health1@@3Ucvar_s@@A DD FLAT:$SG74669	; sk_hassassin_health1
	DD	FLAT:$SG74670
	DD	00H
	DD	000000000r			; 0
	DD	00H
?sk_hassassin_health2@@3Ucvar_s@@A DD FLAT:$SG74672	; sk_hassassin_health2
	DD	FLAT:$SG74673
	DD	00H
	DD	000000000r			; 0
	DD	00H
?sk_hassassin_health3@@3Ucvar_s@@A DD FLAT:$SG74675	; sk_hassassin_health3
	DD	FLAT:$SG74676
	DD	00H
	DD	000000000r			; 0
	DD	00H
?sk_headcrab_health1@@3Ucvar_s@@A DD FLAT:$SG74678	; sk_headcrab_health1
	DD	FLAT:$SG74679
	DD	00H
	DD	000000000r			; 0
	DD	00H
?sk_headcrab_health2@@3Ucvar_s@@A DD FLAT:$SG74681	; sk_headcrab_health2
	DD	FLAT:$SG74682
	DD	00H
	DD	000000000r			; 0
	DD	00H
?sk_headcrab_health3@@3Ucvar_s@@A DD FLAT:$SG74684	; sk_headcrab_health3
	DD	FLAT:$SG74685
	DD	00H
	DD	000000000r			; 0
	DD	00H
?sk_headcrab_dmg_bite1@@3Ucvar_s@@A DD FLAT:$SG74687	; sk_headcrab_dmg_bite1
	DD	FLAT:$SG74688
	DD	00H
	DD	000000000r			; 0
	DD	00H
?sk_headcrab_dmg_bite2@@3Ucvar_s@@A DD FLAT:$SG74690	; sk_headcrab_dmg_bite2
	DD	FLAT:$SG74691
	DD	00H
	DD	000000000r			; 0
	DD	00H
?sk_headcrab_dmg_bite3@@3Ucvar_s@@A DD FLAT:$SG74693	; sk_headcrab_dmg_bite3
	DD	FLAT:$SG74694
	DD	00H
	DD	000000000r			; 0
	DD	00H
?sk_hgrunt_health1@@3Ucvar_s@@A DD FLAT:$SG74696	; sk_hgrunt_health1
	DD	FLAT:$SG74697
	DD	00H
	DD	000000000r			; 0
	DD	00H
?sk_hgrunt_health2@@3Ucvar_s@@A DD FLAT:$SG74699	; sk_hgrunt_health2
	DD	FLAT:$SG74700
	DD	00H
	DD	000000000r			; 0
	DD	00H
?sk_hgrunt_health3@@3Ucvar_s@@A DD FLAT:$SG74702	; sk_hgrunt_health3
	DD	FLAT:$SG74703
	DD	00H
	DD	000000000r			; 0
	DD	00H
?sk_hgrunt_kick1@@3Ucvar_s@@A DD FLAT:$SG74705		; sk_hgrunt_kick1
	DD	FLAT:$SG74706
	DD	00H
	DD	000000000r			; 0
	DD	00H
?sk_hgrunt_kick2@@3Ucvar_s@@A DD FLAT:$SG74708		; sk_hgrunt_kick2
	DD	FLAT:$SG74709
	DD	00H
	DD	000000000r			; 0
	DD	00H
?sk_hgrunt_kick3@@3Ucvar_s@@A DD FLAT:$SG74711		; sk_hgrunt_kick3
	DD	FLAT:$SG74712
	DD	00H
	DD	000000000r			; 0
	DD	00H
?sk_hgrunt_pellets1@@3Ucvar_s@@A DD FLAT:$SG74714	; sk_hgrunt_pellets1
	DD	FLAT:$SG74715
	DD	00H
	DD	000000000r			; 0
	DD	00H
?sk_hgrunt_pellets2@@3Ucvar_s@@A DD FLAT:$SG74717	; sk_hgrunt_pellets2
	DD	FLAT:$SG74718
	DD	00H
	DD	000000000r			; 0
	DD	00H
?sk_hgrunt_pellets3@@3Ucvar_s@@A DD FLAT:$SG74720	; sk_hgrunt_pellets3
	DD	FLAT:$SG74721
	DD	00H
	DD	000000000r			; 0
	DD	00H
?sk_hgrunt_gspeed1@@3Ucvar_s@@A DD FLAT:$SG74723	; sk_hgrunt_gspeed1
	DD	FLAT:$SG74724
	DD	00H
	DD	000000000r			; 0
	DD	00H
?sk_hgrunt_gspeed2@@3Ucvar_s@@A DD FLAT:$SG74726	; sk_hgrunt_gspeed2
	DD	FLAT:$SG74727
	DD	00H
	DD	000000000r			; 0
	DD	00H
?sk_hgrunt_gspeed3@@3Ucvar_s@@A DD FLAT:$SG74729	; sk_hgrunt_gspeed3
	DD	FLAT:$SG74730
	DD	00H
	DD	000000000r			; 0
	DD	00H
?sk_houndeye_health1@@3Ucvar_s@@A DD FLAT:$SG74732	; sk_houndeye_health1
	DD	FLAT:$SG74733
	DD	00H
	DD	000000000r			; 0
	DD	00H
?sk_houndeye_health2@@3Ucvar_s@@A DD FLAT:$SG74735	; sk_houndeye_health2
	DD	FLAT:$SG74736
	DD	00H
	DD	000000000r			; 0
	DD	00H
?sk_houndeye_health3@@3Ucvar_s@@A DD FLAT:$SG74738	; sk_houndeye_health3
	DD	FLAT:$SG74739
	DD	00H
	DD	000000000r			; 0
	DD	00H
?sk_houndeye_dmg_blast1@@3Ucvar_s@@A DD FLAT:$SG74741	; sk_houndeye_dmg_blast1
	DD	FLAT:$SG74742
	DD	00H
	DD	000000000r			; 0
	DD	00H
?sk_houndeye_dmg_blast2@@3Ucvar_s@@A DD FLAT:$SG74744	; sk_houndeye_dmg_blast2
	DD	FLAT:$SG74745
	DD	00H
	DD	000000000r			; 0
	DD	00H
?sk_houndeye_dmg_blast3@@3Ucvar_s@@A DD FLAT:$SG74747	; sk_houndeye_dmg_blast3
	DD	FLAT:$SG74748
	DD	00H
	DD	000000000r			; 0
	DD	00H
?sk_islave_health1@@3Ucvar_s@@A DD FLAT:$SG74750	; sk_islave_health1
	DD	FLAT:$SG74751
	DD	00H
	DD	000000000r			; 0
	DD	00H
?sk_islave_health2@@3Ucvar_s@@A DD FLAT:$SG74753	; sk_islave_health2
	DD	FLAT:$SG74754
	DD	00H
	DD	000000000r			; 0
	DD	00H
?sk_islave_health3@@3Ucvar_s@@A DD FLAT:$SG74756	; sk_islave_health3
	DD	FLAT:$SG74757
	DD	00H
	DD	000000000r			; 0
	DD	00H
?sk_islave_dmg_claw1@@3Ucvar_s@@A DD FLAT:$SG74759	; sk_islave_dmg_claw1
	DD	FLAT:$SG74760
	DD	00H
	DD	000000000r			; 0
	DD	00H
?sk_islave_dmg_claw2@@3Ucvar_s@@A DD FLAT:$SG74762	; sk_islave_dmg_claw2
	DD	FLAT:$SG74763
	DD	00H
	DD	000000000r			; 0
	DD	00H
?sk_islave_dmg_claw3@@3Ucvar_s@@A DD FLAT:$SG74765	; sk_islave_dmg_claw3
	DD	FLAT:$SG74766
	DD	00H
	DD	000000000r			; 0
	DD	00H
?sk_islave_dmg_clawrake1@@3Ucvar_s@@A DD FLAT:$SG74768	; sk_islave_dmg_clawrake1
	DD	FLAT:$SG74769
	DD	00H
	DD	000000000r			; 0
	DD	00H
?sk_islave_dmg_clawrake2@@3Ucvar_s@@A DD FLAT:$SG74771	; sk_islave_dmg_clawrake2
	DD	FLAT:$SG74772
	DD	00H
	DD	000000000r			; 0
	DD	00H
?sk_islave_dmg_clawrake3@@3Ucvar_s@@A DD FLAT:$SG74774	; sk_islave_dmg_clawrake3
	DD	FLAT:$SG74775
	DD	00H
	DD	000000000r			; 0
	DD	00H
?sk_islave_dmg_zap1@@3Ucvar_s@@A DD FLAT:$SG74777	; sk_islave_dmg_zap1
	DD	FLAT:$SG74778
	DD	00H
	DD	000000000r			; 0
	DD	00H
?sk_islave_dmg_zap2@@3Ucvar_s@@A DD FLAT:$SG74780	; sk_islave_dmg_zap2
	DD	FLAT:$SG74781
	DD	00H
	DD	000000000r			; 0
	DD	00H
?sk_islave_dmg_zap3@@3Ucvar_s@@A DD FLAT:$SG74783	; sk_islave_dmg_zap3
	DD	FLAT:$SG74784
	DD	00H
	DD	000000000r			; 0
	DD	00H
?sk_ichthyosaur_health1@@3Ucvar_s@@A DD FLAT:$SG74786	; sk_ichthyosaur_health1
	DD	FLAT:$SG74787
	DD	00H
	DD	000000000r			; 0
	DD	00H
?sk_ichthyosaur_health2@@3Ucvar_s@@A DD FLAT:$SG74789	; sk_ichthyosaur_health2
	DD	FLAT:$SG74790
	DD	00H
	DD	000000000r			; 0
	DD	00H
?sk_ichthyosaur_health3@@3Ucvar_s@@A DD FLAT:$SG74792	; sk_ichthyosaur_health3
	DD	FLAT:$SG74793
	DD	00H
	DD	000000000r			; 0
	DD	00H
?sk_ichthyosaur_shake1@@3Ucvar_s@@A DD FLAT:$SG74795	; sk_ichthyosaur_shake1
	DD	FLAT:$SG74796
	DD	00H
	DD	000000000r			; 0
	DD	00H
?sk_ichthyosaur_shake2@@3Ucvar_s@@A DD FLAT:$SG74798	; sk_ichthyosaur_shake2
	DD	FLAT:$SG74799
	DD	00H
	DD	000000000r			; 0
	DD	00H
?sk_ichthyosaur_shake3@@3Ucvar_s@@A DD FLAT:$SG74801	; sk_ichthyosaur_shake3
	DD	FLAT:$SG74802
	DD	00H
	DD	000000000r			; 0
	DD	00H
?sk_leech_health1@@3Ucvar_s@@A DD FLAT:$SG74804		; sk_leech_health1
	DD	FLAT:$SG74805
	DD	00H
	DD	000000000r			; 0
	DD	00H
?sk_leech_health2@@3Ucvar_s@@A DD FLAT:$SG74807		; sk_leech_health2
	DD	FLAT:$SG74808
	DD	00H
	DD	000000000r			; 0
	DD	00H
?sk_leech_health3@@3Ucvar_s@@A DD FLAT:$SG74810		; sk_leech_health3
	DD	FLAT:$SG74811
	DD	00H
	DD	000000000r			; 0
	DD	00H
?sk_leech_dmg_bite1@@3Ucvar_s@@A DD FLAT:$SG74813	; sk_leech_dmg_bite1
	DD	FLAT:$SG74814
	DD	00H
	DD	000000000r			; 0
	DD	00H
?sk_leech_dmg_bite2@@3Ucvar_s@@A DD FLAT:$SG74816	; sk_leech_dmg_bite2
	DD	FLAT:$SG74817
	DD	00H
	DD	000000000r			; 0
	DD	00H
?sk_leech_dmg_bite3@@3Ucvar_s@@A DD FLAT:$SG74819	; sk_leech_dmg_bite3
	DD	FLAT:$SG74820
	DD	00H
	DD	000000000r			; 0
	DD	00H
?sk_controller_health1@@3Ucvar_s@@A DD FLAT:$SG74822	; sk_controller_health1
	DD	FLAT:$SG74823
	DD	00H
	DD	000000000r			; 0
	DD	00H
?sk_controller_health2@@3Ucvar_s@@A DD FLAT:$SG74825	; sk_controller_health2
	DD	FLAT:$SG74826
	DD	00H
	DD	000000000r			; 0
	DD	00H
?sk_controller_health3@@3Ucvar_s@@A DD FLAT:$SG74828	; sk_controller_health3
	DD	FLAT:$SG74829
	DD	00H
	DD	000000000r			; 0
	DD	00H
?sk_controller_dmgzap1@@3Ucvar_s@@A DD FLAT:$SG74831	; sk_controller_dmgzap1
	DD	FLAT:$SG74832
	DD	00H
	DD	000000000r			; 0
	DD	00H
?sk_controller_dmgzap2@@3Ucvar_s@@A DD FLAT:$SG74834	; sk_controller_dmgzap2
	DD	FLAT:$SG74835
	DD	00H
	DD	000000000r			; 0
	DD	00H
?sk_controller_dmgzap3@@3Ucvar_s@@A DD FLAT:$SG74837	; sk_controller_dmgzap3
	DD	FLAT:$SG74838
	DD	00H
	DD	000000000r			; 0
	DD	00H
?sk_controller_speedball1@@3Ucvar_s@@A DD FLAT:$SG74840	; sk_controller_speedball1
	DD	FLAT:$SG74841
	DD	00H
	DD	000000000r			; 0
	DD	00H
?sk_controller_speedball2@@3Ucvar_s@@A DD FLAT:$SG74843	; sk_controller_speedball2
	DD	FLAT:$SG74844
	DD	00H
	DD	000000000r			; 0
	DD	00H
?sk_controller_speedball3@@3Ucvar_s@@A DD FLAT:$SG74846	; sk_controller_speedball3
	DD	FLAT:$SG74847
	DD	00H
	DD	000000000r			; 0
	DD	00H
?sk_controller_dmgball1@@3Ucvar_s@@A DD FLAT:$SG74849	; sk_controller_dmgball1
	DD	FLAT:$SG74850
	DD	00H
	DD	000000000r			; 0
	DD	00H
?sk_controller_dmgball2@@3Ucvar_s@@A DD FLAT:$SG74852	; sk_controller_dmgball2
	DD	FLAT:$SG74853
	DD	00H
	DD	000000000r			; 0
	DD	00H
?sk_controller_dmgball3@@3Ucvar_s@@A DD FLAT:$SG74855	; sk_controller_dmgball3
	DD	FLAT:$SG74856
	DD	00H
	DD	000000000r			; 0
	DD	00H
?sk_nihilanth_health1@@3Ucvar_s@@A DD FLAT:$SG74858	; sk_nihilanth_health1
	DD	FLAT:$SG74859
	DD	00H
	DD	000000000r			; 0
	DD	00H
?sk_nihilanth_health2@@3Ucvar_s@@A DD FLAT:$SG74861	; sk_nihilanth_health2
	DD	FLAT:$SG74862
	DD	00H
	DD	000000000r			; 0
	DD	00H
?sk_nihilanth_health3@@3Ucvar_s@@A DD FLAT:$SG74864	; sk_nihilanth_health3
	DD	FLAT:$SG74865
	DD	00H
	DD	000000000r			; 0
	DD	00H
?sk_nihilanth_zap1@@3Ucvar_s@@A DD FLAT:$SG74867	; sk_nihilanth_zap1
	DD	FLAT:$SG74868
	DD	00H
	DD	000000000r			; 0
	DD	00H
?sk_nihilanth_zap2@@3Ucvar_s@@A DD FLAT:$SG74870	; sk_nihilanth_zap2
	DD	FLAT:$SG74871
	DD	00H
	DD	000000000r			; 0
	DD	00H
?sk_nihilanth_zap3@@3Ucvar_s@@A DD FLAT:$SG74873	; sk_nihilanth_zap3
	DD	FLAT:$SG74874
	DD	00H
	DD	000000000r			; 0
	DD	00H
?sk_scientist_health1@@3Ucvar_s@@A DD FLAT:$SG74876	; sk_scientist_health1
	DD	FLAT:$SG74877
	DD	00H
	DD	000000000r			; 0
	DD	00H
?sk_scientist_health2@@3Ucvar_s@@A DD FLAT:$SG74879	; sk_scientist_health2
	DD	FLAT:$SG74880
	DD	00H
	DD	000000000r			; 0
	DD	00H
?sk_scientist_health3@@3Ucvar_s@@A DD FLAT:$SG74882	; sk_scientist_health3
	DD	FLAT:$SG74883
	DD	00H
	DD	000000000r			; 0
	DD	00H
?sk_snark_health1@@3Ucvar_s@@A DD FLAT:$SG74885		; sk_snark_health1
	DD	FLAT:$SG74886
	DD	00H
	DD	000000000r			; 0
	DD	00H
?sk_snark_health2@@3Ucvar_s@@A DD FLAT:$SG74888		; sk_snark_health2
	DD	FLAT:$SG74889
	DD	00H
	DD	000000000r			; 0
	DD	00H
?sk_snark_health3@@3Ucvar_s@@A DD FLAT:$SG74891		; sk_snark_health3
	DD	FLAT:$SG74892
	DD	00H
	DD	000000000r			; 0
	DD	00H
?sk_snark_dmg_bite1@@3Ucvar_s@@A DD FLAT:$SG74894	; sk_snark_dmg_bite1
	DD	FLAT:$SG74895
	DD	00H
	DD	000000000r			; 0
	DD	00H
?sk_snark_dmg_bite2@@3Ucvar_s@@A DD FLAT:$SG74897	; sk_snark_dmg_bite2
	DD	FLAT:$SG74898
	DD	00H
	DD	000000000r			; 0
	DD	00H
?sk_snark_dmg_bite3@@3Ucvar_s@@A DD FLAT:$SG74900	; sk_snark_dmg_bite3
	DD	FLAT:$SG74901
	DD	00H
	DD	000000000r			; 0
	DD	00H
?sk_snark_dmg_pop1@@3Ucvar_s@@A DD FLAT:$SG74903	; sk_snark_dmg_pop1
	DD	FLAT:$SG74904
	DD	00H
	DD	000000000r			; 0
	DD	00H
?sk_snark_dmg_pop2@@3Ucvar_s@@A DD FLAT:$SG74906	; sk_snark_dmg_pop2
	DD	FLAT:$SG74907
	DD	00H
	DD	000000000r			; 0
	DD	00H
?sk_snark_dmg_pop3@@3Ucvar_s@@A DD FLAT:$SG74909	; sk_snark_dmg_pop3
	DD	FLAT:$SG74910
	DD	00H
	DD	000000000r			; 0
	DD	00H
?sk_zombie_health1@@3Ucvar_s@@A DD FLAT:$SG74912	; sk_zombie_health1
	DD	FLAT:$SG74913
	DD	00H
	DD	000000000r			; 0
	DD	00H
?sk_zombie_health2@@3Ucvar_s@@A DD FLAT:$SG74915	; sk_zombie_health2
	DD	FLAT:$SG74916
	DD	00H
	DD	000000000r			; 0
	DD	00H
?sk_zombie_health3@@3Ucvar_s@@A DD FLAT:$SG74918	; sk_zombie_health3
	DD	FLAT:$SG74919
	DD	00H
	DD	000000000r			; 0
	DD	00H
?sk_zombie_dmg_one_slash1@@3Ucvar_s@@A DD FLAT:$SG74921	; sk_zombie_dmg_one_slash1
	DD	FLAT:$SG74922
	DD	00H
	DD	000000000r			; 0
	DD	00H
?sk_zombie_dmg_one_slash2@@3Ucvar_s@@A DD FLAT:$SG74924	; sk_zombie_dmg_one_slash2
	DD	FLAT:$SG74925
	DD	00H
	DD	000000000r			; 0
	DD	00H
?sk_zombie_dmg_one_slash3@@3Ucvar_s@@A DD FLAT:$SG74927	; sk_zombie_dmg_one_slash3
	DD	FLAT:$SG74928
	DD	00H
	DD	000000000r			; 0
	DD	00H
?sk_zombie_dmg_both_slash1@@3Ucvar_s@@A DD FLAT:$SG74930 ; sk_zombie_dmg_both_slash1
	DD	FLAT:$SG74931
	DD	00H
	DD	000000000r			; 0
	DD	00H
?sk_zombie_dmg_both_slash2@@3Ucvar_s@@A DD FLAT:$SG74933 ; sk_zombie_dmg_both_slash2
	DD	FLAT:$SG74934
	DD	00H
	DD	000000000r			; 0
	DD	00H
?sk_zombie_dmg_both_slash3@@3Ucvar_s@@A DD FLAT:$SG74936 ; sk_zombie_dmg_both_slash3
	DD	FLAT:$SG74937
	DD	00H
	DD	000000000r			; 0
	DD	00H
?sk_turret_health1@@3Ucvar_s@@A DD FLAT:$SG74939	; sk_turret_health1
	DD	FLAT:$SG74940
	DD	00H
	DD	000000000r			; 0
	DD	00H
?sk_turret_health2@@3Ucvar_s@@A DD FLAT:$SG74942	; sk_turret_health2
	DD	FLAT:$SG74943
	DD	00H
	DD	000000000r			; 0
	DD	00H
?sk_turret_health3@@3Ucvar_s@@A DD FLAT:$SG74945	; sk_turret_health3
	DD	FLAT:$SG74946
	DD	00H
	DD	000000000r			; 0
	DD	00H
?sk_miniturret_health1@@3Ucvar_s@@A DD FLAT:$SG74948	; sk_miniturret_health1
	DD	FLAT:$SG74949
	DD	00H
	DD	000000000r			; 0
	DD	00H
?sk_miniturret_health2@@3Ucvar_s@@A DD FLAT:$SG74951	; sk_miniturret_health2
	DD	FLAT:$SG74952
	DD	00H
	DD	000000000r			; 0
	DD	00H
?sk_miniturret_health3@@3Ucvar_s@@A DD FLAT:$SG74954	; sk_miniturret_health3
	DD	FLAT:$SG74955
	DD	00H
	DD	000000000r			; 0
	DD	00H
?sk_sentry_health1@@3Ucvar_s@@A DD FLAT:$SG74957	; sk_sentry_health1
	DD	FLAT:$SG74958
	DD	00H
	DD	000000000r			; 0
	DD	00H
?sk_sentry_health2@@3Ucvar_s@@A DD FLAT:$SG74960	; sk_sentry_health2
	DD	FLAT:$SG74961
	DD	00H
	DD	000000000r			; 0
	DD	00H
?sk_sentry_health3@@3Ucvar_s@@A DD FLAT:$SG74963	; sk_sentry_health3
	DD	FLAT:$SG74964
	DD	00H
	DD	000000000r			; 0
	DD	00H
?sk_plr_crowbar1@@3Ucvar_s@@A DD FLAT:$SG74966		; sk_plr_crowbar1
	DD	FLAT:$SG74967
	DD	00H
	DD	000000000r			; 0
	DD	00H
?sk_plr_crowbar2@@3Ucvar_s@@A DD FLAT:$SG74969		; sk_plr_crowbar2
	DD	FLAT:$SG74970
	DD	00H
	DD	000000000r			; 0
	DD	00H
?sk_plr_crowbar3@@3Ucvar_s@@A DD FLAT:$SG74972		; sk_plr_crowbar3
	DD	FLAT:$SG74973
	DD	00H
	DD	000000000r			; 0
	DD	00H
?sk_plr_9mm_bullet1@@3Ucvar_s@@A DD FLAT:$SG74975	; sk_plr_9mm_bullet1
	DD	FLAT:$SG74976
	DD	00H
	DD	000000000r			; 0
	DD	00H
?sk_plr_9mm_bullet2@@3Ucvar_s@@A DD FLAT:$SG74978	; sk_plr_9mm_bullet2
	DD	FLAT:$SG74979
	DD	00H
	DD	000000000r			; 0
	DD	00H
?sk_plr_9mm_bullet3@@3Ucvar_s@@A DD FLAT:$SG74981	; sk_plr_9mm_bullet3
	DD	FLAT:$SG74982
	DD	00H
	DD	000000000r			; 0
	DD	00H
?sk_plr_357_bullet1@@3Ucvar_s@@A DD FLAT:$SG74984	; sk_plr_357_bullet1
	DD	FLAT:$SG74985
	DD	00H
	DD	000000000r			; 0
	DD	00H
?sk_plr_357_bullet2@@3Ucvar_s@@A DD FLAT:$SG74987	; sk_plr_357_bullet2
	DD	FLAT:$SG74988
	DD	00H
	DD	000000000r			; 0
	DD	00H
?sk_plr_357_bullet3@@3Ucvar_s@@A DD FLAT:$SG74990	; sk_plr_357_bullet3
	DD	FLAT:$SG74991
	DD	00H
	DD	000000000r			; 0
	DD	00H
?sk_plr_9mmAR_bullet1@@3Ucvar_s@@A DD FLAT:$SG74993	; sk_plr_9mmAR_bullet1
	DD	FLAT:$SG74994
	DD	00H
	DD	000000000r			; 0
	DD	00H
?sk_plr_9mmAR_bullet2@@3Ucvar_s@@A DD FLAT:$SG74996	; sk_plr_9mmAR_bullet2
	DD	FLAT:$SG74997
	DD	00H
	DD	000000000r			; 0
	DD	00H
?sk_plr_9mmAR_bullet3@@3Ucvar_s@@A DD FLAT:$SG74999	; sk_plr_9mmAR_bullet3
	DD	FLAT:$SG75000
	DD	00H
	DD	000000000r			; 0
	DD	00H
?sk_plr_9mmAR_grenade1@@3Ucvar_s@@A DD FLAT:$SG75002	; sk_plr_9mmAR_grenade1
	DD	FLAT:$SG75003
	DD	00H
	DD	000000000r			; 0
	DD	00H
?sk_plr_9mmAR_grenade2@@3Ucvar_s@@A DD FLAT:$SG75005	; sk_plr_9mmAR_grenade2
	DD	FLAT:$SG75006
	DD	00H
	DD	000000000r			; 0
	DD	00H
?sk_plr_9mmAR_grenade3@@3Ucvar_s@@A DD FLAT:$SG75008	; sk_plr_9mmAR_grenade3
	DD	FLAT:$SG75009
	DD	00H
	DD	000000000r			; 0
	DD	00H
?sk_plr_buckshot1@@3Ucvar_s@@A DD FLAT:$SG75011		; sk_plr_buckshot1
	DD	FLAT:$SG75012
	DD	00H
	DD	000000000r			; 0
	DD	00H
?sk_plr_buckshot2@@3Ucvar_s@@A DD FLAT:$SG75014		; sk_plr_buckshot2
	DD	FLAT:$SG75015
	DD	00H
	DD	000000000r			; 0
	DD	00H
?sk_plr_buckshot3@@3Ucvar_s@@A DD FLAT:$SG75017		; sk_plr_buckshot3
	DD	FLAT:$SG75018
	DD	00H
	DD	000000000r			; 0
	DD	00H
?sk_plr_xbow_bolt_client1@@3Ucvar_s@@A DD FLAT:$SG75020	; sk_plr_xbow_bolt_client1
	DD	FLAT:$SG75021
	DD	00H
	DD	000000000r			; 0
	DD	00H
?sk_plr_xbow_bolt_client2@@3Ucvar_s@@A DD FLAT:$SG75023	; sk_plr_xbow_bolt_client2
	DD	FLAT:$SG75024
	DD	00H
	DD	000000000r			; 0
	DD	00H
?sk_plr_xbow_bolt_client3@@3Ucvar_s@@A DD FLAT:$SG75026	; sk_plr_xbow_bolt_client3
	DD	FLAT:$SG75027
	DD	00H
	DD	000000000r			; 0
	DD	00H
?sk_plr_xbow_bolt_monster1@@3Ucvar_s@@A DD FLAT:$SG75029 ; sk_plr_xbow_bolt_monster1
	DD	FLAT:$SG75030
	DD	00H
	DD	000000000r			; 0
	DD	00H
?sk_plr_xbow_bolt_monster2@@3Ucvar_s@@A DD FLAT:$SG75032 ; sk_plr_xbow_bolt_monster2
	DD	FLAT:$SG75033
	DD	00H
	DD	000000000r			; 0
	DD	00H
?sk_plr_xbow_bolt_monster3@@3Ucvar_s@@A DD FLAT:$SG75035 ; sk_plr_xbow_bolt_monster3
	DD	FLAT:$SG75036
	DD	00H
	DD	000000000r			; 0
	DD	00H
?sk_plr_rpg1@@3Ucvar_s@@A DD FLAT:$SG75038		; sk_plr_rpg1
	DD	FLAT:$SG75039
	DD	00H
	DD	000000000r			; 0
	DD	00H
?sk_plr_rpg2@@3Ucvar_s@@A DD FLAT:$SG75041		; sk_plr_rpg2
	DD	FLAT:$SG75042
	DD	00H
	DD	000000000r			; 0
	DD	00H
?sk_plr_rpg3@@3Ucvar_s@@A DD FLAT:$SG75044		; sk_plr_rpg3
	DD	FLAT:$SG75045
	DD	00H
	DD	000000000r			; 0
	DD	00H
?sk_plr_gauss1@@3Ucvar_s@@A DD FLAT:$SG75047		; sk_plr_gauss1
	DD	FLAT:$SG75048
	DD	00H
	DD	000000000r			; 0
	DD	00H
?sk_plr_gauss2@@3Ucvar_s@@A DD FLAT:$SG75050		; sk_plr_gauss2
	DD	FLAT:$SG75051
	DD	00H
	DD	000000000r			; 0
	DD	00H
?sk_plr_gauss3@@3Ucvar_s@@A DD FLAT:$SG75053		; sk_plr_gauss3
	DD	FLAT:$SG75054
	DD	00H
	DD	000000000r			; 0
	DD	00H
?sk_plr_egon_narrow1@@3Ucvar_s@@A DD FLAT:$SG75056	; sk_plr_egon_narrow1
	DD	FLAT:$SG75057
	DD	00H
	DD	000000000r			; 0
	DD	00H
?sk_plr_egon_narrow2@@3Ucvar_s@@A DD FLAT:$SG75059	; sk_plr_egon_narrow2
	DD	FLAT:$SG75060
	DD	00H
	DD	000000000r			; 0
	DD	00H
?sk_plr_egon_narrow3@@3Ucvar_s@@A DD FLAT:$SG75062	; sk_plr_egon_narrow3
	DD	FLAT:$SG75063
	DD	00H
	DD	000000000r			; 0
	DD	00H
?sk_plr_egon_wide1@@3Ucvar_s@@A DD FLAT:$SG75065	; sk_plr_egon_wide1
	DD	FLAT:$SG75066
	DD	00H
	DD	000000000r			; 0
	DD	00H
?sk_plr_egon_wide2@@3Ucvar_s@@A DD FLAT:$SG75068	; sk_plr_egon_wide2
	DD	FLAT:$SG75069
	DD	00H
	DD	000000000r			; 0
	DD	00H
?sk_plr_egon_wide3@@3Ucvar_s@@A DD FLAT:$SG75071	; sk_plr_egon_wide3
	DD	FLAT:$SG75072
	DD	00H
	DD	000000000r			; 0
	DD	00H
?sk_plr_hand_grenade1@@3Ucvar_s@@A DD FLAT:$SG75074	; sk_plr_hand_grenade1
	DD	FLAT:$SG75075
	DD	00H
	DD	000000000r			; 0
	DD	00H
?sk_plr_hand_grenade2@@3Ucvar_s@@A DD FLAT:$SG75077	; sk_plr_hand_grenade2
	DD	FLAT:$SG75078
	DD	00H
	DD	000000000r			; 0
	DD	00H
?sk_plr_hand_grenade3@@3Ucvar_s@@A DD FLAT:$SG75080	; sk_plr_hand_grenade3
	DD	FLAT:$SG75081
	DD	00H
	DD	000000000r			; 0
	DD	00H
?sk_plr_satchel1@@3Ucvar_s@@A DD FLAT:$SG75083		; sk_plr_satchel1
	DD	FLAT:$SG75084
	DD	00H
	DD	000000000r			; 0
	DD	00H
?sk_plr_satchel2@@3Ucvar_s@@A DD FLAT:$SG75086		; sk_plr_satchel2
	DD	FLAT:$SG75087
	DD	00H
	DD	000000000r			; 0
	DD	00H
?sk_plr_satchel3@@3Ucvar_s@@A DD FLAT:$SG75089		; sk_plr_satchel3
	DD	FLAT:$SG75090
	DD	00H
	DD	000000000r			; 0
	DD	00H
?sk_plr_tripmine1@@3Ucvar_s@@A DD FLAT:$SG75092		; sk_plr_tripmine1
	DD	FLAT:$SG75093
	DD	00H
	DD	000000000r			; 0
	DD	00H
?sk_plr_tripmine2@@3Ucvar_s@@A DD FLAT:$SG75095		; sk_plr_tripmine2
	DD	FLAT:$SG75096
	DD	00H
	DD	000000000r			; 0
	DD	00H
?sk_plr_tripmine3@@3Ucvar_s@@A DD FLAT:$SG75098		; sk_plr_tripmine3
	DD	FLAT:$SG75099
	DD	00H
	DD	000000000r			; 0
	DD	00H
?sk_12mm_bullet1@@3Ucvar_s@@A DD FLAT:$SG75101		; sk_12mm_bullet1
	DD	FLAT:$SG75102
	DD	00H
	DD	000000000r			; 0
	DD	00H
?sk_12mm_bullet2@@3Ucvar_s@@A DD FLAT:$SG75104		; sk_12mm_bullet2
	DD	FLAT:$SG75105
	DD	00H
	DD	000000000r			; 0
	DD	00H
?sk_12mm_bullet3@@3Ucvar_s@@A DD FLAT:$SG75107		; sk_12mm_bullet3
	DD	FLAT:$SG75108
	DD	00H
	DD	000000000r			; 0
	DD	00H
?sk_9mmAR_bullet1@@3Ucvar_s@@A DD FLAT:$SG75110		; sk_9mmAR_bullet1
	DD	FLAT:$SG75111
	DD	00H
	DD	000000000r			; 0
	DD	00H
?sk_9mmAR_bullet2@@3Ucvar_s@@A DD FLAT:$SG75113		; sk_9mmAR_bullet2
	DD	FLAT:$SG75114
	DD	00H
	DD	000000000r			; 0
	DD	00H
?sk_9mmAR_bullet3@@3Ucvar_s@@A DD FLAT:$SG75116		; sk_9mmAR_bullet3
	DD	FLAT:$SG75117
	DD	00H
	DD	000000000r			; 0
	DD	00H
?sk_9mm_bullet1@@3Ucvar_s@@A DD FLAT:$SG75119		; sk_9mm_bullet1
	DD	FLAT:$SG75120
	DD	00H
	DD	000000000r			; 0
	DD	00H
?sk_9mm_bullet2@@3Ucvar_s@@A DD FLAT:$SG75122		; sk_9mm_bullet2
	DD	FLAT:$SG75123
	DD	00H
	DD	000000000r			; 0
	DD	00H
?sk_9mm_bullet3@@3Ucvar_s@@A DD FLAT:$SG75125		; sk_9mm_bullet3
	DD	FLAT:$SG75126
	DD	00H
	DD	000000000r			; 0
	DD	00H
?sk_hornet_dmg1@@3Ucvar_s@@A DD FLAT:$SG75128		; sk_hornet_dmg1
	DD	FLAT:$SG75129
	DD	00H
	DD	000000000r			; 0
	DD	00H
?sk_hornet_dmg2@@3Ucvar_s@@A DD FLAT:$SG75131		; sk_hornet_dmg2
	DD	FLAT:$SG75132
	DD	00H
	DD	000000000r			; 0
	DD	00H
?sk_hornet_dmg3@@3Ucvar_s@@A DD FLAT:$SG75134		; sk_hornet_dmg3
	DD	FLAT:$SG75135
	DD	00H
	DD	000000000r			; 0
	DD	00H
?sk_suitcharger1@@3Ucvar_s@@A DD FLAT:$SG75137		; sk_suitcharger1
	DD	FLAT:$SG75138
	DD	00H
	DD	000000000r			; 0
	DD	00H
?sk_suitcharger2@@3Ucvar_s@@A DD FLAT:$SG75140		; sk_suitcharger2
	DD	FLAT:$SG75141
	DD	00H
	DD	000000000r			; 0
	DD	00H
?sk_suitcharger3@@3Ucvar_s@@A DD FLAT:$SG75143		; sk_suitcharger3
	DD	FLAT:$SG75144
	DD	00H
	DD	000000000r			; 0
	DD	00H
?sk_battery1@@3Ucvar_s@@A DD FLAT:$SG75146		; sk_battery1
	DD	FLAT:$SG75147
	DD	00H
	DD	000000000r			; 0
	DD	00H
?sk_battery2@@3Ucvar_s@@A DD FLAT:$SG75149		; sk_battery2
	DD	FLAT:$SG75150
	DD	00H
	DD	000000000r			; 0
	DD	00H
?sk_battery3@@3Ucvar_s@@A DD FLAT:$SG75152		; sk_battery3
	DD	FLAT:$SG75153
	DD	00H
	DD	000000000r			; 0
	DD	00H
?sk_healthcharger1@@3Ucvar_s@@A DD FLAT:$SG75155	; sk_healthcharger1
	DD	FLAT:$SG75156
	DD	00H
	DD	000000000r			; 0
	DD	00H
?sk_healthcharger2@@3Ucvar_s@@A DD FLAT:$SG75158	; sk_healthcharger2
	DD	FLAT:$SG75159
	DD	00H
	DD	000000000r			; 0
	DD	00H
?sk_healthcharger3@@3Ucvar_s@@A DD FLAT:$SG75161	; sk_healthcharger3
	DD	FLAT:$SG75162
	DD	00H
	DD	000000000r			; 0
	DD	00H
?sk_healthkit1@@3Ucvar_s@@A DD FLAT:$SG75164		; sk_healthkit1
	DD	FLAT:$SG75165
	DD	00H
	DD	000000000r			; 0
	DD	00H
?sk_healthkit2@@3Ucvar_s@@A DD FLAT:$SG75167		; sk_healthkit2
	DD	FLAT:$SG75168
	DD	00H
	DD	000000000r			; 0
	DD	00H
?sk_healthkit3@@3Ucvar_s@@A DD FLAT:$SG75170		; sk_healthkit3
	DD	FLAT:$SG75171
	DD	00H
	DD	000000000r			; 0
	DD	00H
?sk_scientist_heal1@@3Ucvar_s@@A DD FLAT:$SG75173	; sk_scientist_heal1
	DD	FLAT:$SG75174
	DD	00H
	DD	000000000r			; 0
	DD	00H
?sk_scientist_heal2@@3Ucvar_s@@A DD FLAT:$SG75176	; sk_scientist_heal2
	DD	FLAT:$SG75177
	DD	00H
	DD	000000000r			; 0
	DD	00H
?sk_scientist_heal3@@3Ucvar_s@@A DD FLAT:$SG75179	; sk_scientist_heal3
	DD	FLAT:$SG75180
	DD	00H
	DD	000000000r			; 0
	DD	00H
?sk_monster_head1@@3Ucvar_s@@A DD FLAT:$SG75182		; sk_monster_head1
	DD	FLAT:$SG75183
	DD	00H
	DD	000000000r			; 0
	DD	00H
?sk_monster_head2@@3Ucvar_s@@A DD FLAT:$SG75185		; sk_monster_head2
	DD	FLAT:$SG75186
	DD	00H
	DD	000000000r			; 0
	DD	00H
?sk_monster_head3@@3Ucvar_s@@A DD FLAT:$SG75188		; sk_monster_head3
	DD	FLAT:$SG75189
	DD	00H
	DD	000000000r			; 0
	DD	00H
?sk_monster_chest1@@3Ucvar_s@@A DD FLAT:$SG75191	; sk_monster_chest1
	DD	FLAT:$SG75192
	DD	00H
	DD	000000000r			; 0
	DD	00H
?sk_monster_chest2@@3Ucvar_s@@A DD FLAT:$SG75194	; sk_monster_chest2
	DD	FLAT:$SG75195
	DD	00H
	DD	000000000r			; 0
	DD	00H
?sk_monster_chest3@@3Ucvar_s@@A DD FLAT:$SG75197	; sk_monster_chest3
	DD	FLAT:$SG75198
	DD	00H
	DD	000000000r			; 0
	DD	00H
?sk_monster_stomach1@@3Ucvar_s@@A DD FLAT:$SG75200	; sk_monster_stomach1
	DD	FLAT:$SG75201
	DD	00H
	DD	000000000r			; 0
	DD	00H
?sk_monster_stomach2@@3Ucvar_s@@A DD FLAT:$SG75203	; sk_monster_stomach2
	DD	FLAT:$SG75204
	DD	00H
	DD	000000000r			; 0
	DD	00H
?sk_monster_stomach3@@3Ucvar_s@@A DD FLAT:$SG75206	; sk_monster_stomach3
	DD	FLAT:$SG75207
	DD	00H
	DD	000000000r			; 0
	DD	00H
?sk_monster_arm1@@3Ucvar_s@@A DD FLAT:$SG75209		; sk_monster_arm1
	DD	FLAT:$SG75210
	DD	00H
	DD	000000000r			; 0
	DD	00H
?sk_monster_arm2@@3Ucvar_s@@A DD FLAT:$SG75212		; sk_monster_arm2
	DD	FLAT:$SG75213
	DD	00H
	DD	000000000r			; 0
	DD	00H
?sk_monster_arm3@@3Ucvar_s@@A DD FLAT:$SG75215		; sk_monster_arm3
	DD	FLAT:$SG75216
	DD	00H
	DD	000000000r			; 0
	DD	00H
?sk_monster_leg1@@3Ucvar_s@@A DD FLAT:$SG75218		; sk_monster_leg1
	DD	FLAT:$SG75219
	DD	00H
	DD	000000000r			; 0
	DD	00H
?sk_monster_leg2@@3Ucvar_s@@A DD FLAT:$SG75221		; sk_monster_leg2
	DD	FLAT:$SG75222
	DD	00H
	DD	000000000r			; 0
	DD	00H
?sk_monster_leg3@@3Ucvar_s@@A DD FLAT:$SG75224		; sk_monster_leg3
	DD	FLAT:$SG75225
	DD	00H
	DD	000000000r			; 0
	DD	00H
?sk_player_head1@@3Ucvar_s@@A DD FLAT:$SG75227		; sk_player_head1
	DD	FLAT:$SG75228
	DD	00H
	DD	000000000r			; 0
	DD	00H
?sk_player_head2@@3Ucvar_s@@A DD FLAT:$SG75230		; sk_player_head2
	DD	FLAT:$SG75231
	DD	00H
	DD	000000000r			; 0
	DD	00H
?sk_player_head3@@3Ucvar_s@@A DD FLAT:$SG75233		; sk_player_head3
	DD	FLAT:$SG75234
	DD	00H
	DD	000000000r			; 0
	DD	00H
?sk_player_chest1@@3Ucvar_s@@A DD FLAT:$SG75236		; sk_player_chest1
	DD	FLAT:$SG75237
	DD	00H
	DD	000000000r			; 0
	DD	00H
?sk_player_chest2@@3Ucvar_s@@A DD FLAT:$SG75239		; sk_player_chest2
	DD	FLAT:$SG75240
	DD	00H
	DD	000000000r			; 0
	DD	00H
?sk_player_chest3@@3Ucvar_s@@A DD FLAT:$SG75242		; sk_player_chest3
	DD	FLAT:$SG75243
	DD	00H
	DD	000000000r			; 0
	DD	00H
?sk_player_stomach1@@3Ucvar_s@@A DD FLAT:$SG75245	; sk_player_stomach1
	DD	FLAT:$SG75246
	DD	00H
	DD	000000000r			; 0
	DD	00H
?sk_player_stomach2@@3Ucvar_s@@A DD FLAT:$SG75248	; sk_player_stomach2
	DD	FLAT:$SG75249
	DD	00H
	DD	000000000r			; 0
	DD	00H
?sk_player_stomach3@@3Ucvar_s@@A DD FLAT:$SG75251	; sk_player_stomach3
	DD	FLAT:$SG75252
	DD	00H
	DD	000000000r			; 0
	DD	00H
?sk_player_arm1@@3Ucvar_s@@A DD FLAT:$SG75254		; sk_player_arm1
	DD	FLAT:$SG75255
	DD	00H
	DD	000000000r			; 0
	DD	00H
?sk_player_arm2@@3Ucvar_s@@A DD FLAT:$SG75257		; sk_player_arm2
	DD	FLAT:$SG75258
	DD	00H
	DD	000000000r			; 0
	DD	00H
?sk_player_arm3@@3Ucvar_s@@A DD FLAT:$SG75260		; sk_player_arm3
	DD	FLAT:$SG75261
	DD	00H
	DD	000000000r			; 0
	DD	00H
?sk_player_leg1@@3Ucvar_s@@A DD FLAT:$SG75263		; sk_player_leg1
	DD	FLAT:$SG75264
	DD	00H
	DD	000000000r			; 0
	DD	00H
?sk_player_leg2@@3Ucvar_s@@A DD FLAT:$SG75266		; sk_player_leg2
	DD	FLAT:$SG75267
	DD	00H
	DD	000000000r			; 0
	DD	00H
?sk_player_leg3@@3Ucvar_s@@A DD FLAT:$SG75269		; sk_player_leg3
	DD	FLAT:$SG75270
	DD	00H
	DD	000000000r			; 0
	DD	00H
?displaysoundlist@@3Ucvar_s@@A DD FLAT:$SG74474		; displaysoundlist
	DD	FLAT:$SG74475
	DD	00H
	DD	000000000r			; 0
	DD	00H
?teamplay@@3Ucvar_s@@A DD FLAT:$SG74482			; teamplay
	DD	FLAT:$SG74483
	DD	04H
	DD	000000000r			; 0
	DD	00H
?fraglimit@@3Ucvar_s@@A DD FLAT:$SG74484		; fraglimit
	DD	FLAT:$SG74485
	DD	04H
	DD	000000000r			; 0
	DD	00H
?timelimit@@3Ucvar_s@@A DD FLAT:$SG74486		; timelimit
	DD	FLAT:$SG74487
	DD	04H
	DD	000000000r			; 0
	DD	00H
?friendlyfire@@3Ucvar_s@@A DD FLAT:$SG74488		; friendlyfire
	DD	FLAT:$SG74489
	DD	04H
	DD	000000000r			; 0
	DD	00H
?falldamage@@3Ucvar_s@@A DD FLAT:$SG74490		; falldamage
	DD	FLAT:$SG74491
	DD	04H
	DD	000000000r			; 0
	DD	00H
?weaponstay@@3Ucvar_s@@A DD FLAT:$SG74492		; weaponstay
	DD	FLAT:$SG74493
	DD	04H
	DD	000000000r			; 0
	DD	00H
?forcerespawn@@3Ucvar_s@@A DD FLAT:$SG74494		; forcerespawn
	DD	FLAT:$SG74495
	DD	04H
	DD	000000000r			; 0
	DD	00H
?flashlight@@3Ucvar_s@@A DD FLAT:$SG74496		; flashlight
	DD	FLAT:$SG74497
	DD	04H
	DD	000000000r			; 0
	DD	00H
?aimcrosshair@@3Ucvar_s@@A DD FLAT:$SG74498		; aimcrosshair
	DD	FLAT:$SG74499
	DD	04H
	DD	000000000r			; 0
	DD	00H
?decalfrequency@@3Ucvar_s@@A DD FLAT:$SG74500		; decalfrequency
	DD	FLAT:$SG74501
	DD	04H
	DD	000000000r			; 0
	DD	00H
?teamlist@@3Ucvar_s@@A DD FLAT:$SG74502			; teamlist
	DD	FLAT:$SG74503
	DD	04H
	DD	000000000r			; 0
	DD	00H
?teamoverride@@3Ucvar_s@@A DD FLAT:$SG74504		; teamoverride
	DD	FLAT:$SG74505
	DD	00H
	DD	000000000r			; 0
	DD	00H
?defaultteam@@3Ucvar_s@@A DD FLAT:$SG74506		; defaultteam
	DD	FLAT:$SG74507
	DD	00H
	DD	000000000r			; 0
	DD	00H
?allowmonsters@@3Ucvar_s@@A DD FLAT:$SG74508		; allowmonsters
	DD	FLAT:$SG74509
	DD	04H
	DD	000000000r			; 0
	DD	00H
?g_sync_physic@@3Ucvar_s@@A DD FLAT:$SG74522		; g_sync_physic
	DD	FLAT:$SG74523
	DD	01H
	DD	000000000r			; 0
	DD	00H
_DATA	ENDS
CONST	SEGMENT
$SG74474 DB	'displaysoundlist', 00H
	ORG $+3
$SG74475 DB	'0', 00H
	ORG $+2
$SG74477 DB	'mp_fragsleft', 00H
	ORG $+3
$SG74478 DB	'0', 00H
	ORG $+2
$SG74480 DB	'mp_timeleft', 00H
$SG74481 DB	'0', 00H
	ORG $+2
$SG74482 DB	'mp_teamplay', 00H
$SG74483 DB	'0', 00H
	ORG $+2
$SG74484 DB	'mp_fraglimit', 00H
	ORG $+3
$SG74485 DB	'0', 00H
	ORG $+2
$SG74486 DB	'mp_timelimit', 00H
	ORG $+3
$SG74487 DB	'0', 00H
	ORG $+2
$SG74488 DB	'mp_friendlyfire', 00H
$SG74489 DB	'0', 00H
	ORG $+2
$SG74490 DB	'mp_falldamage', 00H
	ORG $+2
$SG74491 DB	'0', 00H
	ORG $+2
$SG74492 DB	'mp_weaponstay', 00H
	ORG $+2
$SG74493 DB	'0', 00H
	ORG $+2
$SG74494 DB	'mp_forcerespawn', 00H
$SG74495 DB	'1', 00H
	ORG $+2
$SG74496 DB	'mp_flashlight', 00H
	ORG $+2
$SG74497 DB	'0', 00H
	ORG $+2
$SG74498 DB	'mp_autocrosshair', 00H
	ORG $+3
$SG74499 DB	'1', 00H
	ORG $+2
$SG74500 DB	'decalfrequency', 00H
	ORG $+1
$SG74501 DB	'1', 00H
	ORG $+2
$SG74502 DB	'mp_teamlist', 00H
$SG74503 DB	'hgrunt;scientist', 00H
	ORG $+3
$SG74504 DB	'mp_teamoverride', 00H
$SG74505 DB	'1', 00H
	ORG $+2
$SG74506 DB	'mp_defaultteam', 00H
	ORG $+1
$SG74507 DB	'0', 00H
	ORG $+2
$SG74508 DB	'mp_allowmonsters', 00H
	ORG $+3
$SG74509 DB	'0', 00H
	ORG $+2
$SG74511 DB	'mp_chattime', 00H
$SG74512 DB	'10', 00H
	ORG $+1
$SG74514 DB	'phys_debug', 00H
	ORG $+1
$SG74515 DB	'0', 00H
	ORG $+2
$SG74517 DB	'phys_qdebug', 00H
$SG74518 DB	'0', 00H
	ORG $+2
$SG74520 DB	'p_speeds', 00H
	ORG $+3
$SG74521 DB	'0', 00H
	ORG $+2
$SG74522 DB	'sv_sync_physic', 00H
	ORG $+1
$SG74523 DB	'0', 00H
	ORG $+2
$SG74525 DB	'sk_agrunt_health1', 00H
	ORG $+2
$SG74526 DB	'0', 00H
	ORG $+2
$SG74528 DB	'sk_agrunt_health2', 00H
	ORG $+2
$SG74529 DB	'0', 00H
	ORG $+2
$SG74531 DB	'sk_agrunt_health3', 00H
	ORG $+2
$SG74532 DB	'0', 00H
	ORG $+2
$SG74534 DB	'sk_agrunt_dmg_punch1', 00H
	ORG $+3
$SG74535 DB	'0', 00H
	ORG $+2
$SG74537 DB	'sk_agrunt_dmg_punch2', 00H
	ORG $+3
$SG74538 DB	'0', 00H
	ORG $+2
$SG74540 DB	'sk_agrunt_dmg_punch3', 00H
	ORG $+3
$SG74541 DB	'0', 00H
	ORG $+2
$SG74543 DB	'sk_apache_health1', 00H
	ORG $+2
$SG74544 DB	'0', 00H
	ORG $+2
$SG74546 DB	'sk_apache_health2', 00H
	ORG $+2
$SG74547 DB	'0', 00H
	ORG $+2
$SG74549 DB	'sk_apache_health3', 00H
	ORG $+2
$SG74550 DB	'0', 00H
	ORG $+2
$SG74552 DB	'sk_barney_health1', 00H
	ORG $+2
$SG74553 DB	'0', 00H
	ORG $+2
$SG74555 DB	'sk_barney_health2', 00H
	ORG $+2
$SG74556 DB	'0', 00H
	ORG $+2
$SG74558 DB	'sk_barney_health3', 00H
	ORG $+2
$SG74559 DB	'0', 00H
	ORG $+2
$SG74561 DB	'sk_bullsquid_health1', 00H
	ORG $+3
$SG74562 DB	'0', 00H
	ORG $+2
$SG74564 DB	'sk_bullsquid_health2', 00H
	ORG $+3
$SG74565 DB	'0', 00H
	ORG $+2
$SG74567 DB	'sk_bullsquid_health3', 00H
	ORG $+3
$SG74568 DB	'0', 00H
	ORG $+2
$SG74570 DB	'sk_bullsquid_dmg_bite1', 00H
	ORG $+1
$SG74571 DB	'0', 00H
	ORG $+2
$SG74573 DB	'sk_bullsquid_dmg_bite2', 00H
	ORG $+1
$SG74574 DB	'0', 00H
	ORG $+2
$SG74576 DB	'sk_bullsquid_dmg_bite3', 00H
	ORG $+1
$SG74577 DB	'0', 00H
	ORG $+2
$SG74579 DB	'sk_bullsquid_dmg_whip1', 00H
	ORG $+1
$SG74580 DB	'0', 00H
	ORG $+2
$SG74582 DB	'sk_bullsquid_dmg_whip2', 00H
	ORG $+1
$SG74583 DB	'0', 00H
	ORG $+2
$SG74585 DB	'sk_bullsquid_dmg_whip3', 00H
	ORG $+1
$SG74586 DB	'0', 00H
	ORG $+2
$SG74588 DB	'sk_bullsquid_dmg_spit1', 00H
	ORG $+1
$SG74589 DB	'0', 00H
	ORG $+2
$SG74591 DB	'sk_bullsquid_dmg_spit2', 00H
	ORG $+1
$SG74592 DB	'0', 00H
	ORG $+2
$SG74594 DB	'sk_bullsquid_dmg_spit3', 00H
	ORG $+1
$SG74595 DB	'0', 00H
	ORG $+2
$SG74597 DB	'sk_bigmomma_health_factor1', 00H
	ORG $+1
$SG74598 DB	'1.0', 00H
$SG74600 DB	'sk_bigmomma_health_factor2', 00H
	ORG $+1
$SG74601 DB	'1.0', 00H
$SG74603 DB	'sk_bigmomma_health_factor3', 00H
	ORG $+1
$SG74604 DB	'1.0', 00H
$SG74606 DB	'sk_bigmomma_dmg_slash1', 00H
	ORG $+1
$SG74607 DB	'50', 00H
	ORG $+1
$SG74609 DB	'sk_bigmomma_dmg_slash2', 00H
	ORG $+1
$SG74610 DB	'50', 00H
	ORG $+1
$SG74612 DB	'sk_bigmomma_dmg_slash3', 00H
	ORG $+1
$SG74613 DB	'50', 00H
	ORG $+1
$SG74615 DB	'sk_bigmomma_dmg_blast1', 00H
	ORG $+1
$SG74616 DB	'100', 00H
$SG74618 DB	'sk_bigmomma_dmg_blast2', 00H
	ORG $+1
$SG74619 DB	'100', 00H
$SG74621 DB	'sk_bigmomma_dmg_blast3', 00H
	ORG $+1
$SG74622 DB	'100', 00H
$SG74624 DB	'sk_bigmomma_radius_blast1', 00H
	ORG $+2
$SG74625 DB	'250', 00H
$SG74627 DB	'sk_bigmomma_radius_blast2', 00H
	ORG $+2
$SG74628 DB	'250', 00H
$SG74630 DB	'sk_bigmomma_radius_blast3', 00H
	ORG $+2
$SG74631 DB	'250', 00H
$SG74633 DB	'sk_gargantua_health1', 00H
	ORG $+3
$SG74634 DB	'0', 00H
	ORG $+2
$SG74636 DB	'sk_gargantua_health2', 00H
	ORG $+3
$SG74637 DB	'0', 00H
	ORG $+2
$SG74639 DB	'sk_gargantua_health3', 00H
	ORG $+3
$SG74640 DB	'0', 00H
	ORG $+2
$SG74642 DB	'sk_gargantua_dmg_slash1', 00H
$SG74643 DB	'0', 00H
	ORG $+2
$SG74645 DB	'sk_gargantua_dmg_slash2', 00H
$SG74646 DB	'0', 00H
	ORG $+2
$SG74648 DB	'sk_gargantua_dmg_slash3', 00H
$SG74649 DB	'0', 00H
	ORG $+2
$SG74651 DB	'sk_gargantua_dmg_fire1', 00H
	ORG $+1
$SG74652 DB	'0', 00H
	ORG $+2
$SG74654 DB	'sk_gargantua_dmg_fire2', 00H
	ORG $+1
$SG74655 DB	'0', 00H
	ORG $+2
$SG74657 DB	'sk_gargantua_dmg_fire3', 00H
	ORG $+1
$SG74658 DB	'0', 00H
	ORG $+2
$SG74660 DB	'sk_gargantua_dmg_stomp1', 00H
$SG74661 DB	'0', 00H
	ORG $+2
$SG74663 DB	'sk_gargantua_dmg_stomp2', 00H
$SG74664 DB	'0', 00H
	ORG $+2
$SG74666 DB	'sk_gargantua_dmg_stomp3', 00H
$SG74667 DB	'0', 00H
	ORG $+2
$SG74669 DB	'sk_hassassin_health1', 00H
	ORG $+3
$SG74670 DB	'0', 00H
	ORG $+2
$SG74672 DB	'sk_hassassin_health2', 00H
	ORG $+3
$SG74673 DB	'0', 00H
	ORG $+2
$SG74675 DB	'sk_hassassin_health3', 00H
	ORG $+3
$SG74676 DB	'0', 00H
	ORG $+2
$SG74678 DB	'sk_headcrab_health1', 00H
$SG74679 DB	'0', 00H
	ORG $+2
$SG74681 DB	'sk_headcrab_health2', 00H
$SG74682 DB	'0', 00H
	ORG $+2
$SG74684 DB	'sk_headcrab_health3', 00H
$SG74685 DB	'0', 00H
	ORG $+2
$SG74687 DB	'sk_headcrab_dmg_bite1', 00H
	ORG $+2
$SG74688 DB	'0', 00H
	ORG $+2
$SG74690 DB	'sk_headcrab_dmg_bite2', 00H
	ORG $+2
$SG74691 DB	'0', 00H
	ORG $+2
$SG74693 DB	'sk_headcrab_dmg_bite3', 00H
	ORG $+2
$SG74694 DB	'0', 00H
	ORG $+2
$SG74696 DB	'sk_hgrunt_health1', 00H
	ORG $+2
$SG74697 DB	'0', 00H
	ORG $+2
$SG74699 DB	'sk_hgrunt_health2', 00H
	ORG $+2
$SG74700 DB	'0', 00H
	ORG $+2
$SG74702 DB	'sk_hgrunt_health3', 00H
	ORG $+2
$SG74703 DB	'0', 00H
	ORG $+2
$SG74705 DB	'sk_hgrunt_kick1', 00H
$SG74706 DB	'0', 00H
	ORG $+2
$SG74708 DB	'sk_hgrunt_kick2', 00H
$SG74709 DB	'0', 00H
	ORG $+2
$SG74711 DB	'sk_hgrunt_kick3', 00H
$SG74712 DB	'0', 00H
	ORG $+2
$SG74714 DB	'sk_hgrunt_pellets1', 00H
	ORG $+1
$SG74715 DB	'0', 00H
	ORG $+2
$SG74717 DB	'sk_hgrunt_pellets2', 00H
	ORG $+1
$SG74718 DB	'0', 00H
	ORG $+2
$SG74720 DB	'sk_hgrunt_pellets3', 00H
	ORG $+1
$SG74721 DB	'0', 00H
	ORG $+2
$SG74723 DB	'sk_hgrunt_gspeed1', 00H
	ORG $+2
$SG74724 DB	'0', 00H
	ORG $+2
$SG74726 DB	'sk_hgrunt_gspeed2', 00H
	ORG $+2
$SG74727 DB	'0', 00H
	ORG $+2
$SG74729 DB	'sk_hgrunt_gspeed3', 00H
	ORG $+2
$SG74730 DB	'0', 00H
	ORG $+2
$SG74732 DB	'sk_houndeye_health1', 00H
$SG74733 DB	'0', 00H
	ORG $+2
$SG74735 DB	'sk_houndeye_health2', 00H
$SG74736 DB	'0', 00H
	ORG $+2
$SG74738 DB	'sk_houndeye_health3', 00H
$SG74739 DB	'0', 00H
	ORG $+2
$SG74741 DB	'sk_houndeye_dmg_blast1', 00H
	ORG $+1
$SG74742 DB	'0', 00H
	ORG $+2
$SG74744 DB	'sk_houndeye_dmg_blast2', 00H
	ORG $+1
$SG74745 DB	'0', 00H
	ORG $+2
$SG74747 DB	'sk_houndeye_dmg_blast3', 00H
	ORG $+1
$SG74748 DB	'0', 00H
	ORG $+2
$SG74750 DB	'sk_islave_health1', 00H
	ORG $+2
$SG74751 DB	'0', 00H
	ORG $+2
$SG74753 DB	'sk_islave_health2', 00H
	ORG $+2
$SG74754 DB	'0', 00H
	ORG $+2
$SG74756 DB	'sk_islave_health3', 00H
	ORG $+2
$SG74757 DB	'0', 00H
	ORG $+2
$SG74759 DB	'sk_islave_dmg_claw1', 00H
$SG74760 DB	'0', 00H
	ORG $+2
$SG74762 DB	'sk_islave_dmg_claw2', 00H
$SG74763 DB	'0', 00H
	ORG $+2
$SG74765 DB	'sk_islave_dmg_claw3', 00H
$SG74766 DB	'0', 00H
	ORG $+2
$SG74768 DB	'sk_islave_dmg_clawrake1', 00H
$SG74769 DB	'0', 00H
	ORG $+2
$SG74771 DB	'sk_islave_dmg_clawrake2', 00H
$SG74772 DB	'0', 00H
	ORG $+2
$SG74774 DB	'sk_islave_dmg_clawrake3', 00H
$SG74775 DB	'0', 00H
	ORG $+2
$SG74777 DB	'sk_islave_dmg_zap1', 00H
	ORG $+1
$SG74778 DB	'0', 00H
	ORG $+2
$SG74780 DB	'sk_islave_dmg_zap2', 00H
	ORG $+1
$SG74781 DB	'0', 00H
	ORG $+2
$SG74783 DB	'sk_islave_dmg_zap3', 00H
	ORG $+1
$SG74784 DB	'0', 00H
	ORG $+2
$SG74786 DB	'sk_ichthyosaur_health1', 00H
	ORG $+1
$SG74787 DB	'0', 00H
	ORG $+2
$SG74789 DB	'sk_ichthyosaur_health2', 00H
	ORG $+1
$SG74790 DB	'0', 00H
	ORG $+2
$SG74792 DB	'sk_ichthyosaur_health3', 00H
	ORG $+1
$SG74793 DB	'0', 00H
	ORG $+2
$SG74795 DB	'sk_ichthyosaur_shake1', 00H
	ORG $+2
$SG74796 DB	'0', 00H
	ORG $+2
$SG74798 DB	'sk_ichthyosaur_shake2', 00H
	ORG $+2
$SG74799 DB	'0', 00H
	ORG $+2
$SG74801 DB	'sk_ichthyosaur_shake3', 00H
	ORG $+2
$SG74802 DB	'0', 00H
	ORG $+2
$SG74804 DB	'sk_leech_health1', 00H
	ORG $+3
$SG74805 DB	'0', 00H
	ORG $+2
$SG74807 DB	'sk_leech_health2', 00H
	ORG $+3
$SG74808 DB	'0', 00H
	ORG $+2
$SG74810 DB	'sk_leech_health3', 00H
	ORG $+3
$SG74811 DB	'0', 00H
	ORG $+2
$SG74813 DB	'sk_leech_dmg_bite1', 00H
	ORG $+1
$SG74814 DB	'0', 00H
	ORG $+2
$SG74816 DB	'sk_leech_dmg_bite2', 00H
	ORG $+1
$SG74817 DB	'0', 00H
	ORG $+2
$SG74819 DB	'sk_leech_dmg_bite3', 00H
	ORG $+1
$SG74820 DB	'0', 00H
	ORG $+2
$SG74822 DB	'sk_controller_health1', 00H
	ORG $+2
$SG74823 DB	'0', 00H
	ORG $+2
$SG74825 DB	'sk_controller_health2', 00H
	ORG $+2
$SG74826 DB	'0', 00H
	ORG $+2
$SG74828 DB	'sk_controller_health3', 00H
	ORG $+2
$SG74829 DB	'0', 00H
	ORG $+2
$SG74831 DB	'sk_controller_dmgzap1', 00H
	ORG $+2
$SG74832 DB	'0', 00H
	ORG $+2
$SG74834 DB	'sk_controller_dmgzap2', 00H
	ORG $+2
$SG74835 DB	'0', 00H
	ORG $+2
$SG74837 DB	'sk_controller_dmgzap3', 00H
	ORG $+2
$SG74838 DB	'0', 00H
	ORG $+2
$SG74840 DB	'sk_controller_speedball1', 00H
	ORG $+3
$SG74841 DB	'0', 00H
	ORG $+2
$SG74843 DB	'sk_controller_speedball2', 00H
	ORG $+3
$SG74844 DB	'0', 00H
	ORG $+2
$SG74846 DB	'sk_controller_speedball3', 00H
	ORG $+3
$SG74847 DB	'0', 00H
	ORG $+2
$SG74849 DB	'sk_controller_dmgball1', 00H
	ORG $+1
$SG74850 DB	'0', 00H
	ORG $+2
$SG74852 DB	'sk_controller_dmgball2', 00H
	ORG $+1
$SG74853 DB	'0', 00H
	ORG $+2
$SG74855 DB	'sk_controller_dmgball3', 00H
	ORG $+1
$SG74856 DB	'0', 00H
	ORG $+2
$SG74858 DB	'sk_nihilanth_health1', 00H
	ORG $+3
$SG74859 DB	'0', 00H
	ORG $+2
$SG74861 DB	'sk_nihilanth_health2', 00H
	ORG $+3
$SG74862 DB	'0', 00H
	ORG $+2
$SG74864 DB	'sk_nihilanth_health3', 00H
	ORG $+3
$SG74865 DB	'0', 00H
	ORG $+2
$SG74867 DB	'sk_nihilanth_zap1', 00H
	ORG $+2
$SG74868 DB	'0', 00H
	ORG $+2
$SG74870 DB	'sk_nihilanth_zap2', 00H
	ORG $+2
$SG74871 DB	'0', 00H
	ORG $+2
$SG74873 DB	'sk_nihilanth_zap3', 00H
	ORG $+2
$SG74874 DB	'0', 00H
	ORG $+2
$SG74876 DB	'sk_scientist_health1', 00H
	ORG $+3
$SG74877 DB	'0', 00H
	ORG $+2
$SG74879 DB	'sk_scientist_health2', 00H
	ORG $+3
$SG74880 DB	'0', 00H
	ORG $+2
$SG74882 DB	'sk_scientist_health3', 00H
	ORG $+3
$SG74883 DB	'0', 00H
	ORG $+2
$SG74885 DB	'sk_snark_health1', 00H
	ORG $+3
$SG74886 DB	'0', 00H
	ORG $+2
$SG74888 DB	'sk_snark_health2', 00H
	ORG $+3
$SG74889 DB	'0', 00H
	ORG $+2
$SG74891 DB	'sk_snark_health3', 00H
	ORG $+3
$SG74892 DB	'0', 00H
	ORG $+2
$SG74894 DB	'sk_snark_dmg_bite1', 00H
	ORG $+1
$SG74895 DB	'0', 00H
	ORG $+2
$SG74897 DB	'sk_snark_dmg_bite2', 00H
	ORG $+1
$SG74898 DB	'0', 00H
	ORG $+2
$SG74900 DB	'sk_snark_dmg_bite3', 00H
	ORG $+1
$SG74901 DB	'0', 00H
	ORG $+2
$SG74903 DB	'sk_snark_dmg_pop1', 00H
	ORG $+2
$SG74904 DB	'0', 00H
	ORG $+2
$SG74906 DB	'sk_snark_dmg_pop2', 00H
	ORG $+2
$SG74907 DB	'0', 00H
	ORG $+2
$SG74909 DB	'sk_snark_dmg_pop3', 00H
	ORG $+2
$SG74910 DB	'0', 00H
	ORG $+2
$SG74912 DB	'sk_zombie_health1', 00H
	ORG $+2
$SG74913 DB	'0', 00H
	ORG $+2
$SG74915 DB	'sk_zombie_health2', 00H
	ORG $+2
$SG74916 DB	'0', 00H
	ORG $+2
$SG74918 DB	'sk_zombie_health3', 00H
	ORG $+2
$SG74919 DB	'0', 00H
	ORG $+2
$SG74921 DB	'sk_zombie_dmg_one_slash1', 00H
	ORG $+3
$SG74922 DB	'0', 00H
	ORG $+2
$SG74924 DB	'sk_zombie_dmg_one_slash2', 00H
	ORG $+3
$SG74925 DB	'0', 00H
	ORG $+2
$SG74927 DB	'sk_zombie_dmg_one_slash3', 00H
	ORG $+3
$SG74928 DB	'0', 00H
	ORG $+2
$SG74930 DB	'sk_zombie_dmg_both_slash1', 00H
	ORG $+2
$SG74931 DB	'0', 00H
	ORG $+2
$SG74933 DB	'sk_zombie_dmg_both_slash2', 00H
	ORG $+2
$SG74934 DB	'0', 00H
	ORG $+2
$SG74936 DB	'sk_zombie_dmg_both_slash3', 00H
	ORG $+2
$SG74937 DB	'0', 00H
	ORG $+2
$SG74939 DB	'sk_turret_health1', 00H
	ORG $+2
$SG74940 DB	'0', 00H
	ORG $+2
$SG74942 DB	'sk_turret_health2', 00H
	ORG $+2
$SG74943 DB	'0', 00H
	ORG $+2
$SG74945 DB	'sk_turret_health3', 00H
	ORG $+2
$SG74946 DB	'0', 00H
	ORG $+2
$SG74948 DB	'sk_miniturret_health1', 00H
	ORG $+2
$SG74949 DB	'0', 00H
	ORG $+2
$SG74951 DB	'sk_miniturret_health2', 00H
	ORG $+2
$SG74952 DB	'0', 00H
	ORG $+2
$SG74954 DB	'sk_miniturret_health3', 00H
	ORG $+2
$SG74955 DB	'0', 00H
	ORG $+2
$SG74957 DB	'sk_sentry_health1', 00H
	ORG $+2
$SG74958 DB	'0', 00H
	ORG $+2
$SG74960 DB	'sk_sentry_health2', 00H
	ORG $+2
$SG74961 DB	'0', 00H
	ORG $+2
$SG74963 DB	'sk_sentry_health3', 00H
	ORG $+2
$SG74964 DB	'0', 00H
	ORG $+2
$SG74966 DB	'sk_plr_crowbar1', 00H
$SG74967 DB	'0', 00H
	ORG $+2
$SG74969 DB	'sk_plr_crowbar2', 00H
$SG74970 DB	'0', 00H
	ORG $+2
$SG74972 DB	'sk_plr_crowbar3', 00H
$SG74973 DB	'0', 00H
	ORG $+2
$SG74975 DB	'sk_plr_9mm_bullet1', 00H
	ORG $+1
$SG74976 DB	'0', 00H
	ORG $+2
$SG74978 DB	'sk_plr_9mm_bullet2', 00H
	ORG $+1
$SG74979 DB	'0', 00H
	ORG $+2
$SG74981 DB	'sk_plr_9mm_bullet3', 00H
	ORG $+1
$SG74982 DB	'0', 00H
	ORG $+2
$SG74984 DB	'sk_plr_357_bullet1', 00H
	ORG $+1
$SG74985 DB	'0', 00H
	ORG $+2
$SG74987 DB	'sk_plr_357_bullet2', 00H
	ORG $+1
$SG74988 DB	'0', 00H
	ORG $+2
$SG74990 DB	'sk_plr_357_bullet3', 00H
	ORG $+1
$SG74991 DB	'0', 00H
	ORG $+2
$SG74993 DB	'sk_plr_9mmAR_bullet1', 00H
	ORG $+3
$SG74994 DB	'0', 00H
	ORG $+2
$SG74996 DB	'sk_plr_9mmAR_bullet2', 00H
	ORG $+3
$SG74997 DB	'0', 00H
	ORG $+2
$SG74999 DB	'sk_plr_9mmAR_bullet3', 00H
	ORG $+3
$SG75000 DB	'0', 00H
	ORG $+2
$SG75002 DB	'sk_plr_9mmAR_grenade1', 00H
	ORG $+2
$SG75003 DB	'0', 00H
	ORG $+2
$SG75005 DB	'sk_plr_9mmAR_grenade2', 00H
	ORG $+2
$SG75006 DB	'0', 00H
	ORG $+2
$SG75008 DB	'sk_plr_9mmAR_grenade3', 00H
	ORG $+2
$SG75009 DB	'0', 00H
	ORG $+2
$SG75011 DB	'sk_plr_buckshot1', 00H
	ORG $+3
$SG75012 DB	'0', 00H
	ORG $+2
$SG75014 DB	'sk_plr_buckshot2', 00H
	ORG $+3
$SG75015 DB	'0', 00H
	ORG $+2
$SG75017 DB	'sk_plr_buckshot3', 00H
	ORG $+3
$SG75018 DB	'0', 00H
	ORG $+2
$SG75020 DB	'sk_plr_xbow_bolt_client1', 00H
	ORG $+3
$SG75021 DB	'0', 00H
	ORG $+2
$SG75023 DB	'sk_plr_xbow_bolt_client2', 00H
	ORG $+3
$SG75024 DB	'0', 00H
	ORG $+2
$SG75026 DB	'sk_plr_xbow_bolt_client3', 00H
	ORG $+3
$SG75027 DB	'0', 00H
	ORG $+2
$SG75029 DB	'sk_plr_xbow_bolt_monster1', 00H
	ORG $+2
$SG75030 DB	'0', 00H
	ORG $+2
$SG75032 DB	'sk_plr_xbow_bolt_monster2', 00H
	ORG $+2
$SG75033 DB	'0', 00H
	ORG $+2
$SG75035 DB	'sk_plr_xbow_bolt_monster3', 00H
	ORG $+2
$SG75036 DB	'0', 00H
	ORG $+2
$SG75038 DB	'sk_plr_rpg1', 00H
$SG75039 DB	'0', 00H
	ORG $+2
$SG75041 DB	'sk_plr_rpg2', 00H
$SG75042 DB	'0', 00H
	ORG $+2
$SG75044 DB	'sk_plr_rpg3', 00H
$SG75045 DB	'0', 00H
	ORG $+2
$SG75047 DB	'sk_plr_gauss1', 00H
	ORG $+2
$SG75048 DB	'0', 00H
	ORG $+2
$SG75050 DB	'sk_plr_gauss2', 00H
	ORG $+2
$SG75051 DB	'0', 00H
	ORG $+2
$SG75053 DB	'sk_plr_gauss3', 00H
	ORG $+2
$SG75054 DB	'0', 00H
	ORG $+2
$SG75056 DB	'sk_plr_egon_narrow1', 00H
$SG75057 DB	'0', 00H
	ORG $+2
$SG75059 DB	'sk_plr_egon_narrow2', 00H
$SG75060 DB	'0', 00H
	ORG $+2
$SG75062 DB	'sk_plr_egon_narrow3', 00H
$SG75063 DB	'0', 00H
	ORG $+2
$SG75065 DB	'sk_plr_egon_wide1', 00H
	ORG $+2
$SG75066 DB	'0', 00H
	ORG $+2
$SG75068 DB	'sk_plr_egon_wide2', 00H
	ORG $+2
$SG75069 DB	'0', 00H
	ORG $+2
$SG75071 DB	'sk_plr_egon_wide3', 00H
	ORG $+2
$SG75072 DB	'0', 00H
	ORG $+2
$SG75074 DB	'sk_plr_hand_grenade1', 00H
	ORG $+3
$SG75075 DB	'0', 00H
	ORG $+2
$SG75077 DB	'sk_plr_hand_grenade2', 00H
	ORG $+3
$SG75078 DB	'0', 00H
	ORG $+2
$SG75080 DB	'sk_plr_hand_grenade3', 00H
	ORG $+3
$SG75081 DB	'0', 00H
	ORG $+2
$SG75083 DB	'sk_plr_satchel1', 00H
$SG75084 DB	'0', 00H
	ORG $+2
$SG75086 DB	'sk_plr_satchel2', 00H
$SG75087 DB	'0', 00H
	ORG $+2
$SG75089 DB	'sk_plr_satchel3', 00H
$SG75090 DB	'0', 00H
	ORG $+2
$SG75092 DB	'sk_plr_tripmine1', 00H
	ORG $+3
$SG75093 DB	'0', 00H
	ORG $+2
$SG75095 DB	'sk_plr_tripmine2', 00H
	ORG $+3
$SG75096 DB	'0', 00H
	ORG $+2
$SG75098 DB	'sk_plr_tripmine3', 00H
	ORG $+3
$SG75099 DB	'0', 00H
	ORG $+2
$SG75101 DB	'sk_12mm_bullet1', 00H
$SG75102 DB	'0', 00H
	ORG $+2
$SG75104 DB	'sk_12mm_bullet2', 00H
$SG75105 DB	'0', 00H
	ORG $+2
$SG75107 DB	'sk_12mm_bullet3', 00H
$SG75108 DB	'0', 00H
	ORG $+2
$SG75110 DB	'sk_9mmAR_bullet1', 00H
	ORG $+3
$SG75111 DB	'0', 00H
	ORG $+2
$SG75113 DB	'sk_9mmAR_bullet2', 00H
	ORG $+3
$SG75114 DB	'0', 00H
	ORG $+2
$SG75116 DB	'sk_9mmAR_bullet3', 00H
	ORG $+3
$SG75117 DB	'0', 00H
	ORG $+2
$SG75119 DB	'sk_9mm_bullet1', 00H
	ORG $+1
$SG75120 DB	'0', 00H
	ORG $+2
$SG75122 DB	'sk_9mm_bullet2', 00H
	ORG $+1
$SG75123 DB	'0', 00H
	ORG $+2
$SG75125 DB	'sk_9mm_bullet3', 00H
	ORG $+1
$SG75126 DB	'0', 00H
	ORG $+2
$SG75128 DB	'sk_hornet_dmg1', 00H
	ORG $+1
$SG75129 DB	'0', 00H
	ORG $+2
$SG75131 DB	'sk_hornet_dmg2', 00H
	ORG $+1
$SG75132 DB	'0', 00H
	ORG $+2
$SG75134 DB	'sk_hornet_dmg3', 00H
	ORG $+1
$SG75135 DB	'0', 00H
	ORG $+2
$SG75137 DB	'sk_suitcharger1', 00H
$SG75138 DB	'0', 00H
	ORG $+2
$SG75140 DB	'sk_suitcharger2', 00H
$SG75141 DB	'0', 00H
	ORG $+2
$SG75143 DB	'sk_suitcharger3', 00H
$SG75144 DB	'0', 00H
	ORG $+2
$SG75146 DB	'sk_battery1', 00H
$SG75147 DB	'0', 00H
	ORG $+2
$SG75149 DB	'sk_battery2', 00H
$SG75150 DB	'0', 00H
	ORG $+2
$SG75152 DB	'sk_battery3', 00H
$SG75153 DB	'0', 00H
	ORG $+2
$SG75155 DB	'sk_healthcharger1', 00H
	ORG $+2
$SG75156 DB	'0', 00H
	ORG $+2
$SG75158 DB	'sk_healthcharger2', 00H
	ORG $+2
$SG75159 DB	'0', 00H
	ORG $+2
$SG75161 DB	'sk_healthcharger3', 00H
	ORG $+2
$SG75162 DB	'0', 00H
	ORG $+2
$SG75164 DB	'sk_healthkit1', 00H
	ORG $+2
$SG75165 DB	'0', 00H
	ORG $+2
$SG75167 DB	'sk_healthkit2', 00H
	ORG $+2
$SG75168 DB	'0', 00H
	ORG $+2
$SG75170 DB	'sk_healthkit3', 00H
	ORG $+2
$SG75171 DB	'0', 00H
	ORG $+2
$SG75173 DB	'sk_scientist_heal1', 00H
	ORG $+1
$SG75174 DB	'0', 00H
	ORG $+2
$SG75176 DB	'sk_scientist_heal2', 00H
	ORG $+1
$SG75177 DB	'0', 00H
	ORG $+2
$SG75179 DB	'sk_scientist_heal3', 00H
	ORG $+1
$SG75180 DB	'0', 00H
	ORG $+2
$SG75182 DB	'sk_monster_head1', 00H
	ORG $+3
$SG75183 DB	'2', 00H
	ORG $+2
$SG75185 DB	'sk_monster_head2', 00H
	ORG $+3
$SG75186 DB	'2', 00H
	ORG $+2
$SG75188 DB	'sk_monster_head3', 00H
	ORG $+3
$SG75189 DB	'2', 00H
	ORG $+2
$SG75191 DB	'sk_monster_chest1', 00H
	ORG $+2
$SG75192 DB	'1', 00H
	ORG $+2
$SG75194 DB	'sk_monster_chest2', 00H
	ORG $+2
$SG75195 DB	'1', 00H
	ORG $+2
$SG75197 DB	'sk_monster_chest3', 00H
	ORG $+2
$SG75198 DB	'1', 00H
	ORG $+2
$SG75200 DB	'sk_monster_stomach1', 00H
$SG75201 DB	'1', 00H
	ORG $+2
$SG75203 DB	'sk_monster_stomach2', 00H
$SG75204 DB	'1', 00H
	ORG $+2
$SG75206 DB	'sk_monster_stomach3', 00H
$SG75207 DB	'1', 00H
	ORG $+2
$SG75209 DB	'sk_monster_arm1', 00H
$SG75210 DB	'1', 00H
	ORG $+2
$SG75212 DB	'sk_monster_arm2', 00H
$SG75213 DB	'1', 00H
	ORG $+2
$SG75215 DB	'sk_monster_arm3', 00H
$SG75216 DB	'1', 00H
	ORG $+2
$SG75218 DB	'sk_monster_leg1', 00H
$SG75219 DB	'1', 00H
	ORG $+2
$SG75221 DB	'sk_monster_leg2', 00H
$SG75222 DB	'1', 00H
	ORG $+2
$SG75224 DB	'sk_monster_leg3', 00H
$SG75225 DB	'1', 00H
	ORG $+2
$SG75227 DB	'sk_player_head1', 00H
$SG75228 DB	'2', 00H
	ORG $+2
$SG75230 DB	'sk_player_head2', 00H
$SG75231 DB	'2', 00H
	ORG $+2
$SG75233 DB	'sk_player_head3', 00H
$SG75234 DB	'2', 00H
	ORG $+2
$SG75236 DB	'sk_player_chest1', 00H
	ORG $+3
$SG75237 DB	'1', 00H
	ORG $+2
$SG75239 DB	'sk_player_chest2', 00H
	ORG $+3
$SG75240 DB	'1', 00H
	ORG $+2
$SG75242 DB	'sk_player_chest3', 00H
	ORG $+3
$SG75243 DB	'1', 00H
	ORG $+2
$SG75245 DB	'sk_player_stomach1', 00H
	ORG $+1
$SG75246 DB	'1', 00H
	ORG $+2
$SG75248 DB	'sk_player_stomach2', 00H
	ORG $+1
$SG75249 DB	'1', 00H
	ORG $+2
$SG75251 DB	'sk_player_stomach3', 00H
	ORG $+1
$SG75252 DB	'1', 00H
	ORG $+2
$SG75254 DB	'sk_player_arm1', 00H
	ORG $+1
$SG75255 DB	'1', 00H
	ORG $+2
$SG75257 DB	'sk_player_arm2', 00H
	ORG $+1
$SG75258 DB	'1', 00H
	ORG $+2
$SG75260 DB	'sk_player_arm3', 00H
	ORG $+1
$SG75261 DB	'1', 00H
	ORG $+2
$SG75263 DB	'sk_player_leg1', 00H
	ORG $+1
$SG75264 DB	'1', 00H
	ORG $+2
$SG75266 DB	'sk_player_leg2', 00H
	ORG $+1
$SG75267 DB	'1', 00H
	ORG $+2
$SG75269 DB	'sk_player_leg3', 00H
	ORG $+1
$SG75270 DB	'1', 00H
	ORG $+2
$SG75294 DB	'sv_gravity', 00H
	ORG $+1
$SG75295 DB	'sv_aim', 00H
	ORG $+1
$SG75296 DB	'mp_footsteps', 00H
	ORG $+3
$SG75297 DB	'sv_stepsize', 00H
$SG75298 DB	'showtriggers_toggle', 00H
$SG75299 DB	'dump_entity_sizes', 00H
	ORG $+2
$SG75300 DB	'dump_entity_names', 00H
	ORG $+2
$SG75301 DB	'dump_strings', 00H
	ORG $+3
$SG75302 DB	'phys_debug', 00H
	ORG $+1
$SG75303 DB	'qphys_debug', 00H
$SG75304 DB	'p_speeds', 00H
	ORG $+3
$SG75305 DB	'sv_allow_PhysX', 00H
	ORG $+1
$SG75306 DB	'exec skill.cfg', 0aH, 00H
$SG75358 DB	'c', 00H, ':', 00H, '\', 00H, 'u', 00H, 's', 00H, 'e', 00H
	DB	'r', 00H, 's', 00H, '\', 00H, 'u', 00H, 's', 00H, 'e', 00H, 'r'
	DB	00H, '\', 00H, 'd', 00H, 'o', 00H, 'w', 00H, 'n', 00H, 'l', 00H
	DB	'o', 00H, 'a', 00H, 'd', 00H, 's', 00H, '\', 00H, 'x', 00H, 'a'
	DB	00H, 's', 00H, 'h', 00H, 'x', 00H, 't', 00H, '_', 00H, 'v', 00H
	DB	'0', 00H, '.', 00H, '8', 00H, '1', 00H, '_', 00H, 'r', 00H, 'e'
	DB	00H, 'v', 00H, '.', 00H, '1', 00H, '_', 00H, 'w', 00H, 'i', 00H
	DB	't', 00H, 'h', 00H, '_', 00H, 's', 00H, 'o', 00H, 'u', 00H, 'r'
	DB	00H, 'c', 00H, 'e', 00H, 's', 00H, '\', 00H, 'x', 00H, 'a', 00H
	DB	's', 00H, 'h', 00H, 'x', 00H, 't', 00H, '_', 00H, 'v', 00H, '0'
	DB	00H, '.', 00H, '8', 00H, '1', 00H, '_', 00H, 'r', 00H, 'e', 00H
	DB	'v', 00H, '.', 00H, '1', 00H, '_', 00H, 's', 00H, 'r', 00H, 'c'
	DB	00H, '\', 00H, 'g', 00H, 'a', 00H, 'm', 00H, 'e', 00H, '_', 00H
	DB	's', 00H, 'h', 00H, 'a', 00H, 'r', 00H, 'e', 00H, 'd', 00H, '\'
	DB	00H, 'u', 00H, 't', 00H, 'l', 00H, 'm', 00H, 'e', 00H, 'm', 00H
	DB	'o', 00H, 'r', 00H, 'y', 00H, '.', 00H, 'h', 00H, 00H, 00H
	ORG $+2
$SG75359 DB	'n', 00H, 'G', 00H, 'r', 00H, 'o', 00H, 'w', 00H, 'S', 00H
	DB	'i', 00H, 'z', 00H, 'e', 00H, ' ', 00H, '>', 00H, '=', 00H, ' '
	DB	00H, '0', 00H, 00H, 00H
	ORG $+2
$SG75402 DB	'c', 00H, ':', 00H, '\', 00H, 'u', 00H, 's', 00H, 'e', 00H
	DB	'r', 00H, 's', 00H, '\', 00H, 'u', 00H, 's', 00H, 'e', 00H, 'r'
	DB	00H, '\', 00H, 'd', 00H, 'o', 00H, 'w', 00H, 'n', 00H, 'l', 00H
	DB	'o', 00H, 'a', 00H, 'd', 00H, 's', 00H, '\', 00H, 'x', 00H, 'a'
	DB	00H, 's', 00H, 'h', 00H, 'x', 00H, 't', 00H, '_', 00H, 'v', 00H
	DB	'0', 00H, '.', 00H, '8', 00H, '1', 00H, '_', 00H, 'r', 00H, 'e'
	DB	00H, 'v', 00H, '.', 00H, '1', 00H, '_', 00H, 'w', 00H, 'i', 00H
	DB	't', 00H, 'h', 00H, '_', 00H, 's', 00H, 'o', 00H, 'u', 00H, 'r'
	DB	00H, 'c', 00H, 'e', 00H, 's', 00H, '\', 00H, 'x', 00H, 'a', 00H
	DB	's', 00H, 'h', 00H, 'x', 00H, 't', 00H, '_', 00H, 'v', 00H, '0'
	DB	00H, '.', 00H, '8', 00H, '1', 00H, '_', 00H, 'r', 00H, 'e', 00H
	DB	'v', 00H, '.', 00H, '1', 00H, '_', 00H, 's', 00H, 'r', 00H, 'c'
	DB	00H, '\', 00H, 'g', 00H, 'a', 00H, 'm', 00H, 'e', 00H, '_', 00H
	DB	's', 00H, 'h', 00H, 'a', 00H, 'r', 00H, 'e', 00H, 'd', 00H, '\'
	DB	00H, 'u', 00H, 't', 00H, 'l', 00H, 'a', 00H, 'r', 00H, 'r', 00H
	DB	'a', 00H, 'y', 00H, '.', 00H, 'h', 00H, 00H, 00H
$SG75528 DB	'0', 00H, 00H, 00H
$SG75403 DB	'(', 00H, 'B', 00H, 'a', 00H, 's', 00H, 'e', 00H, '(', 00H
	DB	')', 00H, ' ', 00H, '=', 00H, '=', 00H, ' ', 00H, 'N', 00H, 'U'
	DB	00H, 'L', 00H, 'L', 00H, ')', 00H, ' ', 00H, '|', 00H, '|', 00H
	DB	' ', 00H, '(', 00H, '&', 00H, 's', 00H, 'r', 00H, 'c', 00H, ' '
	DB	00H, '<', 00H, ' ', 00H, 'B', 00H, 'a', 00H, 's', 00H, 'e', 00H
	DB	'(', 00H, ')', 00H, ')', 00H, ' ', 00H, '|', 00H, '|', 00H, ' '
	DB	00H, '(', 00H, '&', 00H, 's', 00H, 'r', 00H, 'c', 00H, ' ', 00H
	DB	'>', 00H, '=', 00H, ' ', 00H, '(', 00H, 'B', 00H, 'a', 00H, 's'
	DB	00H, 'e', 00H, '(', 00H, ')', 00H, ' ', 00H, '+', 00H, ' ', 00H
	DB	'C', 00H, 'o', 00H, 'u', 00H, 'n', 00H, 't', 00H, '(', 00H, ')'
	DB	00H, ')', 00H, ' ', 00H, ')', 00H, 00H, 00H
	ORG $+2
$SG75525 DB	'n', 00H, 'u', 00H, 'm', 00H, ' ', 00H, '>', 00H, ' ', 00H
	DB	'0', 00H, 00H, 00H
$SG75534 DB	'0', 00H, 00H, 00H
$SG75404 DB	'c', 00H, ':', 00H, '\', 00H, 'u', 00H, 's', 00H, 'e', 00H
	DB	'r', 00H, 's', 00H, '\', 00H, 'u', 00H, 's', 00H, 'e', 00H, 'r'
	DB	00H, '\', 00H, 'd', 00H, 'o', 00H, 'w', 00H, 'n', 00H, 'l', 00H
	DB	'o', 00H, 'a', 00H, 'd', 00H, 's', 00H, '\', 00H, 'x', 00H, 'a'
	DB	00H, 's', 00H, 'h', 00H, 'x', 00H, 't', 00H, '_', 00H, 'v', 00H
	DB	'0', 00H, '.', 00H, '8', 00H, '1', 00H, '_', 00H, 'r', 00H, 'e'
	DB	00H, 'v', 00H, '.', 00H, '1', 00H, '_', 00H, 'w', 00H, 'i', 00H
	DB	't', 00H, 'h', 00H, '_', 00H, 's', 00H, 'o', 00H, 'u', 00H, 'r'
	DB	00H, 'c', 00H, 'e', 00H, 's', 00H, '\', 00H, 'x', 00H, 'a', 00H
	DB	's', 00H, 'h', 00H, 'x', 00H, 't', 00H, '_', 00H, 'v', 00H, '0'
	DB	00H, '.', 00H, '8', 00H, '1', 00H, '_', 00H, 'r', 00H, 'e', 00H
	DB	'v', 00H, '.', 00H, '1', 00H, '_', 00H, 's', 00H, 'r', 00H, 'c'
	DB	00H, '\', 00H, 'g', 00H, 'a', 00H, 'm', 00H, 'e', 00H, '_', 00H
	DB	's', 00H, 'h', 00H, 'a', 00H, 'r', 00H, 'e', 00H, 'd', 00H, '\'
	DB	00H, 'u', 00H, 't', 00H, 'l', 00H, 'a', 00H, 'r', 00H, 'r', 00H
	DB	'a', 00H, 'y', 00H, '.', 00H, 'h', 00H, 00H, 00H
$SG75538 DB	'm', 00H, '_', 00H, 'p', 00H, 'M', 00H, 'e', 00H, 'm', 00H
	DB	'o', 00H, 'r', 00H, 'y', 00H, 00H, 00H
$SG75405 DB	'(', 00H, 'e', 00H, 'l', 00H, 'e', 00H, 'm', 00H, ' ', 00H
	DB	'=', 00H, '=', 00H, ' ', 00H, 'C', 00H, 'o', 00H, 'u', 00H, 'n'
	DB	00H, 't', 00H, '(', 00H, ')', 00H, ')', 00H, ' ', 00H, '|', 00H
	DB	'|', 00H, ' ', 00H, 'I', 00H, 's', 00H, 'V', 00H, 'a', 00H, 'l'
	DB	00H, 'i', 00H, 'd', 00H, 'I', 00H, 'n', 00H, 'd', 00H, 'e', 00H
	DB	'x', 00H, '(', 00H, 'e', 00H, 'l', 00H, 'e', 00H, 'm', 00H, ')'
	DB	00H, 00H, 00H
$SG75477 DB	'c', 00H, ':', 00H, '\', 00H, 'u', 00H, 's', 00H, 'e', 00H
	DB	'r', 00H, 's', 00H, '\', 00H, 'u', 00H, 's', 00H, 'e', 00H, 'r'
	DB	00H, '\', 00H, 'd', 00H, 'o', 00H, 'w', 00H, 'n', 00H, 'l', 00H
	DB	'o', 00H, 'a', 00H, 'd', 00H, 's', 00H, '\', 00H, 'x', 00H, 'a'
	DB	00H, 's', 00H, 'h', 00H, 'x', 00H, 't', 00H, '_', 00H, 'v', 00H
	DB	'0', 00H, '.', 00H, '8', 00H, '1', 00H, '_', 00H, 'r', 00H, 'e'
	DB	00H, 'v', 00H, '.', 00H, '1', 00H, '_', 00H, 'w', 00H, 'i', 00H
	DB	't', 00H, 'h', 00H, '_', 00H, 's', 00H, 'o', 00H, 'u', 00H, 'r'
	DB	00H, 'c', 00H, 'e', 00H, 's', 00H, '\', 00H, 'x', 00H, 'a', 00H
	DB	's', 00H, 'h', 00H, 'x', 00H, 't', 00H, '_', 00H, 'v', 00H, '0'
	DB	00H, '.', 00H, '8', 00H, '1', 00H, '_', 00H, 'r', 00H, 'e', 00H
	DB	'v', 00H, '.', 00H, '1', 00H, '_', 00H, 's', 00H, 'r', 00H, 'c'
	DB	00H, '\', 00H, 'g', 00H, 'a', 00H, 'm', 00H, 'e', 00H, '_', 00H
	DB	's', 00H, 'h', 00H, 'a', 00H, 'r', 00H, 'e', 00H, 'd', 00H, '\'
	DB	00H, 'u', 00H, 't', 00H, 'l', 00H, 'a', 00H, 'r', 00H, 'r', 00H
	DB	'a', 00H, 'y', 00H, '.', 00H, 'h', 00H, 00H, 00H
$SG75540 DB	'm', 00H, '_', 00H, 'p', 00H, 'M', 00H, 'e', 00H, 'm', 00H
	DB	'o', 00H, 'r', 00H, 'y', 00H, 00H, 00H
$SG75478 DB	'I', 00H, 's', 00H, 'V', 00H, 'a', 00H, 'l', 00H, 'i', 00H
	DB	'd', 00H, 'I', 00H, 'n', 00H, 'd', 00H, 'e', 00H, 'x', 00H, '('
	DB	00H, 'e', 00H, 'l', 00H, 'e', 00H, 'm', 00H, ')', 00H, ' ', 00H
	DB	'|', 00H, '|', 00H, ' ', 00H, '(', 00H, ' ', 00H, 'm', 00H, '_'
	DB	00H, 'S', 00H, 'i', 00H, 'z', 00H, 'e', 00H, ' ', 00H, '=', 00H
	DB	'=', 00H, ' ', 00H, '0', 00H, ' ', 00H, ')', 00H, ' ', 00H, '|'
	DB	00H, '|', 00H, ' ', 00H, '(', 00H, ' ', 00H, 'n', 00H, 'u', 00H
	DB	'm', 00H, ' ', 00H, '=', 00H, '=', 00H, ' ', 00H, '0', 00H, ' '
	DB	00H, ')', 00H, 00H, 00H
	ORG $+4
$SG75524 DB	'c', 00H, ':', 00H, '\', 00H, 'u', 00H, 's', 00H, 'e', 00H
	DB	'r', 00H, 's', 00H, '\', 00H, 'u', 00H, 's', 00H, 'e', 00H, 'r'
	DB	00H, '\', 00H, 'd', 00H, 'o', 00H, 'w', 00H, 'n', 00H, 'l', 00H
	DB	'o', 00H, 'a', 00H, 'd', 00H, 's', 00H, '\', 00H, 'x', 00H, 'a'
	DB	00H, 's', 00H, 'h', 00H, 'x', 00H, 't', 00H, '_', 00H, 'v', 00H
	DB	'0', 00H, '.', 00H, '8', 00H, '1', 00H, '_', 00H, 'r', 00H, 'e'
	DB	00H, 'v', 00H, '.', 00H, '1', 00H, '_', 00H, 'w', 00H, 'i', 00H
	DB	't', 00H, 'h', 00H, '_', 00H, 's', 00H, 'o', 00H, 'u', 00H, 'r'
	DB	00H, 'c', 00H, 'e', 00H, 's', 00H, '\', 00H, 'x', 00H, 'a', 00H
	DB	's', 00H, 'h', 00H, 'x', 00H, 't', 00H, '_', 00H, 'v', 00H, '0'
	DB	00H, '.', 00H, '8', 00H, '1', 00H, '_', 00H, 'r', 00H, 'e', 00H
	DB	'v', 00H, '.', 00H, '1', 00H, '_', 00H, 's', 00H, 'r', 00H, 'c'
	DB	00H, '\', 00H, 'g', 00H, 'a', 00H, 'm', 00H, 'e', 00H, '_', 00H
	DB	's', 00H, 'h', 00H, 'a', 00H, 'r', 00H, 'e', 00H, 'd', 00H, '\'
	DB	00H, 'u', 00H, 't', 00H, 'l', 00H, 'm', 00H, 'e', 00H, 'm', 00H
	DB	'o', 00H, 'r', 00H, 'y', 00H, '.', 00H, 'h', 00H, 00H, 00H
	ORG $+2
$SG75527 DB	'c', 00H, ':', 00H, '\', 00H, 'u', 00H, 's', 00H, 'e', 00H
	DB	'r', 00H, 's', 00H, '\', 00H, 'u', 00H, 's', 00H, 'e', 00H, 'r'
	DB	00H, '\', 00H, 'd', 00H, 'o', 00H, 'w', 00H, 'n', 00H, 'l', 00H
	DB	'o', 00H, 'a', 00H, 'd', 00H, 's', 00H, '\', 00H, 'x', 00H, 'a'
	DB	00H, 's', 00H, 'h', 00H, 'x', 00H, 't', 00H, '_', 00H, 'v', 00H
	DB	'0', 00H, '.', 00H, '8', 00H, '1', 00H, '_', 00H, 'r', 00H, 'e'
	DB	00H, 'v', 00H, '.', 00H, '1', 00H, '_', 00H, 'w', 00H, 'i', 00H
	DB	't', 00H, 'h', 00H, '_', 00H, 's', 00H, 'o', 00H, 'u', 00H, 'r'
	DB	00H, 'c', 00H, 'e', 00H, 's', 00H, '\', 00H, 'x', 00H, 'a', 00H
	DB	's', 00H, 'h', 00H, 'x', 00H, 't', 00H, '_', 00H, 'v', 00H, '0'
	DB	00H, '.', 00H, '8', 00H, '1', 00H, '_', 00H, 'r', 00H, 'e', 00H
	DB	'v', 00H, '.', 00H, '1', 00H, '_', 00H, 's', 00H, 'r', 00H, 'c'
	DB	00H, '\', 00H, 'g', 00H, 'a', 00H, 'm', 00H, 'e', 00H, '_', 00H
	DB	's', 00H, 'h', 00H, 'a', 00H, 'r', 00H, 'e', 00H, 'd', 00H, '\'
	DB	00H, 'u', 00H, 't', 00H, 'l', 00H, 'm', 00H, 'e', 00H, 'm', 00H
	DB	'o', 00H, 'r', 00H, 'y', 00H, '.', 00H, 'h', 00H, 00H, 00H
	ORG $+2
$SG75533 DB	'c', 00H, ':', 00H, '\', 00H, 'u', 00H, 's', 00H, 'e', 00H
	DB	'r', 00H, 's', 00H, '\', 00H, 'u', 00H, 's', 00H, 'e', 00H, 'r'
	DB	00H, '\', 00H, 'd', 00H, 'o', 00H, 'w', 00H, 'n', 00H, 'l', 00H
	DB	'o', 00H, 'a', 00H, 'd', 00H, 's', 00H, '\', 00H, 'x', 00H, 'a'
	DB	00H, 's', 00H, 'h', 00H, 'x', 00H, 't', 00H, '_', 00H, 'v', 00H
	DB	'0', 00H, '.', 00H, '8', 00H, '1', 00H, '_', 00H, 'r', 00H, 'e'
	DB	00H, 'v', 00H, '.', 00H, '1', 00H, '_', 00H, 'w', 00H, 'i', 00H
	DB	't', 00H, 'h', 00H, '_', 00H, 's', 00H, 'o', 00H, 'u', 00H, 'r'
	DB	00H, 'c', 00H, 'e', 00H, 's', 00H, '\', 00H, 'x', 00H, 'a', 00H
	DB	's', 00H, 'h', 00H, 'x', 00H, 't', 00H, '_', 00H, 'v', 00H, '0'
	DB	00H, '.', 00H, '8', 00H, '1', 00H, '_', 00H, 'r', 00H, 'e', 00H
	DB	'v', 00H, '.', 00H, '1', 00H, '_', 00H, 's', 00H, 'r', 00H, 'c'
	DB	00H, '\', 00H, 'g', 00H, 'a', 00H, 'm', 00H, 'e', 00H, '_', 00H
	DB	's', 00H, 'h', 00H, 'a', 00H, 'r', 00H, 'e', 00H, 'd', 00H, '\'
	DB	00H, 'u', 00H, 't', 00H, 'l', 00H, 'm', 00H, 'e', 00H, 'm', 00H
	DB	'o', 00H, 'r', 00H, 'y', 00H, '.', 00H, 'h', 00H, 00H, 00H
	ORG $+2
$SG75537 DB	'c', 00H, ':', 00H, '\', 00H, 'u', 00H, 's', 00H, 'e', 00H
	DB	'r', 00H, 's', 00H, '\', 00H, 'u', 00H, 's', 00H, 'e', 00H, 'r'
	DB	00H, '\', 00H, 'd', 00H, 'o', 00H, 'w', 00H, 'n', 00H, 'l', 00H
	DB	'o', 00H, 'a', 00H, 'd', 00H, 's', 00H, '\', 00H, 'x', 00H, 'a'
	DB	00H, 's', 00H, 'h', 00H, 'x', 00H, 't', 00H, '_', 00H, 'v', 00H
	DB	'0', 00H, '.', 00H, '8', 00H, '1', 00H, '_', 00H, 'r', 00H, 'e'
	DB	00H, 'v', 00H, '.', 00H, '1', 00H, '_', 00H, 'w', 00H, 'i', 00H
	DB	't', 00H, 'h', 00H, '_', 00H, 's', 00H, 'o', 00H, 'u', 00H, 'r'
	DB	00H, 'c', 00H, 'e', 00H, 's', 00H, '\', 00H, 'x', 00H, 'a', 00H
	DB	's', 00H, 'h', 00H, 'x', 00H, 't', 00H, '_', 00H, 'v', 00H, '0'
	DB	00H, '.', 00H, '8', 00H, '1', 00H, '_', 00H, 'r', 00H, 'e', 00H
	DB	'v', 00H, '.', 00H, '1', 00H, '_', 00H, 's', 00H, 'r', 00H, 'c'
	DB	00H, '\', 00H, 'g', 00H, 'a', 00H, 'm', 00H, 'e', 00H, '_', 00H
	DB	's', 00H, 'h', 00H, 'a', 00H, 'r', 00H, 'e', 00H, 'd', 00H, '\'
	DB	00H, 'u', 00H, 't', 00H, 'l', 00H, 'm', 00H, 'e', 00H, 'm', 00H
	DB	'o', 00H, 'r', 00H, 'y', 00H, '.', 00H, 'h', 00H, 00H, 00H
	ORG $+2
$SG75539 DB	'c', 00H, ':', 00H, '\', 00H, 'u', 00H, 's', 00H, 'e', 00H
	DB	'r', 00H, 's', 00H, '\', 00H, 'u', 00H, 's', 00H, 'e', 00H, 'r'
	DB	00H, '\', 00H, 'd', 00H, 'o', 00H, 'w', 00H, 'n', 00H, 'l', 00H
	DB	'o', 00H, 'a', 00H, 'd', 00H, 's', 00H, '\', 00H, 'x', 00H, 'a'
	DB	00H, 's', 00H, 'h', 00H, 'x', 00H, 't', 00H, '_', 00H, 'v', 00H
	DB	'0', 00H, '.', 00H, '8', 00H, '1', 00H, '_', 00H, 'r', 00H, 'e'
	DB	00H, 'v', 00H, '.', 00H, '1', 00H, '_', 00H, 'w', 00H, 'i', 00H
	DB	't', 00H, 'h', 00H, '_', 00H, 's', 00H, 'o', 00H, 'u', 00H, 'r'
	DB	00H, 'c', 00H, 'e', 00H, 's', 00H, '\', 00H, 'x', 00H, 'a', 00H
	DB	's', 00H, 'h', 00H, 'x', 00H, 't', 00H, '_', 00H, 'v', 00H, '0'
	DB	00H, '.', 00H, '8', 00H, '1', 00H, '_', 00H, 'r', 00H, 'e', 00H
	DB	'v', 00H, '.', 00H, '1', 00H, '_', 00H, 's', 00H, 'r', 00H, 'c'
	DB	00H, '\', 00H, 'g', 00H, 'a', 00H, 'm', 00H, 'e', 00H, '_', 00H
	DB	's', 00H, 'h', 00H, 'a', 00H, 'r', 00H, 'e', 00H, 'd', 00H, '\'
	DB	00H, 'u', 00H, 't', 00H, 'l', 00H, 'm', 00H, 'e', 00H, 'm', 00H
	DB	'o', 00H, 'r', 00H, 'y', 00H, '.', 00H, 'h', 00H, 00H, 00H
CONST	ENDS
PUBLIC	??_H@YGXPAXIIP6EPAX0@Z@Z			; `vector constructor iterator'
PUBLIC	??__G@YGXPAX0IIP6EPAX00@Z@Z			; `vector copy constructor iterator'
PUBLIC	?GET_PRIVATE@@YAPAXPAUedict_s@@@Z		; GET_PRIVATE
PUBLIC	?ENT@@YAPAUedict_s@@H@Z				; ENT
PUBLIC	?INDEXENT@@YAPAUedict_s@@H@Z			; INDEXENT
PUBLIC	?GameDLLInit@@YAXXZ				; GameDLLInit
PUBLIC	?GameDLLShutdown@@YAXXZ				; GameDLLShutdown
PUBLIC	?Instance@CBaseEntity@@SAPAV1@PAUedict_s@@@Z	; CBaseEntity::Instance
PUBLIC	?Cmd_ShowTriggers_f@@YAXXZ			; Cmd_ShowTriggers_f
PUBLIC	__real@437f0000
EXTRN	?DumpEntityNames_f@@YAXXZ:PROC			; DumpEntityNames_f
EXTRN	?DumpEntitySizes_f@@YAXXZ:PROC			; DumpEntitySizes_f
EXTRN	?DumpStrings_f@@YAXXZ:PROC			; DumpStrings_f
EXTRN	?LinkUserMessages@@YAXXZ:PROC			; LinkUserMessages
EXTRN	?g_engfuncs@@3Uenginefuncs_s@@A:BYTE		; g_engfuncs
EXTRN	?gpGlobals@@3PAUglobalvars_t@@A:DWORD		; gpGlobals
EXTRN	?WorldPhysic@@3PAVIPhysicLayer@@A:DWORD		; WorldPhysic
EXTRN	__fltused:DWORD
;	COMDAT __real@437f0000
CONST	SEGMENT
__real@437f0000 DD 0437f0000r			; 255
CONST	ENDS
; Function compile flags: /Odtp
; File c:\users\user\downloads\xashxt_v0.81_rev.1_with_sources\xashxt_v0.81_rev.1_src\server\game.cpp
_TEXT	SEGMENT
_i$1 = -12						; size = 4
_pEdict$ = -8						; size = 4
_pEntity$2 = -4						; size = 4
?Cmd_ShowTriggers_f@@YAXXZ PROC				; Cmd_ShowTriggers_f

; 463  : {

	push	ebp
	mov	ebp, esp
	sub	esp, 12					; 0000000cH

; 464  : 	edict_t *pEdict = INDEXENT( 1 );

	push	1
	call	?INDEXENT@@YAPAUedict_s@@H@Z		; INDEXENT
	add	esp, 4
	mov	DWORD PTR _pEdict$[ebp], eax

; 465  : 	if( !pEdict ) return;

	cmp	DWORD PTR _pEdict$[ebp], 0
	jne	SHORT $LN5@Cmd_ShowTr
	jmp	$LN1@Cmd_ShowTr
$LN5@Cmd_ShowTr:

; 466  : 
; 467  : 	for( int i = 1; i < gpGlobals->maxEntities; i++, pEdict++ )

	mov	DWORD PTR _i$1[ebp], 1
	jmp	SHORT $LN4@Cmd_ShowTr
$LN2@Cmd_ShowTr:
	mov	eax, DWORD PTR _i$1[ebp]
	add	eax, 1
	mov	DWORD PTR _i$1[ebp], eax
	mov	ecx, DWORD PTR _pEdict$[ebp]
	add	ecx, 804				; 00000324H
	mov	DWORD PTR _pEdict$[ebp], ecx
$LN4@Cmd_ShowTr:
	mov	edx, DWORD PTR ?gpGlobals@@3PAUglobalvars_t@@A ; gpGlobals
	mov	eax, DWORD PTR _i$1[ebp]
	cmp	eax, DWORD PTR [edx+148]
	jge	$LN3@Cmd_ShowTr

; 468  : 	{
; 469  : 		if( pEdict->free )	// Not in use

	mov	ecx, DWORD PTR _pEdict$[ebp]
	cmp	DWORD PTR [ecx], 0
	je	SHORT $LN6@Cmd_ShowTr

; 470  : 			continue;

	jmp	SHORT $LN2@Cmd_ShowTr
$LN6@Cmd_ShowTr:

; 471  : 		
; 472  : 		CBaseEntity *pEntity = CBaseEntity :: Instance( pEdict );

	mov	edx, DWORD PTR _pEdict$[ebp]
	push	edx
	call	?Instance@CBaseEntity@@SAPAV1@PAUedict_s@@@Z ; CBaseEntity::Instance
	add	esp, 4
	mov	DWORD PTR _pEntity$2[ebp], eax

; 473  : 		if( !pEntity || !FBitSet( pEntity->m_iFlags, MF_TRIGGER|MF_LADDER ))

	cmp	DWORD PTR _pEntity$2[ebp], 0
	je	SHORT $LN8@Cmd_ShowTr
	mov	eax, DWORD PTR _pEntity$2[ebp]
	mov	ecx, DWORD PTR [eax+24]
	and	ecx, 10					; 0000000aH
	jne	SHORT $LN7@Cmd_ShowTr
$LN8@Cmd_ShowTr:

; 474  : 			continue;

	jmp	SHORT $LN2@Cmd_ShowTr
$LN7@Cmd_ShowTr:

; 475  : 
; 476  : 		if( FBitSet( pEntity->m_iFlags, MF_LADDER ))

	mov	edx, DWORD PTR _pEntity$2[ebp]
	mov	eax, DWORD PTR [edx+24]
	and	eax, 8
	je	SHORT $LN9@Cmd_ShowTr

; 477  : 		{
; 478  : 			if( pEntity->pev->renderamt <= 0 )

	mov	ecx, DWORD PTR _pEntity$2[ebp]
	mov	edx, DWORD PTR [ecx+4]
	xorps	xmm0, xmm0
	comiss	xmm0, DWORD PTR [edx+332]
	jb	SHORT $LN11@Cmd_ShowTr

; 479  : 				pEntity->pev->renderamt = 255;

	mov	eax, DWORD PTR _pEntity$2[ebp]
	mov	ecx, DWORD PTR [eax+4]
	movss	xmm0, DWORD PTR __real@437f0000
	movss	DWORD PTR [ecx+332], xmm0
	jmp	SHORT $LN12@Cmd_ShowTr
$LN11@Cmd_ShowTr:

; 480  : 			else pEntity->pev->renderamt = 0;

	mov	edx, DWORD PTR _pEntity$2[ebp]
	mov	eax, DWORD PTR [edx+4]
	xorps	xmm0, xmm0
	movss	DWORD PTR [eax+332], xmm0
$LN12@Cmd_ShowTr:
	jmp	SHORT $LN15@Cmd_ShowTr
$LN9@Cmd_ShowTr:

; 481  : 		}
; 482  : 		else if( FBitSet( pEntity->m_iFlags, MF_TRIGGER ))

	mov	ecx, DWORD PTR _pEntity$2[ebp]
	mov	edx, DWORD PTR [ecx+24]
	and	edx, 2
	je	SHORT $LN15@Cmd_ShowTr

; 483  : 		{
; 484  : 			if( FBitSet( pEntity->pev->effects, EF_NODRAW ))

	mov	eax, DWORD PTR _pEntity$2[ebp]
	mov	ecx, DWORD PTR [eax+4]
	mov	edx, DWORD PTR [ecx+280]
	and	edx, 128				; 00000080H
	je	SHORT $LN14@Cmd_ShowTr

; 485  : 				pEntity->pev->effects &= ~EF_NODRAW;

	mov	eax, DWORD PTR _pEntity$2[ebp]
	mov	ecx, DWORD PTR [eax+4]
	mov	edx, DWORD PTR [ecx+280]
	and	edx, -129				; ffffff7fH
	mov	eax, DWORD PTR _pEntity$2[ebp]
	mov	ecx, DWORD PTR [eax+4]
	mov	DWORD PTR [ecx+280], edx
	jmp	SHORT $LN15@Cmd_ShowTr
$LN14@Cmd_ShowTr:

; 486  : 			else pEntity->pev->effects |= EF_NODRAW;

	mov	edx, DWORD PTR _pEntity$2[ebp]
	mov	eax, DWORD PTR [edx+4]
	mov	ecx, DWORD PTR [eax+280]
	or	ecx, 128				; 00000080H
	mov	edx, DWORD PTR _pEntity$2[ebp]
	mov	eax, DWORD PTR [edx+4]
	mov	DWORD PTR [eax+280], ecx
$LN15@Cmd_ShowTr:

; 487  : 		}
; 488  : 	}

	jmp	$LN2@Cmd_ShowTr
$LN3@Cmd_ShowTr:
$LN1@Cmd_ShowTr:

; 489  : }

	mov	esp, ebp
	pop	ebp
	ret	0
?Cmd_ShowTriggers_f@@YAXXZ ENDP				; Cmd_ShowTriggers_f
_TEXT	ENDS
; Function compile flags: /Odtp
; File c:\users\user\downloads\xashxt_v0.81_rev.1_with_sources\xashxt_v0.81_rev.1_src\server\cbase.h
;	COMDAT ?Instance@CBaseEntity@@SAPAV1@PAUedict_s@@@Z
_TEXT	SEGMENT
_pEnt$ = -4						; size = 4
_pent$ = 8						; size = 4
?Instance@CBaseEntity@@SAPAV1@PAUedict_s@@@Z PROC	; CBaseEntity::Instance, COMDAT

; 512  : 	{ 

	push	ebp
	mov	ebp, esp
	push	ecx

; 513  : 		if ( !pent )

	cmp	DWORD PTR _pent$[ebp], 0
	jne	SHORT $LN2@Instance

; 514  : 			pent = ENT(0);

	push	0
	call	?ENT@@YAPAUedict_s@@H@Z			; ENT
	add	esp, 4
	mov	DWORD PTR _pent$[ebp], eax
$LN2@Instance:

; 515  : 		CBaseEntity *pEnt = (CBaseEntity *)GET_PRIVATE(pent); 

	mov	eax, DWORD PTR _pent$[ebp]
	push	eax
	call	?GET_PRIVATE@@YAPAXPAUedict_s@@@Z	; GET_PRIVATE
	add	esp, 4
	mov	DWORD PTR _pEnt$[ebp], eax

; 516  : 		return pEnt; 

	mov	eax, DWORD PTR _pEnt$[ebp]

; 517  : 	}

	mov	esp, ebp
	pop	ebp
	ret	0
?Instance@CBaseEntity@@SAPAV1@PAUedict_s@@@Z ENDP	; CBaseEntity::Instance
_TEXT	ENDS
; Function compile flags: /Odtp
; File c:\users\user\downloads\xashxt_v0.81_rev.1_with_sources\xashxt_v0.81_rev.1_src\server\game.cpp
_TEXT	SEGMENT
?GameDLLShutdown@@YAXXZ PROC				; GameDLLShutdown

; 953  : {

	push	ebp
	mov	ebp, esp

; 954  : 	WorldPhysic->FreePhysic();	// release physic world

	mov	eax, DWORD PTR ?WorldPhysic@@3PAVIPhysicLayer@@A ; WorldPhysic
	mov	edx, DWORD PTR [eax]
	mov	ecx, DWORD PTR ?WorldPhysic@@3PAVIPhysicLayer@@A ; WorldPhysic
	mov	eax, DWORD PTR [edx+4]
	call	eax

; 955  : }

	pop	ebp
	ret	0
?GameDLLShutdown@@YAXXZ ENDP				; GameDLLShutdown
_TEXT	ENDS
; Function compile flags: /Odtp
; File c:\users\user\downloads\xashxt_v0.81_rev.1_with_sources\xashxt_v0.81_rev.1_src\server\game.cpp
_TEXT	SEGMENT
?GameDLLInit@@YAXXZ PROC				; GameDLLInit

; 494  : {

	push	ebp
	mov	ebp, esp

; 495  : 	// Register cvars here:
; 496  : 
; 497  : 	g_psv_gravity = CVAR_GET_POINTER( "sv_gravity" );

	push	OFFSET $SG75294
	call	DWORD PTR ?g_engfuncs@@3Uenginefuncs_s@@A+464
	add	esp, 4
	mov	DWORD PTR ?g_psv_gravity@@3PAUcvar_s@@A, eax ; g_psv_gravity

; 498  : 	g_psv_aim = CVAR_GET_POINTER( "sv_aim" );

	push	OFFSET $SG75295
	call	DWORD PTR ?g_engfuncs@@3Uenginefuncs_s@@A+464
	add	esp, 4
	mov	DWORD PTR ?g_psv_aim@@3PAUcvar_s@@A, eax ; g_psv_aim

; 499  : 	g_footsteps = CVAR_GET_POINTER( "mp_footsteps" );

	push	OFFSET $SG75296
	call	DWORD PTR ?g_engfuncs@@3Uenginefuncs_s@@A+464
	add	esp, 4
	mov	DWORD PTR ?g_footsteps@@3PAUcvar_s@@A, eax ; g_footsteps

; 500  : 	g_psv_stepsize = CVAR_GET_POINTER( "sv_stepsize" );

	push	OFFSET $SG75297
	call	DWORD PTR ?g_engfuncs@@3Uenginefuncs_s@@A+464
	add	esp, 4
	mov	DWORD PTR ?g_psv_stepsize@@3PAUcvar_s@@A, eax ; g_psv_stepsize

; 501  : 	CVAR_REGISTER( &g_sync_physic );

	push	OFFSET ?g_sync_physic@@3Ucvar_s@@A	; g_sync_physic
	call	DWORD PTR ?g_engfuncs@@3Uenginefuncs_s@@A+224
	add	esp, 4

; 502  : 
; 503  : 	g_engfuncs.pfnAddServerCommand( "showtriggers_toggle", Cmd_ShowTriggers_f );

	push	OFFSET ?Cmd_ShowTriggers_f@@YAXXZ	; Cmd_ShowTriggers_f
	push	OFFSET $SG75298
	call	DWORD PTR ?g_engfuncs@@3Uenginefuncs_s@@A+560
	add	esp, 8

; 504  : 
; 505  : 	g_engfuncs.pfnAddServerCommand( "dump_entity_sizes", DumpEntitySizes_f );

	push	OFFSET ?DumpEntitySizes_f@@YAXXZ	; DumpEntitySizes_f
	push	OFFSET $SG75299
	call	DWORD PTR ?g_engfuncs@@3Uenginefuncs_s@@A+560
	add	esp, 8

; 506  : 	g_engfuncs.pfnAddServerCommand( "dump_entity_names", DumpEntityNames_f );

	push	OFFSET ?DumpEntityNames_f@@YAXXZ	; DumpEntityNames_f
	push	OFFSET $SG75300
	call	DWORD PTR ?g_engfuncs@@3Uenginefuncs_s@@A+560
	add	esp, 8

; 507  : 
; 508  : #ifdef HAVE_STRINGPOOL
; 509  : 	g_engfuncs.pfnAddServerCommand( "dump_strings", DumpStrings_f );

	push	OFFSET ?DumpStrings_f@@YAXXZ		; DumpStrings_f
	push	OFFSET $SG75301
	call	DWORD PTR ?g_engfuncs@@3Uenginefuncs_s@@A+560
	add	esp, 8

; 510  : #endif
; 511  : 	CVAR_REGISTER (&displaysoundlist);

	push	OFFSET ?displaysoundlist@@3Ucvar_s@@A	; displaysoundlist
	call	DWORD PTR ?g_engfuncs@@3Uenginefuncs_s@@A+224
	add	esp, 4

; 512  : 
; 513  : 	CVAR_REGISTER (&teamplay);

	push	OFFSET ?teamplay@@3Ucvar_s@@A		; teamplay
	call	DWORD PTR ?g_engfuncs@@3Uenginefuncs_s@@A+224
	add	esp, 4

; 514  : 	CVAR_REGISTER (&fraglimit);

	push	OFFSET ?fraglimit@@3Ucvar_s@@A		; fraglimit
	call	DWORD PTR ?g_engfuncs@@3Uenginefuncs_s@@A+224
	add	esp, 4

; 515  : 	CVAR_REGISTER (&timelimit);

	push	OFFSET ?timelimit@@3Ucvar_s@@A		; timelimit
	call	DWORD PTR ?g_engfuncs@@3Uenginefuncs_s@@A+224
	add	esp, 4

; 516  : 
; 517  : 	CVAR_REGISTER (&fragsleft);

	push	OFFSET ?fragsleft@@3Ucvar_s@@A		; fragsleft
	call	DWORD PTR ?g_engfuncs@@3Uenginefuncs_s@@A+224
	add	esp, 4

; 518  : 	CVAR_REGISTER (&timeleft);

	push	OFFSET ?timeleft@@3Ucvar_s@@A		; timeleft
	call	DWORD PTR ?g_engfuncs@@3Uenginefuncs_s@@A+224
	add	esp, 4

; 519  : 	CVAR_REGISTER (&debugdraw);

	push	OFFSET ?debugdraw@@3Ucvar_s@@A		; debugdraw
	call	DWORD PTR ?g_engfuncs@@3Uenginefuncs_s@@A+224
	add	esp, 4

; 520  : 	CVAR_REGISTER (&physstats);

	push	OFFSET ?physstats@@3Ucvar_s@@A		; physstats
	call	DWORD PTR ?g_engfuncs@@3Uenginefuncs_s@@A+224
	add	esp, 4

; 521  : 	CVAR_REGISTER (&physdebug);

	push	OFFSET ?physdebug@@3Ucvar_s@@A		; physdebug
	call	DWORD PTR ?g_engfuncs@@3Uenginefuncs_s@@A+224
	add	esp, 4

; 522  : 
; 523  : 	CVAR_REGISTER (&friendlyfire);

	push	OFFSET ?friendlyfire@@3Ucvar_s@@A	; friendlyfire
	call	DWORD PTR ?g_engfuncs@@3Uenginefuncs_s@@A+224
	add	esp, 4

; 524  : 	CVAR_REGISTER (&falldamage);

	push	OFFSET ?falldamage@@3Ucvar_s@@A		; falldamage
	call	DWORD PTR ?g_engfuncs@@3Uenginefuncs_s@@A+224
	add	esp, 4

; 525  : 	CVAR_REGISTER (&weaponstay);

	push	OFFSET ?weaponstay@@3Ucvar_s@@A		; weaponstay
	call	DWORD PTR ?g_engfuncs@@3Uenginefuncs_s@@A+224
	add	esp, 4

; 526  : 	CVAR_REGISTER (&forcerespawn);

	push	OFFSET ?forcerespawn@@3Ucvar_s@@A	; forcerespawn
	call	DWORD PTR ?g_engfuncs@@3Uenginefuncs_s@@A+224
	add	esp, 4

; 527  : 	CVAR_REGISTER (&flashlight);

	push	OFFSET ?flashlight@@3Ucvar_s@@A		; flashlight
	call	DWORD PTR ?g_engfuncs@@3Uenginefuncs_s@@A+224
	add	esp, 4

; 528  : 	CVAR_REGISTER (&aimcrosshair);

	push	OFFSET ?aimcrosshair@@3Ucvar_s@@A	; aimcrosshair
	call	DWORD PTR ?g_engfuncs@@3Uenginefuncs_s@@A+224
	add	esp, 4

; 529  : 	CVAR_REGISTER (&decalfrequency);

	push	OFFSET ?decalfrequency@@3Ucvar_s@@A	; decalfrequency
	call	DWORD PTR ?g_engfuncs@@3Uenginefuncs_s@@A+224
	add	esp, 4

; 530  : 	CVAR_REGISTER (&teamlist);

	push	OFFSET ?teamlist@@3Ucvar_s@@A		; teamlist
	call	DWORD PTR ?g_engfuncs@@3Uenginefuncs_s@@A+224
	add	esp, 4

; 531  : 	CVAR_REGISTER (&teamoverride);

	push	OFFSET ?teamoverride@@3Ucvar_s@@A	; teamoverride
	call	DWORD PTR ?g_engfuncs@@3Uenginefuncs_s@@A+224
	add	esp, 4

; 532  : 	CVAR_REGISTER (&defaultteam);

	push	OFFSET ?defaultteam@@3Ucvar_s@@A	; defaultteam
	call	DWORD PTR ?g_engfuncs@@3Uenginefuncs_s@@A+224
	add	esp, 4

; 533  : 	CVAR_REGISTER (&allowmonsters);

	push	OFFSET ?allowmonsters@@3Ucvar_s@@A	; allowmonsters
	call	DWORD PTR ?g_engfuncs@@3Uenginefuncs_s@@A+224
	add	esp, 4

; 534  : 
; 535  : 	CVAR_REGISTER (&mp_chattime);

	push	OFFSET ?mp_chattime@@3Ucvar_s@@A	; mp_chattime
	call	DWORD PTR ?g_engfuncs@@3Uenginefuncs_s@@A+224
	add	esp, 4

; 536  : 
; 537  : 	// server debug drawing support requires build up to 1940
; 538  : 	g_debugdraw = CVAR_GET_POINTER( "phys_debug" );

	push	OFFSET $SG75302
	call	DWORD PTR ?g_engfuncs@@3Uenginefuncs_s@@A+464
	add	esp, 4
	mov	DWORD PTR ?g_debugdraw@@3PAUcvar_s@@A, eax ; g_debugdraw

; 539  : 	g_physdebug = CVAR_GET_POINTER( "qphys_debug" );

	push	OFFSET $SG75303
	call	DWORD PTR ?g_engfuncs@@3Uenginefuncs_s@@A+464
	add	esp, 4
	mov	DWORD PTR ?g_physdebug@@3PAUcvar_s@@A, eax ; g_physdebug

; 540  : 	p_speeds = CVAR_GET_POINTER( "p_speeds" );

	push	OFFSET $SG75304
	call	DWORD PTR ?g_engfuncs@@3Uenginefuncs_s@@A+464
	add	esp, 4
	mov	DWORD PTR ?p_speeds@@3PAUcvar_s@@A, eax	; p_speeds

; 541  : 	g_allow_physx = CVAR_GET_POINTER( "sv_allow_PhysX" );

	push	OFFSET $SG75305
	call	DWORD PTR ?g_engfuncs@@3Uenginefuncs_s@@A+464
	add	esp, 4
	mov	DWORD PTR ?g_allow_physx@@3PAUcvar_s@@A, eax ; g_allow_physx

; 542  : 
; 543  : // REGISTER CVARS FOR SKILL LEVEL STUFF
; 544  : 	// Agrunt
; 545  : 	CVAR_REGISTER ( &sk_agrunt_health1 );// {"sk_agrunt_health1","0"};

	push	OFFSET ?sk_agrunt_health1@@3Ucvar_s@@A	; sk_agrunt_health1
	call	DWORD PTR ?g_engfuncs@@3Uenginefuncs_s@@A+224
	add	esp, 4

; 546  : 	CVAR_REGISTER ( &sk_agrunt_health2 );// {"sk_agrunt_health2","0"};

	push	OFFSET ?sk_agrunt_health2@@3Ucvar_s@@A	; sk_agrunt_health2
	call	DWORD PTR ?g_engfuncs@@3Uenginefuncs_s@@A+224
	add	esp, 4

; 547  : 	CVAR_REGISTER ( &sk_agrunt_health3 );// {"sk_agrunt_health3","0"};

	push	OFFSET ?sk_agrunt_health3@@3Ucvar_s@@A	; sk_agrunt_health3
	call	DWORD PTR ?g_engfuncs@@3Uenginefuncs_s@@A+224
	add	esp, 4

; 548  : 
; 549  : 	CVAR_REGISTER ( &sk_agrunt_dmg_punch1 );// {"sk_agrunt_dmg_punch1","0"};

	push	OFFSET ?sk_agrunt_dmg_punch1@@3Ucvar_s@@A ; sk_agrunt_dmg_punch1
	call	DWORD PTR ?g_engfuncs@@3Uenginefuncs_s@@A+224
	add	esp, 4

; 550  : 	CVAR_REGISTER ( &sk_agrunt_dmg_punch2 );// {"sk_agrunt_dmg_punch2","0"};

	push	OFFSET ?sk_agrunt_dmg_punch2@@3Ucvar_s@@A ; sk_agrunt_dmg_punch2
	call	DWORD PTR ?g_engfuncs@@3Uenginefuncs_s@@A+224
	add	esp, 4

; 551  : 	CVAR_REGISTER ( &sk_agrunt_dmg_punch3 );// {"sk_agrunt_dmg_punch3","0"};

	push	OFFSET ?sk_agrunt_dmg_punch3@@3Ucvar_s@@A ; sk_agrunt_dmg_punch3
	call	DWORD PTR ?g_engfuncs@@3Uenginefuncs_s@@A+224
	add	esp, 4

; 552  : 
; 553  : 	// Apache
; 554  : 	CVAR_REGISTER ( &sk_apache_health1 );// {"sk_apache_health1","0"};

	push	OFFSET ?sk_apache_health1@@3Ucvar_s@@A	; sk_apache_health1
	call	DWORD PTR ?g_engfuncs@@3Uenginefuncs_s@@A+224
	add	esp, 4

; 555  : 	CVAR_REGISTER ( &sk_apache_health2 );// {"sk_apache_health2","0"};

	push	OFFSET ?sk_apache_health2@@3Ucvar_s@@A	; sk_apache_health2
	call	DWORD PTR ?g_engfuncs@@3Uenginefuncs_s@@A+224
	add	esp, 4

; 556  : 	CVAR_REGISTER ( &sk_apache_health3 );// {"sk_apache_health3","0"};

	push	OFFSET ?sk_apache_health3@@3Ucvar_s@@A	; sk_apache_health3
	call	DWORD PTR ?g_engfuncs@@3Uenginefuncs_s@@A+224
	add	esp, 4

; 557  : 
; 558  : 	// Barney
; 559  : 	CVAR_REGISTER ( &sk_barney_health1 );// {"sk_barney_health1","0"};

	push	OFFSET ?sk_barney_health1@@3Ucvar_s@@A	; sk_barney_health1
	call	DWORD PTR ?g_engfuncs@@3Uenginefuncs_s@@A+224
	add	esp, 4

; 560  : 	CVAR_REGISTER ( &sk_barney_health2 );// {"sk_barney_health2","0"};

	push	OFFSET ?sk_barney_health2@@3Ucvar_s@@A	; sk_barney_health2
	call	DWORD PTR ?g_engfuncs@@3Uenginefuncs_s@@A+224
	add	esp, 4

; 561  : 	CVAR_REGISTER ( &sk_barney_health3 );// {"sk_barney_health3","0"};

	push	OFFSET ?sk_barney_health3@@3Ucvar_s@@A	; sk_barney_health3
	call	DWORD PTR ?g_engfuncs@@3Uenginefuncs_s@@A+224
	add	esp, 4

; 562  : 
; 563  : 	// Bullsquid
; 564  : 	CVAR_REGISTER ( &sk_bullsquid_health1 );// {"sk_bullsquid_health1","0"};

	push	OFFSET ?sk_bullsquid_health1@@3Ucvar_s@@A ; sk_bullsquid_health1
	call	DWORD PTR ?g_engfuncs@@3Uenginefuncs_s@@A+224
	add	esp, 4

; 565  : 	CVAR_REGISTER ( &sk_bullsquid_health2 );// {"sk_bullsquid_health2","0"};

	push	OFFSET ?sk_bullsquid_health2@@3Ucvar_s@@A ; sk_bullsquid_health2
	call	DWORD PTR ?g_engfuncs@@3Uenginefuncs_s@@A+224
	add	esp, 4

; 566  : 	CVAR_REGISTER ( &sk_bullsquid_health3 );// {"sk_bullsquid_health3","0"};

	push	OFFSET ?sk_bullsquid_health3@@3Ucvar_s@@A ; sk_bullsquid_health3
	call	DWORD PTR ?g_engfuncs@@3Uenginefuncs_s@@A+224
	add	esp, 4

; 567  : 
; 568  : 	CVAR_REGISTER ( &sk_bullsquid_dmg_bite1 );// {"sk_bullsquid_dmg_bite1","0"};

	push	OFFSET ?sk_bullsquid_dmg_bite1@@3Ucvar_s@@A ; sk_bullsquid_dmg_bite1
	call	DWORD PTR ?g_engfuncs@@3Uenginefuncs_s@@A+224
	add	esp, 4

; 569  : 	CVAR_REGISTER ( &sk_bullsquid_dmg_bite2 );// {"sk_bullsquid_dmg_bite2","0"};

	push	OFFSET ?sk_bullsquid_dmg_bite2@@3Ucvar_s@@A ; sk_bullsquid_dmg_bite2
	call	DWORD PTR ?g_engfuncs@@3Uenginefuncs_s@@A+224
	add	esp, 4

; 570  : 	CVAR_REGISTER ( &sk_bullsquid_dmg_bite3 );// {"sk_bullsquid_dmg_bite3","0"};

	push	OFFSET ?sk_bullsquid_dmg_bite3@@3Ucvar_s@@A ; sk_bullsquid_dmg_bite3
	call	DWORD PTR ?g_engfuncs@@3Uenginefuncs_s@@A+224
	add	esp, 4

; 571  : 
; 572  : 	CVAR_REGISTER ( &sk_bullsquid_dmg_whip1 );// {"sk_bullsquid_dmg_whip1","0"};

	push	OFFSET ?sk_bullsquid_dmg_whip1@@3Ucvar_s@@A ; sk_bullsquid_dmg_whip1
	call	DWORD PTR ?g_engfuncs@@3Uenginefuncs_s@@A+224
	add	esp, 4

; 573  : 	CVAR_REGISTER ( &sk_bullsquid_dmg_whip2 );// {"sk_bullsquid_dmg_whip2","0"};

	push	OFFSET ?sk_bullsquid_dmg_whip2@@3Ucvar_s@@A ; sk_bullsquid_dmg_whip2
	call	DWORD PTR ?g_engfuncs@@3Uenginefuncs_s@@A+224
	add	esp, 4

; 574  : 	CVAR_REGISTER ( &sk_bullsquid_dmg_whip3 );// {"sk_bullsquid_dmg_whip3","0"};

	push	OFFSET ?sk_bullsquid_dmg_whip3@@3Ucvar_s@@A ; sk_bullsquid_dmg_whip3
	call	DWORD PTR ?g_engfuncs@@3Uenginefuncs_s@@A+224
	add	esp, 4

; 575  : 
; 576  : 	CVAR_REGISTER ( &sk_bullsquid_dmg_spit1 );// {"sk_bullsquid_dmg_spit1","0"};

	push	OFFSET ?sk_bullsquid_dmg_spit1@@3Ucvar_s@@A ; sk_bullsquid_dmg_spit1
	call	DWORD PTR ?g_engfuncs@@3Uenginefuncs_s@@A+224
	add	esp, 4

; 577  : 	CVAR_REGISTER ( &sk_bullsquid_dmg_spit2 );// {"sk_bullsquid_dmg_spit2","0"};

	push	OFFSET ?sk_bullsquid_dmg_spit2@@3Ucvar_s@@A ; sk_bullsquid_dmg_spit2
	call	DWORD PTR ?g_engfuncs@@3Uenginefuncs_s@@A+224
	add	esp, 4

; 578  : 	CVAR_REGISTER ( &sk_bullsquid_dmg_spit3 );// {"sk_bullsquid_dmg_spit3","0"};

	push	OFFSET ?sk_bullsquid_dmg_spit3@@3Ucvar_s@@A ; sk_bullsquid_dmg_spit3
	call	DWORD PTR ?g_engfuncs@@3Uenginefuncs_s@@A+224
	add	esp, 4

; 579  : 
; 580  : 
; 581  : 	CVAR_REGISTER ( &sk_bigmomma_health_factor1 );// {"sk_bigmomma_health_factor1","1.0"};

	push	OFFSET ?sk_bigmomma_health_factor1@@3Ucvar_s@@A ; sk_bigmomma_health_factor1
	call	DWORD PTR ?g_engfuncs@@3Uenginefuncs_s@@A+224
	add	esp, 4

; 582  : 	CVAR_REGISTER ( &sk_bigmomma_health_factor2 );// {"sk_bigmomma_health_factor2","1.0"};

	push	OFFSET ?sk_bigmomma_health_factor2@@3Ucvar_s@@A ; sk_bigmomma_health_factor2
	call	DWORD PTR ?g_engfuncs@@3Uenginefuncs_s@@A+224
	add	esp, 4

; 583  : 	CVAR_REGISTER ( &sk_bigmomma_health_factor3 );// {"sk_bigmomma_health_factor3","1.0"};

	push	OFFSET ?sk_bigmomma_health_factor3@@3Ucvar_s@@A ; sk_bigmomma_health_factor3
	call	DWORD PTR ?g_engfuncs@@3Uenginefuncs_s@@A+224
	add	esp, 4

; 584  : 
; 585  : 	CVAR_REGISTER ( &sk_bigmomma_dmg_slash1 );// {"sk_bigmomma_dmg_slash1","50"};

	push	OFFSET ?sk_bigmomma_dmg_slash1@@3Ucvar_s@@A ; sk_bigmomma_dmg_slash1
	call	DWORD PTR ?g_engfuncs@@3Uenginefuncs_s@@A+224
	add	esp, 4

; 586  : 	CVAR_REGISTER ( &sk_bigmomma_dmg_slash2 );// {"sk_bigmomma_dmg_slash2","50"};

	push	OFFSET ?sk_bigmomma_dmg_slash2@@3Ucvar_s@@A ; sk_bigmomma_dmg_slash2
	call	DWORD PTR ?g_engfuncs@@3Uenginefuncs_s@@A+224
	add	esp, 4

; 587  : 	CVAR_REGISTER ( &sk_bigmomma_dmg_slash3 );// {"sk_bigmomma_dmg_slash3","50"};

	push	OFFSET ?sk_bigmomma_dmg_slash3@@3Ucvar_s@@A ; sk_bigmomma_dmg_slash3
	call	DWORD PTR ?g_engfuncs@@3Uenginefuncs_s@@A+224
	add	esp, 4

; 588  : 
; 589  : 	CVAR_REGISTER ( &sk_bigmomma_dmg_blast1 );// {"sk_bigmomma_dmg_blast1","100"};

	push	OFFSET ?sk_bigmomma_dmg_blast1@@3Ucvar_s@@A ; sk_bigmomma_dmg_blast1
	call	DWORD PTR ?g_engfuncs@@3Uenginefuncs_s@@A+224
	add	esp, 4

; 590  : 	CVAR_REGISTER ( &sk_bigmomma_dmg_blast2 );// {"sk_bigmomma_dmg_blast2","100"};

	push	OFFSET ?sk_bigmomma_dmg_blast2@@3Ucvar_s@@A ; sk_bigmomma_dmg_blast2
	call	DWORD PTR ?g_engfuncs@@3Uenginefuncs_s@@A+224
	add	esp, 4

; 591  : 	CVAR_REGISTER ( &sk_bigmomma_dmg_blast3 );// {"sk_bigmomma_dmg_blast3","100"};

	push	OFFSET ?sk_bigmomma_dmg_blast3@@3Ucvar_s@@A ; sk_bigmomma_dmg_blast3
	call	DWORD PTR ?g_engfuncs@@3Uenginefuncs_s@@A+224
	add	esp, 4

; 592  : 
; 593  : 	CVAR_REGISTER ( &sk_bigmomma_radius_blast1 );// {"sk_bigmomma_radius_blast1","250"};

	push	OFFSET ?sk_bigmomma_radius_blast1@@3Ucvar_s@@A ; sk_bigmomma_radius_blast1
	call	DWORD PTR ?g_engfuncs@@3Uenginefuncs_s@@A+224
	add	esp, 4

; 594  : 	CVAR_REGISTER ( &sk_bigmomma_radius_blast2 );// {"sk_bigmomma_radius_blast2","250"};

	push	OFFSET ?sk_bigmomma_radius_blast2@@3Ucvar_s@@A ; sk_bigmomma_radius_blast2
	call	DWORD PTR ?g_engfuncs@@3Uenginefuncs_s@@A+224
	add	esp, 4

; 595  : 	CVAR_REGISTER ( &sk_bigmomma_radius_blast3 );// {"sk_bigmomma_radius_blast3","250"};

	push	OFFSET ?sk_bigmomma_radius_blast3@@3Ucvar_s@@A ; sk_bigmomma_radius_blast3
	call	DWORD PTR ?g_engfuncs@@3Uenginefuncs_s@@A+224
	add	esp, 4

; 596  : 
; 597  : 	// Gargantua
; 598  : 	CVAR_REGISTER ( &sk_gargantua_health1 );// {"sk_gargantua_health1","0"};

	push	OFFSET ?sk_gargantua_health1@@3Ucvar_s@@A ; sk_gargantua_health1
	call	DWORD PTR ?g_engfuncs@@3Uenginefuncs_s@@A+224
	add	esp, 4

; 599  : 	CVAR_REGISTER ( &sk_gargantua_health2 );// {"sk_gargantua_health2","0"};

	push	OFFSET ?sk_gargantua_health2@@3Ucvar_s@@A ; sk_gargantua_health2
	call	DWORD PTR ?g_engfuncs@@3Uenginefuncs_s@@A+224
	add	esp, 4

; 600  : 	CVAR_REGISTER ( &sk_gargantua_health3 );// {"sk_gargantua_health3","0"};

	push	OFFSET ?sk_gargantua_health3@@3Ucvar_s@@A ; sk_gargantua_health3
	call	DWORD PTR ?g_engfuncs@@3Uenginefuncs_s@@A+224
	add	esp, 4

; 601  : 
; 602  : 	CVAR_REGISTER ( &sk_gargantua_dmg_slash1 );// {"sk_gargantua_dmg_slash1","0"};

	push	OFFSET ?sk_gargantua_dmg_slash1@@3Ucvar_s@@A ; sk_gargantua_dmg_slash1
	call	DWORD PTR ?g_engfuncs@@3Uenginefuncs_s@@A+224
	add	esp, 4

; 603  : 	CVAR_REGISTER ( &sk_gargantua_dmg_slash2 );// {"sk_gargantua_dmg_slash2","0"};

	push	OFFSET ?sk_gargantua_dmg_slash2@@3Ucvar_s@@A ; sk_gargantua_dmg_slash2
	call	DWORD PTR ?g_engfuncs@@3Uenginefuncs_s@@A+224
	add	esp, 4

; 604  : 	CVAR_REGISTER ( &sk_gargantua_dmg_slash3 );// {"sk_gargantua_dmg_slash3","0"};

	push	OFFSET ?sk_gargantua_dmg_slash3@@3Ucvar_s@@A ; sk_gargantua_dmg_slash3
	call	DWORD PTR ?g_engfuncs@@3Uenginefuncs_s@@A+224
	add	esp, 4

; 605  : 
; 606  : 	CVAR_REGISTER ( &sk_gargantua_dmg_fire1 );// {"sk_gargantua_dmg_fire1","0"};

	push	OFFSET ?sk_gargantua_dmg_fire1@@3Ucvar_s@@A ; sk_gargantua_dmg_fire1
	call	DWORD PTR ?g_engfuncs@@3Uenginefuncs_s@@A+224
	add	esp, 4

; 607  : 	CVAR_REGISTER ( &sk_gargantua_dmg_fire2 );// {"sk_gargantua_dmg_fire2","0"};

	push	OFFSET ?sk_gargantua_dmg_fire2@@3Ucvar_s@@A ; sk_gargantua_dmg_fire2
	call	DWORD PTR ?g_engfuncs@@3Uenginefuncs_s@@A+224
	add	esp, 4

; 608  : 	CVAR_REGISTER ( &sk_gargantua_dmg_fire3 );// {"sk_gargantua_dmg_fire3","0"};

	push	OFFSET ?sk_gargantua_dmg_fire3@@3Ucvar_s@@A ; sk_gargantua_dmg_fire3
	call	DWORD PTR ?g_engfuncs@@3Uenginefuncs_s@@A+224
	add	esp, 4

; 609  : 
; 610  : 	CVAR_REGISTER ( &sk_gargantua_dmg_stomp1 );// {"sk_gargantua_dmg_stomp1","0"};

	push	OFFSET ?sk_gargantua_dmg_stomp1@@3Ucvar_s@@A ; sk_gargantua_dmg_stomp1
	call	DWORD PTR ?g_engfuncs@@3Uenginefuncs_s@@A+224
	add	esp, 4

; 611  : 	CVAR_REGISTER ( &sk_gargantua_dmg_stomp2 );// {"sk_gargantua_dmg_stomp2","0"};

	push	OFFSET ?sk_gargantua_dmg_stomp2@@3Ucvar_s@@A ; sk_gargantua_dmg_stomp2
	call	DWORD PTR ?g_engfuncs@@3Uenginefuncs_s@@A+224
	add	esp, 4

; 612  : 	CVAR_REGISTER ( &sk_gargantua_dmg_stomp3	);// {"sk_gargantua_dmg_stomp3","0"};

	push	OFFSET ?sk_gargantua_dmg_stomp3@@3Ucvar_s@@A ; sk_gargantua_dmg_stomp3
	call	DWORD PTR ?g_engfuncs@@3Uenginefuncs_s@@A+224
	add	esp, 4

; 613  : 
; 614  : 
; 615  : 	// Hassassin
; 616  : 	CVAR_REGISTER ( &sk_hassassin_health1 );// {"sk_hassassin_health1","0"};

	push	OFFSET ?sk_hassassin_health1@@3Ucvar_s@@A ; sk_hassassin_health1
	call	DWORD PTR ?g_engfuncs@@3Uenginefuncs_s@@A+224
	add	esp, 4

; 617  : 	CVAR_REGISTER ( &sk_hassassin_health2 );// {"sk_hassassin_health2","0"};

	push	OFFSET ?sk_hassassin_health2@@3Ucvar_s@@A ; sk_hassassin_health2
	call	DWORD PTR ?g_engfuncs@@3Uenginefuncs_s@@A+224
	add	esp, 4

; 618  : 	CVAR_REGISTER ( &sk_hassassin_health3 );// {"sk_hassassin_health3","0"};

	push	OFFSET ?sk_hassassin_health3@@3Ucvar_s@@A ; sk_hassassin_health3
	call	DWORD PTR ?g_engfuncs@@3Uenginefuncs_s@@A+224
	add	esp, 4

; 619  : 
; 620  : 
; 621  : 	// Headcrab
; 622  : 	CVAR_REGISTER ( &sk_headcrab_health1 );// {"sk_headcrab_health1","0"};

	push	OFFSET ?sk_headcrab_health1@@3Ucvar_s@@A ; sk_headcrab_health1
	call	DWORD PTR ?g_engfuncs@@3Uenginefuncs_s@@A+224
	add	esp, 4

; 623  : 	CVAR_REGISTER ( &sk_headcrab_health2 );// {"sk_headcrab_health2","0"};

	push	OFFSET ?sk_headcrab_health2@@3Ucvar_s@@A ; sk_headcrab_health2
	call	DWORD PTR ?g_engfuncs@@3Uenginefuncs_s@@A+224
	add	esp, 4

; 624  : 	CVAR_REGISTER ( &sk_headcrab_health3 );// {"sk_headcrab_health3","0"};

	push	OFFSET ?sk_headcrab_health3@@3Ucvar_s@@A ; sk_headcrab_health3
	call	DWORD PTR ?g_engfuncs@@3Uenginefuncs_s@@A+224
	add	esp, 4

; 625  : 
; 626  : 	CVAR_REGISTER ( &sk_headcrab_dmg_bite1 );// {"sk_headcrab_dmg_bite1","0"};

	push	OFFSET ?sk_headcrab_dmg_bite1@@3Ucvar_s@@A ; sk_headcrab_dmg_bite1
	call	DWORD PTR ?g_engfuncs@@3Uenginefuncs_s@@A+224
	add	esp, 4

; 627  : 	CVAR_REGISTER ( &sk_headcrab_dmg_bite2 );// {"sk_headcrab_dmg_bite2","0"};

	push	OFFSET ?sk_headcrab_dmg_bite2@@3Ucvar_s@@A ; sk_headcrab_dmg_bite2
	call	DWORD PTR ?g_engfuncs@@3Uenginefuncs_s@@A+224
	add	esp, 4

; 628  : 	CVAR_REGISTER ( &sk_headcrab_dmg_bite3 );// {"sk_headcrab_dmg_bite3","0"};

	push	OFFSET ?sk_headcrab_dmg_bite3@@3Ucvar_s@@A ; sk_headcrab_dmg_bite3
	call	DWORD PTR ?g_engfuncs@@3Uenginefuncs_s@@A+224
	add	esp, 4

; 629  : 
; 630  : 
; 631  : 	// Hgrunt 
; 632  : 	CVAR_REGISTER ( &sk_hgrunt_health1 );// {"sk_hgrunt_health1","0"};

	push	OFFSET ?sk_hgrunt_health1@@3Ucvar_s@@A	; sk_hgrunt_health1
	call	DWORD PTR ?g_engfuncs@@3Uenginefuncs_s@@A+224
	add	esp, 4

; 633  : 	CVAR_REGISTER ( &sk_hgrunt_health2 );// {"sk_hgrunt_health2","0"};

	push	OFFSET ?sk_hgrunt_health2@@3Ucvar_s@@A	; sk_hgrunt_health2
	call	DWORD PTR ?g_engfuncs@@3Uenginefuncs_s@@A+224
	add	esp, 4

; 634  : 	CVAR_REGISTER ( &sk_hgrunt_health3 );// {"sk_hgrunt_health3","0"};

	push	OFFSET ?sk_hgrunt_health3@@3Ucvar_s@@A	; sk_hgrunt_health3
	call	DWORD PTR ?g_engfuncs@@3Uenginefuncs_s@@A+224
	add	esp, 4

; 635  : 
; 636  : 	CVAR_REGISTER ( &sk_hgrunt_kick1 );// {"sk_hgrunt_kick1","0"};

	push	OFFSET ?sk_hgrunt_kick1@@3Ucvar_s@@A	; sk_hgrunt_kick1
	call	DWORD PTR ?g_engfuncs@@3Uenginefuncs_s@@A+224
	add	esp, 4

; 637  : 	CVAR_REGISTER ( &sk_hgrunt_kick2 );// {"sk_hgrunt_kick2","0"};

	push	OFFSET ?sk_hgrunt_kick2@@3Ucvar_s@@A	; sk_hgrunt_kick2
	call	DWORD PTR ?g_engfuncs@@3Uenginefuncs_s@@A+224
	add	esp, 4

; 638  : 	CVAR_REGISTER ( &sk_hgrunt_kick3 );// {"sk_hgrunt_kick3","0"};

	push	OFFSET ?sk_hgrunt_kick3@@3Ucvar_s@@A	; sk_hgrunt_kick3
	call	DWORD PTR ?g_engfuncs@@3Uenginefuncs_s@@A+224
	add	esp, 4

; 639  : 
; 640  : 	CVAR_REGISTER ( &sk_hgrunt_pellets1 );

	push	OFFSET ?sk_hgrunt_pellets1@@3Ucvar_s@@A	; sk_hgrunt_pellets1
	call	DWORD PTR ?g_engfuncs@@3Uenginefuncs_s@@A+224
	add	esp, 4

; 641  : 	CVAR_REGISTER ( &sk_hgrunt_pellets2 );

	push	OFFSET ?sk_hgrunt_pellets2@@3Ucvar_s@@A	; sk_hgrunt_pellets2
	call	DWORD PTR ?g_engfuncs@@3Uenginefuncs_s@@A+224
	add	esp, 4

; 642  : 	CVAR_REGISTER ( &sk_hgrunt_pellets3 );

	push	OFFSET ?sk_hgrunt_pellets3@@3Ucvar_s@@A	; sk_hgrunt_pellets3
	call	DWORD PTR ?g_engfuncs@@3Uenginefuncs_s@@A+224
	add	esp, 4

; 643  : 
; 644  : 	CVAR_REGISTER ( &sk_hgrunt_gspeed1 );

	push	OFFSET ?sk_hgrunt_gspeed1@@3Ucvar_s@@A	; sk_hgrunt_gspeed1
	call	DWORD PTR ?g_engfuncs@@3Uenginefuncs_s@@A+224
	add	esp, 4

; 645  : 	CVAR_REGISTER ( &sk_hgrunt_gspeed2 );

	push	OFFSET ?sk_hgrunt_gspeed2@@3Ucvar_s@@A	; sk_hgrunt_gspeed2
	call	DWORD PTR ?g_engfuncs@@3Uenginefuncs_s@@A+224
	add	esp, 4

; 646  : 	CVAR_REGISTER ( &sk_hgrunt_gspeed3 );

	push	OFFSET ?sk_hgrunt_gspeed3@@3Ucvar_s@@A	; sk_hgrunt_gspeed3
	call	DWORD PTR ?g_engfuncs@@3Uenginefuncs_s@@A+224
	add	esp, 4

; 647  : 
; 648  : 	// Houndeye
; 649  : 	CVAR_REGISTER ( &sk_houndeye_health1 );// {"sk_houndeye_health1","0"};

	push	OFFSET ?sk_houndeye_health1@@3Ucvar_s@@A ; sk_houndeye_health1
	call	DWORD PTR ?g_engfuncs@@3Uenginefuncs_s@@A+224
	add	esp, 4

; 650  : 	CVAR_REGISTER ( &sk_houndeye_health2 );// {"sk_houndeye_health2","0"};

	push	OFFSET ?sk_houndeye_health2@@3Ucvar_s@@A ; sk_houndeye_health2
	call	DWORD PTR ?g_engfuncs@@3Uenginefuncs_s@@A+224
	add	esp, 4

; 651  : 	CVAR_REGISTER ( &sk_houndeye_health3 );// {"sk_houndeye_health3","0"};

	push	OFFSET ?sk_houndeye_health3@@3Ucvar_s@@A ; sk_houndeye_health3
	call	DWORD PTR ?g_engfuncs@@3Uenginefuncs_s@@A+224
	add	esp, 4

; 652  : 
; 653  : 	CVAR_REGISTER ( &sk_houndeye_dmg_blast1 );// {"sk_houndeye_dmg_blast1","0"};

	push	OFFSET ?sk_houndeye_dmg_blast1@@3Ucvar_s@@A ; sk_houndeye_dmg_blast1
	call	DWORD PTR ?g_engfuncs@@3Uenginefuncs_s@@A+224
	add	esp, 4

; 654  : 	CVAR_REGISTER ( &sk_houndeye_dmg_blast2 );// {"sk_houndeye_dmg_blast2","0"};

	push	OFFSET ?sk_houndeye_dmg_blast2@@3Ucvar_s@@A ; sk_houndeye_dmg_blast2
	call	DWORD PTR ?g_engfuncs@@3Uenginefuncs_s@@A+224
	add	esp, 4

; 655  : 	CVAR_REGISTER ( &sk_houndeye_dmg_blast3 );// {"sk_houndeye_dmg_blast3","0"};

	push	OFFSET ?sk_houndeye_dmg_blast3@@3Ucvar_s@@A ; sk_houndeye_dmg_blast3
	call	DWORD PTR ?g_engfuncs@@3Uenginefuncs_s@@A+224
	add	esp, 4

; 656  : 
; 657  : 
; 658  : 	// ISlave
; 659  : 	CVAR_REGISTER ( &sk_islave_health1 );// {"sk_islave_health1","0"};

	push	OFFSET ?sk_islave_health1@@3Ucvar_s@@A	; sk_islave_health1
	call	DWORD PTR ?g_engfuncs@@3Uenginefuncs_s@@A+224
	add	esp, 4

; 660  : 	CVAR_REGISTER ( &sk_islave_health2 );// {"sk_islave_health2","0"};

	push	OFFSET ?sk_islave_health2@@3Ucvar_s@@A	; sk_islave_health2
	call	DWORD PTR ?g_engfuncs@@3Uenginefuncs_s@@A+224
	add	esp, 4

; 661  : 	CVAR_REGISTER ( &sk_islave_health3 );// {"sk_islave_health3","0"};

	push	OFFSET ?sk_islave_health3@@3Ucvar_s@@A	; sk_islave_health3
	call	DWORD PTR ?g_engfuncs@@3Uenginefuncs_s@@A+224
	add	esp, 4

; 662  : 
; 663  : 	CVAR_REGISTER ( &sk_islave_dmg_claw1 );// {"sk_islave_dmg_claw1","0"};

	push	OFFSET ?sk_islave_dmg_claw1@@3Ucvar_s@@A ; sk_islave_dmg_claw1
	call	DWORD PTR ?g_engfuncs@@3Uenginefuncs_s@@A+224
	add	esp, 4

; 664  : 	CVAR_REGISTER ( &sk_islave_dmg_claw2 );// {"sk_islave_dmg_claw2","0"};

	push	OFFSET ?sk_islave_dmg_claw2@@3Ucvar_s@@A ; sk_islave_dmg_claw2
	call	DWORD PTR ?g_engfuncs@@3Uenginefuncs_s@@A+224
	add	esp, 4

; 665  : 	CVAR_REGISTER ( &sk_islave_dmg_claw3 );// {"sk_islave_dmg_claw3","0"};

	push	OFFSET ?sk_islave_dmg_claw3@@3Ucvar_s@@A ; sk_islave_dmg_claw3
	call	DWORD PTR ?g_engfuncs@@3Uenginefuncs_s@@A+224
	add	esp, 4

; 666  : 
; 667  : 	CVAR_REGISTER ( &sk_islave_dmg_clawrake1	);// {"sk_islave_dmg_clawrake1","0"};

	push	OFFSET ?sk_islave_dmg_clawrake1@@3Ucvar_s@@A ; sk_islave_dmg_clawrake1
	call	DWORD PTR ?g_engfuncs@@3Uenginefuncs_s@@A+224
	add	esp, 4

; 668  : 	CVAR_REGISTER ( &sk_islave_dmg_clawrake2	);// {"sk_islave_dmg_clawrake2","0"};

	push	OFFSET ?sk_islave_dmg_clawrake2@@3Ucvar_s@@A ; sk_islave_dmg_clawrake2
	call	DWORD PTR ?g_engfuncs@@3Uenginefuncs_s@@A+224
	add	esp, 4

; 669  : 	CVAR_REGISTER ( &sk_islave_dmg_clawrake3	);// {"sk_islave_dmg_clawrake3","0"};

	push	OFFSET ?sk_islave_dmg_clawrake3@@3Ucvar_s@@A ; sk_islave_dmg_clawrake3
	call	DWORD PTR ?g_engfuncs@@3Uenginefuncs_s@@A+224
	add	esp, 4

; 670  : 		
; 671  : 	CVAR_REGISTER ( &sk_islave_dmg_zap1 );// {"sk_islave_dmg_zap1","0"};

	push	OFFSET ?sk_islave_dmg_zap1@@3Ucvar_s@@A	; sk_islave_dmg_zap1
	call	DWORD PTR ?g_engfuncs@@3Uenginefuncs_s@@A+224
	add	esp, 4

; 672  : 	CVAR_REGISTER ( &sk_islave_dmg_zap2 );// {"sk_islave_dmg_zap2","0"};

	push	OFFSET ?sk_islave_dmg_zap2@@3Ucvar_s@@A	; sk_islave_dmg_zap2
	call	DWORD PTR ?g_engfuncs@@3Uenginefuncs_s@@A+224
	add	esp, 4

; 673  : 	CVAR_REGISTER ( &sk_islave_dmg_zap3 );// {"sk_islave_dmg_zap3","0"};

	push	OFFSET ?sk_islave_dmg_zap3@@3Ucvar_s@@A	; sk_islave_dmg_zap3
	call	DWORD PTR ?g_engfuncs@@3Uenginefuncs_s@@A+224
	add	esp, 4

; 674  : 
; 675  : 
; 676  : 	// Icthyosaur
; 677  : 	CVAR_REGISTER ( &sk_ichthyosaur_health1	);// {"sk_ichthyosaur_health1","0"};

	push	OFFSET ?sk_ichthyosaur_health1@@3Ucvar_s@@A ; sk_ichthyosaur_health1
	call	DWORD PTR ?g_engfuncs@@3Uenginefuncs_s@@A+224
	add	esp, 4

; 678  : 	CVAR_REGISTER ( &sk_ichthyosaur_health2	);// {"sk_ichthyosaur_health2","0"};

	push	OFFSET ?sk_ichthyosaur_health2@@3Ucvar_s@@A ; sk_ichthyosaur_health2
	call	DWORD PTR ?g_engfuncs@@3Uenginefuncs_s@@A+224
	add	esp, 4

; 679  : 	CVAR_REGISTER ( &sk_ichthyosaur_health3	);// {"sk_ichthyosaur_health3","0"};

	push	OFFSET ?sk_ichthyosaur_health3@@3Ucvar_s@@A ; sk_ichthyosaur_health3
	call	DWORD PTR ?g_engfuncs@@3Uenginefuncs_s@@A+224
	add	esp, 4

; 680  : 
; 681  : 	CVAR_REGISTER ( &sk_ichthyosaur_shake1	);// {"sk_ichthyosaur_health3","0"};

	push	OFFSET ?sk_ichthyosaur_shake1@@3Ucvar_s@@A ; sk_ichthyosaur_shake1
	call	DWORD PTR ?g_engfuncs@@3Uenginefuncs_s@@A+224
	add	esp, 4

; 682  : 	CVAR_REGISTER ( &sk_ichthyosaur_shake2	);// {"sk_ichthyosaur_health3","0"};

	push	OFFSET ?sk_ichthyosaur_shake2@@3Ucvar_s@@A ; sk_ichthyosaur_shake2
	call	DWORD PTR ?g_engfuncs@@3Uenginefuncs_s@@A+224
	add	esp, 4

; 683  : 	CVAR_REGISTER ( &sk_ichthyosaur_shake3	);// {"sk_ichthyosaur_health3","0"};

	push	OFFSET ?sk_ichthyosaur_shake3@@3Ucvar_s@@A ; sk_ichthyosaur_shake3
	call	DWORD PTR ?g_engfuncs@@3Uenginefuncs_s@@A+224
	add	esp, 4

; 684  : 
; 685  : 
; 686  : 
; 687  : 	// Leech
; 688  : 	CVAR_REGISTER ( &sk_leech_health1 );// {"sk_leech_health1","0"};

	push	OFFSET ?sk_leech_health1@@3Ucvar_s@@A	; sk_leech_health1
	call	DWORD PTR ?g_engfuncs@@3Uenginefuncs_s@@A+224
	add	esp, 4

; 689  : 	CVAR_REGISTER ( &sk_leech_health2 );// {"sk_leech_health2","0"};

	push	OFFSET ?sk_leech_health2@@3Ucvar_s@@A	; sk_leech_health2
	call	DWORD PTR ?g_engfuncs@@3Uenginefuncs_s@@A+224
	add	esp, 4

; 690  : 	CVAR_REGISTER ( &sk_leech_health3 );// {"sk_leech_health3","0"};

	push	OFFSET ?sk_leech_health3@@3Ucvar_s@@A	; sk_leech_health3
	call	DWORD PTR ?g_engfuncs@@3Uenginefuncs_s@@A+224
	add	esp, 4

; 691  : 
; 692  : 	CVAR_REGISTER ( &sk_leech_dmg_bite1 );// {"sk_leech_dmg_bite1","0"};

	push	OFFSET ?sk_leech_dmg_bite1@@3Ucvar_s@@A	; sk_leech_dmg_bite1
	call	DWORD PTR ?g_engfuncs@@3Uenginefuncs_s@@A+224
	add	esp, 4

; 693  : 	CVAR_REGISTER ( &sk_leech_dmg_bite2 );// {"sk_leech_dmg_bite2","0"};

	push	OFFSET ?sk_leech_dmg_bite2@@3Ucvar_s@@A	; sk_leech_dmg_bite2
	call	DWORD PTR ?g_engfuncs@@3Uenginefuncs_s@@A+224
	add	esp, 4

; 694  : 	CVAR_REGISTER ( &sk_leech_dmg_bite3 );// {"sk_leech_dmg_bite3","0"};

	push	OFFSET ?sk_leech_dmg_bite3@@3Ucvar_s@@A	; sk_leech_dmg_bite3
	call	DWORD PTR ?g_engfuncs@@3Uenginefuncs_s@@A+224
	add	esp, 4

; 695  : 
; 696  : 
; 697  : 	// Controller
; 698  : 	CVAR_REGISTER ( &sk_controller_health1 );

	push	OFFSET ?sk_controller_health1@@3Ucvar_s@@A ; sk_controller_health1
	call	DWORD PTR ?g_engfuncs@@3Uenginefuncs_s@@A+224
	add	esp, 4

; 699  : 	CVAR_REGISTER ( &sk_controller_health2 );

	push	OFFSET ?sk_controller_health2@@3Ucvar_s@@A ; sk_controller_health2
	call	DWORD PTR ?g_engfuncs@@3Uenginefuncs_s@@A+224
	add	esp, 4

; 700  : 	CVAR_REGISTER ( &sk_controller_health3 );

	push	OFFSET ?sk_controller_health3@@3Ucvar_s@@A ; sk_controller_health3
	call	DWORD PTR ?g_engfuncs@@3Uenginefuncs_s@@A+224
	add	esp, 4

; 701  : 
; 702  : 	CVAR_REGISTER ( &sk_controller_dmgzap1 );

	push	OFFSET ?sk_controller_dmgzap1@@3Ucvar_s@@A ; sk_controller_dmgzap1
	call	DWORD PTR ?g_engfuncs@@3Uenginefuncs_s@@A+224
	add	esp, 4

; 703  : 	CVAR_REGISTER ( &sk_controller_dmgzap2 );

	push	OFFSET ?sk_controller_dmgzap2@@3Ucvar_s@@A ; sk_controller_dmgzap2
	call	DWORD PTR ?g_engfuncs@@3Uenginefuncs_s@@A+224
	add	esp, 4

; 704  : 	CVAR_REGISTER ( &sk_controller_dmgzap3 );

	push	OFFSET ?sk_controller_dmgzap3@@3Ucvar_s@@A ; sk_controller_dmgzap3
	call	DWORD PTR ?g_engfuncs@@3Uenginefuncs_s@@A+224
	add	esp, 4

; 705  : 
; 706  : 	CVAR_REGISTER ( &sk_controller_speedball1 );

	push	OFFSET ?sk_controller_speedball1@@3Ucvar_s@@A ; sk_controller_speedball1
	call	DWORD PTR ?g_engfuncs@@3Uenginefuncs_s@@A+224
	add	esp, 4

; 707  : 	CVAR_REGISTER ( &sk_controller_speedball2 );

	push	OFFSET ?sk_controller_speedball2@@3Ucvar_s@@A ; sk_controller_speedball2
	call	DWORD PTR ?g_engfuncs@@3Uenginefuncs_s@@A+224
	add	esp, 4

; 708  : 	CVAR_REGISTER ( &sk_controller_speedball3 );

	push	OFFSET ?sk_controller_speedball3@@3Ucvar_s@@A ; sk_controller_speedball3
	call	DWORD PTR ?g_engfuncs@@3Uenginefuncs_s@@A+224
	add	esp, 4

; 709  : 
; 710  : 	CVAR_REGISTER ( &sk_controller_dmgball1 );

	push	OFFSET ?sk_controller_dmgball1@@3Ucvar_s@@A ; sk_controller_dmgball1
	call	DWORD PTR ?g_engfuncs@@3Uenginefuncs_s@@A+224
	add	esp, 4

; 711  : 	CVAR_REGISTER ( &sk_controller_dmgball2 );

	push	OFFSET ?sk_controller_dmgball2@@3Ucvar_s@@A ; sk_controller_dmgball2
	call	DWORD PTR ?g_engfuncs@@3Uenginefuncs_s@@A+224
	add	esp, 4

; 712  : 	CVAR_REGISTER ( &sk_controller_dmgball3 );

	push	OFFSET ?sk_controller_dmgball3@@3Ucvar_s@@A ; sk_controller_dmgball3
	call	DWORD PTR ?g_engfuncs@@3Uenginefuncs_s@@A+224
	add	esp, 4

; 713  : 
; 714  : 	// Nihilanth
; 715  : 	CVAR_REGISTER ( &sk_nihilanth_health1 );// {"sk_nihilanth_health1","0"};

	push	OFFSET ?sk_nihilanth_health1@@3Ucvar_s@@A ; sk_nihilanth_health1
	call	DWORD PTR ?g_engfuncs@@3Uenginefuncs_s@@A+224
	add	esp, 4

; 716  : 	CVAR_REGISTER ( &sk_nihilanth_health2 );// {"sk_nihilanth_health2","0"};

	push	OFFSET ?sk_nihilanth_health2@@3Ucvar_s@@A ; sk_nihilanth_health2
	call	DWORD PTR ?g_engfuncs@@3Uenginefuncs_s@@A+224
	add	esp, 4

; 717  : 	CVAR_REGISTER ( &sk_nihilanth_health3 );// {"sk_nihilanth_health3","0"};

	push	OFFSET ?sk_nihilanth_health3@@3Ucvar_s@@A ; sk_nihilanth_health3
	call	DWORD PTR ?g_engfuncs@@3Uenginefuncs_s@@A+224
	add	esp, 4

; 718  : 
; 719  : 	CVAR_REGISTER ( &sk_nihilanth_zap1 );

	push	OFFSET ?sk_nihilanth_zap1@@3Ucvar_s@@A	; sk_nihilanth_zap1
	call	DWORD PTR ?g_engfuncs@@3Uenginefuncs_s@@A+224
	add	esp, 4

; 720  : 	CVAR_REGISTER ( &sk_nihilanth_zap2 );

	push	OFFSET ?sk_nihilanth_zap2@@3Ucvar_s@@A	; sk_nihilanth_zap2
	call	DWORD PTR ?g_engfuncs@@3Uenginefuncs_s@@A+224
	add	esp, 4

; 721  : 	CVAR_REGISTER ( &sk_nihilanth_zap3 );

	push	OFFSET ?sk_nihilanth_zap3@@3Ucvar_s@@A	; sk_nihilanth_zap3
	call	DWORD PTR ?g_engfuncs@@3Uenginefuncs_s@@A+224
	add	esp, 4

; 722  : 
; 723  : 	// Scientist
; 724  : 	CVAR_REGISTER ( &sk_scientist_health1 );// {"sk_scientist_health1","0"};

	push	OFFSET ?sk_scientist_health1@@3Ucvar_s@@A ; sk_scientist_health1
	call	DWORD PTR ?g_engfuncs@@3Uenginefuncs_s@@A+224
	add	esp, 4

; 725  : 	CVAR_REGISTER ( &sk_scientist_health2 );// {"sk_scientist_health2","0"};

	push	OFFSET ?sk_scientist_health2@@3Ucvar_s@@A ; sk_scientist_health2
	call	DWORD PTR ?g_engfuncs@@3Uenginefuncs_s@@A+224
	add	esp, 4

; 726  : 	CVAR_REGISTER ( &sk_scientist_health3 );// {"sk_scientist_health3","0"};

	push	OFFSET ?sk_scientist_health3@@3Ucvar_s@@A ; sk_scientist_health3
	call	DWORD PTR ?g_engfuncs@@3Uenginefuncs_s@@A+224
	add	esp, 4

; 727  : 
; 728  : 
; 729  : 	// Snark
; 730  : 	CVAR_REGISTER ( &sk_snark_health1 );// {"sk_snark_health1","0"};

	push	OFFSET ?sk_snark_health1@@3Ucvar_s@@A	; sk_snark_health1
	call	DWORD PTR ?g_engfuncs@@3Uenginefuncs_s@@A+224
	add	esp, 4

; 731  : 	CVAR_REGISTER ( &sk_snark_health2 );// {"sk_snark_health2","0"};

	push	OFFSET ?sk_snark_health2@@3Ucvar_s@@A	; sk_snark_health2
	call	DWORD PTR ?g_engfuncs@@3Uenginefuncs_s@@A+224
	add	esp, 4

; 732  : 	CVAR_REGISTER ( &sk_snark_health3 );// {"sk_snark_health3","0"};

	push	OFFSET ?sk_snark_health3@@3Ucvar_s@@A	; sk_snark_health3
	call	DWORD PTR ?g_engfuncs@@3Uenginefuncs_s@@A+224
	add	esp, 4

; 733  : 
; 734  : 	CVAR_REGISTER ( &sk_snark_dmg_bite1 );// {"sk_snark_dmg_bite1","0"};

	push	OFFSET ?sk_snark_dmg_bite1@@3Ucvar_s@@A	; sk_snark_dmg_bite1
	call	DWORD PTR ?g_engfuncs@@3Uenginefuncs_s@@A+224
	add	esp, 4

; 735  : 	CVAR_REGISTER ( &sk_snark_dmg_bite2 );// {"sk_snark_dmg_bite2","0"};

	push	OFFSET ?sk_snark_dmg_bite2@@3Ucvar_s@@A	; sk_snark_dmg_bite2
	call	DWORD PTR ?g_engfuncs@@3Uenginefuncs_s@@A+224
	add	esp, 4

; 736  : 	CVAR_REGISTER ( &sk_snark_dmg_bite3 );// {"sk_snark_dmg_bite3","0"};

	push	OFFSET ?sk_snark_dmg_bite3@@3Ucvar_s@@A	; sk_snark_dmg_bite3
	call	DWORD PTR ?g_engfuncs@@3Uenginefuncs_s@@A+224
	add	esp, 4

; 737  : 
; 738  : 	CVAR_REGISTER ( &sk_snark_dmg_pop1 );// {"sk_snark_dmg_pop1","0"};

	push	OFFSET ?sk_snark_dmg_pop1@@3Ucvar_s@@A	; sk_snark_dmg_pop1
	call	DWORD PTR ?g_engfuncs@@3Uenginefuncs_s@@A+224
	add	esp, 4

; 739  : 	CVAR_REGISTER ( &sk_snark_dmg_pop2 );// {"sk_snark_dmg_pop2","0"};

	push	OFFSET ?sk_snark_dmg_pop2@@3Ucvar_s@@A	; sk_snark_dmg_pop2
	call	DWORD PTR ?g_engfuncs@@3Uenginefuncs_s@@A+224
	add	esp, 4

; 740  : 	CVAR_REGISTER ( &sk_snark_dmg_pop3 );// {"sk_snark_dmg_pop3","0"};

	push	OFFSET ?sk_snark_dmg_pop3@@3Ucvar_s@@A	; sk_snark_dmg_pop3
	call	DWORD PTR ?g_engfuncs@@3Uenginefuncs_s@@A+224
	add	esp, 4

; 741  : 
; 742  : 
; 743  : 
; 744  : 	// Zombie
; 745  : 	CVAR_REGISTER ( &sk_zombie_health1 );// {"sk_zombie_health1","0"};

	push	OFFSET ?sk_zombie_health1@@3Ucvar_s@@A	; sk_zombie_health1
	call	DWORD PTR ?g_engfuncs@@3Uenginefuncs_s@@A+224
	add	esp, 4

; 746  : 	CVAR_REGISTER ( &sk_zombie_health2 );// {"sk_zombie_health3","0"};

	push	OFFSET ?sk_zombie_health2@@3Ucvar_s@@A	; sk_zombie_health2
	call	DWORD PTR ?g_engfuncs@@3Uenginefuncs_s@@A+224
	add	esp, 4

; 747  : 	CVAR_REGISTER ( &sk_zombie_health3 );// {"sk_zombie_health3","0"};

	push	OFFSET ?sk_zombie_health3@@3Ucvar_s@@A	; sk_zombie_health3
	call	DWORD PTR ?g_engfuncs@@3Uenginefuncs_s@@A+224
	add	esp, 4

; 748  : 
; 749  : 	CVAR_REGISTER ( &sk_zombie_dmg_one_slash1 );// {"sk_zombie_dmg_one_slash1","0"};

	push	OFFSET ?sk_zombie_dmg_one_slash1@@3Ucvar_s@@A ; sk_zombie_dmg_one_slash1
	call	DWORD PTR ?g_engfuncs@@3Uenginefuncs_s@@A+224
	add	esp, 4

; 750  : 	CVAR_REGISTER ( &sk_zombie_dmg_one_slash2 );// {"sk_zombie_dmg_one_slash2","0"};

	push	OFFSET ?sk_zombie_dmg_one_slash2@@3Ucvar_s@@A ; sk_zombie_dmg_one_slash2
	call	DWORD PTR ?g_engfuncs@@3Uenginefuncs_s@@A+224
	add	esp, 4

; 751  : 	CVAR_REGISTER ( &sk_zombie_dmg_one_slash3 );// {"sk_zombie_dmg_one_slash3","0"};

	push	OFFSET ?sk_zombie_dmg_one_slash3@@3Ucvar_s@@A ; sk_zombie_dmg_one_slash3
	call	DWORD PTR ?g_engfuncs@@3Uenginefuncs_s@@A+224
	add	esp, 4

; 752  : 
; 753  : 	CVAR_REGISTER ( &sk_zombie_dmg_both_slash1 );// {"sk_zombie_dmg_both_slash1","0"};

	push	OFFSET ?sk_zombie_dmg_both_slash1@@3Ucvar_s@@A ; sk_zombie_dmg_both_slash1
	call	DWORD PTR ?g_engfuncs@@3Uenginefuncs_s@@A+224
	add	esp, 4

; 754  : 	CVAR_REGISTER ( &sk_zombie_dmg_both_slash2 );// {"sk_zombie_dmg_both_slash2","0"};

	push	OFFSET ?sk_zombie_dmg_both_slash2@@3Ucvar_s@@A ; sk_zombie_dmg_both_slash2
	call	DWORD PTR ?g_engfuncs@@3Uenginefuncs_s@@A+224
	add	esp, 4

; 755  : 	CVAR_REGISTER ( &sk_zombie_dmg_both_slash3 );// {"sk_zombie_dmg_both_slash3","0"};

	push	OFFSET ?sk_zombie_dmg_both_slash3@@3Ucvar_s@@A ; sk_zombie_dmg_both_slash3
	call	DWORD PTR ?g_engfuncs@@3Uenginefuncs_s@@A+224
	add	esp, 4

; 756  : 
; 757  : 
; 758  : 	//Turret
; 759  : 	CVAR_REGISTER ( &sk_turret_health1 );// {"sk_turret_health1","0"};

	push	OFFSET ?sk_turret_health1@@3Ucvar_s@@A	; sk_turret_health1
	call	DWORD PTR ?g_engfuncs@@3Uenginefuncs_s@@A+224
	add	esp, 4

; 760  : 	CVAR_REGISTER ( &sk_turret_health2 );// {"sk_turret_health2","0"};

	push	OFFSET ?sk_turret_health2@@3Ucvar_s@@A	; sk_turret_health2
	call	DWORD PTR ?g_engfuncs@@3Uenginefuncs_s@@A+224
	add	esp, 4

; 761  : 	CVAR_REGISTER ( &sk_turret_health3 );// {"sk_turret_health3","0"};

	push	OFFSET ?sk_turret_health3@@3Ucvar_s@@A	; sk_turret_health3
	call	DWORD PTR ?g_engfuncs@@3Uenginefuncs_s@@A+224
	add	esp, 4

; 762  : 
; 763  : 
; 764  : 	// MiniTurret
; 765  : 	CVAR_REGISTER ( &sk_miniturret_health1 );// {"sk_miniturret_health1","0"};

	push	OFFSET ?sk_miniturret_health1@@3Ucvar_s@@A ; sk_miniturret_health1
	call	DWORD PTR ?g_engfuncs@@3Uenginefuncs_s@@A+224
	add	esp, 4

; 766  : 	CVAR_REGISTER ( &sk_miniturret_health2 );// {"sk_miniturret_health2","0"};

	push	OFFSET ?sk_miniturret_health2@@3Ucvar_s@@A ; sk_miniturret_health2
	call	DWORD PTR ?g_engfuncs@@3Uenginefuncs_s@@A+224
	add	esp, 4

; 767  : 	CVAR_REGISTER ( &sk_miniturret_health3 );// {"sk_miniturret_health3","0"};

	push	OFFSET ?sk_miniturret_health3@@3Ucvar_s@@A ; sk_miniturret_health3
	call	DWORD PTR ?g_engfuncs@@3Uenginefuncs_s@@A+224
	add	esp, 4

; 768  : 
; 769  : 
; 770  : 	// Sentry Turret
; 771  : 	CVAR_REGISTER ( &sk_sentry_health1 );// {"sk_sentry_health1","0"};

	push	OFFSET ?sk_sentry_health1@@3Ucvar_s@@A	; sk_sentry_health1
	call	DWORD PTR ?g_engfuncs@@3Uenginefuncs_s@@A+224
	add	esp, 4

; 772  : 	CVAR_REGISTER ( &sk_sentry_health2 );// {"sk_sentry_health2","0"};

	push	OFFSET ?sk_sentry_health2@@3Ucvar_s@@A	; sk_sentry_health2
	call	DWORD PTR ?g_engfuncs@@3Uenginefuncs_s@@A+224
	add	esp, 4

; 773  : 	CVAR_REGISTER ( &sk_sentry_health3 );// {"sk_sentry_health3","0"};

	push	OFFSET ?sk_sentry_health3@@3Ucvar_s@@A	; sk_sentry_health3
	call	DWORD PTR ?g_engfuncs@@3Uenginefuncs_s@@A+224
	add	esp, 4

; 774  : 
; 775  : 
; 776  : 	// PLAYER WEAPONS
; 777  : 
; 778  : 	// Crowbar whack
; 779  : 	CVAR_REGISTER ( &sk_plr_crowbar1 );// {"sk_plr_crowbar1","0"};

	push	OFFSET ?sk_plr_crowbar1@@3Ucvar_s@@A	; sk_plr_crowbar1
	call	DWORD PTR ?g_engfuncs@@3Uenginefuncs_s@@A+224
	add	esp, 4

; 780  : 	CVAR_REGISTER ( &sk_plr_crowbar2 );// {"sk_plr_crowbar2","0"};

	push	OFFSET ?sk_plr_crowbar2@@3Ucvar_s@@A	; sk_plr_crowbar2
	call	DWORD PTR ?g_engfuncs@@3Uenginefuncs_s@@A+224
	add	esp, 4

; 781  : 	CVAR_REGISTER ( &sk_plr_crowbar3 );// {"sk_plr_crowbar3","0"};

	push	OFFSET ?sk_plr_crowbar3@@3Ucvar_s@@A	; sk_plr_crowbar3
	call	DWORD PTR ?g_engfuncs@@3Uenginefuncs_s@@A+224
	add	esp, 4

; 782  : 
; 783  : 	// Glock Round
; 784  : 	CVAR_REGISTER ( &sk_plr_9mm_bullet1 );// {"sk_plr_9mm_bullet1","0"};

	push	OFFSET ?sk_plr_9mm_bullet1@@3Ucvar_s@@A	; sk_plr_9mm_bullet1
	call	DWORD PTR ?g_engfuncs@@3Uenginefuncs_s@@A+224
	add	esp, 4

; 785  : 	CVAR_REGISTER ( &sk_plr_9mm_bullet2 );// {"sk_plr_9mm_bullet2","0"};

	push	OFFSET ?sk_plr_9mm_bullet2@@3Ucvar_s@@A	; sk_plr_9mm_bullet2
	call	DWORD PTR ?g_engfuncs@@3Uenginefuncs_s@@A+224
	add	esp, 4

; 786  : 	CVAR_REGISTER ( &sk_plr_9mm_bullet3 );// {"sk_plr_9mm_bullet3","0"};

	push	OFFSET ?sk_plr_9mm_bullet3@@3Ucvar_s@@A	; sk_plr_9mm_bullet3
	call	DWORD PTR ?g_engfuncs@@3Uenginefuncs_s@@A+224
	add	esp, 4

; 787  : 
; 788  : 	// 357 Round
; 789  : 	CVAR_REGISTER ( &sk_plr_357_bullet1 );// {"sk_plr_357_bullet1","0"};

	push	OFFSET ?sk_plr_357_bullet1@@3Ucvar_s@@A	; sk_plr_357_bullet1
	call	DWORD PTR ?g_engfuncs@@3Uenginefuncs_s@@A+224
	add	esp, 4

; 790  : 	CVAR_REGISTER ( &sk_plr_357_bullet2 );// {"sk_plr_357_bullet2","0"};

	push	OFFSET ?sk_plr_357_bullet2@@3Ucvar_s@@A	; sk_plr_357_bullet2
	call	DWORD PTR ?g_engfuncs@@3Uenginefuncs_s@@A+224
	add	esp, 4

; 791  : 	CVAR_REGISTER ( &sk_plr_357_bullet3 );// {"sk_plr_357_bullet3","0"};

	push	OFFSET ?sk_plr_357_bullet3@@3Ucvar_s@@A	; sk_plr_357_bullet3
	call	DWORD PTR ?g_engfuncs@@3Uenginefuncs_s@@A+224
	add	esp, 4

; 792  : 
; 793  : 	// MP5 Round
; 794  : 	CVAR_REGISTER ( &sk_plr_9mmAR_bullet1 );// {"sk_plr_9mmAR_bullet1","0"};

	push	OFFSET ?sk_plr_9mmAR_bullet1@@3Ucvar_s@@A ; sk_plr_9mmAR_bullet1
	call	DWORD PTR ?g_engfuncs@@3Uenginefuncs_s@@A+224
	add	esp, 4

; 795  : 	CVAR_REGISTER ( &sk_plr_9mmAR_bullet2 );// {"sk_plr_9mmAR_bullet2","0"};

	push	OFFSET ?sk_plr_9mmAR_bullet2@@3Ucvar_s@@A ; sk_plr_9mmAR_bullet2
	call	DWORD PTR ?g_engfuncs@@3Uenginefuncs_s@@A+224
	add	esp, 4

; 796  : 	CVAR_REGISTER ( &sk_plr_9mmAR_bullet3 );// {"sk_plr_9mmAR_bullet3","0"};

	push	OFFSET ?sk_plr_9mmAR_bullet3@@3Ucvar_s@@A ; sk_plr_9mmAR_bullet3
	call	DWORD PTR ?g_engfuncs@@3Uenginefuncs_s@@A+224
	add	esp, 4

; 797  : 
; 798  : 
; 799  : 	// M203 grenade
; 800  : 	CVAR_REGISTER ( &sk_plr_9mmAR_grenade1 );// {"sk_plr_9mmAR_grenade1","0"};

	push	OFFSET ?sk_plr_9mmAR_grenade1@@3Ucvar_s@@A ; sk_plr_9mmAR_grenade1
	call	DWORD PTR ?g_engfuncs@@3Uenginefuncs_s@@A+224
	add	esp, 4

; 801  : 	CVAR_REGISTER ( &sk_plr_9mmAR_grenade2 );// {"sk_plr_9mmAR_grenade2","0"};

	push	OFFSET ?sk_plr_9mmAR_grenade2@@3Ucvar_s@@A ; sk_plr_9mmAR_grenade2
	call	DWORD PTR ?g_engfuncs@@3Uenginefuncs_s@@A+224
	add	esp, 4

; 802  : 	CVAR_REGISTER ( &sk_plr_9mmAR_grenade3 );// {"sk_plr_9mmAR_grenade3","0"};

	push	OFFSET ?sk_plr_9mmAR_grenade3@@3Ucvar_s@@A ; sk_plr_9mmAR_grenade3
	call	DWORD PTR ?g_engfuncs@@3Uenginefuncs_s@@A+224
	add	esp, 4

; 803  : 
; 804  : 
; 805  : 	// Shotgun buckshot
; 806  : 	CVAR_REGISTER ( &sk_plr_buckshot1 );// {"sk_plr_buckshot1","0"};

	push	OFFSET ?sk_plr_buckshot1@@3Ucvar_s@@A	; sk_plr_buckshot1
	call	DWORD PTR ?g_engfuncs@@3Uenginefuncs_s@@A+224
	add	esp, 4

; 807  : 	CVAR_REGISTER ( &sk_plr_buckshot2 );// {"sk_plr_buckshot2","0"};

	push	OFFSET ?sk_plr_buckshot2@@3Ucvar_s@@A	; sk_plr_buckshot2
	call	DWORD PTR ?g_engfuncs@@3Uenginefuncs_s@@A+224
	add	esp, 4

; 808  : 	CVAR_REGISTER ( &sk_plr_buckshot3 );// {"sk_plr_buckshot3","0"};

	push	OFFSET ?sk_plr_buckshot3@@3Ucvar_s@@A	; sk_plr_buckshot3
	call	DWORD PTR ?g_engfuncs@@3Uenginefuncs_s@@A+224
	add	esp, 4

; 809  : 
; 810  : 
; 811  : 	// Crossbow
; 812  : 	CVAR_REGISTER ( &sk_plr_xbow_bolt_monster1 );// {"sk_plr_xbow_bolt1","0"};

	push	OFFSET ?sk_plr_xbow_bolt_monster1@@3Ucvar_s@@A ; sk_plr_xbow_bolt_monster1
	call	DWORD PTR ?g_engfuncs@@3Uenginefuncs_s@@A+224
	add	esp, 4

; 813  : 	CVAR_REGISTER ( &sk_plr_xbow_bolt_monster2 );// {"sk_plr_xbow_bolt2","0"};

	push	OFFSET ?sk_plr_xbow_bolt_monster2@@3Ucvar_s@@A ; sk_plr_xbow_bolt_monster2
	call	DWORD PTR ?g_engfuncs@@3Uenginefuncs_s@@A+224
	add	esp, 4

; 814  : 	CVAR_REGISTER ( &sk_plr_xbow_bolt_monster3 );// {"sk_plr_xbow_bolt3","0"};

	push	OFFSET ?sk_plr_xbow_bolt_monster3@@3Ucvar_s@@A ; sk_plr_xbow_bolt_monster3
	call	DWORD PTR ?g_engfuncs@@3Uenginefuncs_s@@A+224
	add	esp, 4

; 815  : 
; 816  : 	CVAR_REGISTER ( &sk_plr_xbow_bolt_client1 );// {"sk_plr_xbow_bolt1","0"};

	push	OFFSET ?sk_plr_xbow_bolt_client1@@3Ucvar_s@@A ; sk_plr_xbow_bolt_client1
	call	DWORD PTR ?g_engfuncs@@3Uenginefuncs_s@@A+224
	add	esp, 4

; 817  : 	CVAR_REGISTER ( &sk_plr_xbow_bolt_client2 );// {"sk_plr_xbow_bolt2","0"};

	push	OFFSET ?sk_plr_xbow_bolt_client2@@3Ucvar_s@@A ; sk_plr_xbow_bolt_client2
	call	DWORD PTR ?g_engfuncs@@3Uenginefuncs_s@@A+224
	add	esp, 4

; 818  : 	CVAR_REGISTER ( &sk_plr_xbow_bolt_client3 );// {"sk_plr_xbow_bolt3","0"};

	push	OFFSET ?sk_plr_xbow_bolt_client3@@3Ucvar_s@@A ; sk_plr_xbow_bolt_client3
	call	DWORD PTR ?g_engfuncs@@3Uenginefuncs_s@@A+224
	add	esp, 4

; 819  : 
; 820  : 
; 821  : 	// RPG
; 822  : 	CVAR_REGISTER ( &sk_plr_rpg1 );// {"sk_plr_rpg1","0"};

	push	OFFSET ?sk_plr_rpg1@@3Ucvar_s@@A	; sk_plr_rpg1
	call	DWORD PTR ?g_engfuncs@@3Uenginefuncs_s@@A+224
	add	esp, 4

; 823  : 	CVAR_REGISTER ( &sk_plr_rpg2 );// {"sk_plr_rpg2","0"};

	push	OFFSET ?sk_plr_rpg2@@3Ucvar_s@@A	; sk_plr_rpg2
	call	DWORD PTR ?g_engfuncs@@3Uenginefuncs_s@@A+224
	add	esp, 4

; 824  : 	CVAR_REGISTER ( &sk_plr_rpg3 );// {"sk_plr_rpg3","0"};

	push	OFFSET ?sk_plr_rpg3@@3Ucvar_s@@A	; sk_plr_rpg3
	call	DWORD PTR ?g_engfuncs@@3Uenginefuncs_s@@A+224
	add	esp, 4

; 825  : 
; 826  : 
; 827  : 	// Gauss Gun
; 828  : 	CVAR_REGISTER ( &sk_plr_gauss1 );// {"sk_plr_gauss1","0"};

	push	OFFSET ?sk_plr_gauss1@@3Ucvar_s@@A	; sk_plr_gauss1
	call	DWORD PTR ?g_engfuncs@@3Uenginefuncs_s@@A+224
	add	esp, 4

; 829  : 	CVAR_REGISTER ( &sk_plr_gauss2 );// {"sk_plr_gauss2","0"};

	push	OFFSET ?sk_plr_gauss2@@3Ucvar_s@@A	; sk_plr_gauss2
	call	DWORD PTR ?g_engfuncs@@3Uenginefuncs_s@@A+224
	add	esp, 4

; 830  : 	CVAR_REGISTER ( &sk_plr_gauss3 );// {"sk_plr_gauss3","0"};

	push	OFFSET ?sk_plr_gauss3@@3Ucvar_s@@A	; sk_plr_gauss3
	call	DWORD PTR ?g_engfuncs@@3Uenginefuncs_s@@A+224
	add	esp, 4

; 831  : 
; 832  : 
; 833  : 	// Egon Gun
; 834  : 	CVAR_REGISTER ( &sk_plr_egon_narrow1 );// {"sk_plr_egon_narrow1","0"};

	push	OFFSET ?sk_plr_egon_narrow1@@3Ucvar_s@@A ; sk_plr_egon_narrow1
	call	DWORD PTR ?g_engfuncs@@3Uenginefuncs_s@@A+224
	add	esp, 4

; 835  : 	CVAR_REGISTER ( &sk_plr_egon_narrow2 );// {"sk_plr_egon_narrow2","0"};

	push	OFFSET ?sk_plr_egon_narrow2@@3Ucvar_s@@A ; sk_plr_egon_narrow2
	call	DWORD PTR ?g_engfuncs@@3Uenginefuncs_s@@A+224
	add	esp, 4

; 836  : 	CVAR_REGISTER ( &sk_plr_egon_narrow3 );// {"sk_plr_egon_narrow3","0"};

	push	OFFSET ?sk_plr_egon_narrow3@@3Ucvar_s@@A ; sk_plr_egon_narrow3
	call	DWORD PTR ?g_engfuncs@@3Uenginefuncs_s@@A+224
	add	esp, 4

; 837  : 
; 838  : 	CVAR_REGISTER ( &sk_plr_egon_wide1 );// {"sk_plr_egon_wide1","0"};

	push	OFFSET ?sk_plr_egon_wide1@@3Ucvar_s@@A	; sk_plr_egon_wide1
	call	DWORD PTR ?g_engfuncs@@3Uenginefuncs_s@@A+224
	add	esp, 4

; 839  : 	CVAR_REGISTER ( &sk_plr_egon_wide2 );// {"sk_plr_egon_wide2","0"};

	push	OFFSET ?sk_plr_egon_wide2@@3Ucvar_s@@A	; sk_plr_egon_wide2
	call	DWORD PTR ?g_engfuncs@@3Uenginefuncs_s@@A+224
	add	esp, 4

; 840  : 	CVAR_REGISTER ( &sk_plr_egon_wide3 );// {"sk_plr_egon_wide3","0"};

	push	OFFSET ?sk_plr_egon_wide3@@3Ucvar_s@@A	; sk_plr_egon_wide3
	call	DWORD PTR ?g_engfuncs@@3Uenginefuncs_s@@A+224
	add	esp, 4

; 841  : 
; 842  : 
; 843  : 	// Hand Grendade
; 844  : 	CVAR_REGISTER ( &sk_plr_hand_grenade1 );// {"sk_plr_hand_grenade1","0"};

	push	OFFSET ?sk_plr_hand_grenade1@@3Ucvar_s@@A ; sk_plr_hand_grenade1
	call	DWORD PTR ?g_engfuncs@@3Uenginefuncs_s@@A+224
	add	esp, 4

; 845  : 	CVAR_REGISTER ( &sk_plr_hand_grenade2 );// {"sk_plr_hand_grenade2","0"};

	push	OFFSET ?sk_plr_hand_grenade2@@3Ucvar_s@@A ; sk_plr_hand_grenade2
	call	DWORD PTR ?g_engfuncs@@3Uenginefuncs_s@@A+224
	add	esp, 4

; 846  : 	CVAR_REGISTER ( &sk_plr_hand_grenade3 );// {"sk_plr_hand_grenade3","0"};

	push	OFFSET ?sk_plr_hand_grenade3@@3Ucvar_s@@A ; sk_plr_hand_grenade3
	call	DWORD PTR ?g_engfuncs@@3Uenginefuncs_s@@A+224
	add	esp, 4

; 847  : 
; 848  : 
; 849  : 	// Satchel Charge
; 850  : 	CVAR_REGISTER ( &sk_plr_satchel1 );// {"sk_plr_satchel1","0"};

	push	OFFSET ?sk_plr_satchel1@@3Ucvar_s@@A	; sk_plr_satchel1
	call	DWORD PTR ?g_engfuncs@@3Uenginefuncs_s@@A+224
	add	esp, 4

; 851  : 	CVAR_REGISTER ( &sk_plr_satchel2 );// {"sk_plr_satchel2","0"};

	push	OFFSET ?sk_plr_satchel2@@3Ucvar_s@@A	; sk_plr_satchel2
	call	DWORD PTR ?g_engfuncs@@3Uenginefuncs_s@@A+224
	add	esp, 4

; 852  : 	CVAR_REGISTER ( &sk_plr_satchel3 );// {"sk_plr_satchel3","0"};

	push	OFFSET ?sk_plr_satchel3@@3Ucvar_s@@A	; sk_plr_satchel3
	call	DWORD PTR ?g_engfuncs@@3Uenginefuncs_s@@A+224
	add	esp, 4

; 853  : 
; 854  : 
; 855  : 	// Tripmine
; 856  : 	CVAR_REGISTER ( &sk_plr_tripmine1 );// {"sk_plr_tripmine1","0"};

	push	OFFSET ?sk_plr_tripmine1@@3Ucvar_s@@A	; sk_plr_tripmine1
	call	DWORD PTR ?g_engfuncs@@3Uenginefuncs_s@@A+224
	add	esp, 4

; 857  : 	CVAR_REGISTER ( &sk_plr_tripmine2 );// {"sk_plr_tripmine2","0"};

	push	OFFSET ?sk_plr_tripmine2@@3Ucvar_s@@A	; sk_plr_tripmine2
	call	DWORD PTR ?g_engfuncs@@3Uenginefuncs_s@@A+224
	add	esp, 4

; 858  : 	CVAR_REGISTER ( &sk_plr_tripmine3 );// {"sk_plr_tripmine3","0"};

	push	OFFSET ?sk_plr_tripmine3@@3Ucvar_s@@A	; sk_plr_tripmine3
	call	DWORD PTR ?g_engfuncs@@3Uenginefuncs_s@@A+224
	add	esp, 4

; 859  : 
; 860  : 
; 861  : 	// WORLD WEAPONS
; 862  : 	CVAR_REGISTER ( &sk_12mm_bullet1 );// {"sk_12mm_bullet1","0"};

	push	OFFSET ?sk_12mm_bullet1@@3Ucvar_s@@A	; sk_12mm_bullet1
	call	DWORD PTR ?g_engfuncs@@3Uenginefuncs_s@@A+224
	add	esp, 4

; 863  : 	CVAR_REGISTER ( &sk_12mm_bullet2 );// {"sk_12mm_bullet2","0"};

	push	OFFSET ?sk_12mm_bullet2@@3Ucvar_s@@A	; sk_12mm_bullet2
	call	DWORD PTR ?g_engfuncs@@3Uenginefuncs_s@@A+224
	add	esp, 4

; 864  : 	CVAR_REGISTER ( &sk_12mm_bullet3 );// {"sk_12mm_bullet3","0"};

	push	OFFSET ?sk_12mm_bullet3@@3Ucvar_s@@A	; sk_12mm_bullet3
	call	DWORD PTR ?g_engfuncs@@3Uenginefuncs_s@@A+224
	add	esp, 4

; 865  : 
; 866  : 	CVAR_REGISTER ( &sk_9mmAR_bullet1 );// {"sk_9mm_bullet1","0"};

	push	OFFSET ?sk_9mmAR_bullet1@@3Ucvar_s@@A	; sk_9mmAR_bullet1
	call	DWORD PTR ?g_engfuncs@@3Uenginefuncs_s@@A+224
	add	esp, 4

; 867  : 	CVAR_REGISTER ( &sk_9mmAR_bullet2 );// {"sk_9mm_bullet1","0"};

	push	OFFSET ?sk_9mmAR_bullet2@@3Ucvar_s@@A	; sk_9mmAR_bullet2
	call	DWORD PTR ?g_engfuncs@@3Uenginefuncs_s@@A+224
	add	esp, 4

; 868  : 	CVAR_REGISTER ( &sk_9mmAR_bullet3 );// {"sk_9mm_bullet1","0"};

	push	OFFSET ?sk_9mmAR_bullet3@@3Ucvar_s@@A	; sk_9mmAR_bullet3
	call	DWORD PTR ?g_engfuncs@@3Uenginefuncs_s@@A+224
	add	esp, 4

; 869  : 
; 870  : 	CVAR_REGISTER ( &sk_9mm_bullet1 );// {"sk_9mm_bullet1","0"};

	push	OFFSET ?sk_9mm_bullet1@@3Ucvar_s@@A	; sk_9mm_bullet1
	call	DWORD PTR ?g_engfuncs@@3Uenginefuncs_s@@A+224
	add	esp, 4

; 871  : 	CVAR_REGISTER ( &sk_9mm_bullet2 );// {"sk_9mm_bullet2","0"};

	push	OFFSET ?sk_9mm_bullet2@@3Ucvar_s@@A	; sk_9mm_bullet2
	call	DWORD PTR ?g_engfuncs@@3Uenginefuncs_s@@A+224
	add	esp, 4

; 872  : 	CVAR_REGISTER ( &sk_9mm_bullet3 );// {"sk_9mm_bullet3","0"};

	push	OFFSET ?sk_9mm_bullet3@@3Ucvar_s@@A	; sk_9mm_bullet3
	call	DWORD PTR ?g_engfuncs@@3Uenginefuncs_s@@A+224
	add	esp, 4

; 873  : 
; 874  : 
; 875  : 	// HORNET
; 876  : 	CVAR_REGISTER ( &sk_hornet_dmg1 );// {"sk_hornet_dmg1","0"};

	push	OFFSET ?sk_hornet_dmg1@@3Ucvar_s@@A	; sk_hornet_dmg1
	call	DWORD PTR ?g_engfuncs@@3Uenginefuncs_s@@A+224
	add	esp, 4

; 877  : 	CVAR_REGISTER ( &sk_hornet_dmg2 );// {"sk_hornet_dmg2","0"};

	push	OFFSET ?sk_hornet_dmg2@@3Ucvar_s@@A	; sk_hornet_dmg2
	call	DWORD PTR ?g_engfuncs@@3Uenginefuncs_s@@A+224
	add	esp, 4

; 878  : 	CVAR_REGISTER ( &sk_hornet_dmg3 );// {"sk_hornet_dmg3","0"};

	push	OFFSET ?sk_hornet_dmg3@@3Ucvar_s@@A	; sk_hornet_dmg3
	call	DWORD PTR ?g_engfuncs@@3Uenginefuncs_s@@A+224
	add	esp, 4

; 879  : 
; 880  : 	// HEALTH/SUIT CHARGE DISTRIBUTION
; 881  : 	CVAR_REGISTER ( &sk_suitcharger1 );

	push	OFFSET ?sk_suitcharger1@@3Ucvar_s@@A	; sk_suitcharger1
	call	DWORD PTR ?g_engfuncs@@3Uenginefuncs_s@@A+224
	add	esp, 4

; 882  : 	CVAR_REGISTER ( &sk_suitcharger2 );

	push	OFFSET ?sk_suitcharger2@@3Ucvar_s@@A	; sk_suitcharger2
	call	DWORD PTR ?g_engfuncs@@3Uenginefuncs_s@@A+224
	add	esp, 4

; 883  : 	CVAR_REGISTER ( &sk_suitcharger3 );

	push	OFFSET ?sk_suitcharger3@@3Ucvar_s@@A	; sk_suitcharger3
	call	DWORD PTR ?g_engfuncs@@3Uenginefuncs_s@@A+224
	add	esp, 4

; 884  : 
; 885  : 	CVAR_REGISTER ( &sk_battery1 );

	push	OFFSET ?sk_battery1@@3Ucvar_s@@A	; sk_battery1
	call	DWORD PTR ?g_engfuncs@@3Uenginefuncs_s@@A+224
	add	esp, 4

; 886  : 	CVAR_REGISTER ( &sk_battery2 );

	push	OFFSET ?sk_battery2@@3Ucvar_s@@A	; sk_battery2
	call	DWORD PTR ?g_engfuncs@@3Uenginefuncs_s@@A+224
	add	esp, 4

; 887  : 	CVAR_REGISTER ( &sk_battery3 );

	push	OFFSET ?sk_battery3@@3Ucvar_s@@A	; sk_battery3
	call	DWORD PTR ?g_engfuncs@@3Uenginefuncs_s@@A+224
	add	esp, 4

; 888  : 
; 889  : 	CVAR_REGISTER ( &sk_healthcharger1 );

	push	OFFSET ?sk_healthcharger1@@3Ucvar_s@@A	; sk_healthcharger1
	call	DWORD PTR ?g_engfuncs@@3Uenginefuncs_s@@A+224
	add	esp, 4

; 890  : 	CVAR_REGISTER ( &sk_healthcharger2 );

	push	OFFSET ?sk_healthcharger2@@3Ucvar_s@@A	; sk_healthcharger2
	call	DWORD PTR ?g_engfuncs@@3Uenginefuncs_s@@A+224
	add	esp, 4

; 891  : 	CVAR_REGISTER ( &sk_healthcharger3 );

	push	OFFSET ?sk_healthcharger3@@3Ucvar_s@@A	; sk_healthcharger3
	call	DWORD PTR ?g_engfuncs@@3Uenginefuncs_s@@A+224
	add	esp, 4

; 892  : 
; 893  : 	CVAR_REGISTER ( &sk_healthkit1 );

	push	OFFSET ?sk_healthkit1@@3Ucvar_s@@A	; sk_healthkit1
	call	DWORD PTR ?g_engfuncs@@3Uenginefuncs_s@@A+224
	add	esp, 4

; 894  : 	CVAR_REGISTER ( &sk_healthkit2 );

	push	OFFSET ?sk_healthkit2@@3Ucvar_s@@A	; sk_healthkit2
	call	DWORD PTR ?g_engfuncs@@3Uenginefuncs_s@@A+224
	add	esp, 4

; 895  : 	CVAR_REGISTER ( &sk_healthkit3 );

	push	OFFSET ?sk_healthkit3@@3Ucvar_s@@A	; sk_healthkit3
	call	DWORD PTR ?g_engfuncs@@3Uenginefuncs_s@@A+224
	add	esp, 4

; 896  : 
; 897  : 	CVAR_REGISTER ( &sk_scientist_heal1 );

	push	OFFSET ?sk_scientist_heal1@@3Ucvar_s@@A	; sk_scientist_heal1
	call	DWORD PTR ?g_engfuncs@@3Uenginefuncs_s@@A+224
	add	esp, 4

; 898  : 	CVAR_REGISTER ( &sk_scientist_heal2 );

	push	OFFSET ?sk_scientist_heal2@@3Ucvar_s@@A	; sk_scientist_heal2
	call	DWORD PTR ?g_engfuncs@@3Uenginefuncs_s@@A+224
	add	esp, 4

; 899  : 	CVAR_REGISTER ( &sk_scientist_heal3 );

	push	OFFSET ?sk_scientist_heal3@@3Ucvar_s@@A	; sk_scientist_heal3
	call	DWORD PTR ?g_engfuncs@@3Uenginefuncs_s@@A+224
	add	esp, 4

; 900  : 
; 901  : // monster damage adjusters
; 902  : 	CVAR_REGISTER ( &sk_monster_head1 );

	push	OFFSET ?sk_monster_head1@@3Ucvar_s@@A	; sk_monster_head1
	call	DWORD PTR ?g_engfuncs@@3Uenginefuncs_s@@A+224
	add	esp, 4

; 903  : 	CVAR_REGISTER ( &sk_monster_head2 );

	push	OFFSET ?sk_monster_head2@@3Ucvar_s@@A	; sk_monster_head2
	call	DWORD PTR ?g_engfuncs@@3Uenginefuncs_s@@A+224
	add	esp, 4

; 904  : 	CVAR_REGISTER ( &sk_monster_head3 );

	push	OFFSET ?sk_monster_head3@@3Ucvar_s@@A	; sk_monster_head3
	call	DWORD PTR ?g_engfuncs@@3Uenginefuncs_s@@A+224
	add	esp, 4

; 905  : 
; 906  : 	CVAR_REGISTER ( &sk_monster_chest1 );

	push	OFFSET ?sk_monster_chest1@@3Ucvar_s@@A	; sk_monster_chest1
	call	DWORD PTR ?g_engfuncs@@3Uenginefuncs_s@@A+224
	add	esp, 4

; 907  : 	CVAR_REGISTER ( &sk_monster_chest2 );

	push	OFFSET ?sk_monster_chest2@@3Ucvar_s@@A	; sk_monster_chest2
	call	DWORD PTR ?g_engfuncs@@3Uenginefuncs_s@@A+224
	add	esp, 4

; 908  : 	CVAR_REGISTER ( &sk_monster_chest3 );

	push	OFFSET ?sk_monster_chest3@@3Ucvar_s@@A	; sk_monster_chest3
	call	DWORD PTR ?g_engfuncs@@3Uenginefuncs_s@@A+224
	add	esp, 4

; 909  : 
; 910  : 	CVAR_REGISTER ( &sk_monster_stomach1 );

	push	OFFSET ?sk_monster_stomach1@@3Ucvar_s@@A ; sk_monster_stomach1
	call	DWORD PTR ?g_engfuncs@@3Uenginefuncs_s@@A+224
	add	esp, 4

; 911  : 	CVAR_REGISTER ( &sk_monster_stomach2 );

	push	OFFSET ?sk_monster_stomach2@@3Ucvar_s@@A ; sk_monster_stomach2
	call	DWORD PTR ?g_engfuncs@@3Uenginefuncs_s@@A+224
	add	esp, 4

; 912  : 	CVAR_REGISTER ( &sk_monster_stomach3 );

	push	OFFSET ?sk_monster_stomach3@@3Ucvar_s@@A ; sk_monster_stomach3
	call	DWORD PTR ?g_engfuncs@@3Uenginefuncs_s@@A+224
	add	esp, 4

; 913  : 
; 914  : 	CVAR_REGISTER ( &sk_monster_arm1 );

	push	OFFSET ?sk_monster_arm1@@3Ucvar_s@@A	; sk_monster_arm1
	call	DWORD PTR ?g_engfuncs@@3Uenginefuncs_s@@A+224
	add	esp, 4

; 915  : 	CVAR_REGISTER ( &sk_monster_arm2 );

	push	OFFSET ?sk_monster_arm2@@3Ucvar_s@@A	; sk_monster_arm2
	call	DWORD PTR ?g_engfuncs@@3Uenginefuncs_s@@A+224
	add	esp, 4

; 916  : 	CVAR_REGISTER ( &sk_monster_arm3 );

	push	OFFSET ?sk_monster_arm3@@3Ucvar_s@@A	; sk_monster_arm3
	call	DWORD PTR ?g_engfuncs@@3Uenginefuncs_s@@A+224
	add	esp, 4

; 917  : 
; 918  : 	CVAR_REGISTER ( &sk_monster_leg1 );

	push	OFFSET ?sk_monster_leg1@@3Ucvar_s@@A	; sk_monster_leg1
	call	DWORD PTR ?g_engfuncs@@3Uenginefuncs_s@@A+224
	add	esp, 4

; 919  : 	CVAR_REGISTER ( &sk_monster_leg2 );

	push	OFFSET ?sk_monster_leg2@@3Ucvar_s@@A	; sk_monster_leg2
	call	DWORD PTR ?g_engfuncs@@3Uenginefuncs_s@@A+224
	add	esp, 4

; 920  : 	CVAR_REGISTER ( &sk_monster_leg3 );

	push	OFFSET ?sk_monster_leg3@@3Ucvar_s@@A	; sk_monster_leg3
	call	DWORD PTR ?g_engfuncs@@3Uenginefuncs_s@@A+224
	add	esp, 4

; 921  : 
; 922  : // player damage adjusters
; 923  : 	CVAR_REGISTER ( &sk_player_head1 );

	push	OFFSET ?sk_player_head1@@3Ucvar_s@@A	; sk_player_head1
	call	DWORD PTR ?g_engfuncs@@3Uenginefuncs_s@@A+224
	add	esp, 4

; 924  : 	CVAR_REGISTER ( &sk_player_head2 );

	push	OFFSET ?sk_player_head2@@3Ucvar_s@@A	; sk_player_head2
	call	DWORD PTR ?g_engfuncs@@3Uenginefuncs_s@@A+224
	add	esp, 4

; 925  : 	CVAR_REGISTER ( &sk_player_head3 );

	push	OFFSET ?sk_player_head3@@3Ucvar_s@@A	; sk_player_head3
	call	DWORD PTR ?g_engfuncs@@3Uenginefuncs_s@@A+224
	add	esp, 4

; 926  : 
; 927  : 	CVAR_REGISTER ( &sk_player_chest1 );

	push	OFFSET ?sk_player_chest1@@3Ucvar_s@@A	; sk_player_chest1
	call	DWORD PTR ?g_engfuncs@@3Uenginefuncs_s@@A+224
	add	esp, 4

; 928  : 	CVAR_REGISTER ( &sk_player_chest2 );

	push	OFFSET ?sk_player_chest2@@3Ucvar_s@@A	; sk_player_chest2
	call	DWORD PTR ?g_engfuncs@@3Uenginefuncs_s@@A+224
	add	esp, 4

; 929  : 	CVAR_REGISTER ( &sk_player_chest3 );

	push	OFFSET ?sk_player_chest3@@3Ucvar_s@@A	; sk_player_chest3
	call	DWORD PTR ?g_engfuncs@@3Uenginefuncs_s@@A+224
	add	esp, 4

; 930  : 
; 931  : 	CVAR_REGISTER ( &sk_player_stomach1 );

	push	OFFSET ?sk_player_stomach1@@3Ucvar_s@@A	; sk_player_stomach1
	call	DWORD PTR ?g_engfuncs@@3Uenginefuncs_s@@A+224
	add	esp, 4

; 932  : 	CVAR_REGISTER ( &sk_player_stomach2 );

	push	OFFSET ?sk_player_stomach2@@3Ucvar_s@@A	; sk_player_stomach2
	call	DWORD PTR ?g_engfuncs@@3Uenginefuncs_s@@A+224
	add	esp, 4

; 933  : 	CVAR_REGISTER ( &sk_player_stomach3 );

	push	OFFSET ?sk_player_stomach3@@3Ucvar_s@@A	; sk_player_stomach3
	call	DWORD PTR ?g_engfuncs@@3Uenginefuncs_s@@A+224
	add	esp, 4

; 934  : 
; 935  : 	CVAR_REGISTER ( &sk_player_arm1 );

	push	OFFSET ?sk_player_arm1@@3Ucvar_s@@A	; sk_player_arm1
	call	DWORD PTR ?g_engfuncs@@3Uenginefuncs_s@@A+224
	add	esp, 4

; 936  : 	CVAR_REGISTER ( &sk_player_arm2 );

	push	OFFSET ?sk_player_arm2@@3Ucvar_s@@A	; sk_player_arm2
	call	DWORD PTR ?g_engfuncs@@3Uenginefuncs_s@@A+224
	add	esp, 4

; 937  : 	CVAR_REGISTER ( &sk_player_arm3 );

	push	OFFSET ?sk_player_arm3@@3Ucvar_s@@A	; sk_player_arm3
	call	DWORD PTR ?g_engfuncs@@3Uenginefuncs_s@@A+224
	add	esp, 4

; 938  : 
; 939  : 	CVAR_REGISTER ( &sk_player_leg1 );

	push	OFFSET ?sk_player_leg1@@3Ucvar_s@@A	; sk_player_leg1
	call	DWORD PTR ?g_engfuncs@@3Uenginefuncs_s@@A+224
	add	esp, 4

; 940  : 	CVAR_REGISTER ( &sk_player_leg2 );

	push	OFFSET ?sk_player_leg2@@3Ucvar_s@@A	; sk_player_leg2
	call	DWORD PTR ?g_engfuncs@@3Uenginefuncs_s@@A+224
	add	esp, 4

; 941  : 	CVAR_REGISTER ( &sk_player_leg3 );

	push	OFFSET ?sk_player_leg3@@3Ucvar_s@@A	; sk_player_leg3
	call	DWORD PTR ?g_engfuncs@@3Uenginefuncs_s@@A+224
	add	esp, 4

; 942  : // END REGISTER CVARS FOR SKILL LEVEL STUFF
; 943  : 
; 944  : 	SERVER_COMMAND( "exec skill.cfg\n" );

	push	OFFSET $SG75306
	call	DWORD PTR ?g_engfuncs@@3Uenginefuncs_s@@A+156
	add	esp, 4

; 945  : 
; 946  : 	WorldPhysic->InitPhysic();	// initialize physic world

	mov	eax, DWORD PTR ?WorldPhysic@@3PAVIPhysicLayer@@A ; WorldPhysic
	mov	edx, DWORD PTR [eax]
	mov	ecx, DWORD PTR ?WorldPhysic@@3PAVIPhysicLayer@@A ; WorldPhysic
	mov	eax, DWORD PTR [edx]
	call	eax

; 947  : 
; 948  : 	// Yes in the Xash3D we can register messages here
; 949  : 	LinkUserMessages();

	call	?LinkUserMessages@@YAXXZ		; LinkUserMessages

; 950  : }

	pop	ebp
	ret	0
?GameDLLInit@@YAXXZ ENDP				; GameDLLInit
_TEXT	ENDS
; Function compile flags: /Odtp
; File c:\users\user\downloads\xashxt_v0.81_rev.1_with_sources\xashxt_v0.81_rev.1_src\server\util.h
;	COMDAT ?INDEXENT@@YAPAUedict_s@@H@Z
_TEXT	SEGMENT
_iEdictNum$ = 8						; size = 4
?INDEXENT@@YAPAUedict_s@@H@Z PROC			; INDEXENT, COMDAT

; 187  : inline edict_t* INDEXENT( int iEdictNum )		{ return (*g_engfuncs.pfnPEntityOfEntIndex)(iEdictNum); }

	push	ebp
	mov	ebp, esp
	mov	eax, DWORD PTR _iEdictNum$[ebp]
	push	eax
	call	DWORD PTR ?g_engfuncs@@3Uenginefuncs_s@@A+288
	add	esp, 4
	pop	ebp
	ret	0
?INDEXENT@@YAPAUedict_s@@H@Z ENDP			; INDEXENT
_TEXT	ENDS
; Function compile flags: /Odtp
; File c:\users\user\downloads\xashxt_v0.81_rev.1_with_sources\xashxt_v0.81_rev.1_src\server\util.h
;	COMDAT ?ENT@@YAPAUedict_s@@H@Z
_TEXT	SEGMENT
_eoffset$ = 8						; size = 4
?ENT@@YAPAUedict_s@@H@Z PROC				; ENT, COMDAT

; 157  : inline edict_t *ENT(EOFFSET eoffset)			{ return (*g_engfuncs.pfnPEntityOfEntOffset)(eoffset); }

	push	ebp
	mov	ebp, esp
	mov	eax, DWORD PTR _eoffset$[ebp]
	push	eax
	call	DWORD PTR ?g_engfuncs@@3Uenginefuncs_s@@A+276
	add	esp, 4
	pop	ebp
	ret	0
?ENT@@YAPAUedict_s@@H@Z ENDP				; ENT
_TEXT	ENDS
; Function compile flags: /Odtp
; File c:\users\user\downloads\xashxt_v0.81_rev.1_with_sources\xashxt_v0.81_rev.1_src\server\enginecallback.h
;	COMDAT ?GET_PRIVATE@@YAPAXPAUedict_s@@@Z
_TEXT	SEGMENT
_pent$ = 8						; size = 4
?GET_PRIVATE@@YAPAXPAUedict_s@@@Z PROC			; GET_PRIVATE, COMDAT

; 101  : {

	push	ebp
	mov	ebp, esp

; 102  : 	if ( pent )

	cmp	DWORD PTR _pent$[ebp], 0
	je	SHORT $LN2@GET_PRIVAT

; 103  : 		return pent->pvPrivateData;

	mov	eax, DWORD PTR _pent$[ebp]
	mov	eax, DWORD PTR [eax+124]
	jmp	SHORT $LN1@GET_PRIVAT
$LN2@GET_PRIVAT:

; 104  : 	return NULL;

	xor	eax, eax
$LN1@GET_PRIVAT:

; 105  : }

	pop	ebp
	ret	0
?GET_PRIVATE@@YAPAXPAUedict_s@@@Z ENDP			; GET_PRIVATE
_TEXT	ENDS
; Function compile flags: /Odtp
;	COMDAT ??__G@YGXPAX0IIP6EPAX00@Z@Z
_TEXT	SEGMENT
tv66 = -4						; size = 4
___t$ = 8						; size = 4
___u$ = 12						; size = 4
___s$ = 16						; size = 4
___n$ = 20						; size = 4
___f$ = 24						; size = 4
??__G@YGXPAX0IIP6EPAX00@Z@Z PROC			; `vector copy constructor iterator', COMDAT
	push	ebp
	mov	ebp, esp
	push	ecx
$LN2@vector:
	mov	eax, DWORD PTR ___n$[ebp]
	mov	DWORD PTR tv66[ebp], eax
	mov	ecx, DWORD PTR ___n$[ebp]
	sub	ecx, 1
	mov	DWORD PTR ___n$[ebp], ecx
	cmp	DWORD PTR tv66[ebp], 0
	jbe	SHORT $LN1@vector
	mov	edx, DWORD PTR ___u$[ebp]
	push	edx
	mov	ecx, DWORD PTR ___t$[ebp]
	call	DWORD PTR ___f$[ebp]
	mov	eax, DWORD PTR ___t$[ebp]
	add	eax, DWORD PTR ___s$[ebp]
	mov	DWORD PTR ___t$[ebp], eax
	mov	ecx, DWORD PTR ___u$[ebp]
	add	ecx, DWORD PTR ___s$[ebp]
	mov	DWORD PTR ___u$[ebp], ecx
	jmp	SHORT $LN2@vector
$LN1@vector:
	mov	esp, ebp
	pop	ebp
	ret	20					; 00000014H
??__G@YGXPAX0IIP6EPAX00@Z@Z ENDP			; `vector copy constructor iterator'
_TEXT	ENDS
; Function compile flags: /Odtp
;	COMDAT ??_H@YGXPAXIIP6EPAX0@Z@Z
_TEXT	SEGMENT
tv66 = -4						; size = 4
___t$ = 8						; size = 4
___s$ = 12						; size = 4
___n$ = 16						; size = 4
___f$ = 20						; size = 4
??_H@YGXPAXIIP6EPAX0@Z@Z PROC				; `vector constructor iterator', COMDAT
	push	ebp
	mov	ebp, esp
	push	ecx
$LN2@vector:
	mov	eax, DWORD PTR ___n$[ebp]
	mov	DWORD PTR tv66[ebp], eax
	mov	ecx, DWORD PTR ___n$[ebp]
	sub	ecx, 1
	mov	DWORD PTR ___n$[ebp], ecx
	cmp	DWORD PTR tv66[ebp], 0
	jbe	SHORT $LN1@vector
	mov	ecx, DWORD PTR ___t$[ebp]
	call	DWORD PTR ___f$[ebp]
	mov	edx, DWORD PTR ___t$[ebp]
	add	edx, DWORD PTR ___s$[ebp]
	mov	DWORD PTR ___t$[ebp], edx
	jmp	SHORT $LN2@vector
$LN1@vector:
	mov	esp, ebp
	pop	ebp
	ret	16					; 00000010H
??_H@YGXPAXIIP6EPAX0@Z@Z ENDP				; `vector constructor iterator'
_TEXT	ENDS
END
