; Listing generated by Microsoft (R) Optimizing Compiler Version 19.16.27045.0 

	TITLE	C:\Users\USER\Downloads\XashXT_v0.81_rev.1_with_sources\XashXT_v0.81_rev.1_src\server\maprules.cpp
	.686P
	.XMM
	include listing.inc
	.model	flat

INCLUDELIB LIBCMT
INCLUDELIB OLDNAMES

PUBLIC	?m_DataMap@CRuleEntity@@2Udatamap_s@@A		; CRuleEntity::m_DataMap
PUBLIC	?m_DataMap@CGameText@@2Udatamap_s@@A		; CGameText::m_DataMap
PUBLIC	?m_DataMap@CGamePlayerZone@@2Udatamap_s@@A	; CGamePlayerZone::m_DataMap
CONST	SEGMENT
$SG75353 DB	'CRuleEntity', 00H
$SG75418 DB	'm_iszMaster', 00H
$SG75419 DB	'master', 00H
$SG75930 DB	00H
$SG75420 DB	'CRuleEntity', 00H
$SG75434 DB	'master', 00H
	ORG $+1
$SG75563 DB	'game_score', 00H
	ORG $+1
$SG75575 DB	'points', 00H
	ORG $+1
$SG75636 DB	'game_end', 00H
	ORG $+3
$SG75726 DB	'game_text', 00H
	ORG $+2
$SG75728 DB	'CGameText', 00H
	ORG $+2
$SG75769 DB	'm_textParms', 00H
$SG75770 DB	'CGameText', 00H
	ORG $+2
$SG75782 DB	'channel', 00H
$SG75785 DB	'x', 00H
	ORG $+2
$SG75788 DB	'y', 00H
	ORG $+2
$SG75791 DB	'effect', 00H
	ORG $+1
$SG75794 DB	'color', 00H
	ORG $+2
$SG75797 DB	'color2', 00H
	ORG $+1
$SG75800 DB	'fadein', 00H
	ORG $+1
$SG75803 DB	'fadeout', 00H
$SG75806 DB	'holdtime', 00H
	ORG $+3
$SG75809 DB	'fxtime', 00H
	ORG $+1
$SG75890 DB	'game_team_master', 00H
	ORG $+3
$SG75901 DB	'teamindex', 00H
	ORG $+2
$SG75904 DB	'triggerstate', 00H
	ORG $+3
$SG75996 DB	'game_team_set', 00H
	ORG $+2
$SG76082 DB	'game_zone_player', 00H
	ORG $+3
$SG76084 DB	'CGamePlayerZone', 00H
$SG76127 DB	'm_iszInTarget', 00H
	ORG $+2
$SG76128 DB	'intarget', 00H
	ORG $+3
$SG76129 DB	'm_iszOutTarget', 00H
	ORG $+1
$SG76130 DB	'outtarget', 00H
	ORG $+2
$SG76131 DB	'm_iszInCount', 00H
	ORG $+3
$SG76132 DB	'incount', 00H
$SG76133 DB	'm_iszOutCount', 00H
	ORG $+2
$SG76134 DB	'outcount', 00H
	ORG $+3
$SG76135 DB	'CGamePlayerZone', 00H
$SG76145 DB	'intarget', 00H
	ORG $+3
$SG76148 DB	'outtarget', 00H
	ORG $+2
$SG76151 DB	'incount', 00H
$SG76154 DB	'outcount', 00H
	ORG $+3
$SG76236 DB	'game_player_hurt', 00H
	ORG $+3
$SG76343 DB	'game_counter', 00H
	ORG $+3
$SG76420 DB	'game_counter_set', 00H
	ORG $+3
$SG76494 DB	'game_player_equip', 00H
	ORG $+2
$SG76603 DB	'game_player_team', 00H
	ORG $+3
$SG76613 DB	'game_team_master', 00H
	ORG $+3
$SG77038 DB	'c', 00H, ':', 00H, '\', 00H, 'u', 00H, 's', 00H, 'e', 00H
	DB	'r', 00H, 's', 00H, '\', 00H, 'u', 00H, 's', 00H, 'e', 00H, 'r'
	DB	00H, '\', 00H, 'd', 00H, 'o', 00H, 'w', 00H, 'n', 00H, 'l', 00H
	DB	'o', 00H, 'a', 00H, 'd', 00H, 's', 00H, '\', 00H, 'x', 00H, 'a'
	DB	00H, 's', 00H, 'h', 00H, 'x', 00H, 't', 00H, '_', 00H, 'v', 00H
	DB	'0', 00H, '.', 00H, '8', 00H, '1', 00H, '_', 00H, 'r', 00H, 'e'
	DB	00H, 'v', 00H, '.', 00H, '1', 00H, '_', 00H, 'w', 00H, 'i', 00H
	DB	't', 00H, 'h', 00H, '_', 00H, 's', 00H, 'o', 00H, 'u', 00H, 'r'
	DB	00H, 'c', 00H, 'e', 00H, 's', 00H, '\', 00H, 'x', 00H, 'a', 00H
	DB	's', 00H, 'h', 00H, 'x', 00H, 't', 00H, '_', 00H, 'v', 00H, '0'
	DB	00H, '.', 00H, '8', 00H, '1', 00H, '_', 00H, 'r', 00H, 'e', 00H
	DB	'v', 00H, '.', 00H, '1', 00H, '_', 00H, 's', 00H, 'r', 00H, 'c'
	DB	00H, '\', 00H, 'g', 00H, 'a', 00H, 'm', 00H, 'e', 00H, '_', 00H
	DB	's', 00H, 'h', 00H, 'a', 00H, 'r', 00H, 'e', 00H, 'd', 00H, '\'
	DB	00H, 'u', 00H, 't', 00H, 'l', 00H, 'm', 00H, 'e', 00H, 'm', 00H
	DB	'o', 00H, 'r', 00H, 'y', 00H, '.', 00H, 'h', 00H, 00H, 00H
	ORG $+2
$SG77039 DB	'n', 00H, 'G', 00H, 'r', 00H, 'o', 00H, 'w', 00H, 'S', 00H
	DB	'i', 00H, 'z', 00H, 'e', 00H, ' ', 00H, '>', 00H, '=', 00H, ' '
	DB	00H, '0', 00H, 00H, 00H
	ORG $+2
$SG77082 DB	'c', 00H, ':', 00H, '\', 00H, 'u', 00H, 's', 00H, 'e', 00H
	DB	'r', 00H, 's', 00H, '\', 00H, 'u', 00H, 's', 00H, 'e', 00H, 'r'
	DB	00H, '\', 00H, 'd', 00H, 'o', 00H, 'w', 00H, 'n', 00H, 'l', 00H
	DB	'o', 00H, 'a', 00H, 'd', 00H, 's', 00H, '\', 00H, 'x', 00H, 'a'
	DB	00H, 's', 00H, 'h', 00H, 'x', 00H, 't', 00H, '_', 00H, 'v', 00H
	DB	'0', 00H, '.', 00H, '8', 00H, '1', 00H, '_', 00H, 'r', 00H, 'e'
	DB	00H, 'v', 00H, '.', 00H, '1', 00H, '_', 00H, 'w', 00H, 'i', 00H
	DB	't', 00H, 'h', 00H, '_', 00H, 's', 00H, 'o', 00H, 'u', 00H, 'r'
	DB	00H, 'c', 00H, 'e', 00H, 's', 00H, '\', 00H, 'x', 00H, 'a', 00H
	DB	's', 00H, 'h', 00H, 'x', 00H, 't', 00H, '_', 00H, 'v', 00H, '0'
	DB	00H, '.', 00H, '8', 00H, '1', 00H, '_', 00H, 'r', 00H, 'e', 00H
	DB	'v', 00H, '.', 00H, '1', 00H, '_', 00H, 's', 00H, 'r', 00H, 'c'
	DB	00H, '\', 00H, 'g', 00H, 'a', 00H, 'm', 00H, 'e', 00H, '_', 00H
	DB	's', 00H, 'h', 00H, 'a', 00H, 'r', 00H, 'e', 00H, 'd', 00H, '\'
	DB	00H, 'u', 00H, 't', 00H, 'l', 00H, 'a', 00H, 'r', 00H, 'r', 00H
	DB	'a', 00H, 'y', 00H, '.', 00H, 'h', 00H, 00H, 00H
$SG77208 DB	'0', 00H, 00H, 00H
$SG77083 DB	'(', 00H, 'B', 00H, 'a', 00H, 's', 00H, 'e', 00H, '(', 00H
	DB	')', 00H, ' ', 00H, '=', 00H, '=', 00H, ' ', 00H, 'N', 00H, 'U'
	DB	00H, 'L', 00H, 'L', 00H, ')', 00H, ' ', 00H, '|', 00H, '|', 00H
	DB	' ', 00H, '(', 00H, '&', 00H, 's', 00H, 'r', 00H, 'c', 00H, ' '
	DB	00H, '<', 00H, ' ', 00H, 'B', 00H, 'a', 00H, 's', 00H, 'e', 00H
	DB	'(', 00H, ')', 00H, ')', 00H, ' ', 00H, '|', 00H, '|', 00H, ' '
	DB	00H, '(', 00H, '&', 00H, 's', 00H, 'r', 00H, 'c', 00H, ' ', 00H
	DB	'>', 00H, '=', 00H, ' ', 00H, '(', 00H, 'B', 00H, 'a', 00H, 's'
	DB	00H, 'e', 00H, '(', 00H, ')', 00H, ' ', 00H, '+', 00H, ' ', 00H
	DB	'C', 00H, 'o', 00H, 'u', 00H, 'n', 00H, 't', 00H, '(', 00H, ')'
	DB	00H, ')', 00H, ' ', 00H, ')', 00H, 00H, 00H
	ORG $+2
$SG77205 DB	'n', 00H, 'u', 00H, 'm', 00H, ' ', 00H, '>', 00H, ' ', 00H
	DB	'0', 00H, 00H, 00H
$SG77214 DB	'0', 00H, 00H, 00H
$SG77084 DB	'c', 00H, ':', 00H, '\', 00H, 'u', 00H, 's', 00H, 'e', 00H
	DB	'r', 00H, 's', 00H, '\', 00H, 'u', 00H, 's', 00H, 'e', 00H, 'r'
	DB	00H, '\', 00H, 'd', 00H, 'o', 00H, 'w', 00H, 'n', 00H, 'l', 00H
	DB	'o', 00H, 'a', 00H, 'd', 00H, 's', 00H, '\', 00H, 'x', 00H, 'a'
	DB	00H, 's', 00H, 'h', 00H, 'x', 00H, 't', 00H, '_', 00H, 'v', 00H
	DB	'0', 00H, '.', 00H, '8', 00H, '1', 00H, '_', 00H, 'r', 00H, 'e'
	DB	00H, 'v', 00H, '.', 00H, '1', 00H, '_', 00H, 'w', 00H, 'i', 00H
	DB	't', 00H, 'h', 00H, '_', 00H, 's', 00H, 'o', 00H, 'u', 00H, 'r'
	DB	00H, 'c', 00H, 'e', 00H, 's', 00H, '\', 00H, 'x', 00H, 'a', 00H
	DB	's', 00H, 'h', 00H, 'x', 00H, 't', 00H, '_', 00H, 'v', 00H, '0'
	DB	00H, '.', 00H, '8', 00H, '1', 00H, '_', 00H, 'r', 00H, 'e', 00H
	DB	'v', 00H, '.', 00H, '1', 00H, '_', 00H, 's', 00H, 'r', 00H, 'c'
	DB	00H, '\', 00H, 'g', 00H, 'a', 00H, 'm', 00H, 'e', 00H, '_', 00H
	DB	's', 00H, 'h', 00H, 'a', 00H, 'r', 00H, 'e', 00H, 'd', 00H, '\'
	DB	00H, 'u', 00H, 't', 00H, 'l', 00H, 'a', 00H, 'r', 00H, 'r', 00H
	DB	'a', 00H, 'y', 00H, '.', 00H, 'h', 00H, 00H, 00H
$SG77218 DB	'm', 00H, '_', 00H, 'p', 00H, 'M', 00H, 'e', 00H, 'm', 00H
	DB	'o', 00H, 'r', 00H, 'y', 00H, 00H, 00H
$SG77085 DB	'(', 00H, 'e', 00H, 'l', 00H, 'e', 00H, 'm', 00H, ' ', 00H
	DB	'=', 00H, '=', 00H, ' ', 00H, 'C', 00H, 'o', 00H, 'u', 00H, 'n'
	DB	00H, 't', 00H, '(', 00H, ')', 00H, ')', 00H, ' ', 00H, '|', 00H
	DB	'|', 00H, ' ', 00H, 'I', 00H, 's', 00H, 'V', 00H, 'a', 00H, 'l'
	DB	00H, 'i', 00H, 'd', 00H, 'I', 00H, 'n', 00H, 'd', 00H, 'e', 00H
	DB	'x', 00H, '(', 00H, 'e', 00H, 'l', 00H, 'e', 00H, 'm', 00H, ')'
	DB	00H, 00H, 00H
$SG77157 DB	'c', 00H, ':', 00H, '\', 00H, 'u', 00H, 's', 00H, 'e', 00H
	DB	'r', 00H, 's', 00H, '\', 00H, 'u', 00H, 's', 00H, 'e', 00H, 'r'
	DB	00H, '\', 00H, 'd', 00H, 'o', 00H, 'w', 00H, 'n', 00H, 'l', 00H
	DB	'o', 00H, 'a', 00H, 'd', 00H, 's', 00H, '\', 00H, 'x', 00H, 'a'
	DB	00H, 's', 00H, 'h', 00H, 'x', 00H, 't', 00H, '_', 00H, 'v', 00H
	DB	'0', 00H, '.', 00H, '8', 00H, '1', 00H, '_', 00H, 'r', 00H, 'e'
	DB	00H, 'v', 00H, '.', 00H, '1', 00H, '_', 00H, 'w', 00H, 'i', 00H
	DB	't', 00H, 'h', 00H, '_', 00H, 's', 00H, 'o', 00H, 'u', 00H, 'r'
	DB	00H, 'c', 00H, 'e', 00H, 's', 00H, '\', 00H, 'x', 00H, 'a', 00H
	DB	's', 00H, 'h', 00H, 'x', 00H, 't', 00H, '_', 00H, 'v', 00H, '0'
	DB	00H, '.', 00H, '8', 00H, '1', 00H, '_', 00H, 'r', 00H, 'e', 00H
	DB	'v', 00H, '.', 00H, '1', 00H, '_', 00H, 's', 00H, 'r', 00H, 'c'
	DB	00H, '\', 00H, 'g', 00H, 'a', 00H, 'm', 00H, 'e', 00H, '_', 00H
	DB	's', 00H, 'h', 00H, 'a', 00H, 'r', 00H, 'e', 00H, 'd', 00H, '\'
	DB	00H, 'u', 00H, 't', 00H, 'l', 00H, 'a', 00H, 'r', 00H, 'r', 00H
	DB	'a', 00H, 'y', 00H, '.', 00H, 'h', 00H, 00H, 00H
$SG77220 DB	'm', 00H, '_', 00H, 'p', 00H, 'M', 00H, 'e', 00H, 'm', 00H
	DB	'o', 00H, 'r', 00H, 'y', 00H, 00H, 00H
$SG77158 DB	'I', 00H, 's', 00H, 'V', 00H, 'a', 00H, 'l', 00H, 'i', 00H
	DB	'd', 00H, 'I', 00H, 'n', 00H, 'd', 00H, 'e', 00H, 'x', 00H, '('
	DB	00H, 'e', 00H, 'l', 00H, 'e', 00H, 'm', 00H, ')', 00H, ' ', 00H
	DB	'|', 00H, '|', 00H, ' ', 00H, '(', 00H, ' ', 00H, 'm', 00H, '_'
	DB	00H, 'S', 00H, 'i', 00H, 'z', 00H, 'e', 00H, ' ', 00H, '=', 00H
	DB	'=', 00H, ' ', 00H, '0', 00H, ' ', 00H, ')', 00H, ' ', 00H, '|'
	DB	00H, '|', 00H, ' ', 00H, '(', 00H, ' ', 00H, 'n', 00H, 'u', 00H
	DB	'm', 00H, ' ', 00H, '=', 00H, '=', 00H, ' ', 00H, '0', 00H, ' '
	DB	00H, ')', 00H, 00H, 00H
	ORG $+4
$SG77204 DB	'c', 00H, ':', 00H, '\', 00H, 'u', 00H, 's', 00H, 'e', 00H
	DB	'r', 00H, 's', 00H, '\', 00H, 'u', 00H, 's', 00H, 'e', 00H, 'r'
	DB	00H, '\', 00H, 'd', 00H, 'o', 00H, 'w', 00H, 'n', 00H, 'l', 00H
	DB	'o', 00H, 'a', 00H, 'd', 00H, 's', 00H, '\', 00H, 'x', 00H, 'a'
	DB	00H, 's', 00H, 'h', 00H, 'x', 00H, 't', 00H, '_', 00H, 'v', 00H
	DB	'0', 00H, '.', 00H, '8', 00H, '1', 00H, '_', 00H, 'r', 00H, 'e'
	DB	00H, 'v', 00H, '.', 00H, '1', 00H, '_', 00H, 'w', 00H, 'i', 00H
	DB	't', 00H, 'h', 00H, '_', 00H, 's', 00H, 'o', 00H, 'u', 00H, 'r'
	DB	00H, 'c', 00H, 'e', 00H, 's', 00H, '\', 00H, 'x', 00H, 'a', 00H
	DB	's', 00H, 'h', 00H, 'x', 00H, 't', 00H, '_', 00H, 'v', 00H, '0'
	DB	00H, '.', 00H, '8', 00H, '1', 00H, '_', 00H, 'r', 00H, 'e', 00H
	DB	'v', 00H, '.', 00H, '1', 00H, '_', 00H, 's', 00H, 'r', 00H, 'c'
	DB	00H, '\', 00H, 'g', 00H, 'a', 00H, 'm', 00H, 'e', 00H, '_', 00H
	DB	's', 00H, 'h', 00H, 'a', 00H, 'r', 00H, 'e', 00H, 'd', 00H, '\'
	DB	00H, 'u', 00H, 't', 00H, 'l', 00H, 'm', 00H, 'e', 00H, 'm', 00H
	DB	'o', 00H, 'r', 00H, 'y', 00H, '.', 00H, 'h', 00H, 00H, 00H
	ORG $+2
$SG77207 DB	'c', 00H, ':', 00H, '\', 00H, 'u', 00H, 's', 00H, 'e', 00H
	DB	'r', 00H, 's', 00H, '\', 00H, 'u', 00H, 's', 00H, 'e', 00H, 'r'
	DB	00H, '\', 00H, 'd', 00H, 'o', 00H, 'w', 00H, 'n', 00H, 'l', 00H
	DB	'o', 00H, 'a', 00H, 'd', 00H, 's', 00H, '\', 00H, 'x', 00H, 'a'
	DB	00H, 's', 00H, 'h', 00H, 'x', 00H, 't', 00H, '_', 00H, 'v', 00H
	DB	'0', 00H, '.', 00H, '8', 00H, '1', 00H, '_', 00H, 'r', 00H, 'e'
	DB	00H, 'v', 00H, '.', 00H, '1', 00H, '_', 00H, 'w', 00H, 'i', 00H
	DB	't', 00H, 'h', 00H, '_', 00H, 's', 00H, 'o', 00H, 'u', 00H, 'r'
	DB	00H, 'c', 00H, 'e', 00H, 's', 00H, '\', 00H, 'x', 00H, 'a', 00H
	DB	's', 00H, 'h', 00H, 'x', 00H, 't', 00H, '_', 00H, 'v', 00H, '0'
	DB	00H, '.', 00H, '8', 00H, '1', 00H, '_', 00H, 'r', 00H, 'e', 00H
	DB	'v', 00H, '.', 00H, '1', 00H, '_', 00H, 's', 00H, 'r', 00H, 'c'
	DB	00H, '\', 00H, 'g', 00H, 'a', 00H, 'm', 00H, 'e', 00H, '_', 00H
	DB	's', 00H, 'h', 00H, 'a', 00H, 'r', 00H, 'e', 00H, 'd', 00H, '\'
	DB	00H, 'u', 00H, 't', 00H, 'l', 00H, 'm', 00H, 'e', 00H, 'm', 00H
	DB	'o', 00H, 'r', 00H, 'y', 00H, '.', 00H, 'h', 00H, 00H, 00H
	ORG $+2
$SG77213 DB	'c', 00H, ':', 00H, '\', 00H, 'u', 00H, 's', 00H, 'e', 00H
	DB	'r', 00H, 's', 00H, '\', 00H, 'u', 00H, 's', 00H, 'e', 00H, 'r'
	DB	00H, '\', 00H, 'd', 00H, 'o', 00H, 'w', 00H, 'n', 00H, 'l', 00H
	DB	'o', 00H, 'a', 00H, 'd', 00H, 's', 00H, '\', 00H, 'x', 00H, 'a'
	DB	00H, 's', 00H, 'h', 00H, 'x', 00H, 't', 00H, '_', 00H, 'v', 00H
	DB	'0', 00H, '.', 00H, '8', 00H, '1', 00H, '_', 00H, 'r', 00H, 'e'
	DB	00H, 'v', 00H, '.', 00H, '1', 00H, '_', 00H, 'w', 00H, 'i', 00H
	DB	't', 00H, 'h', 00H, '_', 00H, 's', 00H, 'o', 00H, 'u', 00H, 'r'
	DB	00H, 'c', 00H, 'e', 00H, 's', 00H, '\', 00H, 'x', 00H, 'a', 00H
	DB	's', 00H, 'h', 00H, 'x', 00H, 't', 00H, '_', 00H, 'v', 00H, '0'
	DB	00H, '.', 00H, '8', 00H, '1', 00H, '_', 00H, 'r', 00H, 'e', 00H
	DB	'v', 00H, '.', 00H, '1', 00H, '_', 00H, 's', 00H, 'r', 00H, 'c'
	DB	00H, '\', 00H, 'g', 00H, 'a', 00H, 'm', 00H, 'e', 00H, '_', 00H
	DB	's', 00H, 'h', 00H, 'a', 00H, 'r', 00H, 'e', 00H, 'd', 00H, '\'
	DB	00H, 'u', 00H, 't', 00H, 'l', 00H, 'm', 00H, 'e', 00H, 'm', 00H
	DB	'o', 00H, 'r', 00H, 'y', 00H, '.', 00H, 'h', 00H, 00H, 00H
	ORG $+2
$SG77217 DB	'c', 00H, ':', 00H, '\', 00H, 'u', 00H, 's', 00H, 'e', 00H
	DB	'r', 00H, 's', 00H, '\', 00H, 'u', 00H, 's', 00H, 'e', 00H, 'r'
	DB	00H, '\', 00H, 'd', 00H, 'o', 00H, 'w', 00H, 'n', 00H, 'l', 00H
	DB	'o', 00H, 'a', 00H, 'd', 00H, 's', 00H, '\', 00H, 'x', 00H, 'a'
	DB	00H, 's', 00H, 'h', 00H, 'x', 00H, 't', 00H, '_', 00H, 'v', 00H
	DB	'0', 00H, '.', 00H, '8', 00H, '1', 00H, '_', 00H, 'r', 00H, 'e'
	DB	00H, 'v', 00H, '.', 00H, '1', 00H, '_', 00H, 'w', 00H, 'i', 00H
	DB	't', 00H, 'h', 00H, '_', 00H, 's', 00H, 'o', 00H, 'u', 00H, 'r'
	DB	00H, 'c', 00H, 'e', 00H, 's', 00H, '\', 00H, 'x', 00H, 'a', 00H
	DB	's', 00H, 'h', 00H, 'x', 00H, 't', 00H, '_', 00H, 'v', 00H, '0'
	DB	00H, '.', 00H, '8', 00H, '1', 00H, '_', 00H, 'r', 00H, 'e', 00H
	DB	'v', 00H, '.', 00H, '1', 00H, '_', 00H, 's', 00H, 'r', 00H, 'c'
	DB	00H, '\', 00H, 'g', 00H, 'a', 00H, 'm', 00H, 'e', 00H, '_', 00H
	DB	's', 00H, 'h', 00H, 'a', 00H, 'r', 00H, 'e', 00H, 'd', 00H, '\'
	DB	00H, 'u', 00H, 't', 00H, 'l', 00H, 'm', 00H, 'e', 00H, 'm', 00H
	DB	'o', 00H, 'r', 00H, 'y', 00H, '.', 00H, 'h', 00H, 00H, 00H
	ORG $+2
$SG77219 DB	'c', 00H, ':', 00H, '\', 00H, 'u', 00H, 's', 00H, 'e', 00H
	DB	'r', 00H, 's', 00H, '\', 00H, 'u', 00H, 's', 00H, 'e', 00H, 'r'
	DB	00H, '\', 00H, 'd', 00H, 'o', 00H, 'w', 00H, 'n', 00H, 'l', 00H
	DB	'o', 00H, 'a', 00H, 'd', 00H, 's', 00H, '\', 00H, 'x', 00H, 'a'
	DB	00H, 's', 00H, 'h', 00H, 'x', 00H, 't', 00H, '_', 00H, 'v', 00H
	DB	'0', 00H, '.', 00H, '8', 00H, '1', 00H, '_', 00H, 'r', 00H, 'e'
	DB	00H, 'v', 00H, '.', 00H, '1', 00H, '_', 00H, 'w', 00H, 'i', 00H
	DB	't', 00H, 'h', 00H, '_', 00H, 's', 00H, 'o', 00H, 'u', 00H, 'r'
	DB	00H, 'c', 00H, 'e', 00H, 's', 00H, '\', 00H, 'x', 00H, 'a', 00H
	DB	's', 00H, 'h', 00H, 'x', 00H, 't', 00H, '_', 00H, 'v', 00H, '0'
	DB	00H, '.', 00H, '8', 00H, '1', 00H, '_', 00H, 'r', 00H, 'e', 00H
	DB	'v', 00H, '.', 00H, '1', 00H, '_', 00H, 's', 00H, 'r', 00H, 'c'
	DB	00H, '\', 00H, 'g', 00H, 'a', 00H, 'm', 00H, 'e', 00H, '_', 00H
	DB	's', 00H, 'h', 00H, 'a', 00H, 'r', 00H, 'e', 00H, 'd', 00H, '\'
	DB	00H, 'u', 00H, 't', 00H, 'l', 00H, 'm', 00H, 'e', 00H, 'm', 00H
	DB	'o', 00H, 'r', 00H, 'y', 00H, '.', 00H, 'h', 00H, 00H, 00H
CONST	ENDS
_DATA	SEGMENT
?m_DataMap@CRuleEntity@@2Udatamap_s@@A DD 00H		; CRuleEntity::m_DataMap
	DD	00H
	DD	FLAT:$SG75353
	DD	00H
?m_DataMap@CGameText@@2Udatamap_s@@A DD 00H		; CGameText::m_DataMap
	DD	00H
	DD	FLAT:$SG75728
	DD	00H
?m_DataMap@CGamePlayerZone@@2Udatamap_s@@A DD 00H	; CGamePlayerZone::m_DataMap
	DD	00H
	DD	FLAT:$SG76084
	DD	00H
_DATA	ENDS
PUBLIC	??_H@YGXPAXIIP6EPAX0@Z@Z			; `vector constructor iterator'
PUBLIC	??__G@YGXPAX0IIP6EPAX00@Z@Z			; `vector copy constructor iterator'
PUBLIC	??0Vector@@QAE@XZ				; Vector::Vector
PUBLIC	??0Vector@@QAE@MMM@Z				; Vector::Vector
PUBLIC	??8Vector@@QBEHABV0@@Z				; Vector::operator==
PUBLIC	??9Vector@@QBEHABV0@@Z				; Vector::operator!=
PUBLIC	??HVector@@QBE?AV0@ABV0@@Z			; Vector::operator+
PUBLIC	??DVector@@QBE?AV0@M@Z				; Vector::operator*
PUBLIC	??0gametrace_s@@QAE@XZ				; gametrace_s::gametrace_s
PUBLIC	?GET_PRIVATE@@YAPAXPAUedict_s@@@Z		; GET_PRIVATE
PUBLIC	??0CDatadescGeneratedNameHolder@@QAE@PBD@Z	; CDatadescGeneratedNameHolder::CDatadescGeneratedNameHolder
PUBLIC	??1CDatadescGeneratedNameHolder@@QAE@XZ		; CDatadescGeneratedNameHolder::~CDatadescGeneratedNameHolder
PUBLIC	??0?$CUtlArray@PADV?$CUtlMemory@PADH@@@@QAE@HH@Z ; CUtlArray<char *,CUtlMemory<char *,int> >::CUtlArray<char *,CUtlMemory<char *,int> >
PUBLIC	??1?$CUtlArray@PADV?$CUtlMemory@PADH@@@@QAE@XZ	; CUtlArray<char *,CUtlMemory<char *,int> >::~CUtlArray<char *,CUtlMemory<char *,int> >
PUBLIC	??A?$CUtlArray@PADV?$CUtlMemory@PADH@@@@QAEAAPADH@Z ; CUtlArray<char *,CUtlMemory<char *,int> >::operator[]
PUBLIC	?Element@?$CUtlArray@PADV?$CUtlMemory@PADH@@@@QAEAAPADH@Z ; CUtlArray<char *,CUtlMemory<char *,int> >::Element
PUBLIC	?Base@?$CUtlArray@PADV?$CUtlMemory@PADH@@@@QAEPAPADXZ ; CUtlArray<char *,CUtlMemory<char *,int> >::Base
PUBLIC	?Count@?$CUtlArray@PADV?$CUtlMemory@PADH@@@@QBEHXZ ; CUtlArray<char *,CUtlMemory<char *,int> >::Count
PUBLIC	?RemoveAll@?$CUtlArray@PADV?$CUtlMemory@PADH@@@@QAEXXZ ; CUtlArray<char *,CUtlMemory<char *,int> >::RemoveAll
PUBLIC	?Purge@?$CUtlArray@PADV?$CUtlMemory@PADH@@@@QAEXXZ ; CUtlArray<char *,CUtlMemory<char *,int> >::Purge
PUBLIC	??0?$CUtlMemory@PADH@@QAE@HH@Z			; CUtlMemory<char *,int>::CUtlMemory<char *,int>
PUBLIC	??1?$CUtlMemory@PADH@@QAE@XZ			; CUtlMemory<char *,int>::~CUtlMemory<char *,int>
PUBLIC	??A?$CUtlMemory@PADH@@QAEAAPADH@Z		; CUtlMemory<char *,int>::operator[]
PUBLIC	?IsIdxValid@?$CUtlMemory@PADH@@QBE_NH@Z		; CUtlMemory<char *,int>::IsIdxValid
PUBLIC	?Base@?$CUtlMemory@PADH@@QAEPAPADXZ		; CUtlMemory<char *,int>::Base
PUBLIC	?Purge@?$CUtlMemory@PADH@@QAEXXZ		; CUtlMemory<char *,int>::Purge
PUBLIC	?IsExternallyAllocated@?$CUtlMemory@PADH@@QBE_NXZ ; CUtlMemory<char *,int>::IsExternallyAllocated
PUBLIC	?IsReadOnly@?$CUtlMemory@PADH@@QBE_NXZ		; CUtlMemory<char *,int>::IsReadOnly
PUBLIC	?ValidateGrowSize@?$CUtlMemory@PADH@@IAEXXZ	; CUtlMemory<char *,int>::ValidateGrowSize
PUBLIC	?ResetDbgInfo@?$CUtlArray@PADV?$CUtlMemory@PADH@@@@IAEXXZ ; CUtlArray<char *,CUtlMemory<char *,int> >::ResetDbgInfo
PUBLIC	??0IEntityFactory@@QAE@XZ			; IEntityFactory::IEntityFactory
PUBLIC	?ENT@@YAPAUedict_s@@PBUentvars_s@@@Z		; ENT
PUBLIC	?OFFSET@@YAHPBUedict_s@@@Z			; OFFSET
PUBLIC	?OFFSET@@YAHPAUentvars_s@@@Z			; OFFSET
PUBLIC	?VARS@@YAPAUentvars_s@@PAUedict_s@@@Z		; VARS
PUBLIC	?FNullEnt@@YAHH@Z				; FNullEnt
PUBLIC	?FNullEnt@@YAHPAUentvars_s@@@Z			; FNullEnt
PUBLIC	?FStrEq@@YAHPBD0@Z				; FStrEq
PUBLIC	?FClassnameIs@@YAHPAUentvars_s@@PBD@Z		; FClassnameIs
PUBLIC	?Get@EHANDLE@@QAEPAUedict_s@@XZ			; EHANDLE::Get
PUBLIC	??BEHANDLE@@QAEHXZ				; EHANDLE::operator int
PUBLIC	??CEHANDLE@@QAEPAVCBaseEntity@@XZ		; EHANDLE::operator->
PUBLIC	?SetClassname@CBaseEntity@@QAEXPBD@Z		; CBaseEntity::SetClassname
PUBLIC	?Spawn@CBaseEntity@@UAEXXZ			; CBaseEntity::Spawn
PUBLIC	?Precache@CBaseEntity@@UAEXXZ			; CBaseEntity::Precache
PUBLIC	?KeyValue@CBaseEntity@@UAEXPAUKeyValueData_s@@@Z ; CBaseEntity::KeyValue
PUBLIC	?ObjectCaps@CBaseEntity@@UAEHXZ			; CBaseEntity::ObjectCaps
PUBLIC	?Activate@CBaseEntity@@UAEXXZ			; CBaseEntity::Activate
PUBLIC	?OnChangeLevel@CBaseEntity@@UAEXXZ		; CBaseEntity::OnChangeLevel
PUBLIC	?OnTeleport@CBaseEntity@@UAEXXZ			; CBaseEntity::OnTeleport
PUBLIC	?PortalSleep@CBaseEntity@@UAEXM@Z		; CBaseEntity::PortalSleep
PUBLIC	?StartMessage@CBaseEntity@@UAEXPAVCBasePlayer@@@Z ; CBaseEntity::StartMessage
PUBLIC	?GetPosition@CBaseEntity@@UAEMXZ		; CBaseEntity::GetPosition
PUBLIC	?OnChangeParent@CBaseEntity@@UAEXXZ		; CBaseEntity::OnChangeParent
PUBLIC	?OnClearParent@CBaseEntity@@UAEXXZ		; CBaseEntity::OnClearParent
PUBLIC	?OnRemove@CBaseEntity@@UAEXXZ			; CBaseEntity::OnRemove
PUBLIC	?Classify@CBaseEntity@@UAEHXZ			; CBaseEntity::Classify
PUBLIC	?DeathNotice@CBaseEntity@@UAEXPAUentvars_s@@@Z	; CBaseEntity::DeathNotice
PUBLIC	?IsRigidBody@CBaseEntity@@UAEHXZ		; CBaseEntity::IsRigidBody
PUBLIC	?GetState@CBaseEntity@@UAE?AW4STATE@@XZ		; CBaseEntity::GetState
PUBLIC	?GetState@CBaseEntity@@UAE?AW4STATE@@PAV1@@Z	; CBaseEntity::GetState
PUBLIC	?BloodColor@CBaseEntity@@UAEHXZ			; CBaseEntity::BloodColor
PUBLIC	?IsTriggered@CBaseEntity@@UAEHPAV1@@Z		; CBaseEntity::IsTriggered
PUBLIC	?MyMonsterPointer@CBaseEntity@@UAEPAVCBaseMonster@@XZ ; CBaseEntity::MyMonsterPointer
PUBLIC	?MySquadMonsterPointer@CBaseEntity@@UAEPAVCSquadMonster@@XZ ; CBaseEntity::MySquadMonsterPointer
PUBLIC	?GetToggleState@CBaseEntity@@UAEHXZ		; CBaseEntity::GetToggleState
PUBLIC	?AddPoints@CBaseEntity@@UAEXHH@Z		; CBaseEntity::AddPoints
PUBLIC	?AddPointsToTeam@CBaseEntity@@UAEXHH@Z		; CBaseEntity::AddPointsToTeam
PUBLIC	?AddPlayerItem@CBaseEntity@@UAEHPAVCBasePlayerItem@@@Z ; CBaseEntity::AddPlayerItem
PUBLIC	?RemovePlayerItem@CBaseEntity@@UAEHPAVCBasePlayerItem@@@Z ; CBaseEntity::RemovePlayerItem
PUBLIC	?GiveAmmo@CBaseEntity@@UAEHHPADH@Z		; CBaseEntity::GiveAmmo
PUBLIC	?GetDelay@CBaseEntity@@UAEMXZ			; CBaseEntity::GetDelay
PUBLIC	?IsMoving@CBaseEntity@@UAEHXZ			; CBaseEntity::IsMoving
PUBLIC	?OverrideReset@CBaseEntity@@UAEXXZ		; CBaseEntity::OverrideReset
PUBLIC	?TransferReset@CBaseEntity@@UAEXXZ		; CBaseEntity::TransferReset
PUBLIC	?SetToggleState@CBaseEntity@@UAEXH@Z		; CBaseEntity::SetToggleState
PUBLIC	?StartSneaking@CBaseEntity@@UAEXXZ		; CBaseEntity::StartSneaking
PUBLIC	?StopSneaking@CBaseEntity@@UAEXXZ		; CBaseEntity::StopSneaking
PUBLIC	?OnControls@CBaseEntity@@UAEHPAV1@@Z		; CBaseEntity::OnControls
PUBLIC	?IsSneaking@CBaseEntity@@UAEHXZ			; CBaseEntity::IsSneaking
PUBLIC	?IsAlive@CBaseEntity@@UAEHXZ			; CBaseEntity::IsAlive
PUBLIC	?IsBSPModel@CBaseEntity@@UAEHXZ			; CBaseEntity::IsBSPModel
PUBLIC	?IsCustomModel@CBaseEntity@@UAEHXZ		; CBaseEntity::IsCustomModel
PUBLIC	?ReflectGauss@CBaseEntity@@UAEHXZ		; CBaseEntity::ReflectGauss
PUBLIC	?HasTarget@CBaseEntity@@UAEHH@Z			; CBaseEntity::HasTarget
PUBLIC	?IsPlayer@CBaseEntity@@UAEHXZ			; CBaseEntity::IsPlayer
PUBLIC	?IsNetClient@CBaseEntity@@UAEHXZ		; CBaseEntity::IsNetClient
PUBLIC	?IsMonster@CBaseEntity@@UAEHXZ			; CBaseEntity::IsMonster
PUBLIC	?IsPushable@CBaseEntity@@UAEHXZ			; CBaseEntity::IsPushable
PUBLIC	?IsProjectile@CBaseEntity@@UAEHXZ		; CBaseEntity::IsProjectile
PUBLIC	?IsFuncScreen@CBaseEntity@@UAEHXZ		; CBaseEntity::IsFuncScreen
PUBLIC	?IsPortal@CBaseEntity@@UAEHXZ			; CBaseEntity::IsPortal
PUBLIC	?IsTank@CBaseEntity@@UAEHXZ			; CBaseEntity::IsTank
PUBLIC	?IsMover@CBaseEntity@@UAEHXZ			; CBaseEntity::IsMover
PUBLIC	?IsBreakable@CBaseEntity@@UAEHXZ		; CBaseEntity::IsBreakable
PUBLIC	?TeamID@CBaseEntity@@UAEPBDXZ			; CBaseEntity::TeamID
PUBLIC	?Think@CBaseEntity@@UAEXXZ			; CBaseEntity::Think
PUBLIC	?Use@CBaseEntity@@UAEXPAV1@0W4USE_TYPE@@M@Z	; CBaseEntity::Use
PUBLIC	?Touch@CBaseEntity@@UAEXPAV1@@Z			; CBaseEntity::Touch
PUBLIC	?Blocked@CBaseEntity@@UAEXPAV1@@Z		; CBaseEntity::Blocked
PUBLIC	?MoveDone@CBaseEntity@@UAEXXZ			; CBaseEntity::MoveDone
PUBLIC	??2CBaseEntity@@SAPAXIPAUentvars_s@@@Z		; CBaseEntity::operator new
PUBLIC	??3CBaseEntity@@SAXPAXPAUentvars_s@@@Z		; CBaseEntity::operator delete
PUBLIC	?Respawn@CBaseEntity@@UAEPAV1@XZ		; CBaseEntity::Respawn
PUBLIC	?UpdateOwner@CBaseEntity@@UAEXXZ		; CBaseEntity::UpdateOwner
PUBLIC	?FBecomeProne@CBaseEntity@@UAEHXZ		; CBaseEntity::FBecomeProne
PUBLIC	?edict@CBaseEntity@@QAEPAUedict_s@@XZ		; CBaseEntity::edict
PUBLIC	?Center@CBaseEntity@@UAE?AVVector@@XZ		; CBaseEntity::Center
PUBLIC	?EyePosition@CBaseEntity@@UAE?AVVector@@XZ	; CBaseEntity::EyePosition
PUBLIC	?EarPosition@CBaseEntity@@UAE?AVVector@@XZ	; CBaseEntity::EarPosition
PUBLIC	?BodyTarget@CBaseEntity@@UAE?AVVector@@ABV2@@Z	; CBaseEntity::BodyTarget
PUBLIC	?IsPointSized@CBaseEntity@@UBEHXZ		; CBaseEntity::IsPointSized
PUBLIC	?Illumination@CBaseEntity@@UAEHXZ		; CBaseEntity::Illumination
PUBLIC	??0CBaseEntity@@QAE@XZ				; CBaseEntity::CBaseEntity
PUBLIC	?Spawn@CRuleEntity@@UAEXXZ			; CRuleEntity::Spawn
PUBLIC	?KeyValue@CRuleEntity@@UAEXPAUKeyValueData_s@@@Z ; CRuleEntity::KeyValue
PUBLIC	?GetBaseMap@CRuleEntity@@SAPAUdatamap_s@@XZ	; CRuleEntity::GetBaseMap
PUBLIC	?GetDataDescMap@CRuleEntity@@UAEPAUdatamap_s@@XZ ; CRuleEntity::GetDataDescMap
PUBLIC	?SetMaster@CRuleEntity@@QAEXH@Z			; CRuleEntity::SetMaster
PUBLIC	?CanFireForActivator@CRuleEntity@@IAEHPAVCBaseEntity@@@Z ; CRuleEntity::CanFireForActivator
PUBLIC	??0CRuleEntity@@QAE@XZ				; CRuleEntity::CRuleEntity
PUBLIC	??$DataMapAccess@VCBaseEntity@@@@YAXPAVCBaseEntity@@PAPAUdatamap_s@@@Z ; DataMapAccess<CBaseEntity>
PUBLIC	??$DataMapInit@VCRuleEntity@@@@YAPAUdatamap_s@@PAVCRuleEntity@@@Z ; DataMapInit<CRuleEntity>
PUBLIC	?Spawn@CRulePointEntity@@UAEXXZ			; CRulePointEntity::Spawn
PUBLIC	??0CRulePointEntity@@QAE@XZ			; CRulePointEntity::CRulePointEntity
PUBLIC	?Spawn@CRuleBrushEntity@@UAEXXZ			; CRuleBrushEntity::Spawn
PUBLIC	??0CRuleBrushEntity@@QAE@XZ			; CRuleBrushEntity::CRuleBrushEntity
PUBLIC	?Spawn@CGameScore@@UAEXXZ			; CGameScore::Spawn
PUBLIC	?Use@CGameScore@@UAEXPAVCBaseEntity@@0W4USE_TYPE@@M@Z ; CGameScore::Use
PUBLIC	?KeyValue@CGameScore@@UAEXPAUKeyValueData_s@@@Z	; CGameScore::KeyValue
PUBLIC	?Points@CGameScore@@QAEHXZ			; CGameScore::Points
PUBLIC	?AllowNegativeScore@CGameScore@@QAEHXZ		; CGameScore::AllowNegativeScore
PUBLIC	?AwardToTeam@CGameScore@@QAEHXZ			; CGameScore::AwardToTeam
PUBLIC	?SetPoints@CGameScore@@QAEXH@Z			; CGameScore::SetPoints
PUBLIC	??0CGameScore@@QAE@XZ				; CGameScore::CGameScore
PUBLIC	??0?$CEntityFactory@VCGameScore@@@@QAE@PBD@Z	; CEntityFactory<CGameScore>::CEntityFactory<CGameScore>
PUBLIC	?Create@?$CEntityFactory@VCGameScore@@@@UAEPAVCBaseEntity@@PBDPAUentvars_s@@@Z ; CEntityFactory<CGameScore>::Create
PUBLIC	?Destroy@?$CEntityFactory@VCGameScore@@@@UAEXPAVCBaseEntity@@@Z ; CEntityFactory<CGameScore>::Destroy
PUBLIC	?GetEntitySize@?$CEntityFactory@VCGameScore@@@@UAEIXZ ; CEntityFactory<CGameScore>::GetEntitySize
PUBLIC	?Use@CGameEnd@@UAEXPAVCBaseEntity@@0W4USE_TYPE@@M@Z ; CGameEnd::Use
PUBLIC	??0CGameEnd@@QAE@XZ				; CGameEnd::CGameEnd
PUBLIC	??0?$CEntityFactory@VCGameEnd@@@@QAE@PBD@Z	; CEntityFactory<CGameEnd>::CEntityFactory<CGameEnd>
PUBLIC	?Create@?$CEntityFactory@VCGameEnd@@@@UAEPAVCBaseEntity@@PBDPAUentvars_s@@@Z ; CEntityFactory<CGameEnd>::Create
PUBLIC	?Destroy@?$CEntityFactory@VCGameEnd@@@@UAEXPAVCBaseEntity@@@Z ; CEntityFactory<CGameEnd>::Destroy
PUBLIC	?GetEntitySize@?$CEntityFactory@VCGameEnd@@@@UAEIXZ ; CEntityFactory<CGameEnd>::GetEntitySize
PUBLIC	?Use@CGameText@@UAEXPAVCBaseEntity@@0W4USE_TYPE@@M@Z ; CGameText::Use
PUBLIC	?KeyValue@CGameText@@UAEXPAUKeyValueData_s@@@Z	; CGameText::KeyValue
PUBLIC	?GetBaseMap@CGameText@@SAPAUdatamap_s@@XZ	; CGameText::GetBaseMap
PUBLIC	?GetDataDescMap@CGameText@@UAEPAUdatamap_s@@XZ	; CGameText::GetDataDescMap
PUBLIC	?MessageToAll@CGameText@@QAEHXZ			; CGameText::MessageToAll
PUBLIC	?MessageGet@CGameText@@QAEPBDXZ			; CGameText::MessageGet
PUBLIC	??0CGameText@@QAE@XZ				; CGameText::CGameText
PUBLIC	??0?$CEntityFactory@VCGameText@@@@QAE@PBD@Z	; CEntityFactory<CGameText>::CEntityFactory<CGameText>
PUBLIC	?Create@?$CEntityFactory@VCGameText@@@@UAEPAVCBaseEntity@@PBDPAUentvars_s@@@Z ; CEntityFactory<CGameText>::Create
PUBLIC	?Destroy@?$CEntityFactory@VCGameText@@@@UAEXPAVCBaseEntity@@@Z ; CEntityFactory<CGameText>::Destroy
PUBLIC	?GetEntitySize@?$CEntityFactory@VCGameText@@@@UAEIXZ ; CEntityFactory<CGameText>::GetEntitySize
PUBLIC	??$DataMapAccess@VCRulePointEntity@@@@YAXPAVCRulePointEntity@@PAPAUdatamap_s@@@Z ; DataMapAccess<CRulePointEntity>
PUBLIC	??$DataMapInit@VCGameText@@@@YAPAUdatamap_s@@PAVCGameText@@@Z ; DataMapInit<CGameText>
PUBLIC	?KeyValue@CGameTeamMaster@@UAEXPAUKeyValueData_s@@@Z ; CGameTeamMaster::KeyValue
PUBLIC	?Use@CGameTeamMaster@@UAEXPAVCBaseEntity@@0W4USE_TYPE@@M@Z ; CGameTeamMaster::Use
PUBLIC	?IsTriggered@CGameTeamMaster@@UAEHPAVCBaseEntity@@@Z ; CGameTeamMaster::IsTriggered
PUBLIC	?TeamID@CGameTeamMaster@@UAEPBDXZ		; CGameTeamMaster::TeamID
PUBLIC	?RemoveOnFire@CGameTeamMaster@@QAEHXZ		; CGameTeamMaster::RemoveOnFire
PUBLIC	?AnyTeam@CGameTeamMaster@@QAEHXZ		; CGameTeamMaster::AnyTeam
PUBLIC	?TeamMatch@CGameTeamMaster@@AAEHPAVCBaseEntity@@@Z ; CGameTeamMaster::TeamMatch
PUBLIC	??0CGameTeamMaster@@QAE@XZ			; CGameTeamMaster::CGameTeamMaster
PUBLIC	??0?$CEntityFactory@VCGameTeamMaster@@@@QAE@PBD@Z ; CEntityFactory<CGameTeamMaster>::CEntityFactory<CGameTeamMaster>
PUBLIC	?Create@?$CEntityFactory@VCGameTeamMaster@@@@UAEPAVCBaseEntity@@PBDPAUentvars_s@@@Z ; CEntityFactory<CGameTeamMaster>::Create
PUBLIC	?Destroy@?$CEntityFactory@VCGameTeamMaster@@@@UAEXPAVCBaseEntity@@@Z ; CEntityFactory<CGameTeamMaster>::Destroy
PUBLIC	?GetEntitySize@?$CEntityFactory@VCGameTeamMaster@@@@UAEIXZ ; CEntityFactory<CGameTeamMaster>::GetEntitySize
PUBLIC	?Use@CGameTeamSet@@UAEXPAVCBaseEntity@@0W4USE_TYPE@@M@Z ; CGameTeamSet::Use
PUBLIC	?RemoveOnFire@CGameTeamSet@@QAEHXZ		; CGameTeamSet::RemoveOnFire
PUBLIC	?ShouldClearTeam@CGameTeamSet@@QAEHXZ		; CGameTeamSet::ShouldClearTeam
PUBLIC	??0CGameTeamSet@@QAE@XZ				; CGameTeamSet::CGameTeamSet
PUBLIC	??0?$CEntityFactory@VCGameTeamSet@@@@QAE@PBD@Z	; CEntityFactory<CGameTeamSet>::CEntityFactory<CGameTeamSet>
PUBLIC	?Create@?$CEntityFactory@VCGameTeamSet@@@@UAEPAVCBaseEntity@@PBDPAUentvars_s@@@Z ; CEntityFactory<CGameTeamSet>::Create
PUBLIC	?Destroy@?$CEntityFactory@VCGameTeamSet@@@@UAEXPAVCBaseEntity@@@Z ; CEntityFactory<CGameTeamSet>::Destroy
PUBLIC	?GetEntitySize@?$CEntityFactory@VCGameTeamSet@@@@UAEIXZ ; CEntityFactory<CGameTeamSet>::GetEntitySize
PUBLIC	?KeyValue@CGamePlayerZone@@UAEXPAUKeyValueData_s@@@Z ; CGamePlayerZone::KeyValue
PUBLIC	?Use@CGamePlayerZone@@UAEXPAVCBaseEntity@@0W4USE_TYPE@@M@Z ; CGamePlayerZone::Use
PUBLIC	?GetBaseMap@CGamePlayerZone@@SAPAUdatamap_s@@XZ	; CGamePlayerZone::GetBaseMap
PUBLIC	?GetDataDescMap@CGamePlayerZone@@UAEPAUdatamap_s@@XZ ; CGamePlayerZone::GetDataDescMap
PUBLIC	??0CGamePlayerZone@@QAE@XZ			; CGamePlayerZone::CGamePlayerZone
PUBLIC	??0?$CEntityFactory@VCGamePlayerZone@@@@QAE@PBD@Z ; CEntityFactory<CGamePlayerZone>::CEntityFactory<CGamePlayerZone>
PUBLIC	?Create@?$CEntityFactory@VCGamePlayerZone@@@@UAEPAVCBaseEntity@@PBDPAUentvars_s@@@Z ; CEntityFactory<CGamePlayerZone>::Create
PUBLIC	?Destroy@?$CEntityFactory@VCGamePlayerZone@@@@UAEXPAVCBaseEntity@@@Z ; CEntityFactory<CGamePlayerZone>::Destroy
PUBLIC	?GetEntitySize@?$CEntityFactory@VCGamePlayerZone@@@@UAEIXZ ; CEntityFactory<CGamePlayerZone>::GetEntitySize
PUBLIC	??$DataMapAccess@VCRuleBrushEntity@@@@YAXPAVCRuleBrushEntity@@PAPAUdatamap_s@@@Z ; DataMapAccess<CRuleBrushEntity>
PUBLIC	??$DataMapInit@VCGamePlayerZone@@@@YAPAUdatamap_s@@PAVCGamePlayerZone@@@Z ; DataMapInit<CGamePlayerZone>
PUBLIC	?Use@CGamePlayerHurt@@UAEXPAVCBaseEntity@@0W4USE_TYPE@@M@Z ; CGamePlayerHurt::Use
PUBLIC	?RemoveOnFire@CGamePlayerHurt@@QAEHXZ		; CGamePlayerHurt::RemoveOnFire
PUBLIC	??0CGamePlayerHurt@@QAE@XZ			; CGamePlayerHurt::CGamePlayerHurt
PUBLIC	??0?$CEntityFactory@VCGamePlayerHurt@@@@QAE@PBD@Z ; CEntityFactory<CGamePlayerHurt>::CEntityFactory<CGamePlayerHurt>
PUBLIC	?Create@?$CEntityFactory@VCGamePlayerHurt@@@@UAEPAVCBaseEntity@@PBDPAUentvars_s@@@Z ; CEntityFactory<CGamePlayerHurt>::Create
PUBLIC	?Destroy@?$CEntityFactory@VCGamePlayerHurt@@@@UAEXPAVCBaseEntity@@@Z ; CEntityFactory<CGamePlayerHurt>::Destroy
PUBLIC	?GetEntitySize@?$CEntityFactory@VCGamePlayerHurt@@@@UAEIXZ ; CEntityFactory<CGamePlayerHurt>::GetEntitySize
PUBLIC	?Spawn@CGameCounter@@UAEXXZ			; CGameCounter::Spawn
PUBLIC	?Use@CGameCounter@@UAEXPAVCBaseEntity@@0W4USE_TYPE@@M@Z ; CGameCounter::Use
PUBLIC	?RemoveOnFire@CGameCounter@@QAEHXZ		; CGameCounter::RemoveOnFire
PUBLIC	?ResetOnFire@CGameCounter@@QAEHXZ		; CGameCounter::ResetOnFire
PUBLIC	?CountUp@CGameCounter@@QAEXXZ			; CGameCounter::CountUp
PUBLIC	?CountDown@CGameCounter@@QAEXXZ			; CGameCounter::CountDown
PUBLIC	?ResetCount@CGameCounter@@QAEXXZ		; CGameCounter::ResetCount
PUBLIC	?CountValue@CGameCounter@@QAEHXZ		; CGameCounter::CountValue
PUBLIC	?LimitValue@CGameCounter@@QAEHXZ		; CGameCounter::LimitValue
PUBLIC	?HitLimit@CGameCounter@@QAEHXZ			; CGameCounter::HitLimit
PUBLIC	?SetCountValue@CGameCounter@@AAEXH@Z		; CGameCounter::SetCountValue
PUBLIC	?SetInitialValue@CGameCounter@@AAEXH@Z		; CGameCounter::SetInitialValue
PUBLIC	??0CGameCounter@@QAE@XZ				; CGameCounter::CGameCounter
PUBLIC	??0?$CEntityFactory@VCGameCounter@@@@QAE@PBD@Z	; CEntityFactory<CGameCounter>::CEntityFactory<CGameCounter>
PUBLIC	?Create@?$CEntityFactory@VCGameCounter@@@@UAEPAVCBaseEntity@@PBDPAUentvars_s@@@Z ; CEntityFactory<CGameCounter>::Create
PUBLIC	?Destroy@?$CEntityFactory@VCGameCounter@@@@UAEXPAVCBaseEntity@@@Z ; CEntityFactory<CGameCounter>::Destroy
PUBLIC	?GetEntitySize@?$CEntityFactory@VCGameCounter@@@@UAEIXZ ; CEntityFactory<CGameCounter>::GetEntitySize
PUBLIC	?Use@CGameCounterSet@@UAEXPAVCBaseEntity@@0W4USE_TYPE@@M@Z ; CGameCounterSet::Use
PUBLIC	?RemoveOnFire@CGameCounterSet@@QAEHXZ		; CGameCounterSet::RemoveOnFire
PUBLIC	??0CGameCounterSet@@QAE@XZ			; CGameCounterSet::CGameCounterSet
PUBLIC	??0?$CEntityFactory@VCGameCounterSet@@@@QAE@PBD@Z ; CEntityFactory<CGameCounterSet>::CEntityFactory<CGameCounterSet>
PUBLIC	?Create@?$CEntityFactory@VCGameCounterSet@@@@UAEPAVCBaseEntity@@PBDPAUentvars_s@@@Z ; CEntityFactory<CGameCounterSet>::Create
PUBLIC	?Destroy@?$CEntityFactory@VCGameCounterSet@@@@UAEXPAVCBaseEntity@@@Z ; CEntityFactory<CGameCounterSet>::Destroy
PUBLIC	?GetEntitySize@?$CEntityFactory@VCGameCounterSet@@@@UAEIXZ ; CEntityFactory<CGameCounterSet>::GetEntitySize
PUBLIC	?KeyValue@CGamePlayerEquip@@UAEXPAUKeyValueData_s@@@Z ; CGamePlayerEquip::KeyValue
PUBLIC	?Touch@CGamePlayerEquip@@UAEXPAVCBaseEntity@@@Z	; CGamePlayerEquip::Touch
PUBLIC	?Use@CGamePlayerEquip@@UAEXPAVCBaseEntity@@0W4USE_TYPE@@M@Z ; CGamePlayerEquip::Use
PUBLIC	?UseOnly@CGamePlayerEquip@@QAEHXZ		; CGamePlayerEquip::UseOnly
PUBLIC	?EquipPlayer@CGamePlayerEquip@@AAEXPAVCBaseEntity@@@Z ; CGamePlayerEquip::EquipPlayer
PUBLIC	??0CGamePlayerEquip@@QAE@XZ			; CGamePlayerEquip::CGamePlayerEquip
PUBLIC	??0?$CEntityFactory@VCGamePlayerEquip@@@@QAE@PBD@Z ; CEntityFactory<CGamePlayerEquip>::CEntityFactory<CGamePlayerEquip>
PUBLIC	?Create@?$CEntityFactory@VCGamePlayerEquip@@@@UAEPAVCBaseEntity@@PBDPAUentvars_s@@@Z ; CEntityFactory<CGamePlayerEquip>::Create
PUBLIC	?Destroy@?$CEntityFactory@VCGamePlayerEquip@@@@UAEXPAVCBaseEntity@@@Z ; CEntityFactory<CGamePlayerEquip>::Destroy
PUBLIC	?GetEntitySize@?$CEntityFactory@VCGamePlayerEquip@@@@UAEIXZ ; CEntityFactory<CGamePlayerEquip>::GetEntitySize
PUBLIC	?Use@CGamePlayerTeam@@UAEXPAVCBaseEntity@@0W4USE_TYPE@@M@Z ; CGamePlayerTeam::Use
PUBLIC	?RemoveOnFire@CGamePlayerTeam@@AAEHXZ		; CGamePlayerTeam::RemoveOnFire
PUBLIC	?ShouldKillPlayer@CGamePlayerTeam@@AAEHXZ	; CGamePlayerTeam::ShouldKillPlayer
PUBLIC	?ShouldGibPlayer@CGamePlayerTeam@@AAEHXZ	; CGamePlayerTeam::ShouldGibPlayer
PUBLIC	?TargetTeamName@CGamePlayerTeam@@AAEPBDPBD@Z	; CGamePlayerTeam::TargetTeamName
PUBLIC	??0CGamePlayerTeam@@QAE@XZ			; CGamePlayerTeam::CGamePlayerTeam
PUBLIC	??0?$CEntityFactory@VCGamePlayerTeam@@@@QAE@PBD@Z ; CEntityFactory<CGamePlayerTeam>::CEntityFactory<CGamePlayerTeam>
PUBLIC	?Create@?$CEntityFactory@VCGamePlayerTeam@@@@UAEPAVCBaseEntity@@PBDPAUentvars_s@@@Z ; CEntityFactory<CGamePlayerTeam>::Create
PUBLIC	?Destroy@?$CEntityFactory@VCGamePlayerTeam@@@@UAEXPAVCBaseEntity@@@Z ; CEntityFactory<CGamePlayerTeam>::Destroy
PUBLIC	?GetEntitySize@?$CEntityFactory@VCGamePlayerTeam@@@@UAEIXZ ; CEntityFactory<CGamePlayerTeam>::GetEntitySize
PUBLIC	??$GetClassPtr@VCGamePlayerTeam@@@@YAPAVCGamePlayerTeam@@PAV0@PBD@Z ; GetClassPtr<CGamePlayerTeam>
PUBLIC	??$GetClassPtr@VCGamePlayerEquip@@@@YAPAVCGamePlayerEquip@@PAV0@PBD@Z ; GetClassPtr<CGamePlayerEquip>
PUBLIC	??$GetClassPtr@VCGameCounterSet@@@@YAPAVCGameCounterSet@@PAV0@PBD@Z ; GetClassPtr<CGameCounterSet>
PUBLIC	??$GetClassPtr@VCGameCounter@@@@YAPAVCGameCounter@@PAV0@PBD@Z ; GetClassPtr<CGameCounter>
PUBLIC	??$GetClassPtr@VCGamePlayerHurt@@@@YAPAVCGamePlayerHurt@@PAV0@PBD@Z ; GetClassPtr<CGamePlayerHurt>
PUBLIC	??$GetClassPtr@VCGamePlayerZone@@@@YAPAVCGamePlayerZone@@PAV0@PBD@Z ; GetClassPtr<CGamePlayerZone>
PUBLIC	??$GetClassPtr@VCGameTeamSet@@@@YAPAVCGameTeamSet@@PAV0@PBD@Z ; GetClassPtr<CGameTeamSet>
PUBLIC	??$GetClassPtr@VCGameTeamMaster@@@@YAPAVCGameTeamMaster@@PAV0@PBD@Z ; GetClassPtr<CGameTeamMaster>
PUBLIC	??$GetClassPtr@VCGameText@@@@YAPAVCGameText@@PAV0@PBD@Z ; GetClassPtr<CGameText>
PUBLIC	??$GetClassPtr@VCGameEnd@@@@YAPAVCGameEnd@@PAV0@PBD@Z ; GetClassPtr<CGameEnd>
PUBLIC	??$GetClassPtr@VCGameScore@@@@YAPAVCGameScore@@PAV0@PBD@Z ; GetClassPtr<CGameScore>
PUBLIC	??$Destruct@PAD@@YAXPAPAD@Z			; Destruct<char *>
PUBLIC	??_7IEntityFactory@@6B@				; IEntityFactory::`vftable'
PUBLIC	??_C@_0BF@CPEPILID@Bad?5ent?5in?5OFFSET?$CI?$CJ?6@ ; `string'
PUBLIC	??_C@_0BF@DOONGEFO@Bad?5pev?5in?5OFFSET?$CI?$CJ?6@ ; `string'
PUBLIC	??_C@_00CNPNBAHC@@				; `string'
PUBLIC	??_7CBaseEntity@@6B@				; CBaseEntity::`vftable'
PUBLIC	??_C@_06MLKDMCBD@parent@			; `string'
PUBLIC	??_C@_08JJJAOBDI@movewith@			; `string'
PUBLIC	??_C@_0M@EAELDHJO@parentflags@			; `string'
PUBLIC	??_C@_05IAKJCFIM@style@				; `string'
PUBLIC	??_C@_0L@IKCANML@reflection@			; `string'
PUBLIC	??_C@_0N@JILDNHAP@vlight_cache@			; `string'
PUBLIC	??_7CRuleEntity@@6B@				; CRuleEntity::`vftable'
PUBLIC	?g_DataMapHolder@CRuleEntity_DataDescInit@@3PAUdatamap_s@@A ; CRuleEntity_DataDescInit::g_DataMapHolder
PUBLIC	??_7CRulePointEntity@@6B@			; CRulePointEntity::`vftable'
PUBLIC	??_7CRuleBrushEntity@@6B@			; CRuleBrushEntity::`vftable'
PUBLIC	??_7CGameScore@@6B@				; CGameScore::`vftable'
PUBLIC	??_7?$CEntityFactory@VCGameScore@@@@6B@		; CEntityFactory<CGameScore>::`vftable'
PUBLIC	??_7CGameEnd@@6B@				; CGameEnd::`vftable'
PUBLIC	??_7?$CEntityFactory@VCGameEnd@@@@6B@		; CEntityFactory<CGameEnd>::`vftable'
PUBLIC	??_7CGameText@@6B@				; CGameText::`vftable'
PUBLIC	??_7?$CEntityFactory@VCGameText@@@@6B@		; CEntityFactory<CGameText>::`vftable'
PUBLIC	?g_DataMapHolder@CGameText_DataDescInit@@3PAUdatamap_s@@A ; CGameText_DataDescInit::g_DataMapHolder
PUBLIC	??_7CGameTeamMaster@@6B@			; CGameTeamMaster::`vftable'
PUBLIC	??_7?$CEntityFactory@VCGameTeamMaster@@@@6B@	; CEntityFactory<CGameTeamMaster>::`vftable'
PUBLIC	??_7CGameTeamSet@@6B@				; CGameTeamSet::`vftable'
PUBLIC	??_7?$CEntityFactory@VCGameTeamSet@@@@6B@	; CEntityFactory<CGameTeamSet>::`vftable'
PUBLIC	??_7CGamePlayerZone@@6B@			; CGamePlayerZone::`vftable'
PUBLIC	??_7?$CEntityFactory@VCGamePlayerZone@@@@6B@	; CEntityFactory<CGamePlayerZone>::`vftable'
PUBLIC	?g_DataMapHolder@CGamePlayerZone_DataDescInit@@3PAUdatamap_s@@A ; CGamePlayerZone_DataDescInit::g_DataMapHolder
PUBLIC	??_7CGamePlayerHurt@@6B@			; CGamePlayerHurt::`vftable'
PUBLIC	??_7?$CEntityFactory@VCGamePlayerHurt@@@@6B@	; CEntityFactory<CGamePlayerHurt>::`vftable'
PUBLIC	??_7CGameCounter@@6B@				; CGameCounter::`vftable'
PUBLIC	??_7?$CEntityFactory@VCGameCounter@@@@6B@	; CEntityFactory<CGameCounter>::`vftable'
PUBLIC	??_7CGameCounterSet@@6B@			; CGameCounterSet::`vftable'
PUBLIC	??_7?$CEntityFactory@VCGameCounterSet@@@@6B@	; CEntityFactory<CGameCounterSet>::`vftable'
PUBLIC	??_7CGamePlayerEquip@@6B@			; CGamePlayerEquip::`vftable'
PUBLIC	??_7?$CEntityFactory@VCGamePlayerEquip@@@@6B@	; CEntityFactory<CGamePlayerEquip>::`vftable'
PUBLIC	??_7CGamePlayerTeam@@6B@			; CGamePlayerTeam::`vftable'
PUBLIC	??_7?$CEntityFactory@VCGamePlayerTeam@@@@6B@	; CEntityFactory<CGamePlayerTeam>::`vftable'
PUBLIC	??_C@_1MO@LCPOAHHB@?$AAc?$AA?3?$AA?2?$AAu?$AAs?$AAe?$AAr?$AAs?$AA?2?$AAu?$AAs?$AAe?$AAr?$AA?2?$AAd@ ; `string'
PUBLIC	??_C@_1BM@PFNFCCHH@?$AA?$CB?$AAI?$AAs?$AAR?$AAe?$AAa?$AAd?$AAO?$AAn?$AAl?$AAy?$AA?$CI?$AA?$CJ@ ; `string'
PUBLIC	??_C@_1BM@CKILBAKK@?$AAI?$AAs?$AAI?$AAd?$AAx?$AAV?$AAa?$AAl?$AAi?$AAd?$AA?$CI?$AAi?$AA?$CJ@ ; `string'
PUBLIC	??_R4CBaseEntity@@6B@				; CBaseEntity::`RTTI Complete Object Locator'
PUBLIC	??_R0?AVCBaseEntity@@@8				; CBaseEntity `RTTI Type Descriptor'
PUBLIC	??_R3CBaseEntity@@8				; CBaseEntity::`RTTI Class Hierarchy Descriptor'
PUBLIC	??_R2CBaseEntity@@8				; CBaseEntity::`RTTI Base Class Array'
PUBLIC	??_R1A@?0A@EA@CBaseEntity@@8			; CBaseEntity::`RTTI Base Class Descriptor at (0,-1,0,64)'
PUBLIC	??_R4IEntityFactory@@6B@			; IEntityFactory::`RTTI Complete Object Locator'
PUBLIC	??_R0?AVIEntityFactory@@@8			; IEntityFactory `RTTI Type Descriptor'
PUBLIC	??_R3IEntityFactory@@8				; IEntityFactory::`RTTI Class Hierarchy Descriptor'
PUBLIC	??_R2IEntityFactory@@8				; IEntityFactory::`RTTI Base Class Array'
PUBLIC	??_R1A@?0A@EA@IEntityFactory@@8			; IEntityFactory::`RTTI Base Class Descriptor at (0,-1,0,64)'
PUBLIC	??_R4CRuleEntity@@6B@				; CRuleEntity::`RTTI Complete Object Locator'
PUBLIC	??_R0?AVCRuleEntity@@@8				; CRuleEntity `RTTI Type Descriptor'
PUBLIC	??_R3CRuleEntity@@8				; CRuleEntity::`RTTI Class Hierarchy Descriptor'
PUBLIC	??_R2CRuleEntity@@8				; CRuleEntity::`RTTI Base Class Array'
PUBLIC	??_R1A@?0A@EA@CRuleEntity@@8			; CRuleEntity::`RTTI Base Class Descriptor at (0,-1,0,64)'
PUBLIC	??_R4CRulePointEntity@@6B@			; CRulePointEntity::`RTTI Complete Object Locator'
PUBLIC	??_R0?AVCRulePointEntity@@@8			; CRulePointEntity `RTTI Type Descriptor'
PUBLIC	??_R3CRulePointEntity@@8			; CRulePointEntity::`RTTI Class Hierarchy Descriptor'
PUBLIC	??_R2CRulePointEntity@@8			; CRulePointEntity::`RTTI Base Class Array'
PUBLIC	??_R1A@?0A@EA@CRulePointEntity@@8		; CRulePointEntity::`RTTI Base Class Descriptor at (0,-1,0,64)'
PUBLIC	??_R4CRuleBrushEntity@@6B@			; CRuleBrushEntity::`RTTI Complete Object Locator'
PUBLIC	??_R0?AVCRuleBrushEntity@@@8			; CRuleBrushEntity `RTTI Type Descriptor'
PUBLIC	??_R3CRuleBrushEntity@@8			; CRuleBrushEntity::`RTTI Class Hierarchy Descriptor'
PUBLIC	??_R2CRuleBrushEntity@@8			; CRuleBrushEntity::`RTTI Base Class Array'
PUBLIC	??_R1A@?0A@EA@CRuleBrushEntity@@8		; CRuleBrushEntity::`RTTI Base Class Descriptor at (0,-1,0,64)'
PUBLIC	??_R4CGameScore@@6B@				; CGameScore::`RTTI Complete Object Locator'
PUBLIC	??_R0?AVCGameScore@@@8				; CGameScore `RTTI Type Descriptor'
PUBLIC	??_R3CGameScore@@8				; CGameScore::`RTTI Class Hierarchy Descriptor'
PUBLIC	??_R2CGameScore@@8				; CGameScore::`RTTI Base Class Array'
PUBLIC	??_R1A@?0A@EA@CGameScore@@8			; CGameScore::`RTTI Base Class Descriptor at (0,-1,0,64)'
PUBLIC	??_R4?$CEntityFactory@VCGameScore@@@@6B@	; CEntityFactory<CGameScore>::`RTTI Complete Object Locator'
PUBLIC	??_R0?AV?$CEntityFactory@VCGameScore@@@@@8	; CEntityFactory<CGameScore> `RTTI Type Descriptor'
PUBLIC	??_R3?$CEntityFactory@VCGameScore@@@@8		; CEntityFactory<CGameScore>::`RTTI Class Hierarchy Descriptor'
PUBLIC	??_R2?$CEntityFactory@VCGameScore@@@@8		; CEntityFactory<CGameScore>::`RTTI Base Class Array'
PUBLIC	??_R1A@?0A@EA@?$CEntityFactory@VCGameScore@@@@8	; CEntityFactory<CGameScore>::`RTTI Base Class Descriptor at (0,-1,0,64)'
PUBLIC	??_R4CGameEnd@@6B@				; CGameEnd::`RTTI Complete Object Locator'
PUBLIC	??_R0?AVCGameEnd@@@8				; CGameEnd `RTTI Type Descriptor'
PUBLIC	??_R3CGameEnd@@8				; CGameEnd::`RTTI Class Hierarchy Descriptor'
PUBLIC	??_R2CGameEnd@@8				; CGameEnd::`RTTI Base Class Array'
PUBLIC	??_R1A@?0A@EA@CGameEnd@@8			; CGameEnd::`RTTI Base Class Descriptor at (0,-1,0,64)'
PUBLIC	??_R4?$CEntityFactory@VCGameEnd@@@@6B@		; CEntityFactory<CGameEnd>::`RTTI Complete Object Locator'
PUBLIC	??_R0?AV?$CEntityFactory@VCGameEnd@@@@@8	; CEntityFactory<CGameEnd> `RTTI Type Descriptor'
PUBLIC	??_R3?$CEntityFactory@VCGameEnd@@@@8		; CEntityFactory<CGameEnd>::`RTTI Class Hierarchy Descriptor'
PUBLIC	??_R2?$CEntityFactory@VCGameEnd@@@@8		; CEntityFactory<CGameEnd>::`RTTI Base Class Array'
PUBLIC	??_R1A@?0A@EA@?$CEntityFactory@VCGameEnd@@@@8	; CEntityFactory<CGameEnd>::`RTTI Base Class Descriptor at (0,-1,0,64)'
PUBLIC	??_R4CGameText@@6B@				; CGameText::`RTTI Complete Object Locator'
PUBLIC	??_R0?AVCGameText@@@8				; CGameText `RTTI Type Descriptor'
PUBLIC	??_R3CGameText@@8				; CGameText::`RTTI Class Hierarchy Descriptor'
PUBLIC	??_R2CGameText@@8				; CGameText::`RTTI Base Class Array'
PUBLIC	??_R1A@?0A@EA@CGameText@@8			; CGameText::`RTTI Base Class Descriptor at (0,-1,0,64)'
PUBLIC	??_R4?$CEntityFactory@VCGameText@@@@6B@		; CEntityFactory<CGameText>::`RTTI Complete Object Locator'
PUBLIC	??_R0?AV?$CEntityFactory@VCGameText@@@@@8	; CEntityFactory<CGameText> `RTTI Type Descriptor'
PUBLIC	??_R3?$CEntityFactory@VCGameText@@@@8		; CEntityFactory<CGameText>::`RTTI Class Hierarchy Descriptor'
PUBLIC	??_R2?$CEntityFactory@VCGameText@@@@8		; CEntityFactory<CGameText>::`RTTI Base Class Array'
PUBLIC	??_R1A@?0A@EA@?$CEntityFactory@VCGameText@@@@8	; CEntityFactory<CGameText>::`RTTI Base Class Descriptor at (0,-1,0,64)'
PUBLIC	??_R4CGameTeamMaster@@6B@			; CGameTeamMaster::`RTTI Complete Object Locator'
PUBLIC	??_R0?AVCGameTeamMaster@@@8			; CGameTeamMaster `RTTI Type Descriptor'
PUBLIC	??_R3CGameTeamMaster@@8				; CGameTeamMaster::`RTTI Class Hierarchy Descriptor'
PUBLIC	??_R2CGameTeamMaster@@8				; CGameTeamMaster::`RTTI Base Class Array'
PUBLIC	??_R1A@?0A@EA@CGameTeamMaster@@8		; CGameTeamMaster::`RTTI Base Class Descriptor at (0,-1,0,64)'
PUBLIC	??_R4?$CEntityFactory@VCGameTeamMaster@@@@6B@	; CEntityFactory<CGameTeamMaster>::`RTTI Complete Object Locator'
PUBLIC	??_R0?AV?$CEntityFactory@VCGameTeamMaster@@@@@8	; CEntityFactory<CGameTeamMaster> `RTTI Type Descriptor'
PUBLIC	??_R3?$CEntityFactory@VCGameTeamMaster@@@@8	; CEntityFactory<CGameTeamMaster>::`RTTI Class Hierarchy Descriptor'
PUBLIC	??_R2?$CEntityFactory@VCGameTeamMaster@@@@8	; CEntityFactory<CGameTeamMaster>::`RTTI Base Class Array'
PUBLIC	??_R1A@?0A@EA@?$CEntityFactory@VCGameTeamMaster@@@@8 ; CEntityFactory<CGameTeamMaster>::`RTTI Base Class Descriptor at (0,-1,0,64)'
PUBLIC	??_R4CGameTeamSet@@6B@				; CGameTeamSet::`RTTI Complete Object Locator'
PUBLIC	??_R0?AVCGameTeamSet@@@8			; CGameTeamSet `RTTI Type Descriptor'
PUBLIC	??_R3CGameTeamSet@@8				; CGameTeamSet::`RTTI Class Hierarchy Descriptor'
PUBLIC	??_R2CGameTeamSet@@8				; CGameTeamSet::`RTTI Base Class Array'
PUBLIC	??_R1A@?0A@EA@CGameTeamSet@@8			; CGameTeamSet::`RTTI Base Class Descriptor at (0,-1,0,64)'
PUBLIC	??_R4?$CEntityFactory@VCGameTeamSet@@@@6B@	; CEntityFactory<CGameTeamSet>::`RTTI Complete Object Locator'
PUBLIC	??_R0?AV?$CEntityFactory@VCGameTeamSet@@@@@8	; CEntityFactory<CGameTeamSet> `RTTI Type Descriptor'
PUBLIC	??_R3?$CEntityFactory@VCGameTeamSet@@@@8	; CEntityFactory<CGameTeamSet>::`RTTI Class Hierarchy Descriptor'
PUBLIC	??_R2?$CEntityFactory@VCGameTeamSet@@@@8	; CEntityFactory<CGameTeamSet>::`RTTI Base Class Array'
PUBLIC	??_R1A@?0A@EA@?$CEntityFactory@VCGameTeamSet@@@@8 ; CEntityFactory<CGameTeamSet>::`RTTI Base Class Descriptor at (0,-1,0,64)'
PUBLIC	??_R4CGamePlayerZone@@6B@			; CGamePlayerZone::`RTTI Complete Object Locator'
PUBLIC	??_R0?AVCGamePlayerZone@@@8			; CGamePlayerZone `RTTI Type Descriptor'
PUBLIC	??_R3CGamePlayerZone@@8				; CGamePlayerZone::`RTTI Class Hierarchy Descriptor'
PUBLIC	??_R2CGamePlayerZone@@8				; CGamePlayerZone::`RTTI Base Class Array'
PUBLIC	??_R1A@?0A@EA@CGamePlayerZone@@8		; CGamePlayerZone::`RTTI Base Class Descriptor at (0,-1,0,64)'
PUBLIC	??_R4?$CEntityFactory@VCGamePlayerZone@@@@6B@	; CEntityFactory<CGamePlayerZone>::`RTTI Complete Object Locator'
PUBLIC	??_R0?AV?$CEntityFactory@VCGamePlayerZone@@@@@8	; CEntityFactory<CGamePlayerZone> `RTTI Type Descriptor'
PUBLIC	??_R3?$CEntityFactory@VCGamePlayerZone@@@@8	; CEntityFactory<CGamePlayerZone>::`RTTI Class Hierarchy Descriptor'
PUBLIC	??_R2?$CEntityFactory@VCGamePlayerZone@@@@8	; CEntityFactory<CGamePlayerZone>::`RTTI Base Class Array'
PUBLIC	??_R1A@?0A@EA@?$CEntityFactory@VCGamePlayerZone@@@@8 ; CEntityFactory<CGamePlayerZone>::`RTTI Base Class Descriptor at (0,-1,0,64)'
PUBLIC	??_R4CGamePlayerHurt@@6B@			; CGamePlayerHurt::`RTTI Complete Object Locator'
PUBLIC	??_R0?AVCGamePlayerHurt@@@8			; CGamePlayerHurt `RTTI Type Descriptor'
PUBLIC	??_R3CGamePlayerHurt@@8				; CGamePlayerHurt::`RTTI Class Hierarchy Descriptor'
PUBLIC	??_R2CGamePlayerHurt@@8				; CGamePlayerHurt::`RTTI Base Class Array'
PUBLIC	??_R1A@?0A@EA@CGamePlayerHurt@@8		; CGamePlayerHurt::`RTTI Base Class Descriptor at (0,-1,0,64)'
PUBLIC	??_R4?$CEntityFactory@VCGamePlayerHurt@@@@6B@	; CEntityFactory<CGamePlayerHurt>::`RTTI Complete Object Locator'
PUBLIC	??_R0?AV?$CEntityFactory@VCGamePlayerHurt@@@@@8	; CEntityFactory<CGamePlayerHurt> `RTTI Type Descriptor'
PUBLIC	??_R3?$CEntityFactory@VCGamePlayerHurt@@@@8	; CEntityFactory<CGamePlayerHurt>::`RTTI Class Hierarchy Descriptor'
PUBLIC	??_R2?$CEntityFactory@VCGamePlayerHurt@@@@8	; CEntityFactory<CGamePlayerHurt>::`RTTI Base Class Array'
PUBLIC	??_R1A@?0A@EA@?$CEntityFactory@VCGamePlayerHurt@@@@8 ; CEntityFactory<CGamePlayerHurt>::`RTTI Base Class Descriptor at (0,-1,0,64)'
PUBLIC	??_R4CGameCounter@@6B@				; CGameCounter::`RTTI Complete Object Locator'
PUBLIC	??_R0?AVCGameCounter@@@8			; CGameCounter `RTTI Type Descriptor'
PUBLIC	??_R3CGameCounter@@8				; CGameCounter::`RTTI Class Hierarchy Descriptor'
PUBLIC	??_R2CGameCounter@@8				; CGameCounter::`RTTI Base Class Array'
PUBLIC	??_R1A@?0A@EA@CGameCounter@@8			; CGameCounter::`RTTI Base Class Descriptor at (0,-1,0,64)'
PUBLIC	??_R4?$CEntityFactory@VCGameCounter@@@@6B@	; CEntityFactory<CGameCounter>::`RTTI Complete Object Locator'
PUBLIC	??_R0?AV?$CEntityFactory@VCGameCounter@@@@@8	; CEntityFactory<CGameCounter> `RTTI Type Descriptor'
PUBLIC	??_R3?$CEntityFactory@VCGameCounter@@@@8	; CEntityFactory<CGameCounter>::`RTTI Class Hierarchy Descriptor'
PUBLIC	??_R2?$CEntityFactory@VCGameCounter@@@@8	; CEntityFactory<CGameCounter>::`RTTI Base Class Array'
PUBLIC	??_R1A@?0A@EA@?$CEntityFactory@VCGameCounter@@@@8 ; CEntityFactory<CGameCounter>::`RTTI Base Class Descriptor at (0,-1,0,64)'
PUBLIC	??_R4CGameCounterSet@@6B@			; CGameCounterSet::`RTTI Complete Object Locator'
PUBLIC	??_R0?AVCGameCounterSet@@@8			; CGameCounterSet `RTTI Type Descriptor'
PUBLIC	??_R3CGameCounterSet@@8				; CGameCounterSet::`RTTI Class Hierarchy Descriptor'
PUBLIC	??_R2CGameCounterSet@@8				; CGameCounterSet::`RTTI Base Class Array'
PUBLIC	??_R1A@?0A@EA@CGameCounterSet@@8		; CGameCounterSet::`RTTI Base Class Descriptor at (0,-1,0,64)'
PUBLIC	??_R4?$CEntityFactory@VCGameCounterSet@@@@6B@	; CEntityFactory<CGameCounterSet>::`RTTI Complete Object Locator'
PUBLIC	??_R0?AV?$CEntityFactory@VCGameCounterSet@@@@@8	; CEntityFactory<CGameCounterSet> `RTTI Type Descriptor'
PUBLIC	??_R3?$CEntityFactory@VCGameCounterSet@@@@8	; CEntityFactory<CGameCounterSet>::`RTTI Class Hierarchy Descriptor'
PUBLIC	??_R2?$CEntityFactory@VCGameCounterSet@@@@8	; CEntityFactory<CGameCounterSet>::`RTTI Base Class Array'
PUBLIC	??_R1A@?0A@EA@?$CEntityFactory@VCGameCounterSet@@@@8 ; CEntityFactory<CGameCounterSet>::`RTTI Base Class Descriptor at (0,-1,0,64)'
PUBLIC	??_R4CGamePlayerEquip@@6B@			; CGamePlayerEquip::`RTTI Complete Object Locator'
PUBLIC	??_R0?AVCGamePlayerEquip@@@8			; CGamePlayerEquip `RTTI Type Descriptor'
PUBLIC	??_R3CGamePlayerEquip@@8			; CGamePlayerEquip::`RTTI Class Hierarchy Descriptor'
PUBLIC	??_R2CGamePlayerEquip@@8			; CGamePlayerEquip::`RTTI Base Class Array'
PUBLIC	??_R1A@?0A@EA@CGamePlayerEquip@@8		; CGamePlayerEquip::`RTTI Base Class Descriptor at (0,-1,0,64)'
PUBLIC	??_R4?$CEntityFactory@VCGamePlayerEquip@@@@6B@	; CEntityFactory<CGamePlayerEquip>::`RTTI Complete Object Locator'
PUBLIC	??_R0?AV?$CEntityFactory@VCGamePlayerEquip@@@@@8 ; CEntityFactory<CGamePlayerEquip> `RTTI Type Descriptor'
PUBLIC	??_R3?$CEntityFactory@VCGamePlayerEquip@@@@8	; CEntityFactory<CGamePlayerEquip>::`RTTI Class Hierarchy Descriptor'
PUBLIC	??_R2?$CEntityFactory@VCGamePlayerEquip@@@@8	; CEntityFactory<CGamePlayerEquip>::`RTTI Base Class Array'
PUBLIC	??_R1A@?0A@EA@?$CEntityFactory@VCGamePlayerEquip@@@@8 ; CEntityFactory<CGamePlayerEquip>::`RTTI Base Class Descriptor at (0,-1,0,64)'
PUBLIC	??_R4CGamePlayerTeam@@6B@			; CGamePlayerTeam::`RTTI Complete Object Locator'
PUBLIC	??_R0?AVCGamePlayerTeam@@@8			; CGamePlayerTeam `RTTI Type Descriptor'
PUBLIC	??_R3CGamePlayerTeam@@8				; CGamePlayerTeam::`RTTI Class Hierarchy Descriptor'
PUBLIC	??_R2CGamePlayerTeam@@8				; CGamePlayerTeam::`RTTI Base Class Array'
PUBLIC	??_R1A@?0A@EA@CGamePlayerTeam@@8		; CGamePlayerTeam::`RTTI Base Class Descriptor at (0,-1,0,64)'
PUBLIC	??_R4?$CEntityFactory@VCGamePlayerTeam@@@@6B@	; CEntityFactory<CGamePlayerTeam>::`RTTI Complete Object Locator'
PUBLIC	??_R0?AV?$CEntityFactory@VCGamePlayerTeam@@@@@8	; CEntityFactory<CGamePlayerTeam> `RTTI Type Descriptor'
PUBLIC	??_R3?$CEntityFactory@VCGamePlayerTeam@@@@8	; CEntityFactory<CGamePlayerTeam>::`RTTI Class Hierarchy Descriptor'
PUBLIC	??_R2?$CEntityFactory@VCGamePlayerTeam@@@@8	; CEntityFactory<CGamePlayerTeam>::`RTTI Base Class Array'
PUBLIC	??_R1A@?0A@EA@?$CEntityFactory@VCGamePlayerTeam@@@@8 ; CEntityFactory<CGamePlayerTeam>::`RTTI Base Class Descriptor at (0,-1,0,64)'
PUBLIC	__real@00000000
PUBLIC	__real@3f000000
PUBLIC	__real@3f800000
PUBLIC	__real@bf800000
PUBLIC	__xmm@80000000800000008000000080000000
EXTRN	__purecall:PROC
EXTRN	??3@YAXPAXI@Z:PROC				; operator delete
EXTRN	_atexit:PROC
EXTRN	__Init_thread_header:PROC
EXTRN	__Init_thread_abort:PROC
EXTRN	__Init_thread_footer:PROC
EXTRN	_memset:PROC
EXTRN	_strlen:PROC
EXTRN	_free:PROC
EXTRN	_malloc:PROC
EXTRN	_atof:PROC
EXTRN	_atoi:PROC
EXTRN	??0matrix4x4@@QAE@XZ:PROC			; matrix4x4::matrix4x4
EXTRN	?Q_atoi@@YAHPBD@Z:PROC				; Q_atoi
EXTRN	?Q_strncmp@@YAHPBD0H@Z:PROC			; Q_strncmp
EXTRN	__wassert:PROC
EXTRN	?UTIL_Remove@@YAXPAVCBaseEntity@@@Z:PROC	; UTIL_Remove
EXTRN	?EntityFactoryDictionary@@YAPAVIEntityFactoryDictionary@@XZ:PROC ; EntityFactoryDictionary
EXTRN	?DBG_EntOfVars@@YAPAUedict_s@@PBUentvars_s@@@Z:PROC ; DBG_EntOfVars
EXTRN	?UTIL_FindEntityByTargetname@@YAPAVCBaseEntity@@PAV1@PBD@Z:PROC ; UTIL_FindEntityByTargetname
EXTRN	?UTIL_PlayerByIndex@@YAPAVCBaseEntity@@H@Z:PROC	; UTIL_PlayerByIndex
EXTRN	?UTIL_FireTargets@@YAXPBDPAVCBaseEntity@@1W4USE_TYPE@@M@Z:PROC ; UTIL_FireTargets
EXTRN	?UTIL_TraceModel@@YAXABVVector@@0HPAUedict_s@@PAUgametrace_s@@@Z:PROC ; UTIL_TraceModel
EXTRN	?UTIL_IsMasterTriggered@@YAHHPAVCBaseEntity@@@Z:PROC ; UTIL_IsMasterTriggered
EXTRN	?UTIL_StringToIntArray@@YAXPAHHPBD@Z:PROC	; UTIL_StringToIntArray
EXTRN	?UTIL_TeamsMatch@@YAHPBD0@Z:PROC		; UTIL_TeamsMatch
EXTRN	?UTIL_HudMessageAll@@YAXABUhudtextparms_s@@PBD@Z:PROC ; UTIL_HudMessageAll
EXTRN	?UTIL_HudMessage@@YAXPAVCBaseEntity@@ABUhudtextparms_s@@PBD@Z:PROC ; UTIL_HudMessage
EXTRN	?UTIL_StripToken@@YAXPBDPAD@Z:PROC		; UTIL_StripToken
EXTRN	?UTIL_GetModelType@@YA?AW4modtype_t@@H@Z:PROC	; UTIL_GetModelType
EXTRN	??0CMeshDesc@@QAE@XZ:PROC			; CMeshDesc::CMeshDesc
EXTRN	?GetDataDescMap@CBaseEntity@@UAEPAUdatamap_s@@XZ:PROC ; CBaseEntity::GetDataDescMap
EXTRN	?GetAbsOrigin@CBaseEntity@@QBEABVVector@@XZ:PROC ; CBaseEntity::GetAbsOrigin
EXTRN	?GetAbsVelocity@CBaseEntity@@QBEABVVector@@XZ:PROC ; CBaseEntity::GetAbsVelocity
EXTRN	?Save@CBaseEntity@@UAEHAAVCSave@@@Z:PROC	; CBaseEntity::Save
EXTRN	?Restore@CBaseEntity@@UAEHAAVCRestore@@@Z:PROC	; CBaseEntity::Restore
EXTRN	?SetObjectCollisionBox@CBaseEntity@@UAEXXZ:PROC	; CBaseEntity::SetObjectCollisionBox
EXTRN	?SetNextThink@CBaseEntity@@UAEXM@Z:PROC		; CBaseEntity::SetNextThink
EXTRN	?TraceAttack@CBaseEntity@@UAEXPAUentvars_s@@MVVector@@PAUgametrace_s@@H@Z:PROC ; CBaseEntity::TraceAttack
EXTRN	?TakeDamage@CBaseEntity@@UAEHPAUentvars_s@@0MH@Z:PROC ; CBaseEntity::TakeDamage
EXTRN	?TakeHealth@CBaseEntity@@UAEHMH@Z:PROC		; CBaseEntity::TakeHealth
EXTRN	?TakeArmor@CBaseEntity@@UAEHMH@Z:PROC		; CBaseEntity::TakeArmor
EXTRN	?Killed@CBaseEntity@@UAEXPAUentvars_s@@H@Z:PROC	; CBaseEntity::Killed
EXTRN	?TraceBleed@CBaseEntity@@UAEXMVVector@@PAUgametrace_s@@H@Z:PROC ; CBaseEntity::TraceBleed
EXTRN	?DamageDecal@CBaseEntity@@UAEHH@Z:PROC		; CBaseEntity::DamageDecal
EXTRN	?IsInWorld@CBaseEntity@@UAEHH@Z:PROC		; CBaseEntity::IsInWorld
EXTRN	?GetNextTarget@CBaseEntity@@UAEPAV1@XZ:PROC	; CBaseEntity::GetNextTarget
EXTRN	?SUB_UseTargets@CBaseEntity@@QAEXPAV1@W4USE_TYPE@@MH@Z:PROC ; CBaseEntity::SUB_UseTargets
EXTRN	?FVisible@CBaseEntity@@UAEHPAV1@@Z:PROC		; CBaseEntity::FVisible
EXTRN	?FVisible@CBaseEntity@@UAEHABVVector@@@Z:PROC	; CBaseEntity::FVisible
EXTRN	?ShouldCollide@CBaseEntity@@UAEHPAV1@@Z:PROC	; CBaseEntity::ShouldCollide
EXTRN	?GiveNamedItem@CBasePlayer@@QAEXPBD@Z:PROC	; CBasePlayer::GiveNamedItem
EXTRN	@__security_check_cookie@4:PROC
EXTRN	___CxxFrameHandler3:PROC
EXTRN	__Init_thread_epoch:DWORD
EXTRN	?g_vecZero@@3VVector@@B:BYTE			; g_vecZero
EXTRN	?g_engfuncs@@3Uenginefuncs_s@@A:BYTE		; g_engfuncs
EXTRN	?gpGlobals@@3PAUglobalvars_t@@A:DWORD		; gpGlobals
EXTRN	?g_pGameRules@@3PAVCGameRules@@A:DWORD		; g_pGameRules
EXTRN	?m_DataMap@CBaseEntity@@2Udatamap_s@@A:BYTE	; CBaseEntity::m_DataMap
EXTRN	??_7type_info@@6B@:QWORD			; type_info::`vftable'
EXTRN	___security_cookie:DWORD
EXTRN	__fltused:DWORD
EXTRN	__tls_array:DWORD
EXTRN	__tls_index:DWORD
_BSS	SEGMENT
?g_DataMapHolder@CRuleEntity_DataDescInit@@3PAUdatamap_s@@A DD 01H DUP (?) ; CRuleEntity_DataDescInit::g_DataMapHolder
_BSS	ENDS
;	COMDAT ?nameHolder@?1???$DataMapInit@VCRuleEntity@@@@YAPAUdatamap_s@@PAVCRuleEntity@@@Z@4VCDatadescGeneratedNameHolder@@A
_BSS	SEGMENT
?nameHolder@?1???$DataMapInit@VCRuleEntity@@@@YAPAUdatamap_s@@PAVCRuleEntity@@@Z@4VCDatadescGeneratedNameHolder@@A DB 01cH DUP (?) ; `DataMapInit<CRuleEntity>'::`2'::nameHolder
_BSS	ENDS
;	COMDAT ?$TSS0@?1???$DataMapInit@VCRuleEntity@@@@YAPAUdatamap_s@@PAVCRuleEntity@@@Z@4HA
_BSS	SEGMENT
?$TSS0@?1???$DataMapInit@VCRuleEntity@@@@YAPAUdatamap_s@@PAVCRuleEntity@@@Z@4HA DD 01H DUP (?) ; TSS0<`template-parameter-2',VCRuleEntity::taMapInit>
_BSS	ENDS
_BSS	SEGMENT
?game_score@@3V?$CEntityFactory@VCGameScore@@@@A DD 01H DUP (?) ; game_score
?game_end@@3V?$CEntityFactory@VCGameEnd@@@@A DD 01H DUP (?) ; game_end
?game_text@@3V?$CEntityFactory@VCGameText@@@@A DD 01H DUP (?) ; game_text
?g_DataMapHolder@CGameText_DataDescInit@@3PAUdatamap_s@@A DD 01H DUP (?) ; CGameText_DataDescInit::g_DataMapHolder
_BSS	ENDS
;	COMDAT ?nameHolder@?1???$DataMapInit@VCGameText@@@@YAPAUdatamap_s@@PAVCGameText@@@Z@4VCDatadescGeneratedNameHolder@@A
_BSS	SEGMENT
?nameHolder@?1???$DataMapInit@VCGameText@@@@YAPAUdatamap_s@@PAVCGameText@@@Z@4VCDatadescGeneratedNameHolder@@A DB 01cH DUP (?) ; `DataMapInit<CGameText>'::`2'::nameHolder
_BSS	ENDS
;	COMDAT ?$TSS0@?1???$DataMapInit@VCGameText@@@@YAPAUdatamap_s@@PAVCGameText@@@Z@4HA
_BSS	SEGMENT
?$TSS0@?1???$DataMapInit@VCGameText@@@@YAPAUdatamap_s@@PAVCGameText@@@Z@4HA DD 01H DUP (?) ; TSS0<`template-parameter-2',VCGameText::taMapInit>
_BSS	ENDS
_BSS	SEGMENT
?game_team_master@@3V?$CEntityFactory@VCGameTeamMaster@@@@A DD 01H DUP (?) ; game_team_master
?game_team_set@@3V?$CEntityFactory@VCGameTeamSet@@@@A DD 01H DUP (?) ; game_team_set
?game_zone_player@@3V?$CEntityFactory@VCGamePlayerZone@@@@A DD 01H DUP (?) ; game_zone_player
?g_DataMapHolder@CGamePlayerZone_DataDescInit@@3PAUdatamap_s@@A DD 01H DUP (?) ; CGamePlayerZone_DataDescInit::g_DataMapHolder
_BSS	ENDS
;	COMDAT ?nameHolder@?1???$DataMapInit@VCGamePlayerZone@@@@YAPAUdatamap_s@@PAVCGamePlayerZone@@@Z@4VCDatadescGeneratedNameHolder@@A
_BSS	SEGMENT
?nameHolder@?1???$DataMapInit@VCGamePlayerZone@@@@YAPAUdatamap_s@@PAVCGamePlayerZone@@@Z@4VCDatadescGeneratedNameHolder@@A DB 01cH DUP (?) ; `DataMapInit<CGamePlayerZone>'::`2'::nameHolder
_BSS	ENDS
;	COMDAT ?$TSS0@?1???$DataMapInit@VCGamePlayerZone@@@@YAPAUdatamap_s@@PAVCGamePlayerZone@@@Z@4HA
_BSS	SEGMENT
?$TSS0@?1???$DataMapInit@VCGamePlayerZone@@@@YAPAUdatamap_s@@PAVCGamePlayerZone@@@Z@4HA DD 01H DUP (?) ; TSS0<`template-parameter-2',VCGamePlayerZone::taMapInit>
_BSS	ENDS
_BSS	SEGMENT
?game_player_hurt@@3V?$CEntityFactory@VCGamePlayerHurt@@@@A DD 01H DUP (?) ; game_player_hurt
?game_counter@@3V?$CEntityFactory@VCGameCounter@@@@A DD 01H DUP (?) ; game_counter
?game_counter_set@@3V?$CEntityFactory@VCGameCounterSet@@@@A DD 01H DUP (?) ; game_counter_set
?game_player_equip@@3V?$CEntityFactory@VCGamePlayerEquip@@@@A DD 01H DUP (?) ; game_player_equip
?game_player_team@@3V?$CEntityFactory@VCGamePlayerTeam@@@@A DD 01H DUP (?) ; game_player_team
_BSS	ENDS
CRT$XCU	SEGMENT
?g_DataMapHolder$initializer$@CRuleEntity_DataDescInit@@3P6AXXZA DD FLAT:??__Eg_DataMapHolder@CRuleEntity_DataDescInit@@YAXXZ ; CRuleEntity_DataDescInit::g_DataMapHolder$initializer$
CRT$XCU	ENDS
;	COMDAT __xmm@80000000800000008000000080000000
CONST	SEGMENT
__xmm@80000000800000008000000080000000 DB 00H, 00H, 00H, 080H, 00H, 00H, 00H
	DB	080H, 00H, 00H, 00H, 080H, 00H, 00H, 00H, 080H
CONST	ENDS
;	COMDAT __real@bf800000
CONST	SEGMENT
__real@bf800000 DD 0bf800000r			; -1
CONST	ENDS
;	COMDAT __real@3f800000
CONST	SEGMENT
__real@3f800000 DD 03f800000r			; 1
CONST	ENDS
;	COMDAT __real@3f000000
CONST	SEGMENT
__real@3f000000 DD 03f000000r			; 0.5
CONST	ENDS
;	COMDAT __real@00000000
CONST	SEGMENT
__real@00000000 DD 000000000r			; 0
CONST	ENDS
;	COMDAT ??_R1A@?0A@EA@?$CEntityFactory@VCGamePlayerTeam@@@@8
rdata$r	SEGMENT
??_R1A@?0A@EA@?$CEntityFactory@VCGamePlayerTeam@@@@8 DD FLAT:??_R0?AV?$CEntityFactory@VCGamePlayerTeam@@@@@8 ; CEntityFactory<CGamePlayerTeam>::`RTTI Base Class Descriptor at (0,-1,0,64)'
	DD	01H
	DD	00H
	DD	0ffffffffH
	DD	00H
	DD	040H
	DD	FLAT:??_R3?$CEntityFactory@VCGamePlayerTeam@@@@8
rdata$r	ENDS
;	COMDAT ??_R2?$CEntityFactory@VCGamePlayerTeam@@@@8
rdata$r	SEGMENT
??_R2?$CEntityFactory@VCGamePlayerTeam@@@@8 DD FLAT:??_R1A@?0A@EA@?$CEntityFactory@VCGamePlayerTeam@@@@8 ; CEntityFactory<CGamePlayerTeam>::`RTTI Base Class Array'
	DD	FLAT:??_R1A@?0A@EA@IEntityFactory@@8
rdata$r	ENDS
;	COMDAT ??_R3?$CEntityFactory@VCGamePlayerTeam@@@@8
rdata$r	SEGMENT
??_R3?$CEntityFactory@VCGamePlayerTeam@@@@8 DD 00H	; CEntityFactory<CGamePlayerTeam>::`RTTI Class Hierarchy Descriptor'
	DD	00H
	DD	02H
	DD	FLAT:??_R2?$CEntityFactory@VCGamePlayerTeam@@@@8
rdata$r	ENDS
;	COMDAT ??_R0?AV?$CEntityFactory@VCGamePlayerTeam@@@@@8
data$r	SEGMENT
??_R0?AV?$CEntityFactory@VCGamePlayerTeam@@@@@8 DD FLAT:??_7type_info@@6B@ ; CEntityFactory<CGamePlayerTeam> `RTTI Type Descriptor'
	DD	00H
	DB	'.?AV?$CEntityFactory@VCGamePlayerTeam@@@@', 00H
data$r	ENDS
;	COMDAT ??_R4?$CEntityFactory@VCGamePlayerTeam@@@@6B@
rdata$r	SEGMENT
??_R4?$CEntityFactory@VCGamePlayerTeam@@@@6B@ DD 00H	; CEntityFactory<CGamePlayerTeam>::`RTTI Complete Object Locator'
	DD	00H
	DD	00H
	DD	FLAT:??_R0?AV?$CEntityFactory@VCGamePlayerTeam@@@@@8
	DD	FLAT:??_R3?$CEntityFactory@VCGamePlayerTeam@@@@8
rdata$r	ENDS
;	COMDAT ??_R1A@?0A@EA@CGamePlayerTeam@@8
rdata$r	SEGMENT
??_R1A@?0A@EA@CGamePlayerTeam@@8 DD FLAT:??_R0?AVCGamePlayerTeam@@@8 ; CGamePlayerTeam::`RTTI Base Class Descriptor at (0,-1,0,64)'
	DD	03H
	DD	00H
	DD	0ffffffffH
	DD	00H
	DD	040H
	DD	FLAT:??_R3CGamePlayerTeam@@8
rdata$r	ENDS
;	COMDAT ??_R2CGamePlayerTeam@@8
rdata$r	SEGMENT
??_R2CGamePlayerTeam@@8 DD FLAT:??_R1A@?0A@EA@CGamePlayerTeam@@8 ; CGamePlayerTeam::`RTTI Base Class Array'
	DD	FLAT:??_R1A@?0A@EA@CRulePointEntity@@8
	DD	FLAT:??_R1A@?0A@EA@CRuleEntity@@8
	DD	FLAT:??_R1A@?0A@EA@CBaseEntity@@8
rdata$r	ENDS
;	COMDAT ??_R3CGamePlayerTeam@@8
rdata$r	SEGMENT
??_R3CGamePlayerTeam@@8 DD 00H				; CGamePlayerTeam::`RTTI Class Hierarchy Descriptor'
	DD	00H
	DD	04H
	DD	FLAT:??_R2CGamePlayerTeam@@8
rdata$r	ENDS
;	COMDAT ??_R0?AVCGamePlayerTeam@@@8
data$r	SEGMENT
??_R0?AVCGamePlayerTeam@@@8 DD FLAT:??_7type_info@@6B@	; CGamePlayerTeam `RTTI Type Descriptor'
	DD	00H
	DB	'.?AVCGamePlayerTeam@@', 00H
data$r	ENDS
;	COMDAT ??_R4CGamePlayerTeam@@6B@
rdata$r	SEGMENT
??_R4CGamePlayerTeam@@6B@ DD 00H			; CGamePlayerTeam::`RTTI Complete Object Locator'
	DD	00H
	DD	00H
	DD	FLAT:??_R0?AVCGamePlayerTeam@@@8
	DD	FLAT:??_R3CGamePlayerTeam@@8
rdata$r	ENDS
;	COMDAT ??_R1A@?0A@EA@?$CEntityFactory@VCGamePlayerEquip@@@@8
rdata$r	SEGMENT
??_R1A@?0A@EA@?$CEntityFactory@VCGamePlayerEquip@@@@8 DD FLAT:??_R0?AV?$CEntityFactory@VCGamePlayerEquip@@@@@8 ; CEntityFactory<CGamePlayerEquip>::`RTTI Base Class Descriptor at (0,-1,0,64)'
	DD	01H
	DD	00H
	DD	0ffffffffH
	DD	00H
	DD	040H
	DD	FLAT:??_R3?$CEntityFactory@VCGamePlayerEquip@@@@8
rdata$r	ENDS
;	COMDAT ??_R2?$CEntityFactory@VCGamePlayerEquip@@@@8
rdata$r	SEGMENT
??_R2?$CEntityFactory@VCGamePlayerEquip@@@@8 DD FLAT:??_R1A@?0A@EA@?$CEntityFactory@VCGamePlayerEquip@@@@8 ; CEntityFactory<CGamePlayerEquip>::`RTTI Base Class Array'
	DD	FLAT:??_R1A@?0A@EA@IEntityFactory@@8
rdata$r	ENDS
;	COMDAT ??_R3?$CEntityFactory@VCGamePlayerEquip@@@@8
rdata$r	SEGMENT
??_R3?$CEntityFactory@VCGamePlayerEquip@@@@8 DD 00H	; CEntityFactory<CGamePlayerEquip>::`RTTI Class Hierarchy Descriptor'
	DD	00H
	DD	02H
	DD	FLAT:??_R2?$CEntityFactory@VCGamePlayerEquip@@@@8
rdata$r	ENDS
;	COMDAT ??_R0?AV?$CEntityFactory@VCGamePlayerEquip@@@@@8
data$r	SEGMENT
??_R0?AV?$CEntityFactory@VCGamePlayerEquip@@@@@8 DD FLAT:??_7type_info@@6B@ ; CEntityFactory<CGamePlayerEquip> `RTTI Type Descriptor'
	DD	00H
	DB	'.?AV?$CEntityFactory@VCGamePlayerEquip@@@@', 00H
data$r	ENDS
;	COMDAT ??_R4?$CEntityFactory@VCGamePlayerEquip@@@@6B@
rdata$r	SEGMENT
??_R4?$CEntityFactory@VCGamePlayerEquip@@@@6B@ DD 00H	; CEntityFactory<CGamePlayerEquip>::`RTTI Complete Object Locator'
	DD	00H
	DD	00H
	DD	FLAT:??_R0?AV?$CEntityFactory@VCGamePlayerEquip@@@@@8
	DD	FLAT:??_R3?$CEntityFactory@VCGamePlayerEquip@@@@8
rdata$r	ENDS
;	COMDAT ??_R1A@?0A@EA@CGamePlayerEquip@@8
rdata$r	SEGMENT
??_R1A@?0A@EA@CGamePlayerEquip@@8 DD FLAT:??_R0?AVCGamePlayerEquip@@@8 ; CGamePlayerEquip::`RTTI Base Class Descriptor at (0,-1,0,64)'
	DD	03H
	DD	00H
	DD	0ffffffffH
	DD	00H
	DD	040H
	DD	FLAT:??_R3CGamePlayerEquip@@8
rdata$r	ENDS
;	COMDAT ??_R2CGamePlayerEquip@@8
rdata$r	SEGMENT
??_R2CGamePlayerEquip@@8 DD FLAT:??_R1A@?0A@EA@CGamePlayerEquip@@8 ; CGamePlayerEquip::`RTTI Base Class Array'
	DD	FLAT:??_R1A@?0A@EA@CRulePointEntity@@8
	DD	FLAT:??_R1A@?0A@EA@CRuleEntity@@8
	DD	FLAT:??_R1A@?0A@EA@CBaseEntity@@8
rdata$r	ENDS
;	COMDAT ??_R3CGamePlayerEquip@@8
rdata$r	SEGMENT
??_R3CGamePlayerEquip@@8 DD 00H				; CGamePlayerEquip::`RTTI Class Hierarchy Descriptor'
	DD	00H
	DD	04H
	DD	FLAT:??_R2CGamePlayerEquip@@8
rdata$r	ENDS
;	COMDAT ??_R0?AVCGamePlayerEquip@@@8
data$r	SEGMENT
??_R0?AVCGamePlayerEquip@@@8 DD FLAT:??_7type_info@@6B@	; CGamePlayerEquip `RTTI Type Descriptor'
	DD	00H
	DB	'.?AVCGamePlayerEquip@@', 00H
data$r	ENDS
;	COMDAT ??_R4CGamePlayerEquip@@6B@
rdata$r	SEGMENT
??_R4CGamePlayerEquip@@6B@ DD 00H			; CGamePlayerEquip::`RTTI Complete Object Locator'
	DD	00H
	DD	00H
	DD	FLAT:??_R0?AVCGamePlayerEquip@@@8
	DD	FLAT:??_R3CGamePlayerEquip@@8
rdata$r	ENDS
;	COMDAT ??_R1A@?0A@EA@?$CEntityFactory@VCGameCounterSet@@@@8
rdata$r	SEGMENT
??_R1A@?0A@EA@?$CEntityFactory@VCGameCounterSet@@@@8 DD FLAT:??_R0?AV?$CEntityFactory@VCGameCounterSet@@@@@8 ; CEntityFactory<CGameCounterSet>::`RTTI Base Class Descriptor at (0,-1,0,64)'
	DD	01H
	DD	00H
	DD	0ffffffffH
	DD	00H
	DD	040H
	DD	FLAT:??_R3?$CEntityFactory@VCGameCounterSet@@@@8
rdata$r	ENDS
;	COMDAT ??_R2?$CEntityFactory@VCGameCounterSet@@@@8
rdata$r	SEGMENT
??_R2?$CEntityFactory@VCGameCounterSet@@@@8 DD FLAT:??_R1A@?0A@EA@?$CEntityFactory@VCGameCounterSet@@@@8 ; CEntityFactory<CGameCounterSet>::`RTTI Base Class Array'
	DD	FLAT:??_R1A@?0A@EA@IEntityFactory@@8
rdata$r	ENDS
;	COMDAT ??_R3?$CEntityFactory@VCGameCounterSet@@@@8
rdata$r	SEGMENT
??_R3?$CEntityFactory@VCGameCounterSet@@@@8 DD 00H	; CEntityFactory<CGameCounterSet>::`RTTI Class Hierarchy Descriptor'
	DD	00H
	DD	02H
	DD	FLAT:??_R2?$CEntityFactory@VCGameCounterSet@@@@8
rdata$r	ENDS
;	COMDAT ??_R0?AV?$CEntityFactory@VCGameCounterSet@@@@@8
data$r	SEGMENT
??_R0?AV?$CEntityFactory@VCGameCounterSet@@@@@8 DD FLAT:??_7type_info@@6B@ ; CEntityFactory<CGameCounterSet> `RTTI Type Descriptor'
	DD	00H
	DB	'.?AV?$CEntityFactory@VCGameCounterSet@@@@', 00H
data$r	ENDS
;	COMDAT ??_R4?$CEntityFactory@VCGameCounterSet@@@@6B@
rdata$r	SEGMENT
??_R4?$CEntityFactory@VCGameCounterSet@@@@6B@ DD 00H	; CEntityFactory<CGameCounterSet>::`RTTI Complete Object Locator'
	DD	00H
	DD	00H
	DD	FLAT:??_R0?AV?$CEntityFactory@VCGameCounterSet@@@@@8
	DD	FLAT:??_R3?$CEntityFactory@VCGameCounterSet@@@@8
rdata$r	ENDS
;	COMDAT ??_R1A@?0A@EA@CGameCounterSet@@8
rdata$r	SEGMENT
??_R1A@?0A@EA@CGameCounterSet@@8 DD FLAT:??_R0?AVCGameCounterSet@@@8 ; CGameCounterSet::`RTTI Base Class Descriptor at (0,-1,0,64)'
	DD	03H
	DD	00H
	DD	0ffffffffH
	DD	00H
	DD	040H
	DD	FLAT:??_R3CGameCounterSet@@8
rdata$r	ENDS
;	COMDAT ??_R2CGameCounterSet@@8
rdata$r	SEGMENT
??_R2CGameCounterSet@@8 DD FLAT:??_R1A@?0A@EA@CGameCounterSet@@8 ; CGameCounterSet::`RTTI Base Class Array'
	DD	FLAT:??_R1A@?0A@EA@CRulePointEntity@@8
	DD	FLAT:??_R1A@?0A@EA@CRuleEntity@@8
	DD	FLAT:??_R1A@?0A@EA@CBaseEntity@@8
rdata$r	ENDS
;	COMDAT ??_R3CGameCounterSet@@8
rdata$r	SEGMENT
??_R3CGameCounterSet@@8 DD 00H				; CGameCounterSet::`RTTI Class Hierarchy Descriptor'
	DD	00H
	DD	04H
	DD	FLAT:??_R2CGameCounterSet@@8
rdata$r	ENDS
;	COMDAT ??_R0?AVCGameCounterSet@@@8
data$r	SEGMENT
??_R0?AVCGameCounterSet@@@8 DD FLAT:??_7type_info@@6B@	; CGameCounterSet `RTTI Type Descriptor'
	DD	00H
	DB	'.?AVCGameCounterSet@@', 00H
data$r	ENDS
;	COMDAT ??_R4CGameCounterSet@@6B@
rdata$r	SEGMENT
??_R4CGameCounterSet@@6B@ DD 00H			; CGameCounterSet::`RTTI Complete Object Locator'
	DD	00H
	DD	00H
	DD	FLAT:??_R0?AVCGameCounterSet@@@8
	DD	FLAT:??_R3CGameCounterSet@@8
rdata$r	ENDS
;	COMDAT ??_R1A@?0A@EA@?$CEntityFactory@VCGameCounter@@@@8
rdata$r	SEGMENT
??_R1A@?0A@EA@?$CEntityFactory@VCGameCounter@@@@8 DD FLAT:??_R0?AV?$CEntityFactory@VCGameCounter@@@@@8 ; CEntityFactory<CGameCounter>::`RTTI Base Class Descriptor at (0,-1,0,64)'
	DD	01H
	DD	00H
	DD	0ffffffffH
	DD	00H
	DD	040H
	DD	FLAT:??_R3?$CEntityFactory@VCGameCounter@@@@8
rdata$r	ENDS
;	COMDAT ??_R2?$CEntityFactory@VCGameCounter@@@@8
rdata$r	SEGMENT
??_R2?$CEntityFactory@VCGameCounter@@@@8 DD FLAT:??_R1A@?0A@EA@?$CEntityFactory@VCGameCounter@@@@8 ; CEntityFactory<CGameCounter>::`RTTI Base Class Array'
	DD	FLAT:??_R1A@?0A@EA@IEntityFactory@@8
rdata$r	ENDS
;	COMDAT ??_R3?$CEntityFactory@VCGameCounter@@@@8
rdata$r	SEGMENT
??_R3?$CEntityFactory@VCGameCounter@@@@8 DD 00H		; CEntityFactory<CGameCounter>::`RTTI Class Hierarchy Descriptor'
	DD	00H
	DD	02H
	DD	FLAT:??_R2?$CEntityFactory@VCGameCounter@@@@8
rdata$r	ENDS
;	COMDAT ??_R0?AV?$CEntityFactory@VCGameCounter@@@@@8
data$r	SEGMENT
??_R0?AV?$CEntityFactory@VCGameCounter@@@@@8 DD FLAT:??_7type_info@@6B@ ; CEntityFactory<CGameCounter> `RTTI Type Descriptor'
	DD	00H
	DB	'.?AV?$CEntityFactory@VCGameCounter@@@@', 00H
data$r	ENDS
;	COMDAT ??_R4?$CEntityFactory@VCGameCounter@@@@6B@
rdata$r	SEGMENT
??_R4?$CEntityFactory@VCGameCounter@@@@6B@ DD 00H	; CEntityFactory<CGameCounter>::`RTTI Complete Object Locator'
	DD	00H
	DD	00H
	DD	FLAT:??_R0?AV?$CEntityFactory@VCGameCounter@@@@@8
	DD	FLAT:??_R3?$CEntityFactory@VCGameCounter@@@@8
rdata$r	ENDS
;	COMDAT ??_R1A@?0A@EA@CGameCounter@@8
rdata$r	SEGMENT
??_R1A@?0A@EA@CGameCounter@@8 DD FLAT:??_R0?AVCGameCounter@@@8 ; CGameCounter::`RTTI Base Class Descriptor at (0,-1,0,64)'
	DD	03H
	DD	00H
	DD	0ffffffffH
	DD	00H
	DD	040H
	DD	FLAT:??_R3CGameCounter@@8
rdata$r	ENDS
;	COMDAT ??_R2CGameCounter@@8
rdata$r	SEGMENT
??_R2CGameCounter@@8 DD FLAT:??_R1A@?0A@EA@CGameCounter@@8 ; CGameCounter::`RTTI Base Class Array'
	DD	FLAT:??_R1A@?0A@EA@CRulePointEntity@@8
	DD	FLAT:??_R1A@?0A@EA@CRuleEntity@@8
	DD	FLAT:??_R1A@?0A@EA@CBaseEntity@@8
rdata$r	ENDS
;	COMDAT ??_R3CGameCounter@@8
rdata$r	SEGMENT
??_R3CGameCounter@@8 DD 00H				; CGameCounter::`RTTI Class Hierarchy Descriptor'
	DD	00H
	DD	04H
	DD	FLAT:??_R2CGameCounter@@8
rdata$r	ENDS
;	COMDAT ??_R0?AVCGameCounter@@@8
data$r	SEGMENT
??_R0?AVCGameCounter@@@8 DD FLAT:??_7type_info@@6B@	; CGameCounter `RTTI Type Descriptor'
	DD	00H
	DB	'.?AVCGameCounter@@', 00H
data$r	ENDS
;	COMDAT ??_R4CGameCounter@@6B@
rdata$r	SEGMENT
??_R4CGameCounter@@6B@ DD 00H				; CGameCounter::`RTTI Complete Object Locator'
	DD	00H
	DD	00H
	DD	FLAT:??_R0?AVCGameCounter@@@8
	DD	FLAT:??_R3CGameCounter@@8
rdata$r	ENDS
;	COMDAT ??_R1A@?0A@EA@?$CEntityFactory@VCGamePlayerHurt@@@@8
rdata$r	SEGMENT
??_R1A@?0A@EA@?$CEntityFactory@VCGamePlayerHurt@@@@8 DD FLAT:??_R0?AV?$CEntityFactory@VCGamePlayerHurt@@@@@8 ; CEntityFactory<CGamePlayerHurt>::`RTTI Base Class Descriptor at (0,-1,0,64)'
	DD	01H
	DD	00H
	DD	0ffffffffH
	DD	00H
	DD	040H
	DD	FLAT:??_R3?$CEntityFactory@VCGamePlayerHurt@@@@8
rdata$r	ENDS
;	COMDAT ??_R2?$CEntityFactory@VCGamePlayerHurt@@@@8
rdata$r	SEGMENT
??_R2?$CEntityFactory@VCGamePlayerHurt@@@@8 DD FLAT:??_R1A@?0A@EA@?$CEntityFactory@VCGamePlayerHurt@@@@8 ; CEntityFactory<CGamePlayerHurt>::`RTTI Base Class Array'
	DD	FLAT:??_R1A@?0A@EA@IEntityFactory@@8
rdata$r	ENDS
;	COMDAT ??_R3?$CEntityFactory@VCGamePlayerHurt@@@@8
rdata$r	SEGMENT
??_R3?$CEntityFactory@VCGamePlayerHurt@@@@8 DD 00H	; CEntityFactory<CGamePlayerHurt>::`RTTI Class Hierarchy Descriptor'
	DD	00H
	DD	02H
	DD	FLAT:??_R2?$CEntityFactory@VCGamePlayerHurt@@@@8
rdata$r	ENDS
;	COMDAT ??_R0?AV?$CEntityFactory@VCGamePlayerHurt@@@@@8
data$r	SEGMENT
??_R0?AV?$CEntityFactory@VCGamePlayerHurt@@@@@8 DD FLAT:??_7type_info@@6B@ ; CEntityFactory<CGamePlayerHurt> `RTTI Type Descriptor'
	DD	00H
	DB	'.?AV?$CEntityFactory@VCGamePlayerHurt@@@@', 00H
data$r	ENDS
;	COMDAT ??_R4?$CEntityFactory@VCGamePlayerHurt@@@@6B@
rdata$r	SEGMENT
??_R4?$CEntityFactory@VCGamePlayerHurt@@@@6B@ DD 00H	; CEntityFactory<CGamePlayerHurt>::`RTTI Complete Object Locator'
	DD	00H
	DD	00H
	DD	FLAT:??_R0?AV?$CEntityFactory@VCGamePlayerHurt@@@@@8
	DD	FLAT:??_R3?$CEntityFactory@VCGamePlayerHurt@@@@8
rdata$r	ENDS
;	COMDAT ??_R1A@?0A@EA@CGamePlayerHurt@@8
rdata$r	SEGMENT
??_R1A@?0A@EA@CGamePlayerHurt@@8 DD FLAT:??_R0?AVCGamePlayerHurt@@@8 ; CGamePlayerHurt::`RTTI Base Class Descriptor at (0,-1,0,64)'
	DD	03H
	DD	00H
	DD	0ffffffffH
	DD	00H
	DD	040H
	DD	FLAT:??_R3CGamePlayerHurt@@8
rdata$r	ENDS
;	COMDAT ??_R2CGamePlayerHurt@@8
rdata$r	SEGMENT
??_R2CGamePlayerHurt@@8 DD FLAT:??_R1A@?0A@EA@CGamePlayerHurt@@8 ; CGamePlayerHurt::`RTTI Base Class Array'
	DD	FLAT:??_R1A@?0A@EA@CRulePointEntity@@8
	DD	FLAT:??_R1A@?0A@EA@CRuleEntity@@8
	DD	FLAT:??_R1A@?0A@EA@CBaseEntity@@8
rdata$r	ENDS
;	COMDAT ??_R3CGamePlayerHurt@@8
rdata$r	SEGMENT
??_R3CGamePlayerHurt@@8 DD 00H				; CGamePlayerHurt::`RTTI Class Hierarchy Descriptor'
	DD	00H
	DD	04H
	DD	FLAT:??_R2CGamePlayerHurt@@8
rdata$r	ENDS
;	COMDAT ??_R0?AVCGamePlayerHurt@@@8
data$r	SEGMENT
??_R0?AVCGamePlayerHurt@@@8 DD FLAT:??_7type_info@@6B@	; CGamePlayerHurt `RTTI Type Descriptor'
	DD	00H
	DB	'.?AVCGamePlayerHurt@@', 00H
data$r	ENDS
;	COMDAT ??_R4CGamePlayerHurt@@6B@
rdata$r	SEGMENT
??_R4CGamePlayerHurt@@6B@ DD 00H			; CGamePlayerHurt::`RTTI Complete Object Locator'
	DD	00H
	DD	00H
	DD	FLAT:??_R0?AVCGamePlayerHurt@@@8
	DD	FLAT:??_R3CGamePlayerHurt@@8
rdata$r	ENDS
;	COMDAT ??_R1A@?0A@EA@?$CEntityFactory@VCGamePlayerZone@@@@8
rdata$r	SEGMENT
??_R1A@?0A@EA@?$CEntityFactory@VCGamePlayerZone@@@@8 DD FLAT:??_R0?AV?$CEntityFactory@VCGamePlayerZone@@@@@8 ; CEntityFactory<CGamePlayerZone>::`RTTI Base Class Descriptor at (0,-1,0,64)'
	DD	01H
	DD	00H
	DD	0ffffffffH
	DD	00H
	DD	040H
	DD	FLAT:??_R3?$CEntityFactory@VCGamePlayerZone@@@@8
rdata$r	ENDS
;	COMDAT ??_R2?$CEntityFactory@VCGamePlayerZone@@@@8
rdata$r	SEGMENT
??_R2?$CEntityFactory@VCGamePlayerZone@@@@8 DD FLAT:??_R1A@?0A@EA@?$CEntityFactory@VCGamePlayerZone@@@@8 ; CEntityFactory<CGamePlayerZone>::`RTTI Base Class Array'
	DD	FLAT:??_R1A@?0A@EA@IEntityFactory@@8
rdata$r	ENDS
;	COMDAT ??_R3?$CEntityFactory@VCGamePlayerZone@@@@8
rdata$r	SEGMENT
??_R3?$CEntityFactory@VCGamePlayerZone@@@@8 DD 00H	; CEntityFactory<CGamePlayerZone>::`RTTI Class Hierarchy Descriptor'
	DD	00H
	DD	02H
	DD	FLAT:??_R2?$CEntityFactory@VCGamePlayerZone@@@@8
rdata$r	ENDS
;	COMDAT ??_R0?AV?$CEntityFactory@VCGamePlayerZone@@@@@8
data$r	SEGMENT
??_R0?AV?$CEntityFactory@VCGamePlayerZone@@@@@8 DD FLAT:??_7type_info@@6B@ ; CEntityFactory<CGamePlayerZone> `RTTI Type Descriptor'
	DD	00H
	DB	'.?AV?$CEntityFactory@VCGamePlayerZone@@@@', 00H
data$r	ENDS
;	COMDAT ??_R4?$CEntityFactory@VCGamePlayerZone@@@@6B@
rdata$r	SEGMENT
??_R4?$CEntityFactory@VCGamePlayerZone@@@@6B@ DD 00H	; CEntityFactory<CGamePlayerZone>::`RTTI Complete Object Locator'
	DD	00H
	DD	00H
	DD	FLAT:??_R0?AV?$CEntityFactory@VCGamePlayerZone@@@@@8
	DD	FLAT:??_R3?$CEntityFactory@VCGamePlayerZone@@@@8
rdata$r	ENDS
;	COMDAT ??_R1A@?0A@EA@CGamePlayerZone@@8
rdata$r	SEGMENT
??_R1A@?0A@EA@CGamePlayerZone@@8 DD FLAT:??_R0?AVCGamePlayerZone@@@8 ; CGamePlayerZone::`RTTI Base Class Descriptor at (0,-1,0,64)'
	DD	03H
	DD	00H
	DD	0ffffffffH
	DD	00H
	DD	040H
	DD	FLAT:??_R3CGamePlayerZone@@8
rdata$r	ENDS
;	COMDAT ??_R2CGamePlayerZone@@8
rdata$r	SEGMENT
??_R2CGamePlayerZone@@8 DD FLAT:??_R1A@?0A@EA@CGamePlayerZone@@8 ; CGamePlayerZone::`RTTI Base Class Array'
	DD	FLAT:??_R1A@?0A@EA@CRuleBrushEntity@@8
	DD	FLAT:??_R1A@?0A@EA@CRuleEntity@@8
	DD	FLAT:??_R1A@?0A@EA@CBaseEntity@@8
rdata$r	ENDS
;	COMDAT ??_R3CGamePlayerZone@@8
rdata$r	SEGMENT
??_R3CGamePlayerZone@@8 DD 00H				; CGamePlayerZone::`RTTI Class Hierarchy Descriptor'
	DD	00H
	DD	04H
	DD	FLAT:??_R2CGamePlayerZone@@8
rdata$r	ENDS
;	COMDAT ??_R0?AVCGamePlayerZone@@@8
data$r	SEGMENT
??_R0?AVCGamePlayerZone@@@8 DD FLAT:??_7type_info@@6B@	; CGamePlayerZone `RTTI Type Descriptor'
	DD	00H
	DB	'.?AVCGamePlayerZone@@', 00H
data$r	ENDS
;	COMDAT ??_R4CGamePlayerZone@@6B@
rdata$r	SEGMENT
??_R4CGamePlayerZone@@6B@ DD 00H			; CGamePlayerZone::`RTTI Complete Object Locator'
	DD	00H
	DD	00H
	DD	FLAT:??_R0?AVCGamePlayerZone@@@8
	DD	FLAT:??_R3CGamePlayerZone@@8
rdata$r	ENDS
;	COMDAT ??_R1A@?0A@EA@?$CEntityFactory@VCGameTeamSet@@@@8
rdata$r	SEGMENT
??_R1A@?0A@EA@?$CEntityFactory@VCGameTeamSet@@@@8 DD FLAT:??_R0?AV?$CEntityFactory@VCGameTeamSet@@@@@8 ; CEntityFactory<CGameTeamSet>::`RTTI Base Class Descriptor at (0,-1,0,64)'
	DD	01H
	DD	00H
	DD	0ffffffffH
	DD	00H
	DD	040H
	DD	FLAT:??_R3?$CEntityFactory@VCGameTeamSet@@@@8
rdata$r	ENDS
;	COMDAT ??_R2?$CEntityFactory@VCGameTeamSet@@@@8
rdata$r	SEGMENT
??_R2?$CEntityFactory@VCGameTeamSet@@@@8 DD FLAT:??_R1A@?0A@EA@?$CEntityFactory@VCGameTeamSet@@@@8 ; CEntityFactory<CGameTeamSet>::`RTTI Base Class Array'
	DD	FLAT:??_R1A@?0A@EA@IEntityFactory@@8
rdata$r	ENDS
;	COMDAT ??_R3?$CEntityFactory@VCGameTeamSet@@@@8
rdata$r	SEGMENT
??_R3?$CEntityFactory@VCGameTeamSet@@@@8 DD 00H		; CEntityFactory<CGameTeamSet>::`RTTI Class Hierarchy Descriptor'
	DD	00H
	DD	02H
	DD	FLAT:??_R2?$CEntityFactory@VCGameTeamSet@@@@8
rdata$r	ENDS
;	COMDAT ??_R0?AV?$CEntityFactory@VCGameTeamSet@@@@@8
data$r	SEGMENT
??_R0?AV?$CEntityFactory@VCGameTeamSet@@@@@8 DD FLAT:??_7type_info@@6B@ ; CEntityFactory<CGameTeamSet> `RTTI Type Descriptor'
	DD	00H
	DB	'.?AV?$CEntityFactory@VCGameTeamSet@@@@', 00H
data$r	ENDS
;	COMDAT ??_R4?$CEntityFactory@VCGameTeamSet@@@@6B@
rdata$r	SEGMENT
??_R4?$CEntityFactory@VCGameTeamSet@@@@6B@ DD 00H	; CEntityFactory<CGameTeamSet>::`RTTI Complete Object Locator'
	DD	00H
	DD	00H
	DD	FLAT:??_R0?AV?$CEntityFactory@VCGameTeamSet@@@@@8
	DD	FLAT:??_R3?$CEntityFactory@VCGameTeamSet@@@@8
rdata$r	ENDS
;	COMDAT ??_R1A@?0A@EA@CGameTeamSet@@8
rdata$r	SEGMENT
??_R1A@?0A@EA@CGameTeamSet@@8 DD FLAT:??_R0?AVCGameTeamSet@@@8 ; CGameTeamSet::`RTTI Base Class Descriptor at (0,-1,0,64)'
	DD	03H
	DD	00H
	DD	0ffffffffH
	DD	00H
	DD	040H
	DD	FLAT:??_R3CGameTeamSet@@8
rdata$r	ENDS
;	COMDAT ??_R2CGameTeamSet@@8
rdata$r	SEGMENT
??_R2CGameTeamSet@@8 DD FLAT:??_R1A@?0A@EA@CGameTeamSet@@8 ; CGameTeamSet::`RTTI Base Class Array'
	DD	FLAT:??_R1A@?0A@EA@CRulePointEntity@@8
	DD	FLAT:??_R1A@?0A@EA@CRuleEntity@@8
	DD	FLAT:??_R1A@?0A@EA@CBaseEntity@@8
rdata$r	ENDS
;	COMDAT ??_R3CGameTeamSet@@8
rdata$r	SEGMENT
??_R3CGameTeamSet@@8 DD 00H				; CGameTeamSet::`RTTI Class Hierarchy Descriptor'
	DD	00H
	DD	04H
	DD	FLAT:??_R2CGameTeamSet@@8
rdata$r	ENDS
;	COMDAT ??_R0?AVCGameTeamSet@@@8
data$r	SEGMENT
??_R0?AVCGameTeamSet@@@8 DD FLAT:??_7type_info@@6B@	; CGameTeamSet `RTTI Type Descriptor'
	DD	00H
	DB	'.?AVCGameTeamSet@@', 00H
data$r	ENDS
;	COMDAT ??_R4CGameTeamSet@@6B@
rdata$r	SEGMENT
??_R4CGameTeamSet@@6B@ DD 00H				; CGameTeamSet::`RTTI Complete Object Locator'
	DD	00H
	DD	00H
	DD	FLAT:??_R0?AVCGameTeamSet@@@8
	DD	FLAT:??_R3CGameTeamSet@@8
rdata$r	ENDS
;	COMDAT ??_R1A@?0A@EA@?$CEntityFactory@VCGameTeamMaster@@@@8
rdata$r	SEGMENT
??_R1A@?0A@EA@?$CEntityFactory@VCGameTeamMaster@@@@8 DD FLAT:??_R0?AV?$CEntityFactory@VCGameTeamMaster@@@@@8 ; CEntityFactory<CGameTeamMaster>::`RTTI Base Class Descriptor at (0,-1,0,64)'
	DD	01H
	DD	00H
	DD	0ffffffffH
	DD	00H
	DD	040H
	DD	FLAT:??_R3?$CEntityFactory@VCGameTeamMaster@@@@8
rdata$r	ENDS
;	COMDAT ??_R2?$CEntityFactory@VCGameTeamMaster@@@@8
rdata$r	SEGMENT
??_R2?$CEntityFactory@VCGameTeamMaster@@@@8 DD FLAT:??_R1A@?0A@EA@?$CEntityFactory@VCGameTeamMaster@@@@8 ; CEntityFactory<CGameTeamMaster>::`RTTI Base Class Array'
	DD	FLAT:??_R1A@?0A@EA@IEntityFactory@@8
rdata$r	ENDS
;	COMDAT ??_R3?$CEntityFactory@VCGameTeamMaster@@@@8
rdata$r	SEGMENT
??_R3?$CEntityFactory@VCGameTeamMaster@@@@8 DD 00H	; CEntityFactory<CGameTeamMaster>::`RTTI Class Hierarchy Descriptor'
	DD	00H
	DD	02H
	DD	FLAT:??_R2?$CEntityFactory@VCGameTeamMaster@@@@8
rdata$r	ENDS
;	COMDAT ??_R0?AV?$CEntityFactory@VCGameTeamMaster@@@@@8
data$r	SEGMENT
??_R0?AV?$CEntityFactory@VCGameTeamMaster@@@@@8 DD FLAT:??_7type_info@@6B@ ; CEntityFactory<CGameTeamMaster> `RTTI Type Descriptor'
	DD	00H
	DB	'.?AV?$CEntityFactory@VCGameTeamMaster@@@@', 00H
data$r	ENDS
;	COMDAT ??_R4?$CEntityFactory@VCGameTeamMaster@@@@6B@
rdata$r	SEGMENT
??_R4?$CEntityFactory@VCGameTeamMaster@@@@6B@ DD 00H	; CEntityFactory<CGameTeamMaster>::`RTTI Complete Object Locator'
	DD	00H
	DD	00H
	DD	FLAT:??_R0?AV?$CEntityFactory@VCGameTeamMaster@@@@@8
	DD	FLAT:??_R3?$CEntityFactory@VCGameTeamMaster@@@@8
rdata$r	ENDS
;	COMDAT ??_R1A@?0A@EA@CGameTeamMaster@@8
rdata$r	SEGMENT
??_R1A@?0A@EA@CGameTeamMaster@@8 DD FLAT:??_R0?AVCGameTeamMaster@@@8 ; CGameTeamMaster::`RTTI Base Class Descriptor at (0,-1,0,64)'
	DD	03H
	DD	00H
	DD	0ffffffffH
	DD	00H
	DD	040H
	DD	FLAT:??_R3CGameTeamMaster@@8
rdata$r	ENDS
;	COMDAT ??_R2CGameTeamMaster@@8
rdata$r	SEGMENT
??_R2CGameTeamMaster@@8 DD FLAT:??_R1A@?0A@EA@CGameTeamMaster@@8 ; CGameTeamMaster::`RTTI Base Class Array'
	DD	FLAT:??_R1A@?0A@EA@CRulePointEntity@@8
	DD	FLAT:??_R1A@?0A@EA@CRuleEntity@@8
	DD	FLAT:??_R1A@?0A@EA@CBaseEntity@@8
rdata$r	ENDS
;	COMDAT ??_R3CGameTeamMaster@@8
rdata$r	SEGMENT
??_R3CGameTeamMaster@@8 DD 00H				; CGameTeamMaster::`RTTI Class Hierarchy Descriptor'
	DD	00H
	DD	04H
	DD	FLAT:??_R2CGameTeamMaster@@8
rdata$r	ENDS
;	COMDAT ??_R0?AVCGameTeamMaster@@@8
data$r	SEGMENT
??_R0?AVCGameTeamMaster@@@8 DD FLAT:??_7type_info@@6B@	; CGameTeamMaster `RTTI Type Descriptor'
	DD	00H
	DB	'.?AVCGameTeamMaster@@', 00H
data$r	ENDS
;	COMDAT ??_R4CGameTeamMaster@@6B@
rdata$r	SEGMENT
??_R4CGameTeamMaster@@6B@ DD 00H			; CGameTeamMaster::`RTTI Complete Object Locator'
	DD	00H
	DD	00H
	DD	FLAT:??_R0?AVCGameTeamMaster@@@8
	DD	FLAT:??_R3CGameTeamMaster@@8
rdata$r	ENDS
;	COMDAT ??_R1A@?0A@EA@?$CEntityFactory@VCGameText@@@@8
rdata$r	SEGMENT
??_R1A@?0A@EA@?$CEntityFactory@VCGameText@@@@8 DD FLAT:??_R0?AV?$CEntityFactory@VCGameText@@@@@8 ; CEntityFactory<CGameText>::`RTTI Base Class Descriptor at (0,-1,0,64)'
	DD	01H
	DD	00H
	DD	0ffffffffH
	DD	00H
	DD	040H
	DD	FLAT:??_R3?$CEntityFactory@VCGameText@@@@8
rdata$r	ENDS
;	COMDAT ??_R2?$CEntityFactory@VCGameText@@@@8
rdata$r	SEGMENT
??_R2?$CEntityFactory@VCGameText@@@@8 DD FLAT:??_R1A@?0A@EA@?$CEntityFactory@VCGameText@@@@8 ; CEntityFactory<CGameText>::`RTTI Base Class Array'
	DD	FLAT:??_R1A@?0A@EA@IEntityFactory@@8
rdata$r	ENDS
;	COMDAT ??_R3?$CEntityFactory@VCGameText@@@@8
rdata$r	SEGMENT
??_R3?$CEntityFactory@VCGameText@@@@8 DD 00H		; CEntityFactory<CGameText>::`RTTI Class Hierarchy Descriptor'
	DD	00H
	DD	02H
	DD	FLAT:??_R2?$CEntityFactory@VCGameText@@@@8
rdata$r	ENDS
;	COMDAT ??_R0?AV?$CEntityFactory@VCGameText@@@@@8
data$r	SEGMENT
??_R0?AV?$CEntityFactory@VCGameText@@@@@8 DD FLAT:??_7type_info@@6B@ ; CEntityFactory<CGameText> `RTTI Type Descriptor'
	DD	00H
	DB	'.?AV?$CEntityFactory@VCGameText@@@@', 00H
data$r	ENDS
;	COMDAT ??_R4?$CEntityFactory@VCGameText@@@@6B@
rdata$r	SEGMENT
??_R4?$CEntityFactory@VCGameText@@@@6B@ DD 00H		; CEntityFactory<CGameText>::`RTTI Complete Object Locator'
	DD	00H
	DD	00H
	DD	FLAT:??_R0?AV?$CEntityFactory@VCGameText@@@@@8
	DD	FLAT:??_R3?$CEntityFactory@VCGameText@@@@8
rdata$r	ENDS
;	COMDAT ??_R1A@?0A@EA@CGameText@@8
rdata$r	SEGMENT
??_R1A@?0A@EA@CGameText@@8 DD FLAT:??_R0?AVCGameText@@@8 ; CGameText::`RTTI Base Class Descriptor at (0,-1,0,64)'
	DD	03H
	DD	00H
	DD	0ffffffffH
	DD	00H
	DD	040H
	DD	FLAT:??_R3CGameText@@8
rdata$r	ENDS
;	COMDAT ??_R2CGameText@@8
rdata$r	SEGMENT
??_R2CGameText@@8 DD FLAT:??_R1A@?0A@EA@CGameText@@8	; CGameText::`RTTI Base Class Array'
	DD	FLAT:??_R1A@?0A@EA@CRulePointEntity@@8
	DD	FLAT:??_R1A@?0A@EA@CRuleEntity@@8
	DD	FLAT:??_R1A@?0A@EA@CBaseEntity@@8
rdata$r	ENDS
;	COMDAT ??_R3CGameText@@8
rdata$r	SEGMENT
??_R3CGameText@@8 DD 00H				; CGameText::`RTTI Class Hierarchy Descriptor'
	DD	00H
	DD	04H
	DD	FLAT:??_R2CGameText@@8
rdata$r	ENDS
;	COMDAT ??_R0?AVCGameText@@@8
data$r	SEGMENT
??_R0?AVCGameText@@@8 DD FLAT:??_7type_info@@6B@	; CGameText `RTTI Type Descriptor'
	DD	00H
	DB	'.?AVCGameText@@', 00H
data$r	ENDS
;	COMDAT ??_R4CGameText@@6B@
rdata$r	SEGMENT
??_R4CGameText@@6B@ DD 00H				; CGameText::`RTTI Complete Object Locator'
	DD	00H
	DD	00H
	DD	FLAT:??_R0?AVCGameText@@@8
	DD	FLAT:??_R3CGameText@@8
rdata$r	ENDS
;	COMDAT ??_R1A@?0A@EA@?$CEntityFactory@VCGameEnd@@@@8
rdata$r	SEGMENT
??_R1A@?0A@EA@?$CEntityFactory@VCGameEnd@@@@8 DD FLAT:??_R0?AV?$CEntityFactory@VCGameEnd@@@@@8 ; CEntityFactory<CGameEnd>::`RTTI Base Class Descriptor at (0,-1,0,64)'
	DD	01H
	DD	00H
	DD	0ffffffffH
	DD	00H
	DD	040H
	DD	FLAT:??_R3?$CEntityFactory@VCGameEnd@@@@8
rdata$r	ENDS
;	COMDAT ??_R2?$CEntityFactory@VCGameEnd@@@@8
rdata$r	SEGMENT
??_R2?$CEntityFactory@VCGameEnd@@@@8 DD FLAT:??_R1A@?0A@EA@?$CEntityFactory@VCGameEnd@@@@8 ; CEntityFactory<CGameEnd>::`RTTI Base Class Array'
	DD	FLAT:??_R1A@?0A@EA@IEntityFactory@@8
rdata$r	ENDS
;	COMDAT ??_R3?$CEntityFactory@VCGameEnd@@@@8
rdata$r	SEGMENT
??_R3?$CEntityFactory@VCGameEnd@@@@8 DD 00H		; CEntityFactory<CGameEnd>::`RTTI Class Hierarchy Descriptor'
	DD	00H
	DD	02H
	DD	FLAT:??_R2?$CEntityFactory@VCGameEnd@@@@8
rdata$r	ENDS
;	COMDAT ??_R0?AV?$CEntityFactory@VCGameEnd@@@@@8
data$r	SEGMENT
??_R0?AV?$CEntityFactory@VCGameEnd@@@@@8 DD FLAT:??_7type_info@@6B@ ; CEntityFactory<CGameEnd> `RTTI Type Descriptor'
	DD	00H
	DB	'.?AV?$CEntityFactory@VCGameEnd@@@@', 00H
data$r	ENDS
;	COMDAT ??_R4?$CEntityFactory@VCGameEnd@@@@6B@
rdata$r	SEGMENT
??_R4?$CEntityFactory@VCGameEnd@@@@6B@ DD 00H		; CEntityFactory<CGameEnd>::`RTTI Complete Object Locator'
	DD	00H
	DD	00H
	DD	FLAT:??_R0?AV?$CEntityFactory@VCGameEnd@@@@@8
	DD	FLAT:??_R3?$CEntityFactory@VCGameEnd@@@@8
rdata$r	ENDS
;	COMDAT ??_R1A@?0A@EA@CGameEnd@@8
rdata$r	SEGMENT
??_R1A@?0A@EA@CGameEnd@@8 DD FLAT:??_R0?AVCGameEnd@@@8	; CGameEnd::`RTTI Base Class Descriptor at (0,-1,0,64)'
	DD	03H
	DD	00H
	DD	0ffffffffH
	DD	00H
	DD	040H
	DD	FLAT:??_R3CGameEnd@@8
rdata$r	ENDS
;	COMDAT ??_R2CGameEnd@@8
rdata$r	SEGMENT
??_R2CGameEnd@@8 DD FLAT:??_R1A@?0A@EA@CGameEnd@@8	; CGameEnd::`RTTI Base Class Array'
	DD	FLAT:??_R1A@?0A@EA@CRulePointEntity@@8
	DD	FLAT:??_R1A@?0A@EA@CRuleEntity@@8
	DD	FLAT:??_R1A@?0A@EA@CBaseEntity@@8
rdata$r	ENDS
;	COMDAT ??_R3CGameEnd@@8
rdata$r	SEGMENT
??_R3CGameEnd@@8 DD 00H					; CGameEnd::`RTTI Class Hierarchy Descriptor'
	DD	00H
	DD	04H
	DD	FLAT:??_R2CGameEnd@@8
rdata$r	ENDS
;	COMDAT ??_R0?AVCGameEnd@@@8
data$r	SEGMENT
??_R0?AVCGameEnd@@@8 DD FLAT:??_7type_info@@6B@		; CGameEnd `RTTI Type Descriptor'
	DD	00H
	DB	'.?AVCGameEnd@@', 00H
data$r	ENDS
;	COMDAT ??_R4CGameEnd@@6B@
rdata$r	SEGMENT
??_R4CGameEnd@@6B@ DD 00H				; CGameEnd::`RTTI Complete Object Locator'
	DD	00H
	DD	00H
	DD	FLAT:??_R0?AVCGameEnd@@@8
	DD	FLAT:??_R3CGameEnd@@8
rdata$r	ENDS
;	COMDAT ??_R1A@?0A@EA@?$CEntityFactory@VCGameScore@@@@8
rdata$r	SEGMENT
??_R1A@?0A@EA@?$CEntityFactory@VCGameScore@@@@8 DD FLAT:??_R0?AV?$CEntityFactory@VCGameScore@@@@@8 ; CEntityFactory<CGameScore>::`RTTI Base Class Descriptor at (0,-1,0,64)'
	DD	01H
	DD	00H
	DD	0ffffffffH
	DD	00H
	DD	040H
	DD	FLAT:??_R3?$CEntityFactory@VCGameScore@@@@8
rdata$r	ENDS
;	COMDAT ??_R2?$CEntityFactory@VCGameScore@@@@8
rdata$r	SEGMENT
??_R2?$CEntityFactory@VCGameScore@@@@8 DD FLAT:??_R1A@?0A@EA@?$CEntityFactory@VCGameScore@@@@8 ; CEntityFactory<CGameScore>::`RTTI Base Class Array'
	DD	FLAT:??_R1A@?0A@EA@IEntityFactory@@8
rdata$r	ENDS
;	COMDAT ??_R3?$CEntityFactory@VCGameScore@@@@8
rdata$r	SEGMENT
??_R3?$CEntityFactory@VCGameScore@@@@8 DD 00H		; CEntityFactory<CGameScore>::`RTTI Class Hierarchy Descriptor'
	DD	00H
	DD	02H
	DD	FLAT:??_R2?$CEntityFactory@VCGameScore@@@@8
rdata$r	ENDS
;	COMDAT ??_R0?AV?$CEntityFactory@VCGameScore@@@@@8
data$r	SEGMENT
??_R0?AV?$CEntityFactory@VCGameScore@@@@@8 DD FLAT:??_7type_info@@6B@ ; CEntityFactory<CGameScore> `RTTI Type Descriptor'
	DD	00H
	DB	'.?AV?$CEntityFactory@VCGameScore@@@@', 00H
data$r	ENDS
;	COMDAT ??_R4?$CEntityFactory@VCGameScore@@@@6B@
rdata$r	SEGMENT
??_R4?$CEntityFactory@VCGameScore@@@@6B@ DD 00H		; CEntityFactory<CGameScore>::`RTTI Complete Object Locator'
	DD	00H
	DD	00H
	DD	FLAT:??_R0?AV?$CEntityFactory@VCGameScore@@@@@8
	DD	FLAT:??_R3?$CEntityFactory@VCGameScore@@@@8
rdata$r	ENDS
;	COMDAT ??_R1A@?0A@EA@CGameScore@@8
rdata$r	SEGMENT
??_R1A@?0A@EA@CGameScore@@8 DD FLAT:??_R0?AVCGameScore@@@8 ; CGameScore::`RTTI Base Class Descriptor at (0,-1,0,64)'
	DD	03H
	DD	00H
	DD	0ffffffffH
	DD	00H
	DD	040H
	DD	FLAT:??_R3CGameScore@@8
rdata$r	ENDS
;	COMDAT ??_R2CGameScore@@8
rdata$r	SEGMENT
??_R2CGameScore@@8 DD FLAT:??_R1A@?0A@EA@CGameScore@@8	; CGameScore::`RTTI Base Class Array'
	DD	FLAT:??_R1A@?0A@EA@CRulePointEntity@@8
	DD	FLAT:??_R1A@?0A@EA@CRuleEntity@@8
	DD	FLAT:??_R1A@?0A@EA@CBaseEntity@@8
rdata$r	ENDS
;	COMDAT ??_R3CGameScore@@8
rdata$r	SEGMENT
??_R3CGameScore@@8 DD 00H				; CGameScore::`RTTI Class Hierarchy Descriptor'
	DD	00H
	DD	04H
	DD	FLAT:??_R2CGameScore@@8
rdata$r	ENDS
;	COMDAT ??_R0?AVCGameScore@@@8
data$r	SEGMENT
??_R0?AVCGameScore@@@8 DD FLAT:??_7type_info@@6B@	; CGameScore `RTTI Type Descriptor'
	DD	00H
	DB	'.?AVCGameScore@@', 00H
data$r	ENDS
;	COMDAT ??_R4CGameScore@@6B@
rdata$r	SEGMENT
??_R4CGameScore@@6B@ DD 00H				; CGameScore::`RTTI Complete Object Locator'
	DD	00H
	DD	00H
	DD	FLAT:??_R0?AVCGameScore@@@8
	DD	FLAT:??_R3CGameScore@@8
rdata$r	ENDS
;	COMDAT ??_R1A@?0A@EA@CRuleBrushEntity@@8
rdata$r	SEGMENT
??_R1A@?0A@EA@CRuleBrushEntity@@8 DD FLAT:??_R0?AVCRuleBrushEntity@@@8 ; CRuleBrushEntity::`RTTI Base Class Descriptor at (0,-1,0,64)'
	DD	02H
	DD	00H
	DD	0ffffffffH
	DD	00H
	DD	040H
	DD	FLAT:??_R3CRuleBrushEntity@@8
rdata$r	ENDS
;	COMDAT ??_R2CRuleBrushEntity@@8
rdata$r	SEGMENT
??_R2CRuleBrushEntity@@8 DD FLAT:??_R1A@?0A@EA@CRuleBrushEntity@@8 ; CRuleBrushEntity::`RTTI Base Class Array'
	DD	FLAT:??_R1A@?0A@EA@CRuleEntity@@8
	DD	FLAT:??_R1A@?0A@EA@CBaseEntity@@8
rdata$r	ENDS
;	COMDAT ??_R3CRuleBrushEntity@@8
rdata$r	SEGMENT
??_R3CRuleBrushEntity@@8 DD 00H				; CRuleBrushEntity::`RTTI Class Hierarchy Descriptor'
	DD	00H
	DD	03H
	DD	FLAT:??_R2CRuleBrushEntity@@8
rdata$r	ENDS
;	COMDAT ??_R0?AVCRuleBrushEntity@@@8
data$r	SEGMENT
??_R0?AVCRuleBrushEntity@@@8 DD FLAT:??_7type_info@@6B@	; CRuleBrushEntity `RTTI Type Descriptor'
	DD	00H
	DB	'.?AVCRuleBrushEntity@@', 00H
data$r	ENDS
;	COMDAT ??_R4CRuleBrushEntity@@6B@
rdata$r	SEGMENT
??_R4CRuleBrushEntity@@6B@ DD 00H			; CRuleBrushEntity::`RTTI Complete Object Locator'
	DD	00H
	DD	00H
	DD	FLAT:??_R0?AVCRuleBrushEntity@@@8
	DD	FLAT:??_R3CRuleBrushEntity@@8
rdata$r	ENDS
;	COMDAT ??_R1A@?0A@EA@CRulePointEntity@@8
rdata$r	SEGMENT
??_R1A@?0A@EA@CRulePointEntity@@8 DD FLAT:??_R0?AVCRulePointEntity@@@8 ; CRulePointEntity::`RTTI Base Class Descriptor at (0,-1,0,64)'
	DD	02H
	DD	00H
	DD	0ffffffffH
	DD	00H
	DD	040H
	DD	FLAT:??_R3CRulePointEntity@@8
rdata$r	ENDS
;	COMDAT ??_R2CRulePointEntity@@8
rdata$r	SEGMENT
??_R2CRulePointEntity@@8 DD FLAT:??_R1A@?0A@EA@CRulePointEntity@@8 ; CRulePointEntity::`RTTI Base Class Array'
	DD	FLAT:??_R1A@?0A@EA@CRuleEntity@@8
	DD	FLAT:??_R1A@?0A@EA@CBaseEntity@@8
rdata$r	ENDS
;	COMDAT ??_R3CRulePointEntity@@8
rdata$r	SEGMENT
??_R3CRulePointEntity@@8 DD 00H				; CRulePointEntity::`RTTI Class Hierarchy Descriptor'
	DD	00H
	DD	03H
	DD	FLAT:??_R2CRulePointEntity@@8
rdata$r	ENDS
;	COMDAT ??_R0?AVCRulePointEntity@@@8
data$r	SEGMENT
??_R0?AVCRulePointEntity@@@8 DD FLAT:??_7type_info@@6B@	; CRulePointEntity `RTTI Type Descriptor'
	DD	00H
	DB	'.?AVCRulePointEntity@@', 00H
data$r	ENDS
;	COMDAT ??_R4CRulePointEntity@@6B@
rdata$r	SEGMENT
??_R4CRulePointEntity@@6B@ DD 00H			; CRulePointEntity::`RTTI Complete Object Locator'
	DD	00H
	DD	00H
	DD	FLAT:??_R0?AVCRulePointEntity@@@8
	DD	FLAT:??_R3CRulePointEntity@@8
rdata$r	ENDS
;	COMDAT ??_R1A@?0A@EA@CRuleEntity@@8
rdata$r	SEGMENT
??_R1A@?0A@EA@CRuleEntity@@8 DD FLAT:??_R0?AVCRuleEntity@@@8 ; CRuleEntity::`RTTI Base Class Descriptor at (0,-1,0,64)'
	DD	01H
	DD	00H
	DD	0ffffffffH
	DD	00H
	DD	040H
	DD	FLAT:??_R3CRuleEntity@@8
rdata$r	ENDS
;	COMDAT ??_R2CRuleEntity@@8
rdata$r	SEGMENT
??_R2CRuleEntity@@8 DD FLAT:??_R1A@?0A@EA@CRuleEntity@@8 ; CRuleEntity::`RTTI Base Class Array'
	DD	FLAT:??_R1A@?0A@EA@CBaseEntity@@8
rdata$r	ENDS
;	COMDAT ??_R3CRuleEntity@@8
rdata$r	SEGMENT
??_R3CRuleEntity@@8 DD 00H				; CRuleEntity::`RTTI Class Hierarchy Descriptor'
	DD	00H
	DD	02H
	DD	FLAT:??_R2CRuleEntity@@8
rdata$r	ENDS
;	COMDAT ??_R0?AVCRuleEntity@@@8
data$r	SEGMENT
??_R0?AVCRuleEntity@@@8 DD FLAT:??_7type_info@@6B@	; CRuleEntity `RTTI Type Descriptor'
	DD	00H
	DB	'.?AVCRuleEntity@@', 00H
data$r	ENDS
;	COMDAT ??_R4CRuleEntity@@6B@
rdata$r	SEGMENT
??_R4CRuleEntity@@6B@ DD 00H				; CRuleEntity::`RTTI Complete Object Locator'
	DD	00H
	DD	00H
	DD	FLAT:??_R0?AVCRuleEntity@@@8
	DD	FLAT:??_R3CRuleEntity@@8
rdata$r	ENDS
;	COMDAT ??_R1A@?0A@EA@IEntityFactory@@8
rdata$r	SEGMENT
??_R1A@?0A@EA@IEntityFactory@@8 DD FLAT:??_R0?AVIEntityFactory@@@8 ; IEntityFactory::`RTTI Base Class Descriptor at (0,-1,0,64)'
	DD	00H
	DD	00H
	DD	0ffffffffH
	DD	00H
	DD	040H
	DD	FLAT:??_R3IEntityFactory@@8
rdata$r	ENDS
;	COMDAT ??_R2IEntityFactory@@8
rdata$r	SEGMENT
??_R2IEntityFactory@@8 DD FLAT:??_R1A@?0A@EA@IEntityFactory@@8 ; IEntityFactory::`RTTI Base Class Array'
rdata$r	ENDS
;	COMDAT ??_R3IEntityFactory@@8
rdata$r	SEGMENT
??_R3IEntityFactory@@8 DD 00H				; IEntityFactory::`RTTI Class Hierarchy Descriptor'
	DD	00H
	DD	01H
	DD	FLAT:??_R2IEntityFactory@@8
rdata$r	ENDS
;	COMDAT ??_R0?AVIEntityFactory@@@8
data$r	SEGMENT
??_R0?AVIEntityFactory@@@8 DD FLAT:??_7type_info@@6B@	; IEntityFactory `RTTI Type Descriptor'
	DD	00H
	DB	'.?AVIEntityFactory@@', 00H
data$r	ENDS
;	COMDAT ??_R4IEntityFactory@@6B@
rdata$r	SEGMENT
??_R4IEntityFactory@@6B@ DD 00H				; IEntityFactory::`RTTI Complete Object Locator'
	DD	00H
	DD	00H
	DD	FLAT:??_R0?AVIEntityFactory@@@8
	DD	FLAT:??_R3IEntityFactory@@8
rdata$r	ENDS
;	COMDAT ??_R1A@?0A@EA@CBaseEntity@@8
rdata$r	SEGMENT
??_R1A@?0A@EA@CBaseEntity@@8 DD FLAT:??_R0?AVCBaseEntity@@@8 ; CBaseEntity::`RTTI Base Class Descriptor at (0,-1,0,64)'
	DD	00H
	DD	00H
	DD	0ffffffffH
	DD	00H
	DD	040H
	DD	FLAT:??_R3CBaseEntity@@8
rdata$r	ENDS
;	COMDAT ??_R2CBaseEntity@@8
rdata$r	SEGMENT
??_R2CBaseEntity@@8 DD FLAT:??_R1A@?0A@EA@CBaseEntity@@8 ; CBaseEntity::`RTTI Base Class Array'
rdata$r	ENDS
;	COMDAT ??_R3CBaseEntity@@8
rdata$r	SEGMENT
??_R3CBaseEntity@@8 DD 00H				; CBaseEntity::`RTTI Class Hierarchy Descriptor'
	DD	00H
	DD	01H
	DD	FLAT:??_R2CBaseEntity@@8
rdata$r	ENDS
;	COMDAT ??_R0?AVCBaseEntity@@@8
data$r	SEGMENT
??_R0?AVCBaseEntity@@@8 DD FLAT:??_7type_info@@6B@	; CBaseEntity `RTTI Type Descriptor'
	DD	00H
	DB	'.?AVCBaseEntity@@', 00H
data$r	ENDS
;	COMDAT ??_R4CBaseEntity@@6B@
rdata$r	SEGMENT
??_R4CBaseEntity@@6B@ DD 00H				; CBaseEntity::`RTTI Complete Object Locator'
	DD	00H
	DD	00H
	DD	FLAT:??_R0?AVCBaseEntity@@@8
	DD	FLAT:??_R3CBaseEntity@@8
rdata$r	ENDS
;	COMDAT ??_C@_1BM@CKILBAKK@?$AAI?$AAs?$AAI?$AAd?$AAx?$AAV?$AAa?$AAl?$AAi?$AAd?$AA?$CI?$AAi?$AA?$CJ@
CONST	SEGMENT
??_C@_1BM@CKILBAKK@?$AAI?$AAs?$AAI?$AAd?$AAx?$AAV?$AAa?$AAl?$AAi?$AAd?$AA?$CI?$AAi?$AA?$CJ@ DB 'I'
	DB	00H, 's', 00H, 'I', 00H, 'd', 00H, 'x', 00H, 'V', 00H, 'a', 00H
	DB	'l', 00H, 'i', 00H, 'd', 00H, '(', 00H, 'i', 00H, ')', 00H, 00H
	DB	00H						; `string'
CONST	ENDS
;	COMDAT ??_C@_1BM@PFNFCCHH@?$AA?$CB?$AAI?$AAs?$AAR?$AAe?$AAa?$AAd?$AAO?$AAn?$AAl?$AAy?$AA?$CI?$AA?$CJ@
CONST	SEGMENT
??_C@_1BM@PFNFCCHH@?$AA?$CB?$AAI?$AAs?$AAR?$AAe?$AAa?$AAd?$AAO?$AAn?$AAl?$AAy?$AA?$CI?$AA?$CJ@ DB '!'
	DB	00H, 'I', 00H, 's', 00H, 'R', 00H, 'e', 00H, 'a', 00H, 'd', 00H
	DB	'O', 00H, 'n', 00H, 'l', 00H, 'y', 00H, '(', 00H, ')', 00H, 00H
	DB	00H						; `string'
CONST	ENDS
;	COMDAT ??_C@_1MO@LCPOAHHB@?$AAc?$AA?3?$AA?2?$AAu?$AAs?$AAe?$AAr?$AAs?$AA?2?$AAu?$AAs?$AAe?$AAr?$AA?2?$AAd@
CONST	SEGMENT
??_C@_1MO@LCPOAHHB@?$AAc?$AA?3?$AA?2?$AAu?$AAs?$AAe?$AAr?$AAs?$AA?2?$AAu?$AAs?$AAe?$AAr?$AA?2?$AAd@ DB 'c'
	DB	00H, ':', 00H, '\', 00H, 'u', 00H, 's', 00H, 'e', 00H, 'r', 00H
	DB	's', 00H, '\', 00H, 'u', 00H, 's', 00H, 'e', 00H, 'r', 00H, '\'
	DB	00H, 'd', 00H, 'o', 00H, 'w', 00H, 'n', 00H, 'l', 00H, 'o', 00H
	DB	'a', 00H, 'd', 00H, 's', 00H, '\', 00H, 'x', 00H, 'a', 00H, 's'
	DB	00H, 'h', 00H, 'x', 00H, 't', 00H, '_', 00H, 'v', 00H, '0', 00H
	DB	'.', 00H, '8', 00H, '1', 00H, '_', 00H, 'r', 00H, 'e', 00H, 'v'
	DB	00H, '.', 00H, '1', 00H, '_', 00H, 'w', 00H, 'i', 00H, 't', 00H
	DB	'h', 00H, '_', 00H, 's', 00H, 'o', 00H, 'u', 00H, 'r', 00H, 'c'
	DB	00H, 'e', 00H, 's', 00H, '\', 00H, 'x', 00H, 'a', 00H, 's', 00H
	DB	'h', 00H, 'x', 00H, 't', 00H, '_', 00H, 'v', 00H, '0', 00H, '.'
	DB	00H, '8', 00H, '1', 00H, '_', 00H, 'r', 00H, 'e', 00H, 'v', 00H
	DB	'.', 00H, '1', 00H, '_', 00H, 's', 00H, 'r', 00H, 'c', 00H, '\'
	DB	00H, 'g', 00H, 'a', 00H, 'm', 00H, 'e', 00H, '_', 00H, 's', 00H
	DB	'h', 00H, 'a', 00H, 'r', 00H, 'e', 00H, 'd', 00H, '\', 00H, 'u'
	DB	00H, 't', 00H, 'l', 00H, 'm', 00H, 'e', 00H, 'm', 00H, 'o', 00H
	DB	'r', 00H, 'y', 00H, '.', 00H, 'h', 00H, 00H, 00H ; `string'
CONST	ENDS
;	COMDAT ??_7?$CEntityFactory@VCGamePlayerTeam@@@@6B@
CONST	SEGMENT
??_7?$CEntityFactory@VCGamePlayerTeam@@@@6B@ DD FLAT:??_R4?$CEntityFactory@VCGamePlayerTeam@@@@6B@ ; CEntityFactory<CGamePlayerTeam>::`vftable'
	DD	FLAT:?Create@?$CEntityFactory@VCGamePlayerTeam@@@@UAEPAVCBaseEntity@@PBDPAUentvars_s@@@Z
	DD	FLAT:?Destroy@?$CEntityFactory@VCGamePlayerTeam@@@@UAEXPAVCBaseEntity@@@Z
	DD	FLAT:?GetEntitySize@?$CEntityFactory@VCGamePlayerTeam@@@@UAEIXZ
CONST	ENDS
;	COMDAT ??_7CGamePlayerTeam@@6B@
CONST	SEGMENT
??_7CGamePlayerTeam@@6B@ DD FLAT:??_R4CGamePlayerTeam@@6B@ ; CGamePlayerTeam::`vftable'
	DD	FLAT:?GetDataDescMap@CRuleEntity@@UAEPAUdatamap_s@@XZ
	DD	FLAT:?Spawn@CRulePointEntity@@UAEXXZ
	DD	FLAT:?Precache@CBaseEntity@@UAEXXZ
	DD	FLAT:?KeyValue@CRuleEntity@@UAEXPAUKeyValueData_s@@@Z
	DD	FLAT:?Save@CBaseEntity@@UAEHAAVCSave@@@Z
	DD	FLAT:?Restore@CBaseEntity@@UAEHAAVCRestore@@@Z
	DD	FLAT:?ObjectCaps@CBaseEntity@@UAEHXZ
	DD	FLAT:?Activate@CBaseEntity@@UAEXXZ
	DD	FLAT:?OnChangeLevel@CBaseEntity@@UAEXXZ
	DD	FLAT:?OnTeleport@CBaseEntity@@UAEXXZ
	DD	FLAT:?PortalSleep@CBaseEntity@@UAEXM@Z
	DD	FLAT:?StartMessage@CBaseEntity@@UAEXPAVCBasePlayer@@@Z
	DD	FLAT:?GetPosition@CBaseEntity@@UAEMXZ
	DD	FLAT:?OnChangeParent@CBaseEntity@@UAEXXZ
	DD	FLAT:?OnClearParent@CBaseEntity@@UAEXXZ
	DD	FLAT:?OnRemove@CBaseEntity@@UAEXXZ
	DD	FLAT:?SetObjectCollisionBox@CBaseEntity@@UAEXXZ
	DD	FLAT:?Classify@CBaseEntity@@UAEHXZ
	DD	FLAT:?DeathNotice@CBaseEntity@@UAEXPAUentvars_s@@@Z
	DD	FLAT:?IsRigidBody@CBaseEntity@@UAEHXZ
	DD	FLAT:?SetNextThink@CBaseEntity@@UAEXM@Z
	DD	FLAT:?GetState@CBaseEntity@@UAE?AW4STATE@@PAV1@@Z
	DD	FLAT:?GetState@CBaseEntity@@UAE?AW4STATE@@XZ
	DD	FLAT:?TraceAttack@CBaseEntity@@UAEXPAUentvars_s@@MVVector@@PAUgametrace_s@@H@Z
	DD	FLAT:?TakeDamage@CBaseEntity@@UAEHPAUentvars_s@@0MH@Z
	DD	FLAT:?TakeHealth@CBaseEntity@@UAEHMH@Z
	DD	FLAT:?TakeArmor@CBaseEntity@@UAEHMH@Z
	DD	FLAT:?Killed@CBaseEntity@@UAEXPAUentvars_s@@H@Z
	DD	FLAT:?BloodColor@CBaseEntity@@UAEHXZ
	DD	FLAT:?TraceBleed@CBaseEntity@@UAEXMVVector@@PAUgametrace_s@@H@Z
	DD	FLAT:?IsTriggered@CBaseEntity@@UAEHPAV1@@Z
	DD	FLAT:?MyMonsterPointer@CBaseEntity@@UAEPAVCBaseMonster@@XZ
	DD	FLAT:?MySquadMonsterPointer@CBaseEntity@@UAEPAVCSquadMonster@@XZ
	DD	FLAT:?GetToggleState@CBaseEntity@@UAEHXZ
	DD	FLAT:?AddPoints@CBaseEntity@@UAEXHH@Z
	DD	FLAT:?AddPointsToTeam@CBaseEntity@@UAEXHH@Z
	DD	FLAT:?AddPlayerItem@CBaseEntity@@UAEHPAVCBasePlayerItem@@@Z
	DD	FLAT:?RemovePlayerItem@CBaseEntity@@UAEHPAVCBasePlayerItem@@@Z
	DD	FLAT:?GiveAmmo@CBaseEntity@@UAEHHPADH@Z
	DD	FLAT:?GetDelay@CBaseEntity@@UAEMXZ
	DD	FLAT:?IsMoving@CBaseEntity@@UAEHXZ
	DD	FLAT:?OverrideReset@CBaseEntity@@UAEXXZ
	DD	FLAT:?TransferReset@CBaseEntity@@UAEXXZ
	DD	FLAT:?DamageDecal@CBaseEntity@@UAEHH@Z
	DD	FLAT:?SetToggleState@CBaseEntity@@UAEXH@Z
	DD	FLAT:?StartSneaking@CBaseEntity@@UAEXXZ
	DD	FLAT:?StopSneaking@CBaseEntity@@UAEXXZ
	DD	FLAT:?OnControls@CBaseEntity@@UAEHPAV1@@Z
	DD	FLAT:?IsSneaking@CBaseEntity@@UAEHXZ
	DD	FLAT:?IsAlive@CBaseEntity@@UAEHXZ
	DD	FLAT:?IsBSPModel@CBaseEntity@@UAEHXZ
	DD	FLAT:?IsCustomModel@CBaseEntity@@UAEHXZ
	DD	FLAT:?ReflectGauss@CBaseEntity@@UAEHXZ
	DD	FLAT:?HasTarget@CBaseEntity@@UAEHH@Z
	DD	FLAT:?IsInWorld@CBaseEntity@@UAEHH@Z
	DD	FLAT:?IsPlayer@CBaseEntity@@UAEHXZ
	DD	FLAT:?IsNetClient@CBaseEntity@@UAEHXZ
	DD	FLAT:?IsMonster@CBaseEntity@@UAEHXZ
	DD	FLAT:?IsPushable@CBaseEntity@@UAEHXZ
	DD	FLAT:?IsProjectile@CBaseEntity@@UAEHXZ
	DD	FLAT:?IsFuncScreen@CBaseEntity@@UAEHXZ
	DD	FLAT:?IsPortal@CBaseEntity@@UAEHXZ
	DD	FLAT:?IsTank@CBaseEntity@@UAEHXZ
	DD	FLAT:?IsMover@CBaseEntity@@UAEHXZ
	DD	FLAT:?IsBreakable@CBaseEntity@@UAEHXZ
	DD	FLAT:?TeamID@CBaseEntity@@UAEPBDXZ
	DD	FLAT:?GetNextTarget@CBaseEntity@@UAEPAV1@XZ
	DD	FLAT:?Think@CBaseEntity@@UAEXXZ
	DD	FLAT:?Use@CGamePlayerTeam@@UAEXPAVCBaseEntity@@0W4USE_TYPE@@M@Z
	DD	FLAT:?Touch@CBaseEntity@@UAEXPAV1@@Z
	DD	FLAT:?Blocked@CBaseEntity@@UAEXPAV1@@Z
	DD	FLAT:?MoveDone@CBaseEntity@@UAEXXZ
	DD	FLAT:?Respawn@CBaseEntity@@UAEPAV1@XZ
	DD	FLAT:?UpdateOwner@CBaseEntity@@UAEXXZ
	DD	FLAT:?FBecomeProne@CBaseEntity@@UAEHXZ
	DD	FLAT:?Center@CBaseEntity@@UAE?AVVector@@XZ
	DD	FLAT:?EyePosition@CBaseEntity@@UAE?AVVector@@XZ
	DD	FLAT:?EarPosition@CBaseEntity@@UAE?AVVector@@XZ
	DD	FLAT:?BodyTarget@CBaseEntity@@UAE?AVVector@@ABV2@@Z
	DD	FLAT:?IsPointSized@CBaseEntity@@UBEHXZ
	DD	FLAT:?Illumination@CBaseEntity@@UAEHXZ
	DD	FLAT:?FVisible@CBaseEntity@@UAEHABVVector@@@Z
	DD	FLAT:?FVisible@CBaseEntity@@UAEHPAV1@@Z
	DD	FLAT:?ShouldCollide@CBaseEntity@@UAEHPAV1@@Z
CONST	ENDS
;	COMDAT ??_7?$CEntityFactory@VCGamePlayerEquip@@@@6B@
CONST	SEGMENT
??_7?$CEntityFactory@VCGamePlayerEquip@@@@6B@ DD FLAT:??_R4?$CEntityFactory@VCGamePlayerEquip@@@@6B@ ; CEntityFactory<CGamePlayerEquip>::`vftable'
	DD	FLAT:?Create@?$CEntityFactory@VCGamePlayerEquip@@@@UAEPAVCBaseEntity@@PBDPAUentvars_s@@@Z
	DD	FLAT:?Destroy@?$CEntityFactory@VCGamePlayerEquip@@@@UAEXPAVCBaseEntity@@@Z
	DD	FLAT:?GetEntitySize@?$CEntityFactory@VCGamePlayerEquip@@@@UAEIXZ
CONST	ENDS
;	COMDAT ??_7CGamePlayerEquip@@6B@
CONST	SEGMENT
??_7CGamePlayerEquip@@6B@ DD FLAT:??_R4CGamePlayerEquip@@6B@ ; CGamePlayerEquip::`vftable'
	DD	FLAT:?GetDataDescMap@CRuleEntity@@UAEPAUdatamap_s@@XZ
	DD	FLAT:?Spawn@CRulePointEntity@@UAEXXZ
	DD	FLAT:?Precache@CBaseEntity@@UAEXXZ
	DD	FLAT:?KeyValue@CGamePlayerEquip@@UAEXPAUKeyValueData_s@@@Z
	DD	FLAT:?Save@CBaseEntity@@UAEHAAVCSave@@@Z
	DD	FLAT:?Restore@CBaseEntity@@UAEHAAVCRestore@@@Z
	DD	FLAT:?ObjectCaps@CBaseEntity@@UAEHXZ
	DD	FLAT:?Activate@CBaseEntity@@UAEXXZ
	DD	FLAT:?OnChangeLevel@CBaseEntity@@UAEXXZ
	DD	FLAT:?OnTeleport@CBaseEntity@@UAEXXZ
	DD	FLAT:?PortalSleep@CBaseEntity@@UAEXM@Z
	DD	FLAT:?StartMessage@CBaseEntity@@UAEXPAVCBasePlayer@@@Z
	DD	FLAT:?GetPosition@CBaseEntity@@UAEMXZ
	DD	FLAT:?OnChangeParent@CBaseEntity@@UAEXXZ
	DD	FLAT:?OnClearParent@CBaseEntity@@UAEXXZ
	DD	FLAT:?OnRemove@CBaseEntity@@UAEXXZ
	DD	FLAT:?SetObjectCollisionBox@CBaseEntity@@UAEXXZ
	DD	FLAT:?Classify@CBaseEntity@@UAEHXZ
	DD	FLAT:?DeathNotice@CBaseEntity@@UAEXPAUentvars_s@@@Z
	DD	FLAT:?IsRigidBody@CBaseEntity@@UAEHXZ
	DD	FLAT:?SetNextThink@CBaseEntity@@UAEXM@Z
	DD	FLAT:?GetState@CBaseEntity@@UAE?AW4STATE@@PAV1@@Z
	DD	FLAT:?GetState@CBaseEntity@@UAE?AW4STATE@@XZ
	DD	FLAT:?TraceAttack@CBaseEntity@@UAEXPAUentvars_s@@MVVector@@PAUgametrace_s@@H@Z
	DD	FLAT:?TakeDamage@CBaseEntity@@UAEHPAUentvars_s@@0MH@Z
	DD	FLAT:?TakeHealth@CBaseEntity@@UAEHMH@Z
	DD	FLAT:?TakeArmor@CBaseEntity@@UAEHMH@Z
	DD	FLAT:?Killed@CBaseEntity@@UAEXPAUentvars_s@@H@Z
	DD	FLAT:?BloodColor@CBaseEntity@@UAEHXZ
	DD	FLAT:?TraceBleed@CBaseEntity@@UAEXMVVector@@PAUgametrace_s@@H@Z
	DD	FLAT:?IsTriggered@CBaseEntity@@UAEHPAV1@@Z
	DD	FLAT:?MyMonsterPointer@CBaseEntity@@UAEPAVCBaseMonster@@XZ
	DD	FLAT:?MySquadMonsterPointer@CBaseEntity@@UAEPAVCSquadMonster@@XZ
	DD	FLAT:?GetToggleState@CBaseEntity@@UAEHXZ
	DD	FLAT:?AddPoints@CBaseEntity@@UAEXHH@Z
	DD	FLAT:?AddPointsToTeam@CBaseEntity@@UAEXHH@Z
	DD	FLAT:?AddPlayerItem@CBaseEntity@@UAEHPAVCBasePlayerItem@@@Z
	DD	FLAT:?RemovePlayerItem@CBaseEntity@@UAEHPAVCBasePlayerItem@@@Z
	DD	FLAT:?GiveAmmo@CBaseEntity@@UAEHHPADH@Z
	DD	FLAT:?GetDelay@CBaseEntity@@UAEMXZ
	DD	FLAT:?IsMoving@CBaseEntity@@UAEHXZ
	DD	FLAT:?OverrideReset@CBaseEntity@@UAEXXZ
	DD	FLAT:?TransferReset@CBaseEntity@@UAEXXZ
	DD	FLAT:?DamageDecal@CBaseEntity@@UAEHH@Z
	DD	FLAT:?SetToggleState@CBaseEntity@@UAEXH@Z
	DD	FLAT:?StartSneaking@CBaseEntity@@UAEXXZ
	DD	FLAT:?StopSneaking@CBaseEntity@@UAEXXZ
	DD	FLAT:?OnControls@CBaseEntity@@UAEHPAV1@@Z
	DD	FLAT:?IsSneaking@CBaseEntity@@UAEHXZ
	DD	FLAT:?IsAlive@CBaseEntity@@UAEHXZ
	DD	FLAT:?IsBSPModel@CBaseEntity@@UAEHXZ
	DD	FLAT:?IsCustomModel@CBaseEntity@@UAEHXZ
	DD	FLAT:?ReflectGauss@CBaseEntity@@UAEHXZ
	DD	FLAT:?HasTarget@CBaseEntity@@UAEHH@Z
	DD	FLAT:?IsInWorld@CBaseEntity@@UAEHH@Z
	DD	FLAT:?IsPlayer@CBaseEntity@@UAEHXZ
	DD	FLAT:?IsNetClient@CBaseEntity@@UAEHXZ
	DD	FLAT:?IsMonster@CBaseEntity@@UAEHXZ
	DD	FLAT:?IsPushable@CBaseEntity@@UAEHXZ
	DD	FLAT:?IsProjectile@CBaseEntity@@UAEHXZ
	DD	FLAT:?IsFuncScreen@CBaseEntity@@UAEHXZ
	DD	FLAT:?IsPortal@CBaseEntity@@UAEHXZ
	DD	FLAT:?IsTank@CBaseEntity@@UAEHXZ
	DD	FLAT:?IsMover@CBaseEntity@@UAEHXZ
	DD	FLAT:?IsBreakable@CBaseEntity@@UAEHXZ
	DD	FLAT:?TeamID@CBaseEntity@@UAEPBDXZ
	DD	FLAT:?GetNextTarget@CBaseEntity@@UAEPAV1@XZ
	DD	FLAT:?Think@CBaseEntity@@UAEXXZ
	DD	FLAT:?Use@CGamePlayerEquip@@UAEXPAVCBaseEntity@@0W4USE_TYPE@@M@Z
	DD	FLAT:?Touch@CGamePlayerEquip@@UAEXPAVCBaseEntity@@@Z
	DD	FLAT:?Blocked@CBaseEntity@@UAEXPAV1@@Z
	DD	FLAT:?MoveDone@CBaseEntity@@UAEXXZ
	DD	FLAT:?Respawn@CBaseEntity@@UAEPAV1@XZ
	DD	FLAT:?UpdateOwner@CBaseEntity@@UAEXXZ
	DD	FLAT:?FBecomeProne@CBaseEntity@@UAEHXZ
	DD	FLAT:?Center@CBaseEntity@@UAE?AVVector@@XZ
	DD	FLAT:?EyePosition@CBaseEntity@@UAE?AVVector@@XZ
	DD	FLAT:?EarPosition@CBaseEntity@@UAE?AVVector@@XZ
	DD	FLAT:?BodyTarget@CBaseEntity@@UAE?AVVector@@ABV2@@Z
	DD	FLAT:?IsPointSized@CBaseEntity@@UBEHXZ
	DD	FLAT:?Illumination@CBaseEntity@@UAEHXZ
	DD	FLAT:?FVisible@CBaseEntity@@UAEHABVVector@@@Z
	DD	FLAT:?FVisible@CBaseEntity@@UAEHPAV1@@Z
	DD	FLAT:?ShouldCollide@CBaseEntity@@UAEHPAV1@@Z
CONST	ENDS
;	COMDAT ??_7?$CEntityFactory@VCGameCounterSet@@@@6B@
CONST	SEGMENT
??_7?$CEntityFactory@VCGameCounterSet@@@@6B@ DD FLAT:??_R4?$CEntityFactory@VCGameCounterSet@@@@6B@ ; CEntityFactory<CGameCounterSet>::`vftable'
	DD	FLAT:?Create@?$CEntityFactory@VCGameCounterSet@@@@UAEPAVCBaseEntity@@PBDPAUentvars_s@@@Z
	DD	FLAT:?Destroy@?$CEntityFactory@VCGameCounterSet@@@@UAEXPAVCBaseEntity@@@Z
	DD	FLAT:?GetEntitySize@?$CEntityFactory@VCGameCounterSet@@@@UAEIXZ
CONST	ENDS
;	COMDAT ??_7CGameCounterSet@@6B@
CONST	SEGMENT
??_7CGameCounterSet@@6B@ DD FLAT:??_R4CGameCounterSet@@6B@ ; CGameCounterSet::`vftable'
	DD	FLAT:?GetDataDescMap@CRuleEntity@@UAEPAUdatamap_s@@XZ
	DD	FLAT:?Spawn@CRulePointEntity@@UAEXXZ
	DD	FLAT:?Precache@CBaseEntity@@UAEXXZ
	DD	FLAT:?KeyValue@CRuleEntity@@UAEXPAUKeyValueData_s@@@Z
	DD	FLAT:?Save@CBaseEntity@@UAEHAAVCSave@@@Z
	DD	FLAT:?Restore@CBaseEntity@@UAEHAAVCRestore@@@Z
	DD	FLAT:?ObjectCaps@CBaseEntity@@UAEHXZ
	DD	FLAT:?Activate@CBaseEntity@@UAEXXZ
	DD	FLAT:?OnChangeLevel@CBaseEntity@@UAEXXZ
	DD	FLAT:?OnTeleport@CBaseEntity@@UAEXXZ
	DD	FLAT:?PortalSleep@CBaseEntity@@UAEXM@Z
	DD	FLAT:?StartMessage@CBaseEntity@@UAEXPAVCBasePlayer@@@Z
	DD	FLAT:?GetPosition@CBaseEntity@@UAEMXZ
	DD	FLAT:?OnChangeParent@CBaseEntity@@UAEXXZ
	DD	FLAT:?OnClearParent@CBaseEntity@@UAEXXZ
	DD	FLAT:?OnRemove@CBaseEntity@@UAEXXZ
	DD	FLAT:?SetObjectCollisionBox@CBaseEntity@@UAEXXZ
	DD	FLAT:?Classify@CBaseEntity@@UAEHXZ
	DD	FLAT:?DeathNotice@CBaseEntity@@UAEXPAUentvars_s@@@Z
	DD	FLAT:?IsRigidBody@CBaseEntity@@UAEHXZ
	DD	FLAT:?SetNextThink@CBaseEntity@@UAEXM@Z
	DD	FLAT:?GetState@CBaseEntity@@UAE?AW4STATE@@PAV1@@Z
	DD	FLAT:?GetState@CBaseEntity@@UAE?AW4STATE@@XZ
	DD	FLAT:?TraceAttack@CBaseEntity@@UAEXPAUentvars_s@@MVVector@@PAUgametrace_s@@H@Z
	DD	FLAT:?TakeDamage@CBaseEntity@@UAEHPAUentvars_s@@0MH@Z
	DD	FLAT:?TakeHealth@CBaseEntity@@UAEHMH@Z
	DD	FLAT:?TakeArmor@CBaseEntity@@UAEHMH@Z
	DD	FLAT:?Killed@CBaseEntity@@UAEXPAUentvars_s@@H@Z
	DD	FLAT:?BloodColor@CBaseEntity@@UAEHXZ
	DD	FLAT:?TraceBleed@CBaseEntity@@UAEXMVVector@@PAUgametrace_s@@H@Z
	DD	FLAT:?IsTriggered@CBaseEntity@@UAEHPAV1@@Z
	DD	FLAT:?MyMonsterPointer@CBaseEntity@@UAEPAVCBaseMonster@@XZ
	DD	FLAT:?MySquadMonsterPointer@CBaseEntity@@UAEPAVCSquadMonster@@XZ
	DD	FLAT:?GetToggleState@CBaseEntity@@UAEHXZ
	DD	FLAT:?AddPoints@CBaseEntity@@UAEXHH@Z
	DD	FLAT:?AddPointsToTeam@CBaseEntity@@UAEXHH@Z
	DD	FLAT:?AddPlayerItem@CBaseEntity@@UAEHPAVCBasePlayerItem@@@Z
	DD	FLAT:?RemovePlayerItem@CBaseEntity@@UAEHPAVCBasePlayerItem@@@Z
	DD	FLAT:?GiveAmmo@CBaseEntity@@UAEHHPADH@Z
	DD	FLAT:?GetDelay@CBaseEntity@@UAEMXZ
	DD	FLAT:?IsMoving@CBaseEntity@@UAEHXZ
	DD	FLAT:?OverrideReset@CBaseEntity@@UAEXXZ
	DD	FLAT:?TransferReset@CBaseEntity@@UAEXXZ
	DD	FLAT:?DamageDecal@CBaseEntity@@UAEHH@Z
	DD	FLAT:?SetToggleState@CBaseEntity@@UAEXH@Z
	DD	FLAT:?StartSneaking@CBaseEntity@@UAEXXZ
	DD	FLAT:?StopSneaking@CBaseEntity@@UAEXXZ
	DD	FLAT:?OnControls@CBaseEntity@@UAEHPAV1@@Z
	DD	FLAT:?IsSneaking@CBaseEntity@@UAEHXZ
	DD	FLAT:?IsAlive@CBaseEntity@@UAEHXZ
	DD	FLAT:?IsBSPModel@CBaseEntity@@UAEHXZ
	DD	FLAT:?IsCustomModel@CBaseEntity@@UAEHXZ
	DD	FLAT:?ReflectGauss@CBaseEntity@@UAEHXZ
	DD	FLAT:?HasTarget@CBaseEntity@@UAEHH@Z
	DD	FLAT:?IsInWorld@CBaseEntity@@UAEHH@Z
	DD	FLAT:?IsPlayer@CBaseEntity@@UAEHXZ
	DD	FLAT:?IsNetClient@CBaseEntity@@UAEHXZ
	DD	FLAT:?IsMonster@CBaseEntity@@UAEHXZ
	DD	FLAT:?IsPushable@CBaseEntity@@UAEHXZ
	DD	FLAT:?IsProjectile@CBaseEntity@@UAEHXZ
	DD	FLAT:?IsFuncScreen@CBaseEntity@@UAEHXZ
	DD	FLAT:?IsPortal@CBaseEntity@@UAEHXZ
	DD	FLAT:?IsTank@CBaseEntity@@UAEHXZ
	DD	FLAT:?IsMover@CBaseEntity@@UAEHXZ
	DD	FLAT:?IsBreakable@CBaseEntity@@UAEHXZ
	DD	FLAT:?TeamID@CBaseEntity@@UAEPBDXZ
	DD	FLAT:?GetNextTarget@CBaseEntity@@UAEPAV1@XZ
	DD	FLAT:?Think@CBaseEntity@@UAEXXZ
	DD	FLAT:?Use@CGameCounterSet@@UAEXPAVCBaseEntity@@0W4USE_TYPE@@M@Z
	DD	FLAT:?Touch@CBaseEntity@@UAEXPAV1@@Z
	DD	FLAT:?Blocked@CBaseEntity@@UAEXPAV1@@Z
	DD	FLAT:?MoveDone@CBaseEntity@@UAEXXZ
	DD	FLAT:?Respawn@CBaseEntity@@UAEPAV1@XZ
	DD	FLAT:?UpdateOwner@CBaseEntity@@UAEXXZ
	DD	FLAT:?FBecomeProne@CBaseEntity@@UAEHXZ
	DD	FLAT:?Center@CBaseEntity@@UAE?AVVector@@XZ
	DD	FLAT:?EyePosition@CBaseEntity@@UAE?AVVector@@XZ
	DD	FLAT:?EarPosition@CBaseEntity@@UAE?AVVector@@XZ
	DD	FLAT:?BodyTarget@CBaseEntity@@UAE?AVVector@@ABV2@@Z
	DD	FLAT:?IsPointSized@CBaseEntity@@UBEHXZ
	DD	FLAT:?Illumination@CBaseEntity@@UAEHXZ
	DD	FLAT:?FVisible@CBaseEntity@@UAEHABVVector@@@Z
	DD	FLAT:?FVisible@CBaseEntity@@UAEHPAV1@@Z
	DD	FLAT:?ShouldCollide@CBaseEntity@@UAEHPAV1@@Z
CONST	ENDS
;	COMDAT ??_7?$CEntityFactory@VCGameCounter@@@@6B@
CONST	SEGMENT
??_7?$CEntityFactory@VCGameCounter@@@@6B@ DD FLAT:??_R4?$CEntityFactory@VCGameCounter@@@@6B@ ; CEntityFactory<CGameCounter>::`vftable'
	DD	FLAT:?Create@?$CEntityFactory@VCGameCounter@@@@UAEPAVCBaseEntity@@PBDPAUentvars_s@@@Z
	DD	FLAT:?Destroy@?$CEntityFactory@VCGameCounter@@@@UAEXPAVCBaseEntity@@@Z
	DD	FLAT:?GetEntitySize@?$CEntityFactory@VCGameCounter@@@@UAEIXZ
CONST	ENDS
;	COMDAT ??_7CGameCounter@@6B@
CONST	SEGMENT
??_7CGameCounter@@6B@ DD FLAT:??_R4CGameCounter@@6B@	; CGameCounter::`vftable'
	DD	FLAT:?GetDataDescMap@CRuleEntity@@UAEPAUdatamap_s@@XZ
	DD	FLAT:?Spawn@CGameCounter@@UAEXXZ
	DD	FLAT:?Precache@CBaseEntity@@UAEXXZ
	DD	FLAT:?KeyValue@CRuleEntity@@UAEXPAUKeyValueData_s@@@Z
	DD	FLAT:?Save@CBaseEntity@@UAEHAAVCSave@@@Z
	DD	FLAT:?Restore@CBaseEntity@@UAEHAAVCRestore@@@Z
	DD	FLAT:?ObjectCaps@CBaseEntity@@UAEHXZ
	DD	FLAT:?Activate@CBaseEntity@@UAEXXZ
	DD	FLAT:?OnChangeLevel@CBaseEntity@@UAEXXZ
	DD	FLAT:?OnTeleport@CBaseEntity@@UAEXXZ
	DD	FLAT:?PortalSleep@CBaseEntity@@UAEXM@Z
	DD	FLAT:?StartMessage@CBaseEntity@@UAEXPAVCBasePlayer@@@Z
	DD	FLAT:?GetPosition@CBaseEntity@@UAEMXZ
	DD	FLAT:?OnChangeParent@CBaseEntity@@UAEXXZ
	DD	FLAT:?OnClearParent@CBaseEntity@@UAEXXZ
	DD	FLAT:?OnRemove@CBaseEntity@@UAEXXZ
	DD	FLAT:?SetObjectCollisionBox@CBaseEntity@@UAEXXZ
	DD	FLAT:?Classify@CBaseEntity@@UAEHXZ
	DD	FLAT:?DeathNotice@CBaseEntity@@UAEXPAUentvars_s@@@Z
	DD	FLAT:?IsRigidBody@CBaseEntity@@UAEHXZ
	DD	FLAT:?SetNextThink@CBaseEntity@@UAEXM@Z
	DD	FLAT:?GetState@CBaseEntity@@UAE?AW4STATE@@PAV1@@Z
	DD	FLAT:?GetState@CBaseEntity@@UAE?AW4STATE@@XZ
	DD	FLAT:?TraceAttack@CBaseEntity@@UAEXPAUentvars_s@@MVVector@@PAUgametrace_s@@H@Z
	DD	FLAT:?TakeDamage@CBaseEntity@@UAEHPAUentvars_s@@0MH@Z
	DD	FLAT:?TakeHealth@CBaseEntity@@UAEHMH@Z
	DD	FLAT:?TakeArmor@CBaseEntity@@UAEHMH@Z
	DD	FLAT:?Killed@CBaseEntity@@UAEXPAUentvars_s@@H@Z
	DD	FLAT:?BloodColor@CBaseEntity@@UAEHXZ
	DD	FLAT:?TraceBleed@CBaseEntity@@UAEXMVVector@@PAUgametrace_s@@H@Z
	DD	FLAT:?IsTriggered@CBaseEntity@@UAEHPAV1@@Z
	DD	FLAT:?MyMonsterPointer@CBaseEntity@@UAEPAVCBaseMonster@@XZ
	DD	FLAT:?MySquadMonsterPointer@CBaseEntity@@UAEPAVCSquadMonster@@XZ
	DD	FLAT:?GetToggleState@CBaseEntity@@UAEHXZ
	DD	FLAT:?AddPoints@CBaseEntity@@UAEXHH@Z
	DD	FLAT:?AddPointsToTeam@CBaseEntity@@UAEXHH@Z
	DD	FLAT:?AddPlayerItem@CBaseEntity@@UAEHPAVCBasePlayerItem@@@Z
	DD	FLAT:?RemovePlayerItem@CBaseEntity@@UAEHPAVCBasePlayerItem@@@Z
	DD	FLAT:?GiveAmmo@CBaseEntity@@UAEHHPADH@Z
	DD	FLAT:?GetDelay@CBaseEntity@@UAEMXZ
	DD	FLAT:?IsMoving@CBaseEntity@@UAEHXZ
	DD	FLAT:?OverrideReset@CBaseEntity@@UAEXXZ
	DD	FLAT:?TransferReset@CBaseEntity@@UAEXXZ
	DD	FLAT:?DamageDecal@CBaseEntity@@UAEHH@Z
	DD	FLAT:?SetToggleState@CBaseEntity@@UAEXH@Z
	DD	FLAT:?StartSneaking@CBaseEntity@@UAEXXZ
	DD	FLAT:?StopSneaking@CBaseEntity@@UAEXXZ
	DD	FLAT:?OnControls@CBaseEntity@@UAEHPAV1@@Z
	DD	FLAT:?IsSneaking@CBaseEntity@@UAEHXZ
	DD	FLAT:?IsAlive@CBaseEntity@@UAEHXZ
	DD	FLAT:?IsBSPModel@CBaseEntity@@UAEHXZ
	DD	FLAT:?IsCustomModel@CBaseEntity@@UAEHXZ
	DD	FLAT:?ReflectGauss@CBaseEntity@@UAEHXZ
	DD	FLAT:?HasTarget@CBaseEntity@@UAEHH@Z
	DD	FLAT:?IsInWorld@CBaseEntity@@UAEHH@Z
	DD	FLAT:?IsPlayer@CBaseEntity@@UAEHXZ
	DD	FLAT:?IsNetClient@CBaseEntity@@UAEHXZ
	DD	FLAT:?IsMonster@CBaseEntity@@UAEHXZ
	DD	FLAT:?IsPushable@CBaseEntity@@UAEHXZ
	DD	FLAT:?IsProjectile@CBaseEntity@@UAEHXZ
	DD	FLAT:?IsFuncScreen@CBaseEntity@@UAEHXZ
	DD	FLAT:?IsPortal@CBaseEntity@@UAEHXZ
	DD	FLAT:?IsTank@CBaseEntity@@UAEHXZ
	DD	FLAT:?IsMover@CBaseEntity@@UAEHXZ
	DD	FLAT:?IsBreakable@CBaseEntity@@UAEHXZ
	DD	FLAT:?TeamID@CBaseEntity@@UAEPBDXZ
	DD	FLAT:?GetNextTarget@CBaseEntity@@UAEPAV1@XZ
	DD	FLAT:?Think@CBaseEntity@@UAEXXZ
	DD	FLAT:?Use@CGameCounter@@UAEXPAVCBaseEntity@@0W4USE_TYPE@@M@Z
	DD	FLAT:?Touch@CBaseEntity@@UAEXPAV1@@Z
	DD	FLAT:?Blocked@CBaseEntity@@UAEXPAV1@@Z
	DD	FLAT:?MoveDone@CBaseEntity@@UAEXXZ
	DD	FLAT:?Respawn@CBaseEntity@@UAEPAV1@XZ
	DD	FLAT:?UpdateOwner@CBaseEntity@@UAEXXZ
	DD	FLAT:?FBecomeProne@CBaseEntity@@UAEHXZ
	DD	FLAT:?Center@CBaseEntity@@UAE?AVVector@@XZ
	DD	FLAT:?EyePosition@CBaseEntity@@UAE?AVVector@@XZ
	DD	FLAT:?EarPosition@CBaseEntity@@UAE?AVVector@@XZ
	DD	FLAT:?BodyTarget@CBaseEntity@@UAE?AVVector@@ABV2@@Z
	DD	FLAT:?IsPointSized@CBaseEntity@@UBEHXZ
	DD	FLAT:?Illumination@CBaseEntity@@UAEHXZ
	DD	FLAT:?FVisible@CBaseEntity@@UAEHABVVector@@@Z
	DD	FLAT:?FVisible@CBaseEntity@@UAEHPAV1@@Z
	DD	FLAT:?ShouldCollide@CBaseEntity@@UAEHPAV1@@Z
CONST	ENDS
;	COMDAT ??_7?$CEntityFactory@VCGamePlayerHurt@@@@6B@
CONST	SEGMENT
??_7?$CEntityFactory@VCGamePlayerHurt@@@@6B@ DD FLAT:??_R4?$CEntityFactory@VCGamePlayerHurt@@@@6B@ ; CEntityFactory<CGamePlayerHurt>::`vftable'
	DD	FLAT:?Create@?$CEntityFactory@VCGamePlayerHurt@@@@UAEPAVCBaseEntity@@PBDPAUentvars_s@@@Z
	DD	FLAT:?Destroy@?$CEntityFactory@VCGamePlayerHurt@@@@UAEXPAVCBaseEntity@@@Z
	DD	FLAT:?GetEntitySize@?$CEntityFactory@VCGamePlayerHurt@@@@UAEIXZ
CONST	ENDS
;	COMDAT ??_7CGamePlayerHurt@@6B@
CONST	SEGMENT
??_7CGamePlayerHurt@@6B@ DD FLAT:??_R4CGamePlayerHurt@@6B@ ; CGamePlayerHurt::`vftable'
	DD	FLAT:?GetDataDescMap@CRuleEntity@@UAEPAUdatamap_s@@XZ
	DD	FLAT:?Spawn@CRulePointEntity@@UAEXXZ
	DD	FLAT:?Precache@CBaseEntity@@UAEXXZ
	DD	FLAT:?KeyValue@CRuleEntity@@UAEXPAUKeyValueData_s@@@Z
	DD	FLAT:?Save@CBaseEntity@@UAEHAAVCSave@@@Z
	DD	FLAT:?Restore@CBaseEntity@@UAEHAAVCRestore@@@Z
	DD	FLAT:?ObjectCaps@CBaseEntity@@UAEHXZ
	DD	FLAT:?Activate@CBaseEntity@@UAEXXZ
	DD	FLAT:?OnChangeLevel@CBaseEntity@@UAEXXZ
	DD	FLAT:?OnTeleport@CBaseEntity@@UAEXXZ
	DD	FLAT:?PortalSleep@CBaseEntity@@UAEXM@Z
	DD	FLAT:?StartMessage@CBaseEntity@@UAEXPAVCBasePlayer@@@Z
	DD	FLAT:?GetPosition@CBaseEntity@@UAEMXZ
	DD	FLAT:?OnChangeParent@CBaseEntity@@UAEXXZ
	DD	FLAT:?OnClearParent@CBaseEntity@@UAEXXZ
	DD	FLAT:?OnRemove@CBaseEntity@@UAEXXZ
	DD	FLAT:?SetObjectCollisionBox@CBaseEntity@@UAEXXZ
	DD	FLAT:?Classify@CBaseEntity@@UAEHXZ
	DD	FLAT:?DeathNotice@CBaseEntity@@UAEXPAUentvars_s@@@Z
	DD	FLAT:?IsRigidBody@CBaseEntity@@UAEHXZ
	DD	FLAT:?SetNextThink@CBaseEntity@@UAEXM@Z
	DD	FLAT:?GetState@CBaseEntity@@UAE?AW4STATE@@PAV1@@Z
	DD	FLAT:?GetState@CBaseEntity@@UAE?AW4STATE@@XZ
	DD	FLAT:?TraceAttack@CBaseEntity@@UAEXPAUentvars_s@@MVVector@@PAUgametrace_s@@H@Z
	DD	FLAT:?TakeDamage@CBaseEntity@@UAEHPAUentvars_s@@0MH@Z
	DD	FLAT:?TakeHealth@CBaseEntity@@UAEHMH@Z
	DD	FLAT:?TakeArmor@CBaseEntity@@UAEHMH@Z
	DD	FLAT:?Killed@CBaseEntity@@UAEXPAUentvars_s@@H@Z
	DD	FLAT:?BloodColor@CBaseEntity@@UAEHXZ
	DD	FLAT:?TraceBleed@CBaseEntity@@UAEXMVVector@@PAUgametrace_s@@H@Z
	DD	FLAT:?IsTriggered@CBaseEntity@@UAEHPAV1@@Z
	DD	FLAT:?MyMonsterPointer@CBaseEntity@@UAEPAVCBaseMonster@@XZ
	DD	FLAT:?MySquadMonsterPointer@CBaseEntity@@UAEPAVCSquadMonster@@XZ
	DD	FLAT:?GetToggleState@CBaseEntity@@UAEHXZ
	DD	FLAT:?AddPoints@CBaseEntity@@UAEXHH@Z
	DD	FLAT:?AddPointsToTeam@CBaseEntity@@UAEXHH@Z
	DD	FLAT:?AddPlayerItem@CBaseEntity@@UAEHPAVCBasePlayerItem@@@Z
	DD	FLAT:?RemovePlayerItem@CBaseEntity@@UAEHPAVCBasePlayerItem@@@Z
	DD	FLAT:?GiveAmmo@CBaseEntity@@UAEHHPADH@Z
	DD	FLAT:?GetDelay@CBaseEntity@@UAEMXZ
	DD	FLAT:?IsMoving@CBaseEntity@@UAEHXZ
	DD	FLAT:?OverrideReset@CBaseEntity@@UAEXXZ
	DD	FLAT:?TransferReset@CBaseEntity@@UAEXXZ
	DD	FLAT:?DamageDecal@CBaseEntity@@UAEHH@Z
	DD	FLAT:?SetToggleState@CBaseEntity@@UAEXH@Z
	DD	FLAT:?StartSneaking@CBaseEntity@@UAEXXZ
	DD	FLAT:?StopSneaking@CBaseEntity@@UAEXXZ
	DD	FLAT:?OnControls@CBaseEntity@@UAEHPAV1@@Z
	DD	FLAT:?IsSneaking@CBaseEntity@@UAEHXZ
	DD	FLAT:?IsAlive@CBaseEntity@@UAEHXZ
	DD	FLAT:?IsBSPModel@CBaseEntity@@UAEHXZ
	DD	FLAT:?IsCustomModel@CBaseEntity@@UAEHXZ
	DD	FLAT:?ReflectGauss@CBaseEntity@@UAEHXZ
	DD	FLAT:?HasTarget@CBaseEntity@@UAEHH@Z
	DD	FLAT:?IsInWorld@CBaseEntity@@UAEHH@Z
	DD	FLAT:?IsPlayer@CBaseEntity@@UAEHXZ
	DD	FLAT:?IsNetClient@CBaseEntity@@UAEHXZ
	DD	FLAT:?IsMonster@CBaseEntity@@UAEHXZ
	DD	FLAT:?IsPushable@CBaseEntity@@UAEHXZ
	DD	FLAT:?IsProjectile@CBaseEntity@@UAEHXZ
	DD	FLAT:?IsFuncScreen@CBaseEntity@@UAEHXZ
	DD	FLAT:?IsPortal@CBaseEntity@@UAEHXZ
	DD	FLAT:?IsTank@CBaseEntity@@UAEHXZ
	DD	FLAT:?IsMover@CBaseEntity@@UAEHXZ
	DD	FLAT:?IsBreakable@CBaseEntity@@UAEHXZ
	DD	FLAT:?TeamID@CBaseEntity@@UAEPBDXZ
	DD	FLAT:?GetNextTarget@CBaseEntity@@UAEPAV1@XZ
	DD	FLAT:?Think@CBaseEntity@@UAEXXZ
	DD	FLAT:?Use@CGamePlayerHurt@@UAEXPAVCBaseEntity@@0W4USE_TYPE@@M@Z
	DD	FLAT:?Touch@CBaseEntity@@UAEXPAV1@@Z
	DD	FLAT:?Blocked@CBaseEntity@@UAEXPAV1@@Z
	DD	FLAT:?MoveDone@CBaseEntity@@UAEXXZ
	DD	FLAT:?Respawn@CBaseEntity@@UAEPAV1@XZ
	DD	FLAT:?UpdateOwner@CBaseEntity@@UAEXXZ
	DD	FLAT:?FBecomeProne@CBaseEntity@@UAEHXZ
	DD	FLAT:?Center@CBaseEntity@@UAE?AVVector@@XZ
	DD	FLAT:?EyePosition@CBaseEntity@@UAE?AVVector@@XZ
	DD	FLAT:?EarPosition@CBaseEntity@@UAE?AVVector@@XZ
	DD	FLAT:?BodyTarget@CBaseEntity@@UAE?AVVector@@ABV2@@Z
	DD	FLAT:?IsPointSized@CBaseEntity@@UBEHXZ
	DD	FLAT:?Illumination@CBaseEntity@@UAEHXZ
	DD	FLAT:?FVisible@CBaseEntity@@UAEHABVVector@@@Z
	DD	FLAT:?FVisible@CBaseEntity@@UAEHPAV1@@Z
	DD	FLAT:?ShouldCollide@CBaseEntity@@UAEHPAV1@@Z
CONST	ENDS
;	COMDAT ?dataDesc@?1???$DataMapInit@VCGamePlayerZone@@@@YAPAUdatamap_s@@PAVCGamePlayerZone@@@Z@4PAUtypedescription_s@@A
_DATA	SEGMENT
?dataDesc@?1???$DataMapInit@VCGamePlayerZone@@@@YAPAUdatamap_s@@PAVCGamePlayerZone@@@Z@4PAUtypedescription_s@@A DD 012H ; `DataMapInit<CGamePlayerZone>'::`2'::dataDesc
	DD	00H
	DD	00H
	DW	00H
	DW	00H
	DD	00H
	DD	00H
	DD	01H
	DD	FLAT:$SG76127
	DD	0678H
	DW	01H
	DW	06H
	DD	FLAT:$SG76128
	DD	00H
	DD	01H
	DD	FLAT:$SG76129
	DD	067cH
	DW	01H
	DW	06H
	DD	FLAT:$SG76130
	DD	00H
	DD	01H
	DD	FLAT:$SG76131
	DD	0680H
	DW	01H
	DW	06H
	DD	FLAT:$SG76132
	DD	00H
	DD	01H
	DD	FLAT:$SG76133
	DD	0684H
	DW	01H
	DW	06H
	DD	FLAT:$SG76134
	DD	00H
_DATA	ENDS
;	COMDAT ??_7?$CEntityFactory@VCGamePlayerZone@@@@6B@
CONST	SEGMENT
??_7?$CEntityFactory@VCGamePlayerZone@@@@6B@ DD FLAT:??_R4?$CEntityFactory@VCGamePlayerZone@@@@6B@ ; CEntityFactory<CGamePlayerZone>::`vftable'
	DD	FLAT:?Create@?$CEntityFactory@VCGamePlayerZone@@@@UAEPAVCBaseEntity@@PBDPAUentvars_s@@@Z
	DD	FLAT:?Destroy@?$CEntityFactory@VCGamePlayerZone@@@@UAEXPAVCBaseEntity@@@Z
	DD	FLAT:?GetEntitySize@?$CEntityFactory@VCGamePlayerZone@@@@UAEIXZ
CONST	ENDS
;	COMDAT ??_7CGamePlayerZone@@6B@
CONST	SEGMENT
??_7CGamePlayerZone@@6B@ DD FLAT:??_R4CGamePlayerZone@@6B@ ; CGamePlayerZone::`vftable'
	DD	FLAT:?GetDataDescMap@CGamePlayerZone@@UAEPAUdatamap_s@@XZ
	DD	FLAT:?Spawn@CRuleBrushEntity@@UAEXXZ
	DD	FLAT:?Precache@CBaseEntity@@UAEXXZ
	DD	FLAT:?KeyValue@CGamePlayerZone@@UAEXPAUKeyValueData_s@@@Z
	DD	FLAT:?Save@CBaseEntity@@UAEHAAVCSave@@@Z
	DD	FLAT:?Restore@CBaseEntity@@UAEHAAVCRestore@@@Z
	DD	FLAT:?ObjectCaps@CBaseEntity@@UAEHXZ
	DD	FLAT:?Activate@CBaseEntity@@UAEXXZ
	DD	FLAT:?OnChangeLevel@CBaseEntity@@UAEXXZ
	DD	FLAT:?OnTeleport@CBaseEntity@@UAEXXZ
	DD	FLAT:?PortalSleep@CBaseEntity@@UAEXM@Z
	DD	FLAT:?StartMessage@CBaseEntity@@UAEXPAVCBasePlayer@@@Z
	DD	FLAT:?GetPosition@CBaseEntity@@UAEMXZ
	DD	FLAT:?OnChangeParent@CBaseEntity@@UAEXXZ
	DD	FLAT:?OnClearParent@CBaseEntity@@UAEXXZ
	DD	FLAT:?OnRemove@CBaseEntity@@UAEXXZ
	DD	FLAT:?SetObjectCollisionBox@CBaseEntity@@UAEXXZ
	DD	FLAT:?Classify@CBaseEntity@@UAEHXZ
	DD	FLAT:?DeathNotice@CBaseEntity@@UAEXPAUentvars_s@@@Z
	DD	FLAT:?IsRigidBody@CBaseEntity@@UAEHXZ
	DD	FLAT:?SetNextThink@CBaseEntity@@UAEXM@Z
	DD	FLAT:?GetState@CBaseEntity@@UAE?AW4STATE@@PAV1@@Z
	DD	FLAT:?GetState@CBaseEntity@@UAE?AW4STATE@@XZ
	DD	FLAT:?TraceAttack@CBaseEntity@@UAEXPAUentvars_s@@MVVector@@PAUgametrace_s@@H@Z
	DD	FLAT:?TakeDamage@CBaseEntity@@UAEHPAUentvars_s@@0MH@Z
	DD	FLAT:?TakeHealth@CBaseEntity@@UAEHMH@Z
	DD	FLAT:?TakeArmor@CBaseEntity@@UAEHMH@Z
	DD	FLAT:?Killed@CBaseEntity@@UAEXPAUentvars_s@@H@Z
	DD	FLAT:?BloodColor@CBaseEntity@@UAEHXZ
	DD	FLAT:?TraceBleed@CBaseEntity@@UAEXMVVector@@PAUgametrace_s@@H@Z
	DD	FLAT:?IsTriggered@CBaseEntity@@UAEHPAV1@@Z
	DD	FLAT:?MyMonsterPointer@CBaseEntity@@UAEPAVCBaseMonster@@XZ
	DD	FLAT:?MySquadMonsterPointer@CBaseEntity@@UAEPAVCSquadMonster@@XZ
	DD	FLAT:?GetToggleState@CBaseEntity@@UAEHXZ
	DD	FLAT:?AddPoints@CBaseEntity@@UAEXHH@Z
	DD	FLAT:?AddPointsToTeam@CBaseEntity@@UAEXHH@Z
	DD	FLAT:?AddPlayerItem@CBaseEntity@@UAEHPAVCBasePlayerItem@@@Z
	DD	FLAT:?RemovePlayerItem@CBaseEntity@@UAEHPAVCBasePlayerItem@@@Z
	DD	FLAT:?GiveAmmo@CBaseEntity@@UAEHHPADH@Z
	DD	FLAT:?GetDelay@CBaseEntity@@UAEMXZ
	DD	FLAT:?IsMoving@CBaseEntity@@UAEHXZ
	DD	FLAT:?OverrideReset@CBaseEntity@@UAEXXZ
	DD	FLAT:?TransferReset@CBaseEntity@@UAEXXZ
	DD	FLAT:?DamageDecal@CBaseEntity@@UAEHH@Z
	DD	FLAT:?SetToggleState@CBaseEntity@@UAEXH@Z
	DD	FLAT:?StartSneaking@CBaseEntity@@UAEXXZ
	DD	FLAT:?StopSneaking@CBaseEntity@@UAEXXZ
	DD	FLAT:?OnControls@CBaseEntity@@UAEHPAV1@@Z
	DD	FLAT:?IsSneaking@CBaseEntity@@UAEHXZ
	DD	FLAT:?IsAlive@CBaseEntity@@UAEHXZ
	DD	FLAT:?IsBSPModel@CBaseEntity@@UAEHXZ
	DD	FLAT:?IsCustomModel@CBaseEntity@@UAEHXZ
	DD	FLAT:?ReflectGauss@CBaseEntity@@UAEHXZ
	DD	FLAT:?HasTarget@CBaseEntity@@UAEHH@Z
	DD	FLAT:?IsInWorld@CBaseEntity@@UAEHH@Z
	DD	FLAT:?IsPlayer@CBaseEntity@@UAEHXZ
	DD	FLAT:?IsNetClient@CBaseEntity@@UAEHXZ
	DD	FLAT:?IsMonster@CBaseEntity@@UAEHXZ
	DD	FLAT:?IsPushable@CBaseEntity@@UAEHXZ
	DD	FLAT:?IsProjectile@CBaseEntity@@UAEHXZ
	DD	FLAT:?IsFuncScreen@CBaseEntity@@UAEHXZ
	DD	FLAT:?IsPortal@CBaseEntity@@UAEHXZ
	DD	FLAT:?IsTank@CBaseEntity@@UAEHXZ
	DD	FLAT:?IsMover@CBaseEntity@@UAEHXZ
	DD	FLAT:?IsBreakable@CBaseEntity@@UAEHXZ
	DD	FLAT:?TeamID@CBaseEntity@@UAEPBDXZ
	DD	FLAT:?GetNextTarget@CBaseEntity@@UAEPAV1@XZ
	DD	FLAT:?Think@CBaseEntity@@UAEXXZ
	DD	FLAT:?Use@CGamePlayerZone@@UAEXPAVCBaseEntity@@0W4USE_TYPE@@M@Z
	DD	FLAT:?Touch@CBaseEntity@@UAEXPAV1@@Z
	DD	FLAT:?Blocked@CBaseEntity@@UAEXPAV1@@Z
	DD	FLAT:?MoveDone@CBaseEntity@@UAEXXZ
	DD	FLAT:?Respawn@CBaseEntity@@UAEPAV1@XZ
	DD	FLAT:?UpdateOwner@CBaseEntity@@UAEXXZ
	DD	FLAT:?FBecomeProne@CBaseEntity@@UAEHXZ
	DD	FLAT:?Center@CBaseEntity@@UAE?AVVector@@XZ
	DD	FLAT:?EyePosition@CBaseEntity@@UAE?AVVector@@XZ
	DD	FLAT:?EarPosition@CBaseEntity@@UAE?AVVector@@XZ
	DD	FLAT:?BodyTarget@CBaseEntity@@UAE?AVVector@@ABV2@@Z
	DD	FLAT:?IsPointSized@CBaseEntity@@UBEHXZ
	DD	FLAT:?Illumination@CBaseEntity@@UAEHXZ
	DD	FLAT:?FVisible@CBaseEntity@@UAEHABVVector@@@Z
	DD	FLAT:?FVisible@CBaseEntity@@UAEHPAV1@@Z
	DD	FLAT:?ShouldCollide@CBaseEntity@@UAEHPAV1@@Z
CONST	ENDS
;	COMDAT ??_7?$CEntityFactory@VCGameTeamSet@@@@6B@
CONST	SEGMENT
??_7?$CEntityFactory@VCGameTeamSet@@@@6B@ DD FLAT:??_R4?$CEntityFactory@VCGameTeamSet@@@@6B@ ; CEntityFactory<CGameTeamSet>::`vftable'
	DD	FLAT:?Create@?$CEntityFactory@VCGameTeamSet@@@@UAEPAVCBaseEntity@@PBDPAUentvars_s@@@Z
	DD	FLAT:?Destroy@?$CEntityFactory@VCGameTeamSet@@@@UAEXPAVCBaseEntity@@@Z
	DD	FLAT:?GetEntitySize@?$CEntityFactory@VCGameTeamSet@@@@UAEIXZ
CONST	ENDS
;	COMDAT ??_7CGameTeamSet@@6B@
CONST	SEGMENT
??_7CGameTeamSet@@6B@ DD FLAT:??_R4CGameTeamSet@@6B@	; CGameTeamSet::`vftable'
	DD	FLAT:?GetDataDescMap@CRuleEntity@@UAEPAUdatamap_s@@XZ
	DD	FLAT:?Spawn@CRulePointEntity@@UAEXXZ
	DD	FLAT:?Precache@CBaseEntity@@UAEXXZ
	DD	FLAT:?KeyValue@CRuleEntity@@UAEXPAUKeyValueData_s@@@Z
	DD	FLAT:?Save@CBaseEntity@@UAEHAAVCSave@@@Z
	DD	FLAT:?Restore@CBaseEntity@@UAEHAAVCRestore@@@Z
	DD	FLAT:?ObjectCaps@CBaseEntity@@UAEHXZ
	DD	FLAT:?Activate@CBaseEntity@@UAEXXZ
	DD	FLAT:?OnChangeLevel@CBaseEntity@@UAEXXZ
	DD	FLAT:?OnTeleport@CBaseEntity@@UAEXXZ
	DD	FLAT:?PortalSleep@CBaseEntity@@UAEXM@Z
	DD	FLAT:?StartMessage@CBaseEntity@@UAEXPAVCBasePlayer@@@Z
	DD	FLAT:?GetPosition@CBaseEntity@@UAEMXZ
	DD	FLAT:?OnChangeParent@CBaseEntity@@UAEXXZ
	DD	FLAT:?OnClearParent@CBaseEntity@@UAEXXZ
	DD	FLAT:?OnRemove@CBaseEntity@@UAEXXZ
	DD	FLAT:?SetObjectCollisionBox@CBaseEntity@@UAEXXZ
	DD	FLAT:?Classify@CBaseEntity@@UAEHXZ
	DD	FLAT:?DeathNotice@CBaseEntity@@UAEXPAUentvars_s@@@Z
	DD	FLAT:?IsRigidBody@CBaseEntity@@UAEHXZ
	DD	FLAT:?SetNextThink@CBaseEntity@@UAEXM@Z
	DD	FLAT:?GetState@CBaseEntity@@UAE?AW4STATE@@PAV1@@Z
	DD	FLAT:?GetState@CBaseEntity@@UAE?AW4STATE@@XZ
	DD	FLAT:?TraceAttack@CBaseEntity@@UAEXPAUentvars_s@@MVVector@@PAUgametrace_s@@H@Z
	DD	FLAT:?TakeDamage@CBaseEntity@@UAEHPAUentvars_s@@0MH@Z
	DD	FLAT:?TakeHealth@CBaseEntity@@UAEHMH@Z
	DD	FLAT:?TakeArmor@CBaseEntity@@UAEHMH@Z
	DD	FLAT:?Killed@CBaseEntity@@UAEXPAUentvars_s@@H@Z
	DD	FLAT:?BloodColor@CBaseEntity@@UAEHXZ
	DD	FLAT:?TraceBleed@CBaseEntity@@UAEXMVVector@@PAUgametrace_s@@H@Z
	DD	FLAT:?IsTriggered@CBaseEntity@@UAEHPAV1@@Z
	DD	FLAT:?MyMonsterPointer@CBaseEntity@@UAEPAVCBaseMonster@@XZ
	DD	FLAT:?MySquadMonsterPointer@CBaseEntity@@UAEPAVCSquadMonster@@XZ
	DD	FLAT:?GetToggleState@CBaseEntity@@UAEHXZ
	DD	FLAT:?AddPoints@CBaseEntity@@UAEXHH@Z
	DD	FLAT:?AddPointsToTeam@CBaseEntity@@UAEXHH@Z
	DD	FLAT:?AddPlayerItem@CBaseEntity@@UAEHPAVCBasePlayerItem@@@Z
	DD	FLAT:?RemovePlayerItem@CBaseEntity@@UAEHPAVCBasePlayerItem@@@Z
	DD	FLAT:?GiveAmmo@CBaseEntity@@UAEHHPADH@Z
	DD	FLAT:?GetDelay@CBaseEntity@@UAEMXZ
	DD	FLAT:?IsMoving@CBaseEntity@@UAEHXZ
	DD	FLAT:?OverrideReset@CBaseEntity@@UAEXXZ
	DD	FLAT:?TransferReset@CBaseEntity@@UAEXXZ
	DD	FLAT:?DamageDecal@CBaseEntity@@UAEHH@Z
	DD	FLAT:?SetToggleState@CBaseEntity@@UAEXH@Z
	DD	FLAT:?StartSneaking@CBaseEntity@@UAEXXZ
	DD	FLAT:?StopSneaking@CBaseEntity@@UAEXXZ
	DD	FLAT:?OnControls@CBaseEntity@@UAEHPAV1@@Z
	DD	FLAT:?IsSneaking@CBaseEntity@@UAEHXZ
	DD	FLAT:?IsAlive@CBaseEntity@@UAEHXZ
	DD	FLAT:?IsBSPModel@CBaseEntity@@UAEHXZ
	DD	FLAT:?IsCustomModel@CBaseEntity@@UAEHXZ
	DD	FLAT:?ReflectGauss@CBaseEntity@@UAEHXZ
	DD	FLAT:?HasTarget@CBaseEntity@@UAEHH@Z
	DD	FLAT:?IsInWorld@CBaseEntity@@UAEHH@Z
	DD	FLAT:?IsPlayer@CBaseEntity@@UAEHXZ
	DD	FLAT:?IsNetClient@CBaseEntity@@UAEHXZ
	DD	FLAT:?IsMonster@CBaseEntity@@UAEHXZ
	DD	FLAT:?IsPushable@CBaseEntity@@UAEHXZ
	DD	FLAT:?IsProjectile@CBaseEntity@@UAEHXZ
	DD	FLAT:?IsFuncScreen@CBaseEntity@@UAEHXZ
	DD	FLAT:?IsPortal@CBaseEntity@@UAEHXZ
	DD	FLAT:?IsTank@CBaseEntity@@UAEHXZ
	DD	FLAT:?IsMover@CBaseEntity@@UAEHXZ
	DD	FLAT:?IsBreakable@CBaseEntity@@UAEHXZ
	DD	FLAT:?TeamID@CBaseEntity@@UAEPBDXZ
	DD	FLAT:?GetNextTarget@CBaseEntity@@UAEPAV1@XZ
	DD	FLAT:?Think@CBaseEntity@@UAEXXZ
	DD	FLAT:?Use@CGameTeamSet@@UAEXPAVCBaseEntity@@0W4USE_TYPE@@M@Z
	DD	FLAT:?Touch@CBaseEntity@@UAEXPAV1@@Z
	DD	FLAT:?Blocked@CBaseEntity@@UAEXPAV1@@Z
	DD	FLAT:?MoveDone@CBaseEntity@@UAEXXZ
	DD	FLAT:?Respawn@CBaseEntity@@UAEPAV1@XZ
	DD	FLAT:?UpdateOwner@CBaseEntity@@UAEXXZ
	DD	FLAT:?FBecomeProne@CBaseEntity@@UAEHXZ
	DD	FLAT:?Center@CBaseEntity@@UAE?AVVector@@XZ
	DD	FLAT:?EyePosition@CBaseEntity@@UAE?AVVector@@XZ
	DD	FLAT:?EarPosition@CBaseEntity@@UAE?AVVector@@XZ
	DD	FLAT:?BodyTarget@CBaseEntity@@UAE?AVVector@@ABV2@@Z
	DD	FLAT:?IsPointSized@CBaseEntity@@UBEHXZ
	DD	FLAT:?Illumination@CBaseEntity@@UAEHXZ
	DD	FLAT:?FVisible@CBaseEntity@@UAEHABVVector@@@Z
	DD	FLAT:?FVisible@CBaseEntity@@UAEHPAV1@@Z
	DD	FLAT:?ShouldCollide@CBaseEntity@@UAEHPAV1@@Z
CONST	ENDS
;	COMDAT ??_7?$CEntityFactory@VCGameTeamMaster@@@@6B@
CONST	SEGMENT
??_7?$CEntityFactory@VCGameTeamMaster@@@@6B@ DD FLAT:??_R4?$CEntityFactory@VCGameTeamMaster@@@@6B@ ; CEntityFactory<CGameTeamMaster>::`vftable'
	DD	FLAT:?Create@?$CEntityFactory@VCGameTeamMaster@@@@UAEPAVCBaseEntity@@PBDPAUentvars_s@@@Z
	DD	FLAT:?Destroy@?$CEntityFactory@VCGameTeamMaster@@@@UAEXPAVCBaseEntity@@@Z
	DD	FLAT:?GetEntitySize@?$CEntityFactory@VCGameTeamMaster@@@@UAEIXZ
CONST	ENDS
;	COMDAT ??_7CGameTeamMaster@@6B@
CONST	SEGMENT
??_7CGameTeamMaster@@6B@ DD FLAT:??_R4CGameTeamMaster@@6B@ ; CGameTeamMaster::`vftable'
	DD	FLAT:?GetDataDescMap@CRuleEntity@@UAEPAUdatamap_s@@XZ
	DD	FLAT:?Spawn@CRulePointEntity@@UAEXXZ
	DD	FLAT:?Precache@CBaseEntity@@UAEXXZ
	DD	FLAT:?KeyValue@CGameTeamMaster@@UAEXPAUKeyValueData_s@@@Z
	DD	FLAT:?Save@CBaseEntity@@UAEHAAVCSave@@@Z
	DD	FLAT:?Restore@CBaseEntity@@UAEHAAVCRestore@@@Z
	DD	FLAT:?ObjectCaps@CBaseEntity@@UAEHXZ
	DD	FLAT:?Activate@CBaseEntity@@UAEXXZ
	DD	FLAT:?OnChangeLevel@CBaseEntity@@UAEXXZ
	DD	FLAT:?OnTeleport@CBaseEntity@@UAEXXZ
	DD	FLAT:?PortalSleep@CBaseEntity@@UAEXM@Z
	DD	FLAT:?StartMessage@CBaseEntity@@UAEXPAVCBasePlayer@@@Z
	DD	FLAT:?GetPosition@CBaseEntity@@UAEMXZ
	DD	FLAT:?OnChangeParent@CBaseEntity@@UAEXXZ
	DD	FLAT:?OnClearParent@CBaseEntity@@UAEXXZ
	DD	FLAT:?OnRemove@CBaseEntity@@UAEXXZ
	DD	FLAT:?SetObjectCollisionBox@CBaseEntity@@UAEXXZ
	DD	FLAT:?Classify@CBaseEntity@@UAEHXZ
	DD	FLAT:?DeathNotice@CBaseEntity@@UAEXPAUentvars_s@@@Z
	DD	FLAT:?IsRigidBody@CBaseEntity@@UAEHXZ
	DD	FLAT:?SetNextThink@CBaseEntity@@UAEXM@Z
	DD	FLAT:?GetState@CBaseEntity@@UAE?AW4STATE@@PAV1@@Z
	DD	FLAT:?GetState@CBaseEntity@@UAE?AW4STATE@@XZ
	DD	FLAT:?TraceAttack@CBaseEntity@@UAEXPAUentvars_s@@MVVector@@PAUgametrace_s@@H@Z
	DD	FLAT:?TakeDamage@CBaseEntity@@UAEHPAUentvars_s@@0MH@Z
	DD	FLAT:?TakeHealth@CBaseEntity@@UAEHMH@Z
	DD	FLAT:?TakeArmor@CBaseEntity@@UAEHMH@Z
	DD	FLAT:?Killed@CBaseEntity@@UAEXPAUentvars_s@@H@Z
	DD	FLAT:?BloodColor@CBaseEntity@@UAEHXZ
	DD	FLAT:?TraceBleed@CBaseEntity@@UAEXMVVector@@PAUgametrace_s@@H@Z
	DD	FLAT:?IsTriggered@CGameTeamMaster@@UAEHPAVCBaseEntity@@@Z
	DD	FLAT:?MyMonsterPointer@CBaseEntity@@UAEPAVCBaseMonster@@XZ
	DD	FLAT:?MySquadMonsterPointer@CBaseEntity@@UAEPAVCSquadMonster@@XZ
	DD	FLAT:?GetToggleState@CBaseEntity@@UAEHXZ
	DD	FLAT:?AddPoints@CBaseEntity@@UAEXHH@Z
	DD	FLAT:?AddPointsToTeam@CBaseEntity@@UAEXHH@Z
	DD	FLAT:?AddPlayerItem@CBaseEntity@@UAEHPAVCBasePlayerItem@@@Z
	DD	FLAT:?RemovePlayerItem@CBaseEntity@@UAEHPAVCBasePlayerItem@@@Z
	DD	FLAT:?GiveAmmo@CBaseEntity@@UAEHHPADH@Z
	DD	FLAT:?GetDelay@CBaseEntity@@UAEMXZ
	DD	FLAT:?IsMoving@CBaseEntity@@UAEHXZ
	DD	FLAT:?OverrideReset@CBaseEntity@@UAEXXZ
	DD	FLAT:?TransferReset@CBaseEntity@@UAEXXZ
	DD	FLAT:?DamageDecal@CBaseEntity@@UAEHH@Z
	DD	FLAT:?SetToggleState@CBaseEntity@@UAEXH@Z
	DD	FLAT:?StartSneaking@CBaseEntity@@UAEXXZ
	DD	FLAT:?StopSneaking@CBaseEntity@@UAEXXZ
	DD	FLAT:?OnControls@CBaseEntity@@UAEHPAV1@@Z
	DD	FLAT:?IsSneaking@CBaseEntity@@UAEHXZ
	DD	FLAT:?IsAlive@CBaseEntity@@UAEHXZ
	DD	FLAT:?IsBSPModel@CBaseEntity@@UAEHXZ
	DD	FLAT:?IsCustomModel@CBaseEntity@@UAEHXZ
	DD	FLAT:?ReflectGauss@CBaseEntity@@UAEHXZ
	DD	FLAT:?HasTarget@CBaseEntity@@UAEHH@Z
	DD	FLAT:?IsInWorld@CBaseEntity@@UAEHH@Z
	DD	FLAT:?IsPlayer@CBaseEntity@@UAEHXZ
	DD	FLAT:?IsNetClient@CBaseEntity@@UAEHXZ
	DD	FLAT:?IsMonster@CBaseEntity@@UAEHXZ
	DD	FLAT:?IsPushable@CBaseEntity@@UAEHXZ
	DD	FLAT:?IsProjectile@CBaseEntity@@UAEHXZ
	DD	FLAT:?IsFuncScreen@CBaseEntity@@UAEHXZ
	DD	FLAT:?IsPortal@CBaseEntity@@UAEHXZ
	DD	FLAT:?IsTank@CBaseEntity@@UAEHXZ
	DD	FLAT:?IsMover@CBaseEntity@@UAEHXZ
	DD	FLAT:?IsBreakable@CBaseEntity@@UAEHXZ
	DD	FLAT:?TeamID@CGameTeamMaster@@UAEPBDXZ
	DD	FLAT:?GetNextTarget@CBaseEntity@@UAEPAV1@XZ
	DD	FLAT:?Think@CBaseEntity@@UAEXXZ
	DD	FLAT:?Use@CGameTeamMaster@@UAEXPAVCBaseEntity@@0W4USE_TYPE@@M@Z
	DD	FLAT:?Touch@CBaseEntity@@UAEXPAV1@@Z
	DD	FLAT:?Blocked@CBaseEntity@@UAEXPAV1@@Z
	DD	FLAT:?MoveDone@CBaseEntity@@UAEXXZ
	DD	FLAT:?Respawn@CBaseEntity@@UAEPAV1@XZ
	DD	FLAT:?UpdateOwner@CBaseEntity@@UAEXXZ
	DD	FLAT:?FBecomeProne@CBaseEntity@@UAEHXZ
	DD	FLAT:?Center@CBaseEntity@@UAE?AVVector@@XZ
	DD	FLAT:?EyePosition@CBaseEntity@@UAE?AVVector@@XZ
	DD	FLAT:?EarPosition@CBaseEntity@@UAE?AVVector@@XZ
	DD	FLAT:?BodyTarget@CBaseEntity@@UAE?AVVector@@ABV2@@Z
	DD	FLAT:?IsPointSized@CBaseEntity@@UBEHXZ
	DD	FLAT:?Illumination@CBaseEntity@@UAEHXZ
	DD	FLAT:?FVisible@CBaseEntity@@UAEHABVVector@@@Z
	DD	FLAT:?FVisible@CBaseEntity@@UAEHPAV1@@Z
	DD	FLAT:?ShouldCollide@CBaseEntity@@UAEHPAV1@@Z
CONST	ENDS
;	COMDAT ?dataDesc@?1???$DataMapInit@VCGameText@@@@YAPAUdatamap_s@@PAVCGameText@@@Z@4PAUtypedescription_s@@A
_DATA	SEGMENT
?dataDesc@?1???$DataMapInit@VCGameText@@@@YAPAUdatamap_s@@PAVCGameText@@@Z@4PAUtypedescription_s@@A DD 012H ; `DataMapInit<CGameText>'::`2'::dataDesc
	DD	00H
	DD	00H
	DW	00H
	DW	00H
	DD	00H
	DD	00H
	DD	0eH
	DD	FLAT:$SG75769
	DD	0678H
	DW	028H
	DW	02H
	DD	00H
	DD	00H
_DATA	ENDS
;	COMDAT ??_7?$CEntityFactory@VCGameText@@@@6B@
CONST	SEGMENT
??_7?$CEntityFactory@VCGameText@@@@6B@ DD FLAT:??_R4?$CEntityFactory@VCGameText@@@@6B@ ; CEntityFactory<CGameText>::`vftable'
	DD	FLAT:?Create@?$CEntityFactory@VCGameText@@@@UAEPAVCBaseEntity@@PBDPAUentvars_s@@@Z
	DD	FLAT:?Destroy@?$CEntityFactory@VCGameText@@@@UAEXPAVCBaseEntity@@@Z
	DD	FLAT:?GetEntitySize@?$CEntityFactory@VCGameText@@@@UAEIXZ
CONST	ENDS
;	COMDAT ??_7CGameText@@6B@
CONST	SEGMENT
??_7CGameText@@6B@ DD FLAT:??_R4CGameText@@6B@		; CGameText::`vftable'
	DD	FLAT:?GetDataDescMap@CGameText@@UAEPAUdatamap_s@@XZ
	DD	FLAT:?Spawn@CRulePointEntity@@UAEXXZ
	DD	FLAT:?Precache@CBaseEntity@@UAEXXZ
	DD	FLAT:?KeyValue@CGameText@@UAEXPAUKeyValueData_s@@@Z
	DD	FLAT:?Save@CBaseEntity@@UAEHAAVCSave@@@Z
	DD	FLAT:?Restore@CBaseEntity@@UAEHAAVCRestore@@@Z
	DD	FLAT:?ObjectCaps@CBaseEntity@@UAEHXZ
	DD	FLAT:?Activate@CBaseEntity@@UAEXXZ
	DD	FLAT:?OnChangeLevel@CBaseEntity@@UAEXXZ
	DD	FLAT:?OnTeleport@CBaseEntity@@UAEXXZ
	DD	FLAT:?PortalSleep@CBaseEntity@@UAEXM@Z
	DD	FLAT:?StartMessage@CBaseEntity@@UAEXPAVCBasePlayer@@@Z
	DD	FLAT:?GetPosition@CBaseEntity@@UAEMXZ
	DD	FLAT:?OnChangeParent@CBaseEntity@@UAEXXZ
	DD	FLAT:?OnClearParent@CBaseEntity@@UAEXXZ
	DD	FLAT:?OnRemove@CBaseEntity@@UAEXXZ
	DD	FLAT:?SetObjectCollisionBox@CBaseEntity@@UAEXXZ
	DD	FLAT:?Classify@CBaseEntity@@UAEHXZ
	DD	FLAT:?DeathNotice@CBaseEntity@@UAEXPAUentvars_s@@@Z
	DD	FLAT:?IsRigidBody@CBaseEntity@@UAEHXZ
	DD	FLAT:?SetNextThink@CBaseEntity@@UAEXM@Z
	DD	FLAT:?GetState@CBaseEntity@@UAE?AW4STATE@@PAV1@@Z
	DD	FLAT:?GetState@CBaseEntity@@UAE?AW4STATE@@XZ
	DD	FLAT:?TraceAttack@CBaseEntity@@UAEXPAUentvars_s@@MVVector@@PAUgametrace_s@@H@Z
	DD	FLAT:?TakeDamage@CBaseEntity@@UAEHPAUentvars_s@@0MH@Z
	DD	FLAT:?TakeHealth@CBaseEntity@@UAEHMH@Z
	DD	FLAT:?TakeArmor@CBaseEntity@@UAEHMH@Z
	DD	FLAT:?Killed@CBaseEntity@@UAEXPAUentvars_s@@H@Z
	DD	FLAT:?BloodColor@CBaseEntity@@UAEHXZ
	DD	FLAT:?TraceBleed@CBaseEntity@@UAEXMVVector@@PAUgametrace_s@@H@Z
	DD	FLAT:?IsTriggered@CBaseEntity@@UAEHPAV1@@Z
	DD	FLAT:?MyMonsterPointer@CBaseEntity@@UAEPAVCBaseMonster@@XZ
	DD	FLAT:?MySquadMonsterPointer@CBaseEntity@@UAEPAVCSquadMonster@@XZ
	DD	FLAT:?GetToggleState@CBaseEntity@@UAEHXZ
	DD	FLAT:?AddPoints@CBaseEntity@@UAEXHH@Z
	DD	FLAT:?AddPointsToTeam@CBaseEntity@@UAEXHH@Z
	DD	FLAT:?AddPlayerItem@CBaseEntity@@UAEHPAVCBasePlayerItem@@@Z
	DD	FLAT:?RemovePlayerItem@CBaseEntity@@UAEHPAVCBasePlayerItem@@@Z
	DD	FLAT:?GiveAmmo@CBaseEntity@@UAEHHPADH@Z
	DD	FLAT:?GetDelay@CBaseEntity@@UAEMXZ
	DD	FLAT:?IsMoving@CBaseEntity@@UAEHXZ
	DD	FLAT:?OverrideReset@CBaseEntity@@UAEXXZ
	DD	FLAT:?TransferReset@CBaseEntity@@UAEXXZ
	DD	FLAT:?DamageDecal@CBaseEntity@@UAEHH@Z
	DD	FLAT:?SetToggleState@CBaseEntity@@UAEXH@Z
	DD	FLAT:?StartSneaking@CBaseEntity@@UAEXXZ
	DD	FLAT:?StopSneaking@CBaseEntity@@UAEXXZ
	DD	FLAT:?OnControls@CBaseEntity@@UAEHPAV1@@Z
	DD	FLAT:?IsSneaking@CBaseEntity@@UAEHXZ
	DD	FLAT:?IsAlive@CBaseEntity@@UAEHXZ
	DD	FLAT:?IsBSPModel@CBaseEntity@@UAEHXZ
	DD	FLAT:?IsCustomModel@CBaseEntity@@UAEHXZ
	DD	FLAT:?ReflectGauss@CBaseEntity@@UAEHXZ
	DD	FLAT:?HasTarget@CBaseEntity@@UAEHH@Z
	DD	FLAT:?IsInWorld@CBaseEntity@@UAEHH@Z
	DD	FLAT:?IsPlayer@CBaseEntity@@UAEHXZ
	DD	FLAT:?IsNetClient@CBaseEntity@@UAEHXZ
	DD	FLAT:?IsMonster@CBaseEntity@@UAEHXZ
	DD	FLAT:?IsPushable@CBaseEntity@@UAEHXZ
	DD	FLAT:?IsProjectile@CBaseEntity@@UAEHXZ
	DD	FLAT:?IsFuncScreen@CBaseEntity@@UAEHXZ
	DD	FLAT:?IsPortal@CBaseEntity@@UAEHXZ
	DD	FLAT:?IsTank@CBaseEntity@@UAEHXZ
	DD	FLAT:?IsMover@CBaseEntity@@UAEHXZ
	DD	FLAT:?IsBreakable@CBaseEntity@@UAEHXZ
	DD	FLAT:?TeamID@CBaseEntity@@UAEPBDXZ
	DD	FLAT:?GetNextTarget@CBaseEntity@@UAEPAV1@XZ
	DD	FLAT:?Think@CBaseEntity@@UAEXXZ
	DD	FLAT:?Use@CGameText@@UAEXPAVCBaseEntity@@0W4USE_TYPE@@M@Z
	DD	FLAT:?Touch@CBaseEntity@@UAEXPAV1@@Z
	DD	FLAT:?Blocked@CBaseEntity@@UAEXPAV1@@Z
	DD	FLAT:?MoveDone@CBaseEntity@@UAEXXZ
	DD	FLAT:?Respawn@CBaseEntity@@UAEPAV1@XZ
	DD	FLAT:?UpdateOwner@CBaseEntity@@UAEXXZ
	DD	FLAT:?FBecomeProne@CBaseEntity@@UAEHXZ
	DD	FLAT:?Center@CBaseEntity@@UAE?AVVector@@XZ
	DD	FLAT:?EyePosition@CBaseEntity@@UAE?AVVector@@XZ
	DD	FLAT:?EarPosition@CBaseEntity@@UAE?AVVector@@XZ
	DD	FLAT:?BodyTarget@CBaseEntity@@UAE?AVVector@@ABV2@@Z
	DD	FLAT:?IsPointSized@CBaseEntity@@UBEHXZ
	DD	FLAT:?Illumination@CBaseEntity@@UAEHXZ
	DD	FLAT:?FVisible@CBaseEntity@@UAEHABVVector@@@Z
	DD	FLAT:?FVisible@CBaseEntity@@UAEHPAV1@@Z
	DD	FLAT:?ShouldCollide@CBaseEntity@@UAEHPAV1@@Z
CONST	ENDS
;	COMDAT ??_7?$CEntityFactory@VCGameEnd@@@@6B@
CONST	SEGMENT
??_7?$CEntityFactory@VCGameEnd@@@@6B@ DD FLAT:??_R4?$CEntityFactory@VCGameEnd@@@@6B@ ; CEntityFactory<CGameEnd>::`vftable'
	DD	FLAT:?Create@?$CEntityFactory@VCGameEnd@@@@UAEPAVCBaseEntity@@PBDPAUentvars_s@@@Z
	DD	FLAT:?Destroy@?$CEntityFactory@VCGameEnd@@@@UAEXPAVCBaseEntity@@@Z
	DD	FLAT:?GetEntitySize@?$CEntityFactory@VCGameEnd@@@@UAEIXZ
CONST	ENDS
;	COMDAT ??_7CGameEnd@@6B@
CONST	SEGMENT
??_7CGameEnd@@6B@ DD FLAT:??_R4CGameEnd@@6B@		; CGameEnd::`vftable'
	DD	FLAT:?GetDataDescMap@CRuleEntity@@UAEPAUdatamap_s@@XZ
	DD	FLAT:?Spawn@CRulePointEntity@@UAEXXZ
	DD	FLAT:?Precache@CBaseEntity@@UAEXXZ
	DD	FLAT:?KeyValue@CRuleEntity@@UAEXPAUKeyValueData_s@@@Z
	DD	FLAT:?Save@CBaseEntity@@UAEHAAVCSave@@@Z
	DD	FLAT:?Restore@CBaseEntity@@UAEHAAVCRestore@@@Z
	DD	FLAT:?ObjectCaps@CBaseEntity@@UAEHXZ
	DD	FLAT:?Activate@CBaseEntity@@UAEXXZ
	DD	FLAT:?OnChangeLevel@CBaseEntity@@UAEXXZ
	DD	FLAT:?OnTeleport@CBaseEntity@@UAEXXZ
	DD	FLAT:?PortalSleep@CBaseEntity@@UAEXM@Z
	DD	FLAT:?StartMessage@CBaseEntity@@UAEXPAVCBasePlayer@@@Z
	DD	FLAT:?GetPosition@CBaseEntity@@UAEMXZ
	DD	FLAT:?OnChangeParent@CBaseEntity@@UAEXXZ
	DD	FLAT:?OnClearParent@CBaseEntity@@UAEXXZ
	DD	FLAT:?OnRemove@CBaseEntity@@UAEXXZ
	DD	FLAT:?SetObjectCollisionBox@CBaseEntity@@UAEXXZ
	DD	FLAT:?Classify@CBaseEntity@@UAEHXZ
	DD	FLAT:?DeathNotice@CBaseEntity@@UAEXPAUentvars_s@@@Z
	DD	FLAT:?IsRigidBody@CBaseEntity@@UAEHXZ
	DD	FLAT:?SetNextThink@CBaseEntity@@UAEXM@Z
	DD	FLAT:?GetState@CBaseEntity@@UAE?AW4STATE@@PAV1@@Z
	DD	FLAT:?GetState@CBaseEntity@@UAE?AW4STATE@@XZ
	DD	FLAT:?TraceAttack@CBaseEntity@@UAEXPAUentvars_s@@MVVector@@PAUgametrace_s@@H@Z
	DD	FLAT:?TakeDamage@CBaseEntity@@UAEHPAUentvars_s@@0MH@Z
	DD	FLAT:?TakeHealth@CBaseEntity@@UAEHMH@Z
	DD	FLAT:?TakeArmor@CBaseEntity@@UAEHMH@Z
	DD	FLAT:?Killed@CBaseEntity@@UAEXPAUentvars_s@@H@Z
	DD	FLAT:?BloodColor@CBaseEntity@@UAEHXZ
	DD	FLAT:?TraceBleed@CBaseEntity@@UAEXMVVector@@PAUgametrace_s@@H@Z
	DD	FLAT:?IsTriggered@CBaseEntity@@UAEHPAV1@@Z
	DD	FLAT:?MyMonsterPointer@CBaseEntity@@UAEPAVCBaseMonster@@XZ
	DD	FLAT:?MySquadMonsterPointer@CBaseEntity@@UAEPAVCSquadMonster@@XZ
	DD	FLAT:?GetToggleState@CBaseEntity@@UAEHXZ
	DD	FLAT:?AddPoints@CBaseEntity@@UAEXHH@Z
	DD	FLAT:?AddPointsToTeam@CBaseEntity@@UAEXHH@Z
	DD	FLAT:?AddPlayerItem@CBaseEntity@@UAEHPAVCBasePlayerItem@@@Z
	DD	FLAT:?RemovePlayerItem@CBaseEntity@@UAEHPAVCBasePlayerItem@@@Z
	DD	FLAT:?GiveAmmo@CBaseEntity@@UAEHHPADH@Z
	DD	FLAT:?GetDelay@CBaseEntity@@UAEMXZ
	DD	FLAT:?IsMoving@CBaseEntity@@UAEHXZ
	DD	FLAT:?OverrideReset@CBaseEntity@@UAEXXZ
	DD	FLAT:?TransferReset@CBaseEntity@@UAEXXZ
	DD	FLAT:?DamageDecal@CBaseEntity@@UAEHH@Z
	DD	FLAT:?SetToggleState@CBaseEntity@@UAEXH@Z
	DD	FLAT:?StartSneaking@CBaseEntity@@UAEXXZ
	DD	FLAT:?StopSneaking@CBaseEntity@@UAEXXZ
	DD	FLAT:?OnControls@CBaseEntity@@UAEHPAV1@@Z
	DD	FLAT:?IsSneaking@CBaseEntity@@UAEHXZ
	DD	FLAT:?IsAlive@CBaseEntity@@UAEHXZ
	DD	FLAT:?IsBSPModel@CBaseEntity@@UAEHXZ
	DD	FLAT:?IsCustomModel@CBaseEntity@@UAEHXZ
	DD	FLAT:?ReflectGauss@CBaseEntity@@UAEHXZ
	DD	FLAT:?HasTarget@CBaseEntity@@UAEHH@Z
	DD	FLAT:?IsInWorld@CBaseEntity@@UAEHH@Z
	DD	FLAT:?IsPlayer@CBaseEntity@@UAEHXZ
	DD	FLAT:?IsNetClient@CBaseEntity@@UAEHXZ
	DD	FLAT:?IsMonster@CBaseEntity@@UAEHXZ
	DD	FLAT:?IsPushable@CBaseEntity@@UAEHXZ
	DD	FLAT:?IsProjectile@CBaseEntity@@UAEHXZ
	DD	FLAT:?IsFuncScreen@CBaseEntity@@UAEHXZ
	DD	FLAT:?IsPortal@CBaseEntity@@UAEHXZ
	DD	FLAT:?IsTank@CBaseEntity@@UAEHXZ
	DD	FLAT:?IsMover@CBaseEntity@@UAEHXZ
	DD	FLAT:?IsBreakable@CBaseEntity@@UAEHXZ
	DD	FLAT:?TeamID@CBaseEntity@@UAEPBDXZ
	DD	FLAT:?GetNextTarget@CBaseEntity@@UAEPAV1@XZ
	DD	FLAT:?Think@CBaseEntity@@UAEXXZ
	DD	FLAT:?Use@CGameEnd@@UAEXPAVCBaseEntity@@0W4USE_TYPE@@M@Z
	DD	FLAT:?Touch@CBaseEntity@@UAEXPAV1@@Z
	DD	FLAT:?Blocked@CBaseEntity@@UAEXPAV1@@Z
	DD	FLAT:?MoveDone@CBaseEntity@@UAEXXZ
	DD	FLAT:?Respawn@CBaseEntity@@UAEPAV1@XZ
	DD	FLAT:?UpdateOwner@CBaseEntity@@UAEXXZ
	DD	FLAT:?FBecomeProne@CBaseEntity@@UAEHXZ
	DD	FLAT:?Center@CBaseEntity@@UAE?AVVector@@XZ
	DD	FLAT:?EyePosition@CBaseEntity@@UAE?AVVector@@XZ
	DD	FLAT:?EarPosition@CBaseEntity@@UAE?AVVector@@XZ
	DD	FLAT:?BodyTarget@CBaseEntity@@UAE?AVVector@@ABV2@@Z
	DD	FLAT:?IsPointSized@CBaseEntity@@UBEHXZ
	DD	FLAT:?Illumination@CBaseEntity@@UAEHXZ
	DD	FLAT:?FVisible@CBaseEntity@@UAEHABVVector@@@Z
	DD	FLAT:?FVisible@CBaseEntity@@UAEHPAV1@@Z
	DD	FLAT:?ShouldCollide@CBaseEntity@@UAEHPAV1@@Z
CONST	ENDS
;	COMDAT ??_7?$CEntityFactory@VCGameScore@@@@6B@
CONST	SEGMENT
??_7?$CEntityFactory@VCGameScore@@@@6B@ DD FLAT:??_R4?$CEntityFactory@VCGameScore@@@@6B@ ; CEntityFactory<CGameScore>::`vftable'
	DD	FLAT:?Create@?$CEntityFactory@VCGameScore@@@@UAEPAVCBaseEntity@@PBDPAUentvars_s@@@Z
	DD	FLAT:?Destroy@?$CEntityFactory@VCGameScore@@@@UAEXPAVCBaseEntity@@@Z
	DD	FLAT:?GetEntitySize@?$CEntityFactory@VCGameScore@@@@UAEIXZ
CONST	ENDS
;	COMDAT ??_7CGameScore@@6B@
CONST	SEGMENT
??_7CGameScore@@6B@ DD FLAT:??_R4CGameScore@@6B@	; CGameScore::`vftable'
	DD	FLAT:?GetDataDescMap@CRuleEntity@@UAEPAUdatamap_s@@XZ
	DD	FLAT:?Spawn@CGameScore@@UAEXXZ
	DD	FLAT:?Precache@CBaseEntity@@UAEXXZ
	DD	FLAT:?KeyValue@CGameScore@@UAEXPAUKeyValueData_s@@@Z
	DD	FLAT:?Save@CBaseEntity@@UAEHAAVCSave@@@Z
	DD	FLAT:?Restore@CBaseEntity@@UAEHAAVCRestore@@@Z
	DD	FLAT:?ObjectCaps@CBaseEntity@@UAEHXZ
	DD	FLAT:?Activate@CBaseEntity@@UAEXXZ
	DD	FLAT:?OnChangeLevel@CBaseEntity@@UAEXXZ
	DD	FLAT:?OnTeleport@CBaseEntity@@UAEXXZ
	DD	FLAT:?PortalSleep@CBaseEntity@@UAEXM@Z
	DD	FLAT:?StartMessage@CBaseEntity@@UAEXPAVCBasePlayer@@@Z
	DD	FLAT:?GetPosition@CBaseEntity@@UAEMXZ
	DD	FLAT:?OnChangeParent@CBaseEntity@@UAEXXZ
	DD	FLAT:?OnClearParent@CBaseEntity@@UAEXXZ
	DD	FLAT:?OnRemove@CBaseEntity@@UAEXXZ
	DD	FLAT:?SetObjectCollisionBox@CBaseEntity@@UAEXXZ
	DD	FLAT:?Classify@CBaseEntity@@UAEHXZ
	DD	FLAT:?DeathNotice@CBaseEntity@@UAEXPAUentvars_s@@@Z
	DD	FLAT:?IsRigidBody@CBaseEntity@@UAEHXZ
	DD	FLAT:?SetNextThink@CBaseEntity@@UAEXM@Z
	DD	FLAT:?GetState@CBaseEntity@@UAE?AW4STATE@@PAV1@@Z
	DD	FLAT:?GetState@CBaseEntity@@UAE?AW4STATE@@XZ
	DD	FLAT:?TraceAttack@CBaseEntity@@UAEXPAUentvars_s@@MVVector@@PAUgametrace_s@@H@Z
	DD	FLAT:?TakeDamage@CBaseEntity@@UAEHPAUentvars_s@@0MH@Z
	DD	FLAT:?TakeHealth@CBaseEntity@@UAEHMH@Z
	DD	FLAT:?TakeArmor@CBaseEntity@@UAEHMH@Z
	DD	FLAT:?Killed@CBaseEntity@@UAEXPAUentvars_s@@H@Z
	DD	FLAT:?BloodColor@CBaseEntity@@UAEHXZ
	DD	FLAT:?TraceBleed@CBaseEntity@@UAEXMVVector@@PAUgametrace_s@@H@Z
	DD	FLAT:?IsTriggered@CBaseEntity@@UAEHPAV1@@Z
	DD	FLAT:?MyMonsterPointer@CBaseEntity@@UAEPAVCBaseMonster@@XZ
	DD	FLAT:?MySquadMonsterPointer@CBaseEntity@@UAEPAVCSquadMonster@@XZ
	DD	FLAT:?GetToggleState@CBaseEntity@@UAEHXZ
	DD	FLAT:?AddPoints@CBaseEntity@@UAEXHH@Z
	DD	FLAT:?AddPointsToTeam@CBaseEntity@@UAEXHH@Z
	DD	FLAT:?AddPlayerItem@CBaseEntity@@UAEHPAVCBasePlayerItem@@@Z
	DD	FLAT:?RemovePlayerItem@CBaseEntity@@UAEHPAVCBasePlayerItem@@@Z
	DD	FLAT:?GiveAmmo@CBaseEntity@@UAEHHPADH@Z
	DD	FLAT:?GetDelay@CBaseEntity@@UAEMXZ
	DD	FLAT:?IsMoving@CBaseEntity@@UAEHXZ
	DD	FLAT:?OverrideReset@CBaseEntity@@UAEXXZ
	DD	FLAT:?TransferReset@CBaseEntity@@UAEXXZ
	DD	FLAT:?DamageDecal@CBaseEntity@@UAEHH@Z
	DD	FLAT:?SetToggleState@CBaseEntity@@UAEXH@Z
	DD	FLAT:?StartSneaking@CBaseEntity@@UAEXXZ
	DD	FLAT:?StopSneaking@CBaseEntity@@UAEXXZ
	DD	FLAT:?OnControls@CBaseEntity@@UAEHPAV1@@Z
	DD	FLAT:?IsSneaking@CBaseEntity@@UAEHXZ
	DD	FLAT:?IsAlive@CBaseEntity@@UAEHXZ
	DD	FLAT:?IsBSPModel@CBaseEntity@@UAEHXZ
	DD	FLAT:?IsCustomModel@CBaseEntity@@UAEHXZ
	DD	FLAT:?ReflectGauss@CBaseEntity@@UAEHXZ
	DD	FLAT:?HasTarget@CBaseEntity@@UAEHH@Z
	DD	FLAT:?IsInWorld@CBaseEntity@@UAEHH@Z
	DD	FLAT:?IsPlayer@CBaseEntity@@UAEHXZ
	DD	FLAT:?IsNetClient@CBaseEntity@@UAEHXZ
	DD	FLAT:?IsMonster@CBaseEntity@@UAEHXZ
	DD	FLAT:?IsPushable@CBaseEntity@@UAEHXZ
	DD	FLAT:?IsProjectile@CBaseEntity@@UAEHXZ
	DD	FLAT:?IsFuncScreen@CBaseEntity@@UAEHXZ
	DD	FLAT:?IsPortal@CBaseEntity@@UAEHXZ
	DD	FLAT:?IsTank@CBaseEntity@@UAEHXZ
	DD	FLAT:?IsMover@CBaseEntity@@UAEHXZ
	DD	FLAT:?IsBreakable@CBaseEntity@@UAEHXZ
	DD	FLAT:?TeamID@CBaseEntity@@UAEPBDXZ
	DD	FLAT:?GetNextTarget@CBaseEntity@@UAEPAV1@XZ
	DD	FLAT:?Think@CBaseEntity@@UAEXXZ
	DD	FLAT:?Use@CGameScore@@UAEXPAVCBaseEntity@@0W4USE_TYPE@@M@Z
	DD	FLAT:?Touch@CBaseEntity@@UAEXPAV1@@Z
	DD	FLAT:?Blocked@CBaseEntity@@UAEXPAV1@@Z
	DD	FLAT:?MoveDone@CBaseEntity@@UAEXXZ
	DD	FLAT:?Respawn@CBaseEntity@@UAEPAV1@XZ
	DD	FLAT:?UpdateOwner@CBaseEntity@@UAEXXZ
	DD	FLAT:?FBecomeProne@CBaseEntity@@UAEHXZ
	DD	FLAT:?Center@CBaseEntity@@UAE?AVVector@@XZ
	DD	FLAT:?EyePosition@CBaseEntity@@UAE?AVVector@@XZ
	DD	FLAT:?EarPosition@CBaseEntity@@UAE?AVVector@@XZ
	DD	FLAT:?BodyTarget@CBaseEntity@@UAE?AVVector@@ABV2@@Z
	DD	FLAT:?IsPointSized@CBaseEntity@@UBEHXZ
	DD	FLAT:?Illumination@CBaseEntity@@UAEHXZ
	DD	FLAT:?FVisible@CBaseEntity@@UAEHABVVector@@@Z
	DD	FLAT:?FVisible@CBaseEntity@@UAEHPAV1@@Z
	DD	FLAT:?ShouldCollide@CBaseEntity@@UAEHPAV1@@Z
CONST	ENDS
;	COMDAT ??_7CRuleBrushEntity@@6B@
CONST	SEGMENT
??_7CRuleBrushEntity@@6B@ DD FLAT:??_R4CRuleBrushEntity@@6B@ ; CRuleBrushEntity::`vftable'
	DD	FLAT:?GetDataDescMap@CRuleEntity@@UAEPAUdatamap_s@@XZ
	DD	FLAT:?Spawn@CRuleBrushEntity@@UAEXXZ
	DD	FLAT:?Precache@CBaseEntity@@UAEXXZ
	DD	FLAT:?KeyValue@CRuleEntity@@UAEXPAUKeyValueData_s@@@Z
	DD	FLAT:?Save@CBaseEntity@@UAEHAAVCSave@@@Z
	DD	FLAT:?Restore@CBaseEntity@@UAEHAAVCRestore@@@Z
	DD	FLAT:?ObjectCaps@CBaseEntity@@UAEHXZ
	DD	FLAT:?Activate@CBaseEntity@@UAEXXZ
	DD	FLAT:?OnChangeLevel@CBaseEntity@@UAEXXZ
	DD	FLAT:?OnTeleport@CBaseEntity@@UAEXXZ
	DD	FLAT:?PortalSleep@CBaseEntity@@UAEXM@Z
	DD	FLAT:?StartMessage@CBaseEntity@@UAEXPAVCBasePlayer@@@Z
	DD	FLAT:?GetPosition@CBaseEntity@@UAEMXZ
	DD	FLAT:?OnChangeParent@CBaseEntity@@UAEXXZ
	DD	FLAT:?OnClearParent@CBaseEntity@@UAEXXZ
	DD	FLAT:?OnRemove@CBaseEntity@@UAEXXZ
	DD	FLAT:?SetObjectCollisionBox@CBaseEntity@@UAEXXZ
	DD	FLAT:?Classify@CBaseEntity@@UAEHXZ
	DD	FLAT:?DeathNotice@CBaseEntity@@UAEXPAUentvars_s@@@Z
	DD	FLAT:?IsRigidBody@CBaseEntity@@UAEHXZ
	DD	FLAT:?SetNextThink@CBaseEntity@@UAEXM@Z
	DD	FLAT:?GetState@CBaseEntity@@UAE?AW4STATE@@PAV1@@Z
	DD	FLAT:?GetState@CBaseEntity@@UAE?AW4STATE@@XZ
	DD	FLAT:?TraceAttack@CBaseEntity@@UAEXPAUentvars_s@@MVVector@@PAUgametrace_s@@H@Z
	DD	FLAT:?TakeDamage@CBaseEntity@@UAEHPAUentvars_s@@0MH@Z
	DD	FLAT:?TakeHealth@CBaseEntity@@UAEHMH@Z
	DD	FLAT:?TakeArmor@CBaseEntity@@UAEHMH@Z
	DD	FLAT:?Killed@CBaseEntity@@UAEXPAUentvars_s@@H@Z
	DD	FLAT:?BloodColor@CBaseEntity@@UAEHXZ
	DD	FLAT:?TraceBleed@CBaseEntity@@UAEXMVVector@@PAUgametrace_s@@H@Z
	DD	FLAT:?IsTriggered@CBaseEntity@@UAEHPAV1@@Z
	DD	FLAT:?MyMonsterPointer@CBaseEntity@@UAEPAVCBaseMonster@@XZ
	DD	FLAT:?MySquadMonsterPointer@CBaseEntity@@UAEPAVCSquadMonster@@XZ
	DD	FLAT:?GetToggleState@CBaseEntity@@UAEHXZ
	DD	FLAT:?AddPoints@CBaseEntity@@UAEXHH@Z
	DD	FLAT:?AddPointsToTeam@CBaseEntity@@UAEXHH@Z
	DD	FLAT:?AddPlayerItem@CBaseEntity@@UAEHPAVCBasePlayerItem@@@Z
	DD	FLAT:?RemovePlayerItem@CBaseEntity@@UAEHPAVCBasePlayerItem@@@Z
	DD	FLAT:?GiveAmmo@CBaseEntity@@UAEHHPADH@Z
	DD	FLAT:?GetDelay@CBaseEntity@@UAEMXZ
	DD	FLAT:?IsMoving@CBaseEntity@@UAEHXZ
	DD	FLAT:?OverrideReset@CBaseEntity@@UAEXXZ
	DD	FLAT:?TransferReset@CBaseEntity@@UAEXXZ
	DD	FLAT:?DamageDecal@CBaseEntity@@UAEHH@Z
	DD	FLAT:?SetToggleState@CBaseEntity@@UAEXH@Z
	DD	FLAT:?StartSneaking@CBaseEntity@@UAEXXZ
	DD	FLAT:?StopSneaking@CBaseEntity@@UAEXXZ
	DD	FLAT:?OnControls@CBaseEntity@@UAEHPAV1@@Z
	DD	FLAT:?IsSneaking@CBaseEntity@@UAEHXZ
	DD	FLAT:?IsAlive@CBaseEntity@@UAEHXZ
	DD	FLAT:?IsBSPModel@CBaseEntity@@UAEHXZ
	DD	FLAT:?IsCustomModel@CBaseEntity@@UAEHXZ
	DD	FLAT:?ReflectGauss@CBaseEntity@@UAEHXZ
	DD	FLAT:?HasTarget@CBaseEntity@@UAEHH@Z
	DD	FLAT:?IsInWorld@CBaseEntity@@UAEHH@Z
	DD	FLAT:?IsPlayer@CBaseEntity@@UAEHXZ
	DD	FLAT:?IsNetClient@CBaseEntity@@UAEHXZ
	DD	FLAT:?IsMonster@CBaseEntity@@UAEHXZ
	DD	FLAT:?IsPushable@CBaseEntity@@UAEHXZ
	DD	FLAT:?IsProjectile@CBaseEntity@@UAEHXZ
	DD	FLAT:?IsFuncScreen@CBaseEntity@@UAEHXZ
	DD	FLAT:?IsPortal@CBaseEntity@@UAEHXZ
	DD	FLAT:?IsTank@CBaseEntity@@UAEHXZ
	DD	FLAT:?IsMover@CBaseEntity@@UAEHXZ
	DD	FLAT:?IsBreakable@CBaseEntity@@UAEHXZ
	DD	FLAT:?TeamID@CBaseEntity@@UAEPBDXZ
	DD	FLAT:?GetNextTarget@CBaseEntity@@UAEPAV1@XZ
	DD	FLAT:?Think@CBaseEntity@@UAEXXZ
	DD	FLAT:?Use@CBaseEntity@@UAEXPAV1@0W4USE_TYPE@@M@Z
	DD	FLAT:?Touch@CBaseEntity@@UAEXPAV1@@Z
	DD	FLAT:?Blocked@CBaseEntity@@UAEXPAV1@@Z
	DD	FLAT:?MoveDone@CBaseEntity@@UAEXXZ
	DD	FLAT:?Respawn@CBaseEntity@@UAEPAV1@XZ
	DD	FLAT:?UpdateOwner@CBaseEntity@@UAEXXZ
	DD	FLAT:?FBecomeProne@CBaseEntity@@UAEHXZ
	DD	FLAT:?Center@CBaseEntity@@UAE?AVVector@@XZ
	DD	FLAT:?EyePosition@CBaseEntity@@UAE?AVVector@@XZ
	DD	FLAT:?EarPosition@CBaseEntity@@UAE?AVVector@@XZ
	DD	FLAT:?BodyTarget@CBaseEntity@@UAE?AVVector@@ABV2@@Z
	DD	FLAT:?IsPointSized@CBaseEntity@@UBEHXZ
	DD	FLAT:?Illumination@CBaseEntity@@UAEHXZ
	DD	FLAT:?FVisible@CBaseEntity@@UAEHABVVector@@@Z
	DD	FLAT:?FVisible@CBaseEntity@@UAEHPAV1@@Z
	DD	FLAT:?ShouldCollide@CBaseEntity@@UAEHPAV1@@Z
CONST	ENDS
;	COMDAT ??_7CRulePointEntity@@6B@
CONST	SEGMENT
??_7CRulePointEntity@@6B@ DD FLAT:??_R4CRulePointEntity@@6B@ ; CRulePointEntity::`vftable'
	DD	FLAT:?GetDataDescMap@CRuleEntity@@UAEPAUdatamap_s@@XZ
	DD	FLAT:?Spawn@CRulePointEntity@@UAEXXZ
	DD	FLAT:?Precache@CBaseEntity@@UAEXXZ
	DD	FLAT:?KeyValue@CRuleEntity@@UAEXPAUKeyValueData_s@@@Z
	DD	FLAT:?Save@CBaseEntity@@UAEHAAVCSave@@@Z
	DD	FLAT:?Restore@CBaseEntity@@UAEHAAVCRestore@@@Z
	DD	FLAT:?ObjectCaps@CBaseEntity@@UAEHXZ
	DD	FLAT:?Activate@CBaseEntity@@UAEXXZ
	DD	FLAT:?OnChangeLevel@CBaseEntity@@UAEXXZ
	DD	FLAT:?OnTeleport@CBaseEntity@@UAEXXZ
	DD	FLAT:?PortalSleep@CBaseEntity@@UAEXM@Z
	DD	FLAT:?StartMessage@CBaseEntity@@UAEXPAVCBasePlayer@@@Z
	DD	FLAT:?GetPosition@CBaseEntity@@UAEMXZ
	DD	FLAT:?OnChangeParent@CBaseEntity@@UAEXXZ
	DD	FLAT:?OnClearParent@CBaseEntity@@UAEXXZ
	DD	FLAT:?OnRemove@CBaseEntity@@UAEXXZ
	DD	FLAT:?SetObjectCollisionBox@CBaseEntity@@UAEXXZ
	DD	FLAT:?Classify@CBaseEntity@@UAEHXZ
	DD	FLAT:?DeathNotice@CBaseEntity@@UAEXPAUentvars_s@@@Z
	DD	FLAT:?IsRigidBody@CBaseEntity@@UAEHXZ
	DD	FLAT:?SetNextThink@CBaseEntity@@UAEXM@Z
	DD	FLAT:?GetState@CBaseEntity@@UAE?AW4STATE@@PAV1@@Z
	DD	FLAT:?GetState@CBaseEntity@@UAE?AW4STATE@@XZ
	DD	FLAT:?TraceAttack@CBaseEntity@@UAEXPAUentvars_s@@MVVector@@PAUgametrace_s@@H@Z
	DD	FLAT:?TakeDamage@CBaseEntity@@UAEHPAUentvars_s@@0MH@Z
	DD	FLAT:?TakeHealth@CBaseEntity@@UAEHMH@Z
	DD	FLAT:?TakeArmor@CBaseEntity@@UAEHMH@Z
	DD	FLAT:?Killed@CBaseEntity@@UAEXPAUentvars_s@@H@Z
	DD	FLAT:?BloodColor@CBaseEntity@@UAEHXZ
	DD	FLAT:?TraceBleed@CBaseEntity@@UAEXMVVector@@PAUgametrace_s@@H@Z
	DD	FLAT:?IsTriggered@CBaseEntity@@UAEHPAV1@@Z
	DD	FLAT:?MyMonsterPointer@CBaseEntity@@UAEPAVCBaseMonster@@XZ
	DD	FLAT:?MySquadMonsterPointer@CBaseEntity@@UAEPAVCSquadMonster@@XZ
	DD	FLAT:?GetToggleState@CBaseEntity@@UAEHXZ
	DD	FLAT:?AddPoints@CBaseEntity@@UAEXHH@Z
	DD	FLAT:?AddPointsToTeam@CBaseEntity@@UAEXHH@Z
	DD	FLAT:?AddPlayerItem@CBaseEntity@@UAEHPAVCBasePlayerItem@@@Z
	DD	FLAT:?RemovePlayerItem@CBaseEntity@@UAEHPAVCBasePlayerItem@@@Z
	DD	FLAT:?GiveAmmo@CBaseEntity@@UAEHHPADH@Z
	DD	FLAT:?GetDelay@CBaseEntity@@UAEMXZ
	DD	FLAT:?IsMoving@CBaseEntity@@UAEHXZ
	DD	FLAT:?OverrideReset@CBaseEntity@@UAEXXZ
	DD	FLAT:?TransferReset@CBaseEntity@@UAEXXZ
	DD	FLAT:?DamageDecal@CBaseEntity@@UAEHH@Z
	DD	FLAT:?SetToggleState@CBaseEntity@@UAEXH@Z
	DD	FLAT:?StartSneaking@CBaseEntity@@UAEXXZ
	DD	FLAT:?StopSneaking@CBaseEntity@@UAEXXZ
	DD	FLAT:?OnControls@CBaseEntity@@UAEHPAV1@@Z
	DD	FLAT:?IsSneaking@CBaseEntity@@UAEHXZ
	DD	FLAT:?IsAlive@CBaseEntity@@UAEHXZ
	DD	FLAT:?IsBSPModel@CBaseEntity@@UAEHXZ
	DD	FLAT:?IsCustomModel@CBaseEntity@@UAEHXZ
	DD	FLAT:?ReflectGauss@CBaseEntity@@UAEHXZ
	DD	FLAT:?HasTarget@CBaseEntity@@UAEHH@Z
	DD	FLAT:?IsInWorld@CBaseEntity@@UAEHH@Z
	DD	FLAT:?IsPlayer@CBaseEntity@@UAEHXZ
	DD	FLAT:?IsNetClient@CBaseEntity@@UAEHXZ
	DD	FLAT:?IsMonster@CBaseEntity@@UAEHXZ
	DD	FLAT:?IsPushable@CBaseEntity@@UAEHXZ
	DD	FLAT:?IsProjectile@CBaseEntity@@UAEHXZ
	DD	FLAT:?IsFuncScreen@CBaseEntity@@UAEHXZ
	DD	FLAT:?IsPortal@CBaseEntity@@UAEHXZ
	DD	FLAT:?IsTank@CBaseEntity@@UAEHXZ
	DD	FLAT:?IsMover@CBaseEntity@@UAEHXZ
	DD	FLAT:?IsBreakable@CBaseEntity@@UAEHXZ
	DD	FLAT:?TeamID@CBaseEntity@@UAEPBDXZ
	DD	FLAT:?GetNextTarget@CBaseEntity@@UAEPAV1@XZ
	DD	FLAT:?Think@CBaseEntity@@UAEXXZ
	DD	FLAT:?Use@CBaseEntity@@UAEXPAV1@0W4USE_TYPE@@M@Z
	DD	FLAT:?Touch@CBaseEntity@@UAEXPAV1@@Z
	DD	FLAT:?Blocked@CBaseEntity@@UAEXPAV1@@Z
	DD	FLAT:?MoveDone@CBaseEntity@@UAEXXZ
	DD	FLAT:?Respawn@CBaseEntity@@UAEPAV1@XZ
	DD	FLAT:?UpdateOwner@CBaseEntity@@UAEXXZ
	DD	FLAT:?FBecomeProne@CBaseEntity@@UAEHXZ
	DD	FLAT:?Center@CBaseEntity@@UAE?AVVector@@XZ
	DD	FLAT:?EyePosition@CBaseEntity@@UAE?AVVector@@XZ
	DD	FLAT:?EarPosition@CBaseEntity@@UAE?AVVector@@XZ
	DD	FLAT:?BodyTarget@CBaseEntity@@UAE?AVVector@@ABV2@@Z
	DD	FLAT:?IsPointSized@CBaseEntity@@UBEHXZ
	DD	FLAT:?Illumination@CBaseEntity@@UAEHXZ
	DD	FLAT:?FVisible@CBaseEntity@@UAEHABVVector@@@Z
	DD	FLAT:?FVisible@CBaseEntity@@UAEHPAV1@@Z
	DD	FLAT:?ShouldCollide@CBaseEntity@@UAEHPAV1@@Z
CONST	ENDS
;	COMDAT ?dataDesc@?1???$DataMapInit@VCRuleEntity@@@@YAPAUdatamap_s@@PAVCRuleEntity@@@Z@4PAUtypedescription_s@@A
_DATA	SEGMENT
?dataDesc@?1???$DataMapInit@VCRuleEntity@@@@YAPAUdatamap_s@@PAVCRuleEntity@@@Z@4PAUtypedescription_s@@A DD 012H ; `DataMapInit<CRuleEntity>'::`2'::dataDesc
	DD	00H
	DD	00H
	DW	00H
	DW	00H
	DD	00H
	DD	00H
	DD	01H
	DD	FLAT:$SG75418
	DD	0674H
	DW	01H
	DW	06H
	DD	FLAT:$SG75419
	DD	00H
_DATA	ENDS
;	COMDAT ??_7CRuleEntity@@6B@
CONST	SEGMENT
??_7CRuleEntity@@6B@ DD FLAT:??_R4CRuleEntity@@6B@	; CRuleEntity::`vftable'
	DD	FLAT:?GetDataDescMap@CRuleEntity@@UAEPAUdatamap_s@@XZ
	DD	FLAT:?Spawn@CRuleEntity@@UAEXXZ
	DD	FLAT:?Precache@CBaseEntity@@UAEXXZ
	DD	FLAT:?KeyValue@CRuleEntity@@UAEXPAUKeyValueData_s@@@Z
	DD	FLAT:?Save@CBaseEntity@@UAEHAAVCSave@@@Z
	DD	FLAT:?Restore@CBaseEntity@@UAEHAAVCRestore@@@Z
	DD	FLAT:?ObjectCaps@CBaseEntity@@UAEHXZ
	DD	FLAT:?Activate@CBaseEntity@@UAEXXZ
	DD	FLAT:?OnChangeLevel@CBaseEntity@@UAEXXZ
	DD	FLAT:?OnTeleport@CBaseEntity@@UAEXXZ
	DD	FLAT:?PortalSleep@CBaseEntity@@UAEXM@Z
	DD	FLAT:?StartMessage@CBaseEntity@@UAEXPAVCBasePlayer@@@Z
	DD	FLAT:?GetPosition@CBaseEntity@@UAEMXZ
	DD	FLAT:?OnChangeParent@CBaseEntity@@UAEXXZ
	DD	FLAT:?OnClearParent@CBaseEntity@@UAEXXZ
	DD	FLAT:?OnRemove@CBaseEntity@@UAEXXZ
	DD	FLAT:?SetObjectCollisionBox@CBaseEntity@@UAEXXZ
	DD	FLAT:?Classify@CBaseEntity@@UAEHXZ
	DD	FLAT:?DeathNotice@CBaseEntity@@UAEXPAUentvars_s@@@Z
	DD	FLAT:?IsRigidBody@CBaseEntity@@UAEHXZ
	DD	FLAT:?SetNextThink@CBaseEntity@@UAEXM@Z
	DD	FLAT:?GetState@CBaseEntity@@UAE?AW4STATE@@PAV1@@Z
	DD	FLAT:?GetState@CBaseEntity@@UAE?AW4STATE@@XZ
	DD	FLAT:?TraceAttack@CBaseEntity@@UAEXPAUentvars_s@@MVVector@@PAUgametrace_s@@H@Z
	DD	FLAT:?TakeDamage@CBaseEntity@@UAEHPAUentvars_s@@0MH@Z
	DD	FLAT:?TakeHealth@CBaseEntity@@UAEHMH@Z
	DD	FLAT:?TakeArmor@CBaseEntity@@UAEHMH@Z
	DD	FLAT:?Killed@CBaseEntity@@UAEXPAUentvars_s@@H@Z
	DD	FLAT:?BloodColor@CBaseEntity@@UAEHXZ
	DD	FLAT:?TraceBleed@CBaseEntity@@UAEXMVVector@@PAUgametrace_s@@H@Z
	DD	FLAT:?IsTriggered@CBaseEntity@@UAEHPAV1@@Z
	DD	FLAT:?MyMonsterPointer@CBaseEntity@@UAEPAVCBaseMonster@@XZ
	DD	FLAT:?MySquadMonsterPointer@CBaseEntity@@UAEPAVCSquadMonster@@XZ
	DD	FLAT:?GetToggleState@CBaseEntity@@UAEHXZ
	DD	FLAT:?AddPoints@CBaseEntity@@UAEXHH@Z
	DD	FLAT:?AddPointsToTeam@CBaseEntity@@UAEXHH@Z
	DD	FLAT:?AddPlayerItem@CBaseEntity@@UAEHPAVCBasePlayerItem@@@Z
	DD	FLAT:?RemovePlayerItem@CBaseEntity@@UAEHPAVCBasePlayerItem@@@Z
	DD	FLAT:?GiveAmmo@CBaseEntity@@UAEHHPADH@Z
	DD	FLAT:?GetDelay@CBaseEntity@@UAEMXZ
	DD	FLAT:?IsMoving@CBaseEntity@@UAEHXZ
	DD	FLAT:?OverrideReset@CBaseEntity@@UAEXXZ
	DD	FLAT:?TransferReset@CBaseEntity@@UAEXXZ
	DD	FLAT:?DamageDecal@CBaseEntity@@UAEHH@Z
	DD	FLAT:?SetToggleState@CBaseEntity@@UAEXH@Z
	DD	FLAT:?StartSneaking@CBaseEntity@@UAEXXZ
	DD	FLAT:?StopSneaking@CBaseEntity@@UAEXXZ
	DD	FLAT:?OnControls@CBaseEntity@@UAEHPAV1@@Z
	DD	FLAT:?IsSneaking@CBaseEntity@@UAEHXZ
	DD	FLAT:?IsAlive@CBaseEntity@@UAEHXZ
	DD	FLAT:?IsBSPModel@CBaseEntity@@UAEHXZ
	DD	FLAT:?IsCustomModel@CBaseEntity@@UAEHXZ
	DD	FLAT:?ReflectGauss@CBaseEntity@@UAEHXZ
	DD	FLAT:?HasTarget@CBaseEntity@@UAEHH@Z
	DD	FLAT:?IsInWorld@CBaseEntity@@UAEHH@Z
	DD	FLAT:?IsPlayer@CBaseEntity@@UAEHXZ
	DD	FLAT:?IsNetClient@CBaseEntity@@UAEHXZ
	DD	FLAT:?IsMonster@CBaseEntity@@UAEHXZ
	DD	FLAT:?IsPushable@CBaseEntity@@UAEHXZ
	DD	FLAT:?IsProjectile@CBaseEntity@@UAEHXZ
	DD	FLAT:?IsFuncScreen@CBaseEntity@@UAEHXZ
	DD	FLAT:?IsPortal@CBaseEntity@@UAEHXZ
	DD	FLAT:?IsTank@CBaseEntity@@UAEHXZ
	DD	FLAT:?IsMover@CBaseEntity@@UAEHXZ
	DD	FLAT:?IsBreakable@CBaseEntity@@UAEHXZ
	DD	FLAT:?TeamID@CBaseEntity@@UAEPBDXZ
	DD	FLAT:?GetNextTarget@CBaseEntity@@UAEPAV1@XZ
	DD	FLAT:?Think@CBaseEntity@@UAEXXZ
	DD	FLAT:?Use@CBaseEntity@@UAEXPAV1@0W4USE_TYPE@@M@Z
	DD	FLAT:?Touch@CBaseEntity@@UAEXPAV1@@Z
	DD	FLAT:?Blocked@CBaseEntity@@UAEXPAV1@@Z
	DD	FLAT:?MoveDone@CBaseEntity@@UAEXXZ
	DD	FLAT:?Respawn@CBaseEntity@@UAEPAV1@XZ
	DD	FLAT:?UpdateOwner@CBaseEntity@@UAEXXZ
	DD	FLAT:?FBecomeProne@CBaseEntity@@UAEHXZ
	DD	FLAT:?Center@CBaseEntity@@UAE?AVVector@@XZ
	DD	FLAT:?EyePosition@CBaseEntity@@UAE?AVVector@@XZ
	DD	FLAT:?EarPosition@CBaseEntity@@UAE?AVVector@@XZ
	DD	FLAT:?BodyTarget@CBaseEntity@@UAE?AVVector@@ABV2@@Z
	DD	FLAT:?IsPointSized@CBaseEntity@@UBEHXZ
	DD	FLAT:?Illumination@CBaseEntity@@UAEHXZ
	DD	FLAT:?FVisible@CBaseEntity@@UAEHABVVector@@@Z
	DD	FLAT:?FVisible@CBaseEntity@@UAEHPAV1@@Z
	DD	FLAT:?ShouldCollide@CBaseEntity@@UAEHPAV1@@Z
CONST	ENDS
;	COMDAT ??_C@_0N@JILDNHAP@vlight_cache@
CONST	SEGMENT
??_C@_0N@JILDNHAP@vlight_cache@ DB 'vlight_cache', 00H	; `string'
CONST	ENDS
;	COMDAT ??_C@_0L@IKCANML@reflection@
CONST	SEGMENT
??_C@_0L@IKCANML@reflection@ DB 'reflection', 00H	; `string'
CONST	ENDS
;	COMDAT ??_C@_05IAKJCFIM@style@
CONST	SEGMENT
??_C@_05IAKJCFIM@style@ DB 'style', 00H			; `string'
CONST	ENDS
;	COMDAT ??_C@_0M@EAELDHJO@parentflags@
CONST	SEGMENT
??_C@_0M@EAELDHJO@parentflags@ DB 'parentflags', 00H	; `string'
CONST	ENDS
;	COMDAT ??_C@_08JJJAOBDI@movewith@
CONST	SEGMENT
??_C@_08JJJAOBDI@movewith@ DB 'movewith', 00H		; `string'
CONST	ENDS
;	COMDAT ??_C@_06MLKDMCBD@parent@
CONST	SEGMENT
??_C@_06MLKDMCBD@parent@ DB 'parent', 00H		; `string'
CONST	ENDS
;	COMDAT ??_7CBaseEntity@@6B@
CONST	SEGMENT
??_7CBaseEntity@@6B@ DD FLAT:??_R4CBaseEntity@@6B@	; CBaseEntity::`vftable'
	DD	FLAT:?GetDataDescMap@CBaseEntity@@UAEPAUdatamap_s@@XZ
	DD	FLAT:?Spawn@CBaseEntity@@UAEXXZ
	DD	FLAT:?Precache@CBaseEntity@@UAEXXZ
	DD	FLAT:?KeyValue@CBaseEntity@@UAEXPAUKeyValueData_s@@@Z
	DD	FLAT:?Save@CBaseEntity@@UAEHAAVCSave@@@Z
	DD	FLAT:?Restore@CBaseEntity@@UAEHAAVCRestore@@@Z
	DD	FLAT:?ObjectCaps@CBaseEntity@@UAEHXZ
	DD	FLAT:?Activate@CBaseEntity@@UAEXXZ
	DD	FLAT:?OnChangeLevel@CBaseEntity@@UAEXXZ
	DD	FLAT:?OnTeleport@CBaseEntity@@UAEXXZ
	DD	FLAT:?PortalSleep@CBaseEntity@@UAEXM@Z
	DD	FLAT:?StartMessage@CBaseEntity@@UAEXPAVCBasePlayer@@@Z
	DD	FLAT:?GetPosition@CBaseEntity@@UAEMXZ
	DD	FLAT:?OnChangeParent@CBaseEntity@@UAEXXZ
	DD	FLAT:?OnClearParent@CBaseEntity@@UAEXXZ
	DD	FLAT:?OnRemove@CBaseEntity@@UAEXXZ
	DD	FLAT:?SetObjectCollisionBox@CBaseEntity@@UAEXXZ
	DD	FLAT:?Classify@CBaseEntity@@UAEHXZ
	DD	FLAT:?DeathNotice@CBaseEntity@@UAEXPAUentvars_s@@@Z
	DD	FLAT:?IsRigidBody@CBaseEntity@@UAEHXZ
	DD	FLAT:?SetNextThink@CBaseEntity@@UAEXM@Z
	DD	FLAT:?GetState@CBaseEntity@@UAE?AW4STATE@@PAV1@@Z
	DD	FLAT:?GetState@CBaseEntity@@UAE?AW4STATE@@XZ
	DD	FLAT:?TraceAttack@CBaseEntity@@UAEXPAUentvars_s@@MVVector@@PAUgametrace_s@@H@Z
	DD	FLAT:?TakeDamage@CBaseEntity@@UAEHPAUentvars_s@@0MH@Z
	DD	FLAT:?TakeHealth@CBaseEntity@@UAEHMH@Z
	DD	FLAT:?TakeArmor@CBaseEntity@@UAEHMH@Z
	DD	FLAT:?Killed@CBaseEntity@@UAEXPAUentvars_s@@H@Z
	DD	FLAT:?BloodColor@CBaseEntity@@UAEHXZ
	DD	FLAT:?TraceBleed@CBaseEntity@@UAEXMVVector@@PAUgametrace_s@@H@Z
	DD	FLAT:?IsTriggered@CBaseEntity@@UAEHPAV1@@Z
	DD	FLAT:?MyMonsterPointer@CBaseEntity@@UAEPAVCBaseMonster@@XZ
	DD	FLAT:?MySquadMonsterPointer@CBaseEntity@@UAEPAVCSquadMonster@@XZ
	DD	FLAT:?GetToggleState@CBaseEntity@@UAEHXZ
	DD	FLAT:?AddPoints@CBaseEntity@@UAEXHH@Z
	DD	FLAT:?AddPointsToTeam@CBaseEntity@@UAEXHH@Z
	DD	FLAT:?AddPlayerItem@CBaseEntity@@UAEHPAVCBasePlayerItem@@@Z
	DD	FLAT:?RemovePlayerItem@CBaseEntity@@UAEHPAVCBasePlayerItem@@@Z
	DD	FLAT:?GiveAmmo@CBaseEntity@@UAEHHPADH@Z
	DD	FLAT:?GetDelay@CBaseEntity@@UAEMXZ
	DD	FLAT:?IsMoving@CBaseEntity@@UAEHXZ
	DD	FLAT:?OverrideReset@CBaseEntity@@UAEXXZ
	DD	FLAT:?TransferReset@CBaseEntity@@UAEXXZ
	DD	FLAT:?DamageDecal@CBaseEntity@@UAEHH@Z
	DD	FLAT:?SetToggleState@CBaseEntity@@UAEXH@Z
	DD	FLAT:?StartSneaking@CBaseEntity@@UAEXXZ
	DD	FLAT:?StopSneaking@CBaseEntity@@UAEXXZ
	DD	FLAT:?OnControls@CBaseEntity@@UAEHPAV1@@Z
	DD	FLAT:?IsSneaking@CBaseEntity@@UAEHXZ
	DD	FLAT:?IsAlive@CBaseEntity@@UAEHXZ
	DD	FLAT:?IsBSPModel@CBaseEntity@@UAEHXZ
	DD	FLAT:?IsCustomModel@CBaseEntity@@UAEHXZ
	DD	FLAT:?ReflectGauss@CBaseEntity@@UAEHXZ
	DD	FLAT:?HasTarget@CBaseEntity@@UAEHH@Z
	DD	FLAT:?IsInWorld@CBaseEntity@@UAEHH@Z
	DD	FLAT:?IsPlayer@CBaseEntity@@UAEHXZ
	DD	FLAT:?IsNetClient@CBaseEntity@@UAEHXZ
	DD	FLAT:?IsMonster@CBaseEntity@@UAEHXZ
	DD	FLAT:?IsPushable@CBaseEntity@@UAEHXZ
	DD	FLAT:?IsProjectile@CBaseEntity@@UAEHXZ
	DD	FLAT:?IsFuncScreen@CBaseEntity@@UAEHXZ
	DD	FLAT:?IsPortal@CBaseEntity@@UAEHXZ
	DD	FLAT:?IsTank@CBaseEntity@@UAEHXZ
	DD	FLAT:?IsMover@CBaseEntity@@UAEHXZ
	DD	FLAT:?IsBreakable@CBaseEntity@@UAEHXZ
	DD	FLAT:?TeamID@CBaseEntity@@UAEPBDXZ
	DD	FLAT:?GetNextTarget@CBaseEntity@@UAEPAV1@XZ
	DD	FLAT:?Think@CBaseEntity@@UAEXXZ
	DD	FLAT:?Use@CBaseEntity@@UAEXPAV1@0W4USE_TYPE@@M@Z
	DD	FLAT:?Touch@CBaseEntity@@UAEXPAV1@@Z
	DD	FLAT:?Blocked@CBaseEntity@@UAEXPAV1@@Z
	DD	FLAT:?MoveDone@CBaseEntity@@UAEXXZ
	DD	FLAT:?Respawn@CBaseEntity@@UAEPAV1@XZ
	DD	FLAT:?UpdateOwner@CBaseEntity@@UAEXXZ
	DD	FLAT:?FBecomeProne@CBaseEntity@@UAEHXZ
	DD	FLAT:?Center@CBaseEntity@@UAE?AVVector@@XZ
	DD	FLAT:?EyePosition@CBaseEntity@@UAE?AVVector@@XZ
	DD	FLAT:?EarPosition@CBaseEntity@@UAE?AVVector@@XZ
	DD	FLAT:?BodyTarget@CBaseEntity@@UAE?AVVector@@ABV2@@Z
	DD	FLAT:?IsPointSized@CBaseEntity@@UBEHXZ
	DD	FLAT:?Illumination@CBaseEntity@@UAEHXZ
	DD	FLAT:?FVisible@CBaseEntity@@UAEHABVVector@@@Z
	DD	FLAT:?FVisible@CBaseEntity@@UAEHPAV1@@Z
	DD	FLAT:?ShouldCollide@CBaseEntity@@UAEHPAV1@@Z
CONST	ENDS
;	COMDAT ??_C@_00CNPNBAHC@@
CONST	SEGMENT
??_C@_00CNPNBAHC@@ DB 00H				; `string'
CONST	ENDS
;	COMDAT ??_C@_0BF@DOONGEFO@Bad?5pev?5in?5OFFSET?$CI?$CJ?6@
CONST	SEGMENT
??_C@_0BF@DOONGEFO@Bad?5pev?5in?5OFFSET?$CI?$CJ?6@ DB 'Bad pev in OFFSET('
	DB	')', 0aH, 00H				; `string'
CONST	ENDS
;	COMDAT ??_C@_0BF@CPEPILID@Bad?5ent?5in?5OFFSET?$CI?$CJ?6@
CONST	SEGMENT
??_C@_0BF@CPEPILID@Bad?5ent?5in?5OFFSET?$CI?$CJ?6@ DB 'Bad ent in OFFSET('
	DB	')', 0aH, 00H				; `string'
CONST	ENDS
;	COMDAT ??_7IEntityFactory@@6B@
CONST	SEGMENT
??_7IEntityFactory@@6B@ DD FLAT:??_R4IEntityFactory@@6B@ ; IEntityFactory::`vftable'
	DD	FLAT:__purecall
	DD	FLAT:__purecall
	DD	FLAT:__purecall
CONST	ENDS
;	COMDAT xdata$x
xdata$x	SEGMENT
__unwindtable$??$GetClassPtr@VCGameScore@@@@YAPAVCGameScore@@PAV0@PBD@Z DD 0ffffffffH
	DD	FLAT:__unwindfunclet$??$GetClassPtr@VCGameScore@@@@YAPAVCGameScore@@PAV0@PBD@Z$0
__ehfuncinfo$??$GetClassPtr@VCGameScore@@@@YAPAVCGameScore@@PAV0@PBD@Z DD 019930522H
	DD	01H
	DD	FLAT:__unwindtable$??$GetClassPtr@VCGameScore@@@@YAPAVCGameScore@@PAV0@PBD@Z
	DD	2 DUP(00H)
	DD	2 DUP(00H)
	DD	00H
	DD	01H
xdata$x	ENDS
;	COMDAT xdata$x
xdata$x	SEGMENT
__unwindtable$??$GetClassPtr@VCGameEnd@@@@YAPAVCGameEnd@@PAV0@PBD@Z DD 0ffffffffH
	DD	FLAT:__unwindfunclet$??$GetClassPtr@VCGameEnd@@@@YAPAVCGameEnd@@PAV0@PBD@Z$0
__ehfuncinfo$??$GetClassPtr@VCGameEnd@@@@YAPAVCGameEnd@@PAV0@PBD@Z DD 019930522H
	DD	01H
	DD	FLAT:__unwindtable$??$GetClassPtr@VCGameEnd@@@@YAPAVCGameEnd@@PAV0@PBD@Z
	DD	2 DUP(00H)
	DD	2 DUP(00H)
	DD	00H
	DD	01H
xdata$x	ENDS
;	COMDAT xdata$x
xdata$x	SEGMENT
__unwindtable$??$GetClassPtr@VCGameText@@@@YAPAVCGameText@@PAV0@PBD@Z DD 0ffffffffH
	DD	FLAT:__unwindfunclet$??$GetClassPtr@VCGameText@@@@YAPAVCGameText@@PAV0@PBD@Z$0
__ehfuncinfo$??$GetClassPtr@VCGameText@@@@YAPAVCGameText@@PAV0@PBD@Z DD 019930522H
	DD	01H
	DD	FLAT:__unwindtable$??$GetClassPtr@VCGameText@@@@YAPAVCGameText@@PAV0@PBD@Z
	DD	2 DUP(00H)
	DD	2 DUP(00H)
	DD	00H
	DD	01H
xdata$x	ENDS
;	COMDAT xdata$x
xdata$x	SEGMENT
__unwindtable$??$GetClassPtr@VCGameTeamMaster@@@@YAPAVCGameTeamMaster@@PAV0@PBD@Z DD 0ffffffffH
	DD	FLAT:__unwindfunclet$??$GetClassPtr@VCGameTeamMaster@@@@YAPAVCGameTeamMaster@@PAV0@PBD@Z$0
__ehfuncinfo$??$GetClassPtr@VCGameTeamMaster@@@@YAPAVCGameTeamMaster@@PAV0@PBD@Z DD 019930522H
	DD	01H
	DD	FLAT:__unwindtable$??$GetClassPtr@VCGameTeamMaster@@@@YAPAVCGameTeamMaster@@PAV0@PBD@Z
	DD	2 DUP(00H)
	DD	2 DUP(00H)
	DD	00H
	DD	01H
xdata$x	ENDS
;	COMDAT xdata$x
xdata$x	SEGMENT
__unwindtable$??$GetClassPtr@VCGameTeamSet@@@@YAPAVCGameTeamSet@@PAV0@PBD@Z DD 0ffffffffH
	DD	FLAT:__unwindfunclet$??$GetClassPtr@VCGameTeamSet@@@@YAPAVCGameTeamSet@@PAV0@PBD@Z$0
__ehfuncinfo$??$GetClassPtr@VCGameTeamSet@@@@YAPAVCGameTeamSet@@PAV0@PBD@Z DD 019930522H
	DD	01H
	DD	FLAT:__unwindtable$??$GetClassPtr@VCGameTeamSet@@@@YAPAVCGameTeamSet@@PAV0@PBD@Z
	DD	2 DUP(00H)
	DD	2 DUP(00H)
	DD	00H
	DD	01H
xdata$x	ENDS
;	COMDAT xdata$x
xdata$x	SEGMENT
__unwindtable$??$GetClassPtr@VCGamePlayerZone@@@@YAPAVCGamePlayerZone@@PAV0@PBD@Z DD 0ffffffffH
	DD	FLAT:__unwindfunclet$??$GetClassPtr@VCGamePlayerZone@@@@YAPAVCGamePlayerZone@@PAV0@PBD@Z$0
__ehfuncinfo$??$GetClassPtr@VCGamePlayerZone@@@@YAPAVCGamePlayerZone@@PAV0@PBD@Z DD 019930522H
	DD	01H
	DD	FLAT:__unwindtable$??$GetClassPtr@VCGamePlayerZone@@@@YAPAVCGamePlayerZone@@PAV0@PBD@Z
	DD	2 DUP(00H)
	DD	2 DUP(00H)
	DD	00H
	DD	01H
xdata$x	ENDS
;	COMDAT xdata$x
xdata$x	SEGMENT
__unwindtable$??$GetClassPtr@VCGamePlayerHurt@@@@YAPAVCGamePlayerHurt@@PAV0@PBD@Z DD 0ffffffffH
	DD	FLAT:__unwindfunclet$??$GetClassPtr@VCGamePlayerHurt@@@@YAPAVCGamePlayerHurt@@PAV0@PBD@Z$0
__ehfuncinfo$??$GetClassPtr@VCGamePlayerHurt@@@@YAPAVCGamePlayerHurt@@PAV0@PBD@Z DD 019930522H
	DD	01H
	DD	FLAT:__unwindtable$??$GetClassPtr@VCGamePlayerHurt@@@@YAPAVCGamePlayerHurt@@PAV0@PBD@Z
	DD	2 DUP(00H)
	DD	2 DUP(00H)
	DD	00H
	DD	01H
xdata$x	ENDS
;	COMDAT xdata$x
xdata$x	SEGMENT
__unwindtable$??$GetClassPtr@VCGameCounter@@@@YAPAVCGameCounter@@PAV0@PBD@Z DD 0ffffffffH
	DD	FLAT:__unwindfunclet$??$GetClassPtr@VCGameCounter@@@@YAPAVCGameCounter@@PAV0@PBD@Z$0
__ehfuncinfo$??$GetClassPtr@VCGameCounter@@@@YAPAVCGameCounter@@PAV0@PBD@Z DD 019930522H
	DD	01H
	DD	FLAT:__unwindtable$??$GetClassPtr@VCGameCounter@@@@YAPAVCGameCounter@@PAV0@PBD@Z
	DD	2 DUP(00H)
	DD	2 DUP(00H)
	DD	00H
	DD	01H
xdata$x	ENDS
;	COMDAT xdata$x
xdata$x	SEGMENT
__unwindtable$??$GetClassPtr@VCGameCounterSet@@@@YAPAVCGameCounterSet@@PAV0@PBD@Z DD 0ffffffffH
	DD	FLAT:__unwindfunclet$??$GetClassPtr@VCGameCounterSet@@@@YAPAVCGameCounterSet@@PAV0@PBD@Z$0
__ehfuncinfo$??$GetClassPtr@VCGameCounterSet@@@@YAPAVCGameCounterSet@@PAV0@PBD@Z DD 019930522H
	DD	01H
	DD	FLAT:__unwindtable$??$GetClassPtr@VCGameCounterSet@@@@YAPAVCGameCounterSet@@PAV0@PBD@Z
	DD	2 DUP(00H)
	DD	2 DUP(00H)
	DD	00H
	DD	01H
xdata$x	ENDS
;	COMDAT xdata$x
xdata$x	SEGMENT
__unwindtable$??$GetClassPtr@VCGamePlayerEquip@@@@YAPAVCGamePlayerEquip@@PAV0@PBD@Z DD 0ffffffffH
	DD	FLAT:__unwindfunclet$??$GetClassPtr@VCGamePlayerEquip@@@@YAPAVCGamePlayerEquip@@PAV0@PBD@Z$0
__ehfuncinfo$??$GetClassPtr@VCGamePlayerEquip@@@@YAPAVCGamePlayerEquip@@PAV0@PBD@Z DD 019930522H
	DD	01H
	DD	FLAT:__unwindtable$??$GetClassPtr@VCGamePlayerEquip@@@@YAPAVCGamePlayerEquip@@PAV0@PBD@Z
	DD	2 DUP(00H)
	DD	2 DUP(00H)
	DD	00H
	DD	01H
xdata$x	ENDS
;	COMDAT xdata$x
xdata$x	SEGMENT
__unwindtable$??$GetClassPtr@VCGamePlayerTeam@@@@YAPAVCGamePlayerTeam@@PAV0@PBD@Z DD 0ffffffffH
	DD	FLAT:__unwindfunclet$??$GetClassPtr@VCGamePlayerTeam@@@@YAPAVCGamePlayerTeam@@PAV0@PBD@Z$0
__ehfuncinfo$??$GetClassPtr@VCGamePlayerTeam@@@@YAPAVCGamePlayerTeam@@PAV0@PBD@Z DD 019930522H
	DD	01H
	DD	FLAT:__unwindtable$??$GetClassPtr@VCGamePlayerTeam@@@@YAPAVCGamePlayerTeam@@PAV0@PBD@Z
	DD	2 DUP(00H)
	DD	2 DUP(00H)
	DD	00H
	DD	01H
xdata$x	ENDS
xdata$x	SEGMENT
__unwindtable$??$DataMapInit@VCGamePlayerZone@@@@YAPAUdatamap_s@@PAVCGamePlayerZone@@@Z DD 0ffffffffH
	DD	FLAT:__unwindfunclet$??$DataMapInit@VCGamePlayerZone@@@@YAPAUdatamap_s@@PAVCGamePlayerZone@@@Z$0
__unwindtable$??$DataMapInit@VCGameText@@@@YAPAUdatamap_s@@PAVCGameText@@@Z DD 0ffffffffH
	DD	FLAT:__unwindfunclet$??$DataMapInit@VCGameText@@@@YAPAUdatamap_s@@PAVCGameText@@@Z$0
__unwindtable$??$DataMapInit@VCRuleEntity@@@@YAPAUdatamap_s@@PAVCRuleEntity@@@Z DD 0ffffffffH
	DD	FLAT:__unwindfunclet$??$DataMapInit@VCRuleEntity@@@@YAPAUdatamap_s@@PAVCRuleEntity@@@Z$0
__ehfuncinfo$??$DataMapInit@VCGamePlayerZone@@@@YAPAUdatamap_s@@PAVCGamePlayerZone@@@Z DD 019930522H
	DD	01H
	DD	FLAT:__unwindtable$??$DataMapInit@VCGamePlayerZone@@@@YAPAUdatamap_s@@PAVCGamePlayerZone@@@Z
	DD	2 DUP(00H)
	DD	2 DUP(00H)
	DD	00H
	DD	01H
__ehfuncinfo$??$DataMapInit@VCGameText@@@@YAPAUdatamap_s@@PAVCGameText@@@Z DD 019930522H
	DD	01H
	DD	FLAT:__unwindtable$??$DataMapInit@VCGameText@@@@YAPAUdatamap_s@@PAVCGameText@@@Z
	DD	2 DUP(00H)
	DD	2 DUP(00H)
	DD	00H
	DD	01H
__ehfuncinfo$??$DataMapInit@VCRuleEntity@@@@YAPAUdatamap_s@@PAVCRuleEntity@@@Z DD 019930522H
	DD	01H
	DD	FLAT:__unwindtable$??$DataMapInit@VCRuleEntity@@@@YAPAUdatamap_s@@PAVCRuleEntity@@@Z
	DD	2 DUP(00H)
	DD	2 DUP(00H)
	DD	00H
	DD	01H
xdata$x	ENDS
;	COMDAT xdata$x
xdata$x	SEGMENT
__ehfuncinfo$??1?$CUtlMemory@PADH@@QAE@XZ DD 019930522H
	DD	00H
	DD	00H
	DD	2 DUP(00H)
	DD	2 DUP(00H)
	DD	00H
	DD	05H
xdata$x	ENDS
;	COMDAT xdata$x
xdata$x	SEGMENT
__ehfuncinfo$??1?$CUtlArray@PADV?$CUtlMemory@PADH@@@@QAE@XZ DD 019930522H
	DD	00H
	DD	00H
	DD	2 DUP(00H)
	DD	2 DUP(00H)
	DD	00H
	DD	05H
xdata$x	ENDS
;	COMDAT xdata$x
xdata$x	SEGMENT
__unwindtable$??0?$CUtlArray@PADV?$CUtlMemory@PADH@@@@QAE@HH@Z DD 0ffffffffH
	DD	FLAT:__unwindfunclet$??0?$CUtlArray@PADV?$CUtlMemory@PADH@@@@QAE@HH@Z$0
__ehfuncinfo$??0?$CUtlArray@PADV?$CUtlMemory@PADH@@@@QAE@HH@Z DD 019930522H
	DD	01H
	DD	FLAT:__unwindtable$??0?$CUtlArray@PADV?$CUtlMemory@PADH@@@@QAE@HH@Z
	DD	2 DUP(00H)
	DD	2 DUP(00H)
	DD	00H
	DD	01H
xdata$x	ENDS
;	COMDAT xdata$x
xdata$x	SEGMENT
__ehfuncinfo$??1CDatadescGeneratedNameHolder@@QAE@XZ DD 019930522H
	DD	00H
	DD	00H
	DD	2 DUP(00H)
	DD	2 DUP(00H)
	DD	00H
	DD	05H
xdata$x	ENDS
CRT$XCU	SEGMENT
?game_score$initializer$@@3P6AXXZA DD FLAT:??__Egame_score@@YAXXZ ; game_score$initializer$
CRT$XCU	ENDS
CRT$XCU	SEGMENT
?game_end$initializer$@@3P6AXXZA DD FLAT:??__Egame_end@@YAXXZ ; game_end$initializer$
CRT$XCU	ENDS
CRT$XCU	SEGMENT
?game_text$initializer$@@3P6AXXZA DD FLAT:??__Egame_text@@YAXXZ ; game_text$initializer$
CRT$XCU	ENDS
CRT$XCU	SEGMENT
?g_DataMapHolder$initializer$@CGameText_DataDescInit@@3P6AXXZA DD FLAT:??__Eg_DataMapHolder@CGameText_DataDescInit@@YAXXZ ; CGameText_DataDescInit::g_DataMapHolder$initializer$
CRT$XCU	ENDS
CRT$XCU	SEGMENT
?game_team_master$initializer$@@3P6AXXZA DD FLAT:??__Egame_team_master@@YAXXZ ; game_team_master$initializer$
CRT$XCU	ENDS
CRT$XCU	SEGMENT
?game_team_set$initializer$@@3P6AXXZA DD FLAT:??__Egame_team_set@@YAXXZ ; game_team_set$initializer$
CRT$XCU	ENDS
CRT$XCU	SEGMENT
?game_zone_player$initializer$@@3P6AXXZA DD FLAT:??__Egame_zone_player@@YAXXZ ; game_zone_player$initializer$
CRT$XCU	ENDS
CRT$XCU	SEGMENT
?g_DataMapHolder$initializer$@CGamePlayerZone_DataDescInit@@3P6AXXZA DD FLAT:??__Eg_DataMapHolder@CGamePlayerZone_DataDescInit@@YAXXZ ; CGamePlayerZone_DataDescInit::g_DataMapHolder$initializer$
CRT$XCU	ENDS
CRT$XCU	SEGMENT
?game_player_hurt$initializer$@@3P6AXXZA DD FLAT:??__Egame_player_hurt@@YAXXZ ; game_player_hurt$initializer$
CRT$XCU	ENDS
CRT$XCU	SEGMENT
?game_counter$initializer$@@3P6AXXZA DD FLAT:??__Egame_counter@@YAXXZ ; game_counter$initializer$
CRT$XCU	ENDS
CRT$XCU	SEGMENT
?game_counter_set$initializer$@@3P6AXXZA DD FLAT:??__Egame_counter_set@@YAXXZ ; game_counter_set$initializer$
CRT$XCU	ENDS
CRT$XCU	SEGMENT
?game_player_equip$initializer$@@3P6AXXZA DD FLAT:??__Egame_player_equip@@YAXXZ ; game_player_equip$initializer$
CRT$XCU	ENDS
CRT$XCU	SEGMENT
?game_player_team$initializer$@@3P6AXXZA DD FLAT:??__Egame_player_team@@YAXXZ ; game_player_team$initializer$
CRT$XCU	ENDS
; Function compile flags: /Odtp
; File c:\users\user\downloads\xashxt_v0.81_rev.1_with_sources\xashxt_v0.81_rev.1_src\game_shared\utlmemory.h
;	COMDAT ??$Destruct@PAD@@YAXPAPAD@Z
_TEXT	SEGMENT
_pMemory$ = 8						; size = 4
??$Destruct@PAD@@YAXPAPAD@Z PROC			; Destruct<char *>, COMDAT

; 49   : {

	push	ebp
	mov	ebp, esp

; 50   : 	pMemory->~T();
; 51   : 
; 52   : #ifdef _DEBUG
; 53   : 	memset( pMemory, 0xDD, sizeof(T) );

	push	4
	push	221					; 000000ddH
	mov	eax, DWORD PTR _pMemory$[ebp]
	push	eax
	call	_memset
	add	esp, 12					; 0000000cH

; 54   : #endif
; 55   : }

	pop	ebp
	ret	0
??$Destruct@PAD@@YAXPAPAD@Z ENDP			; Destruct<char *>
_TEXT	ENDS
; Function compile flags: /Odtp
; File c:\users\user\downloads\xashxt_v0.81_rev.1_with_sources\xashxt_v0.81_rev.1_src\server\cbase.h
;	COMDAT ??$GetClassPtr@VCGameScore@@@@YAPAVCGameScore@@PAV0@PBD@Z
_TEXT	SEGMENT
$T2 = -28						; size = 4
tv85 = -24						; size = 4
$T3 = -20						; size = 4
_pev$ = -16						; size = 4
__$EHRec$ = -12						; size = 12
_newEnt$ = 8						; size = 4
_className$ = 12					; size = 4
??$GetClassPtr@VCGameScore@@@@YAPAVCGameScore@@PAV0@PBD@Z PROC ; GetClassPtr<CGameScore>, COMDAT

; 1076 : {

	push	ebp
	mov	ebp, esp
	push	-1
	push	__ehhandler$??$GetClassPtr@VCGameScore@@@@YAPAVCGameScore@@PAV0@PBD@Z
	mov	eax, DWORD PTR fs:0
	push	eax
	sub	esp, 16					; 00000010H
	mov	eax, DWORD PTR ___security_cookie
	xor	eax, ebp
	push	eax
	lea	eax, DWORD PTR __$EHRec$[ebp]
	mov	DWORD PTR fs:0, eax

; 1077 : 	entvars_t *pev = (entvars_t *)newEnt;

	mov	eax, DWORD PTR _newEnt$[ebp]
	mov	DWORD PTR _pev$[ebp], eax

; 1078 : 
; 1079 : 	// allocate entity if necessary
; 1080 : 	if (pev == NULL)

	cmp	DWORD PTR _pev$[ebp], 0
	jne	SHORT $LN2@GetClassPt

; 1081 : 		pev = VARS(CREATE_ENTITY());

	call	DWORD PTR ?g_engfuncs@@3Uenginefuncs_s@@A+84
	push	eax
	call	?VARS@@YAPAUentvars_s@@PAUedict_s@@@Z	; VARS
	add	esp, 4
	mov	DWORD PTR _pev$[ebp], eax
$LN2@GetClassPt:

; 1082 : 
; 1083 : 	// get the private data
; 1084 : 	newEnt = (T *)GET_PRIVATE(ENT(pev));

	mov	ecx, DWORD PTR _pev$[ebp]
	push	ecx
	call	?ENT@@YAPAUedict_s@@PBUentvars_s@@@Z	; ENT
	add	esp, 4
	push	eax
	call	?GET_PRIVATE@@YAPAXPAUedict_s@@@Z	; GET_PRIVATE
	add	esp, 4
	mov	DWORD PTR _newEnt$[ebp], eax

; 1085 : 
; 1086 : 	if (newEnt == NULL) 

	cmp	DWORD PTR _newEnt$[ebp], 0
	jne	SHORT $LN3@GetClassPt

; 1087 : 	{
; 1088 : 		// allocate private data 
; 1089 : 		newEnt = new(pev) T;

	mov	edx, DWORD PTR _pev$[ebp]
	push	edx
	push	1656					; 00000678H
	call	??2CBaseEntity@@SAPAXIPAUentvars_s@@@Z	; CBaseEntity::operator new
	add	esp, 8
	mov	DWORD PTR $T3[ebp], eax
	mov	DWORD PTR __$EHRec$[ebp+8], 0
	cmp	DWORD PTR $T3[ebp], 0
	je	SHORT $LN5@GetClassPt
	mov	ecx, DWORD PTR $T3[ebp]
	call	??0CGameScore@@QAE@XZ
	mov	DWORD PTR tv85[ebp], eax
	jmp	SHORT $LN6@GetClassPt
$LN5@GetClassPt:
	mov	DWORD PTR tv85[ebp], 0
$LN6@GetClassPt:
	mov	eax, DWORD PTR tv85[ebp]
	mov	DWORD PTR $T2[ebp], eax
	mov	DWORD PTR __$EHRec$[ebp+8], -1
	mov	ecx, DWORD PTR $T2[ebp]
	mov	DWORD PTR _newEnt$[ebp], ecx

; 1090 : 		newEnt->pev = pev;

	mov	edx, DWORD PTR _newEnt$[ebp]
	mov	eax, DWORD PTR _pev$[ebp]
	mov	DWORD PTR [edx+4], eax
$LN3@GetClassPt:

; 1091 : 	}
; 1092 : 	newEnt->SetClassname( className );

	mov	ecx, DWORD PTR _className$[ebp]
	push	ecx
	mov	ecx, DWORD PTR _newEnt$[ebp]
	call	?SetClassname@CBaseEntity@@QAEXPBD@Z	; CBaseEntity::SetClassname

; 1093 : 
; 1094 : 	return newEnt;

	mov	eax, DWORD PTR _newEnt$[ebp]

; 1095 : }

	mov	ecx, DWORD PTR __$EHRec$[ebp]
	mov	DWORD PTR fs:0, ecx
	pop	ecx
	mov	esp, ebp
	pop	ebp
	ret	0
_TEXT	ENDS
;	COMDAT text$x
text$x	SEGMENT
__unwindfunclet$??$GetClassPtr@VCGameScore@@@@YAPAVCGameScore@@PAV0@PBD@Z$0:
	mov	eax, DWORD PTR _pev$[ebp]
	push	eax
	mov	eax, DWORD PTR $T3[ebp]
	push	eax
	call	??3CBaseEntity@@SAXPAXPAUentvars_s@@@Z	; CBaseEntity::operator delete
	add	esp, 8
	ret	0
__ehhandler$??$GetClassPtr@VCGameScore@@@@YAPAVCGameScore@@PAV0@PBD@Z:
	mov	edx, DWORD PTR [esp+8]
	lea	eax, DWORD PTR [edx+12]
	mov	ecx, DWORD PTR [edx-20]
	xor	ecx, eax
	call	@__security_check_cookie@4
	mov	eax, OFFSET __ehfuncinfo$??$GetClassPtr@VCGameScore@@@@YAPAVCGameScore@@PAV0@PBD@Z
	jmp	___CxxFrameHandler3
text$x	ENDS
??$GetClassPtr@VCGameScore@@@@YAPAVCGameScore@@PAV0@PBD@Z ENDP ; GetClassPtr<CGameScore>
; Function compile flags: /Odtp
; File c:\users\user\downloads\xashxt_v0.81_rev.1_with_sources\xashxt_v0.81_rev.1_src\server\cbase.h
;	COMDAT ??$GetClassPtr@VCGameEnd@@@@YAPAVCGameEnd@@PAV0@PBD@Z
_TEXT	SEGMENT
$T2 = -28						; size = 4
tv85 = -24						; size = 4
$T3 = -20						; size = 4
_pev$ = -16						; size = 4
__$EHRec$ = -12						; size = 12
_newEnt$ = 8						; size = 4
_className$ = 12					; size = 4
??$GetClassPtr@VCGameEnd@@@@YAPAVCGameEnd@@PAV0@PBD@Z PROC ; GetClassPtr<CGameEnd>, COMDAT

; 1076 : {

	push	ebp
	mov	ebp, esp
	push	-1
	push	__ehhandler$??$GetClassPtr@VCGameEnd@@@@YAPAVCGameEnd@@PAV0@PBD@Z
	mov	eax, DWORD PTR fs:0
	push	eax
	sub	esp, 16					; 00000010H
	mov	eax, DWORD PTR ___security_cookie
	xor	eax, ebp
	push	eax
	lea	eax, DWORD PTR __$EHRec$[ebp]
	mov	DWORD PTR fs:0, eax

; 1077 : 	entvars_t *pev = (entvars_t *)newEnt;

	mov	eax, DWORD PTR _newEnt$[ebp]
	mov	DWORD PTR _pev$[ebp], eax

; 1078 : 
; 1079 : 	// allocate entity if necessary
; 1080 : 	if (pev == NULL)

	cmp	DWORD PTR _pev$[ebp], 0
	jne	SHORT $LN2@GetClassPt

; 1081 : 		pev = VARS(CREATE_ENTITY());

	call	DWORD PTR ?g_engfuncs@@3Uenginefuncs_s@@A+84
	push	eax
	call	?VARS@@YAPAUentvars_s@@PAUedict_s@@@Z	; VARS
	add	esp, 4
	mov	DWORD PTR _pev$[ebp], eax
$LN2@GetClassPt:

; 1082 : 
; 1083 : 	// get the private data
; 1084 : 	newEnt = (T *)GET_PRIVATE(ENT(pev));

	mov	ecx, DWORD PTR _pev$[ebp]
	push	ecx
	call	?ENT@@YAPAUedict_s@@PBUentvars_s@@@Z	; ENT
	add	esp, 4
	push	eax
	call	?GET_PRIVATE@@YAPAXPAUedict_s@@@Z	; GET_PRIVATE
	add	esp, 4
	mov	DWORD PTR _newEnt$[ebp], eax

; 1085 : 
; 1086 : 	if (newEnt == NULL) 

	cmp	DWORD PTR _newEnt$[ebp], 0
	jne	SHORT $LN3@GetClassPt

; 1087 : 	{
; 1088 : 		// allocate private data 
; 1089 : 		newEnt = new(pev) T;

	mov	edx, DWORD PTR _pev$[ebp]
	push	edx
	push	1656					; 00000678H
	call	??2CBaseEntity@@SAPAXIPAUentvars_s@@@Z	; CBaseEntity::operator new
	add	esp, 8
	mov	DWORD PTR $T3[ebp], eax
	mov	DWORD PTR __$EHRec$[ebp+8], 0
	cmp	DWORD PTR $T3[ebp], 0
	je	SHORT $LN5@GetClassPt
	mov	ecx, DWORD PTR $T3[ebp]
	call	??0CGameEnd@@QAE@XZ
	mov	DWORD PTR tv85[ebp], eax
	jmp	SHORT $LN6@GetClassPt
$LN5@GetClassPt:
	mov	DWORD PTR tv85[ebp], 0
$LN6@GetClassPt:
	mov	eax, DWORD PTR tv85[ebp]
	mov	DWORD PTR $T2[ebp], eax
	mov	DWORD PTR __$EHRec$[ebp+8], -1
	mov	ecx, DWORD PTR $T2[ebp]
	mov	DWORD PTR _newEnt$[ebp], ecx

; 1090 : 		newEnt->pev = pev;

	mov	edx, DWORD PTR _newEnt$[ebp]
	mov	eax, DWORD PTR _pev$[ebp]
	mov	DWORD PTR [edx+4], eax
$LN3@GetClassPt:

; 1091 : 	}
; 1092 : 	newEnt->SetClassname( className );

	mov	ecx, DWORD PTR _className$[ebp]
	push	ecx
	mov	ecx, DWORD PTR _newEnt$[ebp]
	call	?SetClassname@CBaseEntity@@QAEXPBD@Z	; CBaseEntity::SetClassname

; 1093 : 
; 1094 : 	return newEnt;

	mov	eax, DWORD PTR _newEnt$[ebp]

; 1095 : }

	mov	ecx, DWORD PTR __$EHRec$[ebp]
	mov	DWORD PTR fs:0, ecx
	pop	ecx
	mov	esp, ebp
	pop	ebp
	ret	0
_TEXT	ENDS
;	COMDAT text$x
text$x	SEGMENT
__unwindfunclet$??$GetClassPtr@VCGameEnd@@@@YAPAVCGameEnd@@PAV0@PBD@Z$0:
	mov	eax, DWORD PTR _pev$[ebp]
	push	eax
	mov	eax, DWORD PTR $T3[ebp]
	push	eax
	call	??3CBaseEntity@@SAXPAXPAUentvars_s@@@Z	; CBaseEntity::operator delete
	add	esp, 8
	ret	0
__ehhandler$??$GetClassPtr@VCGameEnd@@@@YAPAVCGameEnd@@PAV0@PBD@Z:
	mov	edx, DWORD PTR [esp+8]
	lea	eax, DWORD PTR [edx+12]
	mov	ecx, DWORD PTR [edx-20]
	xor	ecx, eax
	call	@__security_check_cookie@4
	mov	eax, OFFSET __ehfuncinfo$??$GetClassPtr@VCGameEnd@@@@YAPAVCGameEnd@@PAV0@PBD@Z
	jmp	___CxxFrameHandler3
text$x	ENDS
??$GetClassPtr@VCGameEnd@@@@YAPAVCGameEnd@@PAV0@PBD@Z ENDP ; GetClassPtr<CGameEnd>
; Function compile flags: /Odtp
; File c:\users\user\downloads\xashxt_v0.81_rev.1_with_sources\xashxt_v0.81_rev.1_src\server\cbase.h
;	COMDAT ??$GetClassPtr@VCGameText@@@@YAPAVCGameText@@PAV0@PBD@Z
_TEXT	SEGMENT
$T2 = -28						; size = 4
tv85 = -24						; size = 4
$T3 = -20						; size = 4
_pev$ = -16						; size = 4
__$EHRec$ = -12						; size = 12
_newEnt$ = 8						; size = 4
_className$ = 12					; size = 4
??$GetClassPtr@VCGameText@@@@YAPAVCGameText@@PAV0@PBD@Z PROC ; GetClassPtr<CGameText>, COMDAT

; 1076 : {

	push	ebp
	mov	ebp, esp
	push	-1
	push	__ehhandler$??$GetClassPtr@VCGameText@@@@YAPAVCGameText@@PAV0@PBD@Z
	mov	eax, DWORD PTR fs:0
	push	eax
	sub	esp, 16					; 00000010H
	mov	eax, DWORD PTR ___security_cookie
	xor	eax, ebp
	push	eax
	lea	eax, DWORD PTR __$EHRec$[ebp]
	mov	DWORD PTR fs:0, eax

; 1077 : 	entvars_t *pev = (entvars_t *)newEnt;

	mov	eax, DWORD PTR _newEnt$[ebp]
	mov	DWORD PTR _pev$[ebp], eax

; 1078 : 
; 1079 : 	// allocate entity if necessary
; 1080 : 	if (pev == NULL)

	cmp	DWORD PTR _pev$[ebp], 0
	jne	SHORT $LN2@GetClassPt

; 1081 : 		pev = VARS(CREATE_ENTITY());

	call	DWORD PTR ?g_engfuncs@@3Uenginefuncs_s@@A+84
	push	eax
	call	?VARS@@YAPAUentvars_s@@PAUedict_s@@@Z	; VARS
	add	esp, 4
	mov	DWORD PTR _pev$[ebp], eax
$LN2@GetClassPt:

; 1082 : 
; 1083 : 	// get the private data
; 1084 : 	newEnt = (T *)GET_PRIVATE(ENT(pev));

	mov	ecx, DWORD PTR _pev$[ebp]
	push	ecx
	call	?ENT@@YAPAUedict_s@@PBUentvars_s@@@Z	; ENT
	add	esp, 4
	push	eax
	call	?GET_PRIVATE@@YAPAXPAUedict_s@@@Z	; GET_PRIVATE
	add	esp, 4
	mov	DWORD PTR _newEnt$[ebp], eax

; 1085 : 
; 1086 : 	if (newEnt == NULL) 

	cmp	DWORD PTR _newEnt$[ebp], 0
	jne	SHORT $LN3@GetClassPt

; 1087 : 	{
; 1088 : 		// allocate private data 
; 1089 : 		newEnt = new(pev) T;

	mov	edx, DWORD PTR _pev$[ebp]
	push	edx
	push	1696					; 000006a0H
	call	??2CBaseEntity@@SAPAXIPAUentvars_s@@@Z	; CBaseEntity::operator new
	add	esp, 8
	mov	DWORD PTR $T3[ebp], eax
	mov	DWORD PTR __$EHRec$[ebp+8], 0
	cmp	DWORD PTR $T3[ebp], 0
	je	SHORT $LN5@GetClassPt
	mov	ecx, DWORD PTR $T3[ebp]
	call	??0CGameText@@QAE@XZ
	mov	DWORD PTR tv85[ebp], eax
	jmp	SHORT $LN6@GetClassPt
$LN5@GetClassPt:
	mov	DWORD PTR tv85[ebp], 0
$LN6@GetClassPt:
	mov	eax, DWORD PTR tv85[ebp]
	mov	DWORD PTR $T2[ebp], eax
	mov	DWORD PTR __$EHRec$[ebp+8], -1
	mov	ecx, DWORD PTR $T2[ebp]
	mov	DWORD PTR _newEnt$[ebp], ecx

; 1090 : 		newEnt->pev = pev;

	mov	edx, DWORD PTR _newEnt$[ebp]
	mov	eax, DWORD PTR _pev$[ebp]
	mov	DWORD PTR [edx+4], eax
$LN3@GetClassPt:

; 1091 : 	}
; 1092 : 	newEnt->SetClassname( className );

	mov	ecx, DWORD PTR _className$[ebp]
	push	ecx
	mov	ecx, DWORD PTR _newEnt$[ebp]
	call	?SetClassname@CBaseEntity@@QAEXPBD@Z	; CBaseEntity::SetClassname

; 1093 : 
; 1094 : 	return newEnt;

	mov	eax, DWORD PTR _newEnt$[ebp]

; 1095 : }

	mov	ecx, DWORD PTR __$EHRec$[ebp]
	mov	DWORD PTR fs:0, ecx
	pop	ecx
	mov	esp, ebp
	pop	ebp
	ret	0
_TEXT	ENDS
;	COMDAT text$x
text$x	SEGMENT
__unwindfunclet$??$GetClassPtr@VCGameText@@@@YAPAVCGameText@@PAV0@PBD@Z$0:
	mov	eax, DWORD PTR _pev$[ebp]
	push	eax
	mov	eax, DWORD PTR $T3[ebp]
	push	eax
	call	??3CBaseEntity@@SAXPAXPAUentvars_s@@@Z	; CBaseEntity::operator delete
	add	esp, 8
	ret	0
__ehhandler$??$GetClassPtr@VCGameText@@@@YAPAVCGameText@@PAV0@PBD@Z:
	mov	edx, DWORD PTR [esp+8]
	lea	eax, DWORD PTR [edx+12]
	mov	ecx, DWORD PTR [edx-20]
	xor	ecx, eax
	call	@__security_check_cookie@4
	mov	eax, OFFSET __ehfuncinfo$??$GetClassPtr@VCGameText@@@@YAPAVCGameText@@PAV0@PBD@Z
	jmp	___CxxFrameHandler3
text$x	ENDS
??$GetClassPtr@VCGameText@@@@YAPAVCGameText@@PAV0@PBD@Z ENDP ; GetClassPtr<CGameText>
; Function compile flags: /Odtp
; File c:\users\user\downloads\xashxt_v0.81_rev.1_with_sources\xashxt_v0.81_rev.1_src\server\cbase.h
;	COMDAT ??$GetClassPtr@VCGameTeamMaster@@@@YAPAVCGameTeamMaster@@PAV0@PBD@Z
_TEXT	SEGMENT
$T2 = -28						; size = 4
tv85 = -24						; size = 4
$T3 = -20						; size = 4
_pev$ = -16						; size = 4
__$EHRec$ = -12						; size = 12
_newEnt$ = 8						; size = 4
_className$ = 12					; size = 4
??$GetClassPtr@VCGameTeamMaster@@@@YAPAVCGameTeamMaster@@PAV0@PBD@Z PROC ; GetClassPtr<CGameTeamMaster>, COMDAT

; 1076 : {

	push	ebp
	mov	ebp, esp
	push	-1
	push	__ehhandler$??$GetClassPtr@VCGameTeamMaster@@@@YAPAVCGameTeamMaster@@PAV0@PBD@Z
	mov	eax, DWORD PTR fs:0
	push	eax
	sub	esp, 16					; 00000010H
	mov	eax, DWORD PTR ___security_cookie
	xor	eax, ebp
	push	eax
	lea	eax, DWORD PTR __$EHRec$[ebp]
	mov	DWORD PTR fs:0, eax

; 1077 : 	entvars_t *pev = (entvars_t *)newEnt;

	mov	eax, DWORD PTR _newEnt$[ebp]
	mov	DWORD PTR _pev$[ebp], eax

; 1078 : 
; 1079 : 	// allocate entity if necessary
; 1080 : 	if (pev == NULL)

	cmp	DWORD PTR _pev$[ebp], 0
	jne	SHORT $LN2@GetClassPt

; 1081 : 		pev = VARS(CREATE_ENTITY());

	call	DWORD PTR ?g_engfuncs@@3Uenginefuncs_s@@A+84
	push	eax
	call	?VARS@@YAPAUentvars_s@@PAUedict_s@@@Z	; VARS
	add	esp, 4
	mov	DWORD PTR _pev$[ebp], eax
$LN2@GetClassPt:

; 1082 : 
; 1083 : 	// get the private data
; 1084 : 	newEnt = (T *)GET_PRIVATE(ENT(pev));

	mov	ecx, DWORD PTR _pev$[ebp]
	push	ecx
	call	?ENT@@YAPAUedict_s@@PBUentvars_s@@@Z	; ENT
	add	esp, 4
	push	eax
	call	?GET_PRIVATE@@YAPAXPAUedict_s@@@Z	; GET_PRIVATE
	add	esp, 4
	mov	DWORD PTR _newEnt$[ebp], eax

; 1085 : 
; 1086 : 	if (newEnt == NULL) 

	cmp	DWORD PTR _newEnt$[ebp], 0
	jne	SHORT $LN3@GetClassPt

; 1087 : 	{
; 1088 : 		// allocate private data 
; 1089 : 		newEnt = new(pev) T;

	mov	edx, DWORD PTR _pev$[ebp]
	push	edx
	push	1664					; 00000680H
	call	??2CBaseEntity@@SAPAXIPAUentvars_s@@@Z	; CBaseEntity::operator new
	add	esp, 8
	mov	DWORD PTR $T3[ebp], eax
	mov	DWORD PTR __$EHRec$[ebp+8], 0
	cmp	DWORD PTR $T3[ebp], 0
	je	SHORT $LN5@GetClassPt
	mov	ecx, DWORD PTR $T3[ebp]
	call	??0CGameTeamMaster@@QAE@XZ
	mov	DWORD PTR tv85[ebp], eax
	jmp	SHORT $LN6@GetClassPt
$LN5@GetClassPt:
	mov	DWORD PTR tv85[ebp], 0
$LN6@GetClassPt:
	mov	eax, DWORD PTR tv85[ebp]
	mov	DWORD PTR $T2[ebp], eax
	mov	DWORD PTR __$EHRec$[ebp+8], -1
	mov	ecx, DWORD PTR $T2[ebp]
	mov	DWORD PTR _newEnt$[ebp], ecx

; 1090 : 		newEnt->pev = pev;

	mov	edx, DWORD PTR _newEnt$[ebp]
	mov	eax, DWORD PTR _pev$[ebp]
	mov	DWORD PTR [edx+4], eax
$LN3@GetClassPt:

; 1091 : 	}
; 1092 : 	newEnt->SetClassname( className );

	mov	ecx, DWORD PTR _className$[ebp]
	push	ecx
	mov	ecx, DWORD PTR _newEnt$[ebp]
	call	?SetClassname@CBaseEntity@@QAEXPBD@Z	; CBaseEntity::SetClassname

; 1093 : 
; 1094 : 	return newEnt;

	mov	eax, DWORD PTR _newEnt$[ebp]

; 1095 : }

	mov	ecx, DWORD PTR __$EHRec$[ebp]
	mov	DWORD PTR fs:0, ecx
	pop	ecx
	mov	esp, ebp
	pop	ebp
	ret	0
_TEXT	ENDS
;	COMDAT text$x
text$x	SEGMENT
__unwindfunclet$??$GetClassPtr@VCGameTeamMaster@@@@YAPAVCGameTeamMaster@@PAV0@PBD@Z$0:
	mov	eax, DWORD PTR _pev$[ebp]
	push	eax
	mov	eax, DWORD PTR $T3[ebp]
	push	eax
	call	??3CBaseEntity@@SAXPAXPAUentvars_s@@@Z	; CBaseEntity::operator delete
	add	esp, 8
	ret	0
__ehhandler$??$GetClassPtr@VCGameTeamMaster@@@@YAPAVCGameTeamMaster@@PAV0@PBD@Z:
	mov	edx, DWORD PTR [esp+8]
	lea	eax, DWORD PTR [edx+12]
	mov	ecx, DWORD PTR [edx-20]
	xor	ecx, eax
	call	@__security_check_cookie@4
	mov	eax, OFFSET __ehfuncinfo$??$GetClassPtr@VCGameTeamMaster@@@@YAPAVCGameTeamMaster@@PAV0@PBD@Z
	jmp	___CxxFrameHandler3
text$x	ENDS
??$GetClassPtr@VCGameTeamMaster@@@@YAPAVCGameTeamMaster@@PAV0@PBD@Z ENDP ; GetClassPtr<CGameTeamMaster>
; Function compile flags: /Odtp
; File c:\users\user\downloads\xashxt_v0.81_rev.1_with_sources\xashxt_v0.81_rev.1_src\server\cbase.h
;	COMDAT ??$GetClassPtr@VCGameTeamSet@@@@YAPAVCGameTeamSet@@PAV0@PBD@Z
_TEXT	SEGMENT
$T2 = -28						; size = 4
tv85 = -24						; size = 4
$T3 = -20						; size = 4
_pev$ = -16						; size = 4
__$EHRec$ = -12						; size = 12
_newEnt$ = 8						; size = 4
_className$ = 12					; size = 4
??$GetClassPtr@VCGameTeamSet@@@@YAPAVCGameTeamSet@@PAV0@PBD@Z PROC ; GetClassPtr<CGameTeamSet>, COMDAT

; 1076 : {

	push	ebp
	mov	ebp, esp
	push	-1
	push	__ehhandler$??$GetClassPtr@VCGameTeamSet@@@@YAPAVCGameTeamSet@@PAV0@PBD@Z
	mov	eax, DWORD PTR fs:0
	push	eax
	sub	esp, 16					; 00000010H
	mov	eax, DWORD PTR ___security_cookie
	xor	eax, ebp
	push	eax
	lea	eax, DWORD PTR __$EHRec$[ebp]
	mov	DWORD PTR fs:0, eax

; 1077 : 	entvars_t *pev = (entvars_t *)newEnt;

	mov	eax, DWORD PTR _newEnt$[ebp]
	mov	DWORD PTR _pev$[ebp], eax

; 1078 : 
; 1079 : 	// allocate entity if necessary
; 1080 : 	if (pev == NULL)

	cmp	DWORD PTR _pev$[ebp], 0
	jne	SHORT $LN2@GetClassPt

; 1081 : 		pev = VARS(CREATE_ENTITY());

	call	DWORD PTR ?g_engfuncs@@3Uenginefuncs_s@@A+84
	push	eax
	call	?VARS@@YAPAUentvars_s@@PAUedict_s@@@Z	; VARS
	add	esp, 4
	mov	DWORD PTR _pev$[ebp], eax
$LN2@GetClassPt:

; 1082 : 
; 1083 : 	// get the private data
; 1084 : 	newEnt = (T *)GET_PRIVATE(ENT(pev));

	mov	ecx, DWORD PTR _pev$[ebp]
	push	ecx
	call	?ENT@@YAPAUedict_s@@PBUentvars_s@@@Z	; ENT
	add	esp, 4
	push	eax
	call	?GET_PRIVATE@@YAPAXPAUedict_s@@@Z	; GET_PRIVATE
	add	esp, 4
	mov	DWORD PTR _newEnt$[ebp], eax

; 1085 : 
; 1086 : 	if (newEnt == NULL) 

	cmp	DWORD PTR _newEnt$[ebp], 0
	jne	SHORT $LN3@GetClassPt

; 1087 : 	{
; 1088 : 		// allocate private data 
; 1089 : 		newEnt = new(pev) T;

	mov	edx, DWORD PTR _pev$[ebp]
	push	edx
	push	1656					; 00000678H
	call	??2CBaseEntity@@SAPAXIPAUentvars_s@@@Z	; CBaseEntity::operator new
	add	esp, 8
	mov	DWORD PTR $T3[ebp], eax
	mov	DWORD PTR __$EHRec$[ebp+8], 0
	cmp	DWORD PTR $T3[ebp], 0
	je	SHORT $LN5@GetClassPt
	mov	ecx, DWORD PTR $T3[ebp]
	call	??0CGameTeamSet@@QAE@XZ
	mov	DWORD PTR tv85[ebp], eax
	jmp	SHORT $LN6@GetClassPt
$LN5@GetClassPt:
	mov	DWORD PTR tv85[ebp], 0
$LN6@GetClassPt:
	mov	eax, DWORD PTR tv85[ebp]
	mov	DWORD PTR $T2[ebp], eax
	mov	DWORD PTR __$EHRec$[ebp+8], -1
	mov	ecx, DWORD PTR $T2[ebp]
	mov	DWORD PTR _newEnt$[ebp], ecx

; 1090 : 		newEnt->pev = pev;

	mov	edx, DWORD PTR _newEnt$[ebp]
	mov	eax, DWORD PTR _pev$[ebp]
	mov	DWORD PTR [edx+4], eax
$LN3@GetClassPt:

; 1091 : 	}
; 1092 : 	newEnt->SetClassname( className );

	mov	ecx, DWORD PTR _className$[ebp]
	push	ecx
	mov	ecx, DWORD PTR _newEnt$[ebp]
	call	?SetClassname@CBaseEntity@@QAEXPBD@Z	; CBaseEntity::SetClassname

; 1093 : 
; 1094 : 	return newEnt;

	mov	eax, DWORD PTR _newEnt$[ebp]

; 1095 : }

	mov	ecx, DWORD PTR __$EHRec$[ebp]
	mov	DWORD PTR fs:0, ecx
	pop	ecx
	mov	esp, ebp
	pop	ebp
	ret	0
_TEXT	ENDS
;	COMDAT text$x
text$x	SEGMENT
__unwindfunclet$??$GetClassPtr@VCGameTeamSet@@@@YAPAVCGameTeamSet@@PAV0@PBD@Z$0:
	mov	eax, DWORD PTR _pev$[ebp]
	push	eax
	mov	eax, DWORD PTR $T3[ebp]
	push	eax
	call	??3CBaseEntity@@SAXPAXPAUentvars_s@@@Z	; CBaseEntity::operator delete
	add	esp, 8
	ret	0
__ehhandler$??$GetClassPtr@VCGameTeamSet@@@@YAPAVCGameTeamSet@@PAV0@PBD@Z:
	mov	edx, DWORD PTR [esp+8]
	lea	eax, DWORD PTR [edx+12]
	mov	ecx, DWORD PTR [edx-20]
	xor	ecx, eax
	call	@__security_check_cookie@4
	mov	eax, OFFSET __ehfuncinfo$??$GetClassPtr@VCGameTeamSet@@@@YAPAVCGameTeamSet@@PAV0@PBD@Z
	jmp	___CxxFrameHandler3
text$x	ENDS
??$GetClassPtr@VCGameTeamSet@@@@YAPAVCGameTeamSet@@PAV0@PBD@Z ENDP ; GetClassPtr<CGameTeamSet>
; Function compile flags: /Odtp
; File c:\users\user\downloads\xashxt_v0.81_rev.1_with_sources\xashxt_v0.81_rev.1_src\server\cbase.h
;	COMDAT ??$GetClassPtr@VCGamePlayerZone@@@@YAPAVCGamePlayerZone@@PAV0@PBD@Z
_TEXT	SEGMENT
$T2 = -28						; size = 4
tv85 = -24						; size = 4
$T3 = -20						; size = 4
_pev$ = -16						; size = 4
__$EHRec$ = -12						; size = 12
_newEnt$ = 8						; size = 4
_className$ = 12					; size = 4
??$GetClassPtr@VCGamePlayerZone@@@@YAPAVCGamePlayerZone@@PAV0@PBD@Z PROC ; GetClassPtr<CGamePlayerZone>, COMDAT

; 1076 : {

	push	ebp
	mov	ebp, esp
	push	-1
	push	__ehhandler$??$GetClassPtr@VCGamePlayerZone@@@@YAPAVCGamePlayerZone@@PAV0@PBD@Z
	mov	eax, DWORD PTR fs:0
	push	eax
	sub	esp, 16					; 00000010H
	mov	eax, DWORD PTR ___security_cookie
	xor	eax, ebp
	push	eax
	lea	eax, DWORD PTR __$EHRec$[ebp]
	mov	DWORD PTR fs:0, eax

; 1077 : 	entvars_t *pev = (entvars_t *)newEnt;

	mov	eax, DWORD PTR _newEnt$[ebp]
	mov	DWORD PTR _pev$[ebp], eax

; 1078 : 
; 1079 : 	// allocate entity if necessary
; 1080 : 	if (pev == NULL)

	cmp	DWORD PTR _pev$[ebp], 0
	jne	SHORT $LN2@GetClassPt

; 1081 : 		pev = VARS(CREATE_ENTITY());

	call	DWORD PTR ?g_engfuncs@@3Uenginefuncs_s@@A+84
	push	eax
	call	?VARS@@YAPAUentvars_s@@PAUedict_s@@@Z	; VARS
	add	esp, 4
	mov	DWORD PTR _pev$[ebp], eax
$LN2@GetClassPt:

; 1082 : 
; 1083 : 	// get the private data
; 1084 : 	newEnt = (T *)GET_PRIVATE(ENT(pev));

	mov	ecx, DWORD PTR _pev$[ebp]
	push	ecx
	call	?ENT@@YAPAUedict_s@@PBUentvars_s@@@Z	; ENT
	add	esp, 4
	push	eax
	call	?GET_PRIVATE@@YAPAXPAUedict_s@@@Z	; GET_PRIVATE
	add	esp, 4
	mov	DWORD PTR _newEnt$[ebp], eax

; 1085 : 
; 1086 : 	if (newEnt == NULL) 

	cmp	DWORD PTR _newEnt$[ebp], 0
	jne	SHORT $LN3@GetClassPt

; 1087 : 	{
; 1088 : 		// allocate private data 
; 1089 : 		newEnt = new(pev) T;

	mov	edx, DWORD PTR _pev$[ebp]
	push	edx
	push	1672					; 00000688H
	call	??2CBaseEntity@@SAPAXIPAUentvars_s@@@Z	; CBaseEntity::operator new
	add	esp, 8
	mov	DWORD PTR $T3[ebp], eax
	mov	DWORD PTR __$EHRec$[ebp+8], 0
	cmp	DWORD PTR $T3[ebp], 0
	je	SHORT $LN5@GetClassPt
	mov	ecx, DWORD PTR $T3[ebp]
	call	??0CGamePlayerZone@@QAE@XZ
	mov	DWORD PTR tv85[ebp], eax
	jmp	SHORT $LN6@GetClassPt
$LN5@GetClassPt:
	mov	DWORD PTR tv85[ebp], 0
$LN6@GetClassPt:
	mov	eax, DWORD PTR tv85[ebp]
	mov	DWORD PTR $T2[ebp], eax
	mov	DWORD PTR __$EHRec$[ebp+8], -1
	mov	ecx, DWORD PTR $T2[ebp]
	mov	DWORD PTR _newEnt$[ebp], ecx

; 1090 : 		newEnt->pev = pev;

	mov	edx, DWORD PTR _newEnt$[ebp]
	mov	eax, DWORD PTR _pev$[ebp]
	mov	DWORD PTR [edx+4], eax
$LN3@GetClassPt:

; 1091 : 	}
; 1092 : 	newEnt->SetClassname( className );

	mov	ecx, DWORD PTR _className$[ebp]
	push	ecx
	mov	ecx, DWORD PTR _newEnt$[ebp]
	call	?SetClassname@CBaseEntity@@QAEXPBD@Z	; CBaseEntity::SetClassname

; 1093 : 
; 1094 : 	return newEnt;

	mov	eax, DWORD PTR _newEnt$[ebp]

; 1095 : }

	mov	ecx, DWORD PTR __$EHRec$[ebp]
	mov	DWORD PTR fs:0, ecx
	pop	ecx
	mov	esp, ebp
	pop	ebp
	ret	0
_TEXT	ENDS
;	COMDAT text$x
text$x	SEGMENT
__unwindfunclet$??$GetClassPtr@VCGamePlayerZone@@@@YAPAVCGamePlayerZone@@PAV0@PBD@Z$0:
	mov	eax, DWORD PTR _pev$[ebp]
	push	eax
	mov	eax, DWORD PTR $T3[ebp]
	push	eax
	call	??3CBaseEntity@@SAXPAXPAUentvars_s@@@Z	; CBaseEntity::operator delete
	add	esp, 8
	ret	0
__ehhandler$??$GetClassPtr@VCGamePlayerZone@@@@YAPAVCGamePlayerZone@@PAV0@PBD@Z:
	mov	edx, DWORD PTR [esp+8]
	lea	eax, DWORD PTR [edx+12]
	mov	ecx, DWORD PTR [edx-20]
	xor	ecx, eax
	call	@__security_check_cookie@4
	mov	eax, OFFSET __ehfuncinfo$??$GetClassPtr@VCGamePlayerZone@@@@YAPAVCGamePlayerZone@@PAV0@PBD@Z
	jmp	___CxxFrameHandler3
text$x	ENDS
??$GetClassPtr@VCGamePlayerZone@@@@YAPAVCGamePlayerZone@@PAV0@PBD@Z ENDP ; GetClassPtr<CGamePlayerZone>
; Function compile flags: /Odtp
; File c:\users\user\downloads\xashxt_v0.81_rev.1_with_sources\xashxt_v0.81_rev.1_src\server\cbase.h
;	COMDAT ??$GetClassPtr@VCGamePlayerHurt@@@@YAPAVCGamePlayerHurt@@PAV0@PBD@Z
_TEXT	SEGMENT
$T2 = -28						; size = 4
tv85 = -24						; size = 4
$T3 = -20						; size = 4
_pev$ = -16						; size = 4
__$EHRec$ = -12						; size = 12
_newEnt$ = 8						; size = 4
_className$ = 12					; size = 4
??$GetClassPtr@VCGamePlayerHurt@@@@YAPAVCGamePlayerHurt@@PAV0@PBD@Z PROC ; GetClassPtr<CGamePlayerHurt>, COMDAT

; 1076 : {

	push	ebp
	mov	ebp, esp
	push	-1
	push	__ehhandler$??$GetClassPtr@VCGamePlayerHurt@@@@YAPAVCGamePlayerHurt@@PAV0@PBD@Z
	mov	eax, DWORD PTR fs:0
	push	eax
	sub	esp, 16					; 00000010H
	mov	eax, DWORD PTR ___security_cookie
	xor	eax, ebp
	push	eax
	lea	eax, DWORD PTR __$EHRec$[ebp]
	mov	DWORD PTR fs:0, eax

; 1077 : 	entvars_t *pev = (entvars_t *)newEnt;

	mov	eax, DWORD PTR _newEnt$[ebp]
	mov	DWORD PTR _pev$[ebp], eax

; 1078 : 
; 1079 : 	// allocate entity if necessary
; 1080 : 	if (pev == NULL)

	cmp	DWORD PTR _pev$[ebp], 0
	jne	SHORT $LN2@GetClassPt

; 1081 : 		pev = VARS(CREATE_ENTITY());

	call	DWORD PTR ?g_engfuncs@@3Uenginefuncs_s@@A+84
	push	eax
	call	?VARS@@YAPAUentvars_s@@PAUedict_s@@@Z	; VARS
	add	esp, 4
	mov	DWORD PTR _pev$[ebp], eax
$LN2@GetClassPt:

; 1082 : 
; 1083 : 	// get the private data
; 1084 : 	newEnt = (T *)GET_PRIVATE(ENT(pev));

	mov	ecx, DWORD PTR _pev$[ebp]
	push	ecx
	call	?ENT@@YAPAUedict_s@@PBUentvars_s@@@Z	; ENT
	add	esp, 4
	push	eax
	call	?GET_PRIVATE@@YAPAXPAUedict_s@@@Z	; GET_PRIVATE
	add	esp, 4
	mov	DWORD PTR _newEnt$[ebp], eax

; 1085 : 
; 1086 : 	if (newEnt == NULL) 

	cmp	DWORD PTR _newEnt$[ebp], 0
	jne	SHORT $LN3@GetClassPt

; 1087 : 	{
; 1088 : 		// allocate private data 
; 1089 : 		newEnt = new(pev) T;

	mov	edx, DWORD PTR _pev$[ebp]
	push	edx
	push	1656					; 00000678H
	call	??2CBaseEntity@@SAPAXIPAUentvars_s@@@Z	; CBaseEntity::operator new
	add	esp, 8
	mov	DWORD PTR $T3[ebp], eax
	mov	DWORD PTR __$EHRec$[ebp+8], 0
	cmp	DWORD PTR $T3[ebp], 0
	je	SHORT $LN5@GetClassPt
	mov	ecx, DWORD PTR $T3[ebp]
	call	??0CGamePlayerHurt@@QAE@XZ
	mov	DWORD PTR tv85[ebp], eax
	jmp	SHORT $LN6@GetClassPt
$LN5@GetClassPt:
	mov	DWORD PTR tv85[ebp], 0
$LN6@GetClassPt:
	mov	eax, DWORD PTR tv85[ebp]
	mov	DWORD PTR $T2[ebp], eax
	mov	DWORD PTR __$EHRec$[ebp+8], -1
	mov	ecx, DWORD PTR $T2[ebp]
	mov	DWORD PTR _newEnt$[ebp], ecx

; 1090 : 		newEnt->pev = pev;

	mov	edx, DWORD PTR _newEnt$[ebp]
	mov	eax, DWORD PTR _pev$[ebp]
	mov	DWORD PTR [edx+4], eax
$LN3@GetClassPt:

; 1091 : 	}
; 1092 : 	newEnt->SetClassname( className );

	mov	ecx, DWORD PTR _className$[ebp]
	push	ecx
	mov	ecx, DWORD PTR _newEnt$[ebp]
	call	?SetClassname@CBaseEntity@@QAEXPBD@Z	; CBaseEntity::SetClassname

; 1093 : 
; 1094 : 	return newEnt;

	mov	eax, DWORD PTR _newEnt$[ebp]

; 1095 : }

	mov	ecx, DWORD PTR __$EHRec$[ebp]
	mov	DWORD PTR fs:0, ecx
	pop	ecx
	mov	esp, ebp
	pop	ebp
	ret	0
_TEXT	ENDS
;	COMDAT text$x
text$x	SEGMENT
__unwindfunclet$??$GetClassPtr@VCGamePlayerHurt@@@@YAPAVCGamePlayerHurt@@PAV0@PBD@Z$0:
	mov	eax, DWORD PTR _pev$[ebp]
	push	eax
	mov	eax, DWORD PTR $T3[ebp]
	push	eax
	call	??3CBaseEntity@@SAXPAXPAUentvars_s@@@Z	; CBaseEntity::operator delete
	add	esp, 8
	ret	0
__ehhandler$??$GetClassPtr@VCGamePlayerHurt@@@@YAPAVCGamePlayerHurt@@PAV0@PBD@Z:
	mov	edx, DWORD PTR [esp+8]
	lea	eax, DWORD PTR [edx+12]
	mov	ecx, DWORD PTR [edx-20]
	xor	ecx, eax
	call	@__security_check_cookie@4
	mov	eax, OFFSET __ehfuncinfo$??$GetClassPtr@VCGamePlayerHurt@@@@YAPAVCGamePlayerHurt@@PAV0@PBD@Z
	jmp	___CxxFrameHandler3
text$x	ENDS
??$GetClassPtr@VCGamePlayerHurt@@@@YAPAVCGamePlayerHurt@@PAV0@PBD@Z ENDP ; GetClassPtr<CGamePlayerHurt>
; Function compile flags: /Odtp
; File c:\users\user\downloads\xashxt_v0.81_rev.1_with_sources\xashxt_v0.81_rev.1_src\server\cbase.h
;	COMDAT ??$GetClassPtr@VCGameCounter@@@@YAPAVCGameCounter@@PAV0@PBD@Z
_TEXT	SEGMENT
$T2 = -28						; size = 4
tv85 = -24						; size = 4
$T3 = -20						; size = 4
_pev$ = -16						; size = 4
__$EHRec$ = -12						; size = 12
_newEnt$ = 8						; size = 4
_className$ = 12					; size = 4
??$GetClassPtr@VCGameCounter@@@@YAPAVCGameCounter@@PAV0@PBD@Z PROC ; GetClassPtr<CGameCounter>, COMDAT

; 1076 : {

	push	ebp
	mov	ebp, esp
	push	-1
	push	__ehhandler$??$GetClassPtr@VCGameCounter@@@@YAPAVCGameCounter@@PAV0@PBD@Z
	mov	eax, DWORD PTR fs:0
	push	eax
	sub	esp, 16					; 00000010H
	mov	eax, DWORD PTR ___security_cookie
	xor	eax, ebp
	push	eax
	lea	eax, DWORD PTR __$EHRec$[ebp]
	mov	DWORD PTR fs:0, eax

; 1077 : 	entvars_t *pev = (entvars_t *)newEnt;

	mov	eax, DWORD PTR _newEnt$[ebp]
	mov	DWORD PTR _pev$[ebp], eax

; 1078 : 
; 1079 : 	// allocate entity if necessary
; 1080 : 	if (pev == NULL)

	cmp	DWORD PTR _pev$[ebp], 0
	jne	SHORT $LN2@GetClassPt

; 1081 : 		pev = VARS(CREATE_ENTITY());

	call	DWORD PTR ?g_engfuncs@@3Uenginefuncs_s@@A+84
	push	eax
	call	?VARS@@YAPAUentvars_s@@PAUedict_s@@@Z	; VARS
	add	esp, 4
	mov	DWORD PTR _pev$[ebp], eax
$LN2@GetClassPt:

; 1082 : 
; 1083 : 	// get the private data
; 1084 : 	newEnt = (T *)GET_PRIVATE(ENT(pev));

	mov	ecx, DWORD PTR _pev$[ebp]
	push	ecx
	call	?ENT@@YAPAUedict_s@@PBUentvars_s@@@Z	; ENT
	add	esp, 4
	push	eax
	call	?GET_PRIVATE@@YAPAXPAUedict_s@@@Z	; GET_PRIVATE
	add	esp, 4
	mov	DWORD PTR _newEnt$[ebp], eax

; 1085 : 
; 1086 : 	if (newEnt == NULL) 

	cmp	DWORD PTR _newEnt$[ebp], 0
	jne	SHORT $LN3@GetClassPt

; 1087 : 	{
; 1088 : 		// allocate private data 
; 1089 : 		newEnt = new(pev) T;

	mov	edx, DWORD PTR _pev$[ebp]
	push	edx
	push	1656					; 00000678H
	call	??2CBaseEntity@@SAPAXIPAUentvars_s@@@Z	; CBaseEntity::operator new
	add	esp, 8
	mov	DWORD PTR $T3[ebp], eax
	mov	DWORD PTR __$EHRec$[ebp+8], 0
	cmp	DWORD PTR $T3[ebp], 0
	je	SHORT $LN5@GetClassPt
	mov	ecx, DWORD PTR $T3[ebp]
	call	??0CGameCounter@@QAE@XZ
	mov	DWORD PTR tv85[ebp], eax
	jmp	SHORT $LN6@GetClassPt
$LN5@GetClassPt:
	mov	DWORD PTR tv85[ebp], 0
$LN6@GetClassPt:
	mov	eax, DWORD PTR tv85[ebp]
	mov	DWORD PTR $T2[ebp], eax
	mov	DWORD PTR __$EHRec$[ebp+8], -1
	mov	ecx, DWORD PTR $T2[ebp]
	mov	DWORD PTR _newEnt$[ebp], ecx

; 1090 : 		newEnt->pev = pev;

	mov	edx, DWORD PTR _newEnt$[ebp]
	mov	eax, DWORD PTR _pev$[ebp]
	mov	DWORD PTR [edx+4], eax
$LN3@GetClassPt:

; 1091 : 	}
; 1092 : 	newEnt->SetClassname( className );

	mov	ecx, DWORD PTR _className$[ebp]
	push	ecx
	mov	ecx, DWORD PTR _newEnt$[ebp]
	call	?SetClassname@CBaseEntity@@QAEXPBD@Z	; CBaseEntity::SetClassname

; 1093 : 
; 1094 : 	return newEnt;

	mov	eax, DWORD PTR _newEnt$[ebp]

; 1095 : }

	mov	ecx, DWORD PTR __$EHRec$[ebp]
	mov	DWORD PTR fs:0, ecx
	pop	ecx
	mov	esp, ebp
	pop	ebp
	ret	0
_TEXT	ENDS
;	COMDAT text$x
text$x	SEGMENT
__unwindfunclet$??$GetClassPtr@VCGameCounter@@@@YAPAVCGameCounter@@PAV0@PBD@Z$0:
	mov	eax, DWORD PTR _pev$[ebp]
	push	eax
	mov	eax, DWORD PTR $T3[ebp]
	push	eax
	call	??3CBaseEntity@@SAXPAXPAUentvars_s@@@Z	; CBaseEntity::operator delete
	add	esp, 8
	ret	0
__ehhandler$??$GetClassPtr@VCGameCounter@@@@YAPAVCGameCounter@@PAV0@PBD@Z:
	mov	edx, DWORD PTR [esp+8]
	lea	eax, DWORD PTR [edx+12]
	mov	ecx, DWORD PTR [edx-20]
	xor	ecx, eax
	call	@__security_check_cookie@4
	mov	eax, OFFSET __ehfuncinfo$??$GetClassPtr@VCGameCounter@@@@YAPAVCGameCounter@@PAV0@PBD@Z
	jmp	___CxxFrameHandler3
text$x	ENDS
??$GetClassPtr@VCGameCounter@@@@YAPAVCGameCounter@@PAV0@PBD@Z ENDP ; GetClassPtr<CGameCounter>
; Function compile flags: /Odtp
; File c:\users\user\downloads\xashxt_v0.81_rev.1_with_sources\xashxt_v0.81_rev.1_src\server\cbase.h
;	COMDAT ??$GetClassPtr@VCGameCounterSet@@@@YAPAVCGameCounterSet@@PAV0@PBD@Z
_TEXT	SEGMENT
$T2 = -28						; size = 4
tv85 = -24						; size = 4
$T3 = -20						; size = 4
_pev$ = -16						; size = 4
__$EHRec$ = -12						; size = 12
_newEnt$ = 8						; size = 4
_className$ = 12					; size = 4
??$GetClassPtr@VCGameCounterSet@@@@YAPAVCGameCounterSet@@PAV0@PBD@Z PROC ; GetClassPtr<CGameCounterSet>, COMDAT

; 1076 : {

	push	ebp
	mov	ebp, esp
	push	-1
	push	__ehhandler$??$GetClassPtr@VCGameCounterSet@@@@YAPAVCGameCounterSet@@PAV0@PBD@Z
	mov	eax, DWORD PTR fs:0
	push	eax
	sub	esp, 16					; 00000010H
	mov	eax, DWORD PTR ___security_cookie
	xor	eax, ebp
	push	eax
	lea	eax, DWORD PTR __$EHRec$[ebp]
	mov	DWORD PTR fs:0, eax

; 1077 : 	entvars_t *pev = (entvars_t *)newEnt;

	mov	eax, DWORD PTR _newEnt$[ebp]
	mov	DWORD PTR _pev$[ebp], eax

; 1078 : 
; 1079 : 	// allocate entity if necessary
; 1080 : 	if (pev == NULL)

	cmp	DWORD PTR _pev$[ebp], 0
	jne	SHORT $LN2@GetClassPt

; 1081 : 		pev = VARS(CREATE_ENTITY());

	call	DWORD PTR ?g_engfuncs@@3Uenginefuncs_s@@A+84
	push	eax
	call	?VARS@@YAPAUentvars_s@@PAUedict_s@@@Z	; VARS
	add	esp, 4
	mov	DWORD PTR _pev$[ebp], eax
$LN2@GetClassPt:

; 1082 : 
; 1083 : 	// get the private data
; 1084 : 	newEnt = (T *)GET_PRIVATE(ENT(pev));

	mov	ecx, DWORD PTR _pev$[ebp]
	push	ecx
	call	?ENT@@YAPAUedict_s@@PBUentvars_s@@@Z	; ENT
	add	esp, 4
	push	eax
	call	?GET_PRIVATE@@YAPAXPAUedict_s@@@Z	; GET_PRIVATE
	add	esp, 4
	mov	DWORD PTR _newEnt$[ebp], eax

; 1085 : 
; 1086 : 	if (newEnt == NULL) 

	cmp	DWORD PTR _newEnt$[ebp], 0
	jne	SHORT $LN3@GetClassPt

; 1087 : 	{
; 1088 : 		// allocate private data 
; 1089 : 		newEnt = new(pev) T;

	mov	edx, DWORD PTR _pev$[ebp]
	push	edx
	push	1656					; 00000678H
	call	??2CBaseEntity@@SAPAXIPAUentvars_s@@@Z	; CBaseEntity::operator new
	add	esp, 8
	mov	DWORD PTR $T3[ebp], eax
	mov	DWORD PTR __$EHRec$[ebp+8], 0
	cmp	DWORD PTR $T3[ebp], 0
	je	SHORT $LN5@GetClassPt
	mov	ecx, DWORD PTR $T3[ebp]
	call	??0CGameCounterSet@@QAE@XZ
	mov	DWORD PTR tv85[ebp], eax
	jmp	SHORT $LN6@GetClassPt
$LN5@GetClassPt:
	mov	DWORD PTR tv85[ebp], 0
$LN6@GetClassPt:
	mov	eax, DWORD PTR tv85[ebp]
	mov	DWORD PTR $T2[ebp], eax
	mov	DWORD PTR __$EHRec$[ebp+8], -1
	mov	ecx, DWORD PTR $T2[ebp]
	mov	DWORD PTR _newEnt$[ebp], ecx

; 1090 : 		newEnt->pev = pev;

	mov	edx, DWORD PTR _newEnt$[ebp]
	mov	eax, DWORD PTR _pev$[ebp]
	mov	DWORD PTR [edx+4], eax
$LN3@GetClassPt:

; 1091 : 	}
; 1092 : 	newEnt->SetClassname( className );

	mov	ecx, DWORD PTR _className$[ebp]
	push	ecx
	mov	ecx, DWORD PTR _newEnt$[ebp]
	call	?SetClassname@CBaseEntity@@QAEXPBD@Z	; CBaseEntity::SetClassname

; 1093 : 
; 1094 : 	return newEnt;

	mov	eax, DWORD PTR _newEnt$[ebp]

; 1095 : }

	mov	ecx, DWORD PTR __$EHRec$[ebp]
	mov	DWORD PTR fs:0, ecx
	pop	ecx
	mov	esp, ebp
	pop	ebp
	ret	0
_TEXT	ENDS
;	COMDAT text$x
text$x	SEGMENT
__unwindfunclet$??$GetClassPtr@VCGameCounterSet@@@@YAPAVCGameCounterSet@@PAV0@PBD@Z$0:
	mov	eax, DWORD PTR _pev$[ebp]
	push	eax
	mov	eax, DWORD PTR $T3[ebp]
	push	eax
	call	??3CBaseEntity@@SAXPAXPAUentvars_s@@@Z	; CBaseEntity::operator delete
	add	esp, 8
	ret	0
__ehhandler$??$GetClassPtr@VCGameCounterSet@@@@YAPAVCGameCounterSet@@PAV0@PBD@Z:
	mov	edx, DWORD PTR [esp+8]
	lea	eax, DWORD PTR [edx+12]
	mov	ecx, DWORD PTR [edx-20]
	xor	ecx, eax
	call	@__security_check_cookie@4
	mov	eax, OFFSET __ehfuncinfo$??$GetClassPtr@VCGameCounterSet@@@@YAPAVCGameCounterSet@@PAV0@PBD@Z
	jmp	___CxxFrameHandler3
text$x	ENDS
??$GetClassPtr@VCGameCounterSet@@@@YAPAVCGameCounterSet@@PAV0@PBD@Z ENDP ; GetClassPtr<CGameCounterSet>
; Function compile flags: /Odtp
; File c:\users\user\downloads\xashxt_v0.81_rev.1_with_sources\xashxt_v0.81_rev.1_src\server\cbase.h
;	COMDAT ??$GetClassPtr@VCGamePlayerEquip@@@@YAPAVCGamePlayerEquip@@PAV0@PBD@Z
_TEXT	SEGMENT
$T2 = -28						; size = 4
tv85 = -24						; size = 4
$T3 = -20						; size = 4
_pev$ = -16						; size = 4
__$EHRec$ = -12						; size = 12
_newEnt$ = 8						; size = 4
_className$ = 12					; size = 4
??$GetClassPtr@VCGamePlayerEquip@@@@YAPAVCGamePlayerEquip@@PAV0@PBD@Z PROC ; GetClassPtr<CGamePlayerEquip>, COMDAT

; 1076 : {

	push	ebp
	mov	ebp, esp
	push	-1
	push	__ehhandler$??$GetClassPtr@VCGamePlayerEquip@@@@YAPAVCGamePlayerEquip@@PAV0@PBD@Z
	mov	eax, DWORD PTR fs:0
	push	eax
	sub	esp, 16					; 00000010H
	mov	eax, DWORD PTR ___security_cookie
	xor	eax, ebp
	push	eax
	lea	eax, DWORD PTR __$EHRec$[ebp]
	mov	DWORD PTR fs:0, eax

; 1077 : 	entvars_t *pev = (entvars_t *)newEnt;

	mov	eax, DWORD PTR _newEnt$[ebp]
	mov	DWORD PTR _pev$[ebp], eax

; 1078 : 
; 1079 : 	// allocate entity if necessary
; 1080 : 	if (pev == NULL)

	cmp	DWORD PTR _pev$[ebp], 0
	jne	SHORT $LN2@GetClassPt

; 1081 : 		pev = VARS(CREATE_ENTITY());

	call	DWORD PTR ?g_engfuncs@@3Uenginefuncs_s@@A+84
	push	eax
	call	?VARS@@YAPAUentvars_s@@PAUedict_s@@@Z	; VARS
	add	esp, 4
	mov	DWORD PTR _pev$[ebp], eax
$LN2@GetClassPt:

; 1082 : 
; 1083 : 	// get the private data
; 1084 : 	newEnt = (T *)GET_PRIVATE(ENT(pev));

	mov	ecx, DWORD PTR _pev$[ebp]
	push	ecx
	call	?ENT@@YAPAUedict_s@@PBUentvars_s@@@Z	; ENT
	add	esp, 4
	push	eax
	call	?GET_PRIVATE@@YAPAXPAUedict_s@@@Z	; GET_PRIVATE
	add	esp, 4
	mov	DWORD PTR _newEnt$[ebp], eax

; 1085 : 
; 1086 : 	if (newEnt == NULL) 

	cmp	DWORD PTR _newEnt$[ebp], 0
	jne	SHORT $LN3@GetClassPt

; 1087 : 	{
; 1088 : 		// allocate private data 
; 1089 : 		newEnt = new(pev) T;

	mov	edx, DWORD PTR _pev$[ebp]
	push	edx
	push	1912					; 00000778H
	call	??2CBaseEntity@@SAPAXIPAUentvars_s@@@Z	; CBaseEntity::operator new
	add	esp, 8
	mov	DWORD PTR $T3[ebp], eax
	mov	DWORD PTR __$EHRec$[ebp+8], 0
	cmp	DWORD PTR $T3[ebp], 0
	je	SHORT $LN5@GetClassPt
	mov	ecx, DWORD PTR $T3[ebp]
	call	??0CGamePlayerEquip@@QAE@XZ
	mov	DWORD PTR tv85[ebp], eax
	jmp	SHORT $LN6@GetClassPt
$LN5@GetClassPt:
	mov	DWORD PTR tv85[ebp], 0
$LN6@GetClassPt:
	mov	eax, DWORD PTR tv85[ebp]
	mov	DWORD PTR $T2[ebp], eax
	mov	DWORD PTR __$EHRec$[ebp+8], -1
	mov	ecx, DWORD PTR $T2[ebp]
	mov	DWORD PTR _newEnt$[ebp], ecx

; 1090 : 		newEnt->pev = pev;

	mov	edx, DWORD PTR _newEnt$[ebp]
	mov	eax, DWORD PTR _pev$[ebp]
	mov	DWORD PTR [edx+4], eax
$LN3@GetClassPt:

; 1091 : 	}
; 1092 : 	newEnt->SetClassname( className );

	mov	ecx, DWORD PTR _className$[ebp]
	push	ecx
	mov	ecx, DWORD PTR _newEnt$[ebp]
	call	?SetClassname@CBaseEntity@@QAEXPBD@Z	; CBaseEntity::SetClassname

; 1093 : 
; 1094 : 	return newEnt;

	mov	eax, DWORD PTR _newEnt$[ebp]

; 1095 : }

	mov	ecx, DWORD PTR __$EHRec$[ebp]
	mov	DWORD PTR fs:0, ecx
	pop	ecx
	mov	esp, ebp
	pop	ebp
	ret	0
_TEXT	ENDS
;	COMDAT text$x
text$x	SEGMENT
__unwindfunclet$??$GetClassPtr@VCGamePlayerEquip@@@@YAPAVCGamePlayerEquip@@PAV0@PBD@Z$0:
	mov	eax, DWORD PTR _pev$[ebp]
	push	eax
	mov	eax, DWORD PTR $T3[ebp]
	push	eax
	call	??3CBaseEntity@@SAXPAXPAUentvars_s@@@Z	; CBaseEntity::operator delete
	add	esp, 8
	ret	0
__ehhandler$??$GetClassPtr@VCGamePlayerEquip@@@@YAPAVCGamePlayerEquip@@PAV0@PBD@Z:
	mov	edx, DWORD PTR [esp+8]
	lea	eax, DWORD PTR [edx+12]
	mov	ecx, DWORD PTR [edx-20]
	xor	ecx, eax
	call	@__security_check_cookie@4
	mov	eax, OFFSET __ehfuncinfo$??$GetClassPtr@VCGamePlayerEquip@@@@YAPAVCGamePlayerEquip@@PAV0@PBD@Z
	jmp	___CxxFrameHandler3
text$x	ENDS
??$GetClassPtr@VCGamePlayerEquip@@@@YAPAVCGamePlayerEquip@@PAV0@PBD@Z ENDP ; GetClassPtr<CGamePlayerEquip>
; Function compile flags: /Odtp
; File c:\users\user\downloads\xashxt_v0.81_rev.1_with_sources\xashxt_v0.81_rev.1_src\server\cbase.h
;	COMDAT ??$GetClassPtr@VCGamePlayerTeam@@@@YAPAVCGamePlayerTeam@@PAV0@PBD@Z
_TEXT	SEGMENT
$T2 = -28						; size = 4
tv85 = -24						; size = 4
$T3 = -20						; size = 4
_pev$ = -16						; size = 4
__$EHRec$ = -12						; size = 12
_newEnt$ = 8						; size = 4
_className$ = 12					; size = 4
??$GetClassPtr@VCGamePlayerTeam@@@@YAPAVCGamePlayerTeam@@PAV0@PBD@Z PROC ; GetClassPtr<CGamePlayerTeam>, COMDAT

; 1076 : {

	push	ebp
	mov	ebp, esp
	push	-1
	push	__ehhandler$??$GetClassPtr@VCGamePlayerTeam@@@@YAPAVCGamePlayerTeam@@PAV0@PBD@Z
	mov	eax, DWORD PTR fs:0
	push	eax
	sub	esp, 16					; 00000010H
	mov	eax, DWORD PTR ___security_cookie
	xor	eax, ebp
	push	eax
	lea	eax, DWORD PTR __$EHRec$[ebp]
	mov	DWORD PTR fs:0, eax

; 1077 : 	entvars_t *pev = (entvars_t *)newEnt;

	mov	eax, DWORD PTR _newEnt$[ebp]
	mov	DWORD PTR _pev$[ebp], eax

; 1078 : 
; 1079 : 	// allocate entity if necessary
; 1080 : 	if (pev == NULL)

	cmp	DWORD PTR _pev$[ebp], 0
	jne	SHORT $LN2@GetClassPt

; 1081 : 		pev = VARS(CREATE_ENTITY());

	call	DWORD PTR ?g_engfuncs@@3Uenginefuncs_s@@A+84
	push	eax
	call	?VARS@@YAPAUentvars_s@@PAUedict_s@@@Z	; VARS
	add	esp, 4
	mov	DWORD PTR _pev$[ebp], eax
$LN2@GetClassPt:

; 1082 : 
; 1083 : 	// get the private data
; 1084 : 	newEnt = (T *)GET_PRIVATE(ENT(pev));

	mov	ecx, DWORD PTR _pev$[ebp]
	push	ecx
	call	?ENT@@YAPAUedict_s@@PBUentvars_s@@@Z	; ENT
	add	esp, 4
	push	eax
	call	?GET_PRIVATE@@YAPAXPAUedict_s@@@Z	; GET_PRIVATE
	add	esp, 4
	mov	DWORD PTR _newEnt$[ebp], eax

; 1085 : 
; 1086 : 	if (newEnt == NULL) 

	cmp	DWORD PTR _newEnt$[ebp], 0
	jne	SHORT $LN3@GetClassPt

; 1087 : 	{
; 1088 : 		// allocate private data 
; 1089 : 		newEnt = new(pev) T;

	mov	edx, DWORD PTR _pev$[ebp]
	push	edx
	push	1656					; 00000678H
	call	??2CBaseEntity@@SAPAXIPAUentvars_s@@@Z	; CBaseEntity::operator new
	add	esp, 8
	mov	DWORD PTR $T3[ebp], eax
	mov	DWORD PTR __$EHRec$[ebp+8], 0
	cmp	DWORD PTR $T3[ebp], 0
	je	SHORT $LN5@GetClassPt
	mov	ecx, DWORD PTR $T3[ebp]
	call	??0CGamePlayerTeam@@QAE@XZ
	mov	DWORD PTR tv85[ebp], eax
	jmp	SHORT $LN6@GetClassPt
$LN5@GetClassPt:
	mov	DWORD PTR tv85[ebp], 0
$LN6@GetClassPt:
	mov	eax, DWORD PTR tv85[ebp]
	mov	DWORD PTR $T2[ebp], eax
	mov	DWORD PTR __$EHRec$[ebp+8], -1
	mov	ecx, DWORD PTR $T2[ebp]
	mov	DWORD PTR _newEnt$[ebp], ecx

; 1090 : 		newEnt->pev = pev;

	mov	edx, DWORD PTR _newEnt$[ebp]
	mov	eax, DWORD PTR _pev$[ebp]
	mov	DWORD PTR [edx+4], eax
$LN3@GetClassPt:

; 1091 : 	}
; 1092 : 	newEnt->SetClassname( className );

	mov	ecx, DWORD PTR _className$[ebp]
	push	ecx
	mov	ecx, DWORD PTR _newEnt$[ebp]
	call	?SetClassname@CBaseEntity@@QAEXPBD@Z	; CBaseEntity::SetClassname

; 1093 : 
; 1094 : 	return newEnt;

	mov	eax, DWORD PTR _newEnt$[ebp]

; 1095 : }

	mov	ecx, DWORD PTR __$EHRec$[ebp]
	mov	DWORD PTR fs:0, ecx
	pop	ecx
	mov	esp, ebp
	pop	ebp
	ret	0
_TEXT	ENDS
;	COMDAT text$x
text$x	SEGMENT
__unwindfunclet$??$GetClassPtr@VCGamePlayerTeam@@@@YAPAVCGamePlayerTeam@@PAV0@PBD@Z$0:
	mov	eax, DWORD PTR _pev$[ebp]
	push	eax
	mov	eax, DWORD PTR $T3[ebp]
	push	eax
	call	??3CBaseEntity@@SAXPAXPAUentvars_s@@@Z	; CBaseEntity::operator delete
	add	esp, 8
	ret	0
__ehhandler$??$GetClassPtr@VCGamePlayerTeam@@@@YAPAVCGamePlayerTeam@@PAV0@PBD@Z:
	mov	edx, DWORD PTR [esp+8]
	lea	eax, DWORD PTR [edx+12]
	mov	ecx, DWORD PTR [edx-20]
	xor	ecx, eax
	call	@__security_check_cookie@4
	mov	eax, OFFSET __ehfuncinfo$??$GetClassPtr@VCGamePlayerTeam@@@@YAPAVCGamePlayerTeam@@PAV0@PBD@Z
	jmp	___CxxFrameHandler3
text$x	ENDS
??$GetClassPtr@VCGamePlayerTeam@@@@YAPAVCGamePlayerTeam@@PAV0@PBD@Z ENDP ; GetClassPtr<CGamePlayerTeam>
; Function compile flags: /Odtp
; File c:\users\user\downloads\xashxt_v0.81_rev.1_with_sources\xashxt_v0.81_rev.1_src\server\maprules.cpp
;	COMDAT ??__Egame_player_team@@YAXXZ
text$di	SEGMENT
??__Egame_player_team@@YAXXZ PROC			; `dynamic initializer for 'game_player_team'', COMDAT

; 849  : LINK_ENTITY_TO_CLASS( game_player_team, CGamePlayerTeam );

	push	ebp
	mov	ebp, esp
	push	OFFSET $SG76603
	mov	ecx, OFFSET ?game_player_team@@3V?$CEntityFactory@VCGamePlayerTeam@@@@A
	call	??0?$CEntityFactory@VCGamePlayerTeam@@@@QAE@PBD@Z ; CEntityFactory<CGamePlayerTeam>::CEntityFactory<CGamePlayerTeam>
	pop	ebp
	ret	0
??__Egame_player_team@@YAXXZ ENDP			; `dynamic initializer for 'game_player_team''
text$di	ENDS
; Function compile flags: /Odtp
; File c:\users\user\downloads\xashxt_v0.81_rev.1_with_sources\xashxt_v0.81_rev.1_src\server\util.h
;	COMDAT ?GetEntitySize@?$CEntityFactory@VCGamePlayerTeam@@@@UAEIXZ
_TEXT	SEGMENT
_this$ = -4						; size = 4
?GetEntitySize@?$CEntityFactory@VCGamePlayerTeam@@@@UAEIXZ PROC ; CEntityFactory<CGamePlayerTeam>::GetEntitySize, COMDAT
; _this$ = ecx

; 103  : 	{

	push	ebp
	mov	ebp, esp
	push	ecx
	mov	DWORD PTR _this$[ebp], ecx

; 104  : 		return sizeof(T);

	mov	eax, 1656				; 00000678H

; 105  : 	}

	mov	esp, ebp
	pop	ebp
	ret	0
?GetEntitySize@?$CEntityFactory@VCGamePlayerTeam@@@@UAEIXZ ENDP ; CEntityFactory<CGamePlayerTeam>::GetEntitySize
_TEXT	ENDS
; Function compile flags: /Odtp
; File c:\users\user\downloads\xashxt_v0.81_rev.1_with_sources\xashxt_v0.81_rev.1_src\server\util.h
;	COMDAT ?Destroy@?$CEntityFactory@VCGamePlayerTeam@@@@UAEXPAVCBaseEntity@@@Z
_TEXT	SEGMENT
_this$ = -4						; size = 4
_pEntity$ = 8						; size = 4
?Destroy@?$CEntityFactory@VCGamePlayerTeam@@@@UAEXPAVCBaseEntity@@@Z PROC ; CEntityFactory<CGamePlayerTeam>::Destroy, COMDAT
; _this$ = ecx

; 98   : 	{

	push	ebp
	mov	ebp, esp
	push	ecx
	mov	DWORD PTR _this$[ebp], ecx

; 99   : 		UTIL_Remove( pEntity );

	mov	eax, DWORD PTR _pEntity$[ebp]
	push	eax
	call	?UTIL_Remove@@YAXPAVCBaseEntity@@@Z	; UTIL_Remove
	add	esp, 4

; 100  : 	}

	mov	esp, ebp
	pop	ebp
	ret	4
?Destroy@?$CEntityFactory@VCGamePlayerTeam@@@@UAEXPAVCBaseEntity@@@Z ENDP ; CEntityFactory<CGamePlayerTeam>::Destroy
_TEXT	ENDS
; Function compile flags: /Odtp
; File c:\users\user\downloads\xashxt_v0.81_rev.1_with_sources\xashxt_v0.81_rev.1_src\server\util.h
;	COMDAT ?Create@?$CEntityFactory@VCGamePlayerTeam@@@@UAEPAVCBaseEntity@@PBDPAUentvars_s@@@Z
_TEXT	SEGMENT
_this$ = -8						; size = 4
_pEnt$ = -4						; size = 4
_pClassName$ = 8					; size = 4
_pev$ = 12						; size = 4
?Create@?$CEntityFactory@VCGamePlayerTeam@@@@UAEPAVCBaseEntity@@PBDPAUentvars_s@@@Z PROC ; CEntityFactory<CGamePlayerTeam>::Create, COMDAT
; _this$ = ecx

; 92   : 	{

	push	ebp
	mov	ebp, esp
	sub	esp, 8
	mov	DWORD PTR _this$[ebp], ecx

; 93   : 		T* pEnt = GetClassPtr((T*)pev, pClassName);

	mov	eax, DWORD PTR _pClassName$[ebp]
	push	eax
	mov	ecx, DWORD PTR _pev$[ebp]
	push	ecx
	call	??$GetClassPtr@VCGamePlayerTeam@@@@YAPAVCGamePlayerTeam@@PAV0@PBD@Z ; GetClassPtr<CGamePlayerTeam>
	add	esp, 8
	mov	DWORD PTR _pEnt$[ebp], eax

; 94   : 		return pEnt;

	mov	eax, DWORD PTR _pEnt$[ebp]

; 95   : 	}

	mov	esp, ebp
	pop	ebp
	ret	8
?Create@?$CEntityFactory@VCGamePlayerTeam@@@@UAEPAVCBaseEntity@@PBDPAUentvars_s@@@Z ENDP ; CEntityFactory<CGamePlayerTeam>::Create
_TEXT	ENDS
; Function compile flags: /Odtp
; File c:\users\user\downloads\xashxt_v0.81_rev.1_with_sources\xashxt_v0.81_rev.1_src\server\util.h
;	COMDAT ??0?$CEntityFactory@VCGamePlayerTeam@@@@QAE@PBD@Z
_TEXT	SEGMENT
tv76 = -8						; size = 4
_this$ = -4						; size = 4
_pClassName$ = 8					; size = 4
??0?$CEntityFactory@VCGamePlayerTeam@@@@QAE@PBD@Z PROC	; CEntityFactory<CGamePlayerTeam>::CEntityFactory<CGamePlayerTeam>, COMDAT
; _this$ = ecx

; 86   : 	CEntityFactory( const char *pClassName )

	push	ebp
	mov	ebp, esp
	sub	esp, 8
	mov	DWORD PTR _this$[ebp], ecx

; 87   : 	{

	mov	ecx, DWORD PTR _this$[ebp]
	call	??0IEntityFactory@@QAE@XZ
	mov	eax, DWORD PTR _this$[ebp]
	mov	DWORD PTR [eax], OFFSET ??_7?$CEntityFactory@VCGamePlayerTeam@@@@6B@

; 88   : 		EntityFactoryDictionary()->InstallFactory( this, pClassName );

	call	?EntityFactoryDictionary@@YAPAVIEntityFactoryDictionary@@XZ ; EntityFactoryDictionary
	mov	DWORD PTR tv76[ebp], eax
	mov	ecx, DWORD PTR _pClassName$[ebp]
	push	ecx
	mov	edx, DWORD PTR _this$[ebp]
	push	edx
	mov	eax, DWORD PTR tv76[ebp]
	mov	edx, DWORD PTR [eax]
	mov	ecx, DWORD PTR tv76[ebp]
	mov	eax, DWORD PTR [edx]
	call	eax

; 89   : 	}

	mov	eax, DWORD PTR _this$[ebp]
	mov	esp, ebp
	pop	ebp
	ret	4
??0?$CEntityFactory@VCGamePlayerTeam@@@@QAE@PBD@Z ENDP	; CEntityFactory<CGamePlayerTeam>::CEntityFactory<CGamePlayerTeam>
_TEXT	ENDS
; Function compile flags: /Odtp
;	COMDAT ??0CGamePlayerTeam@@QAE@XZ
_TEXT	SEGMENT
_this$ = -4						; size = 4
??0CGamePlayerTeam@@QAE@XZ PROC				; CGamePlayerTeam::CGamePlayerTeam, COMDAT
; _this$ = ecx
	push	ebp
	mov	ebp, esp
	push	ecx
	mov	DWORD PTR _this$[ebp], ecx
	mov	ecx, DWORD PTR _this$[ebp]
	call	??0CRulePointEntity@@QAE@XZ
	mov	eax, DWORD PTR _this$[ebp]
	mov	DWORD PTR [eax], OFFSET ??_7CGamePlayerTeam@@6B@
	mov	eax, DWORD PTR _this$[ebp]
	mov	esp, ebp
	pop	ebp
	ret	0
??0CGamePlayerTeam@@QAE@XZ ENDP				; CGamePlayerTeam::CGamePlayerTeam
_TEXT	ENDS
; Function compile flags: /Odtp
; File c:\users\user\downloads\xashxt_v0.81_rev.1_with_sources\xashxt_v0.81_rev.1_src\server\maprules.cpp
_TEXT	SEGMENT
_this$ = -8						; size = 4
_pTeamEntity$ = -4					; size = 4
_pszTargetName$ = 8					; size = 4
?TargetTeamName@CGamePlayerTeam@@AAEPBDPBD@Z PROC	; CGamePlayerTeam::TargetTeamName
; _this$ = ecx

; 852  : {

	push	ebp
	mov	ebp, esp
	sub	esp, 8
	mov	DWORD PTR _this$[ebp], ecx

; 853  : 	CBaseEntity *pTeamEntity = NULL;

	mov	DWORD PTR _pTeamEntity$[ebp], 0
$LN2@TargetTeam:

; 854  : 
; 855  : 	while ((pTeamEntity = UTIL_FindEntityByTargetname( pTeamEntity, pszTargetName )) != NULL)

	mov	eax, DWORD PTR _pszTargetName$[ebp]
	push	eax
	mov	ecx, DWORD PTR _pTeamEntity$[ebp]
	push	ecx
	call	?UTIL_FindEntityByTargetname@@YAPAVCBaseEntity@@PAV1@PBD@Z ; UTIL_FindEntityByTargetname
	add	esp, 8
	mov	DWORD PTR _pTeamEntity$[ebp], eax
	cmp	DWORD PTR _pTeamEntity$[ebp], 0
	je	SHORT $LN3@TargetTeam

; 856  : 	{
; 857  : 		if ( FClassnameIs( pTeamEntity->pev, "game_team_master" ) )

	push	OFFSET $SG76613
	mov	edx, DWORD PTR _pTeamEntity$[ebp]
	mov	eax, DWORD PTR [edx+4]
	push	eax
	call	?FClassnameIs@@YAHPAUentvars_s@@PBD@Z	; FClassnameIs
	add	esp, 8
	test	eax, eax
	je	SHORT $LN4@TargetTeam

; 858  : 			return pTeamEntity->TeamID();

	mov	ecx, DWORD PTR _pTeamEntity$[ebp]
	mov	edx, DWORD PTR [ecx]
	mov	ecx, DWORD PTR _pTeamEntity$[ebp]
	mov	eax, DWORD PTR [edx+260]
	call	eax
	jmp	SHORT $LN1@TargetTeam
$LN4@TargetTeam:

; 859  : 	}

	jmp	SHORT $LN2@TargetTeam
$LN3@TargetTeam:

; 860  : 
; 861  : 	return NULL;

	xor	eax, eax
$LN1@TargetTeam:

; 862  : }

	mov	esp, ebp
	pop	ebp
	ret	4
?TargetTeamName@CGamePlayerTeam@@AAEPBDPBD@Z ENDP	; CGamePlayerTeam::TargetTeamName
_TEXT	ENDS
; Function compile flags: /Odtp
; File c:\users\user\downloads\xashxt_v0.81_rev.1_with_sources\xashxt_v0.81_rev.1_src\server\maprules.cpp
;	COMDAT ?ShouldGibPlayer@CGamePlayerTeam@@AAEHXZ
_TEXT	SEGMENT
_this$ = -8						; size = 4
tv72 = -4						; size = 4
?ShouldGibPlayer@CGamePlayerTeam@@AAEHXZ PROC		; CGamePlayerTeam::ShouldGibPlayer, COMDAT
; _this$ = ecx

; 844  : 	inline BOOL ShouldGibPlayer( void ) { return (pev->spawnflags & SF_PTEAM_GIB) ? TRUE : FALSE; }

	push	ebp
	mov	ebp, esp
	sub	esp, 8
	mov	DWORD PTR _this$[ebp], ecx
	mov	eax, DWORD PTR _this$[ebp]
	mov	ecx, DWORD PTR [eax+4]
	mov	edx, DWORD PTR [ecx+416]
	and	edx, 4
	je	SHORT $LN3@ShouldGibP
	mov	DWORD PTR tv72[ebp], 1
	jmp	SHORT $LN4@ShouldGibP
$LN3@ShouldGibP:
	mov	DWORD PTR tv72[ebp], 0
$LN4@ShouldGibP:
	mov	eax, DWORD PTR tv72[ebp]
	mov	esp, ebp
	pop	ebp
	ret	0
?ShouldGibPlayer@CGamePlayerTeam@@AAEHXZ ENDP		; CGamePlayerTeam::ShouldGibPlayer
_TEXT	ENDS
; Function compile flags: /Odtp
; File c:\users\user\downloads\xashxt_v0.81_rev.1_with_sources\xashxt_v0.81_rev.1_src\server\maprules.cpp
;	COMDAT ?ShouldKillPlayer@CGamePlayerTeam@@AAEHXZ
_TEXT	SEGMENT
_this$ = -8						; size = 4
tv72 = -4						; size = 4
?ShouldKillPlayer@CGamePlayerTeam@@AAEHXZ PROC		; CGamePlayerTeam::ShouldKillPlayer, COMDAT
; _this$ = ecx

; 843  : 	inline BOOL ShouldKillPlayer( void ) { return (pev->spawnflags & SF_PTEAM_KILL) ? TRUE : FALSE; }

	push	ebp
	mov	ebp, esp
	sub	esp, 8
	mov	DWORD PTR _this$[ebp], ecx
	mov	eax, DWORD PTR _this$[ebp]
	mov	ecx, DWORD PTR [eax+4]
	mov	edx, DWORD PTR [ecx+416]
	and	edx, 2
	je	SHORT $LN3@ShouldKill
	mov	DWORD PTR tv72[ebp], 1
	jmp	SHORT $LN4@ShouldKill
$LN3@ShouldKill:
	mov	DWORD PTR tv72[ebp], 0
$LN4@ShouldKill:
	mov	eax, DWORD PTR tv72[ebp]
	mov	esp, ebp
	pop	ebp
	ret	0
?ShouldKillPlayer@CGamePlayerTeam@@AAEHXZ ENDP		; CGamePlayerTeam::ShouldKillPlayer
_TEXT	ENDS
; Function compile flags: /Odtp
; File c:\users\user\downloads\xashxt_v0.81_rev.1_with_sources\xashxt_v0.81_rev.1_src\server\maprules.cpp
;	COMDAT ?RemoveOnFire@CGamePlayerTeam@@AAEHXZ
_TEXT	SEGMENT
_this$ = -8						; size = 4
tv72 = -4						; size = 4
?RemoveOnFire@CGamePlayerTeam@@AAEHXZ PROC		; CGamePlayerTeam::RemoveOnFire, COMDAT
; _this$ = ecx

; 842  : 	inline BOOL RemoveOnFire( void ) { return (pev->spawnflags & SF_PTEAM_FIREONCE) ? TRUE : FALSE; }

	push	ebp
	mov	ebp, esp
	sub	esp, 8
	mov	DWORD PTR _this$[ebp], ecx
	mov	eax, DWORD PTR _this$[ebp]
	mov	ecx, DWORD PTR [eax+4]
	mov	edx, DWORD PTR [ecx+416]
	and	edx, 1
	je	SHORT $LN3@RemoveOnFi
	mov	DWORD PTR tv72[ebp], 1
	jmp	SHORT $LN4@RemoveOnFi
$LN3@RemoveOnFi:
	mov	DWORD PTR tv72[ebp], 0
$LN4@RemoveOnFi:
	mov	eax, DWORD PTR tv72[ebp]
	mov	esp, ebp
	pop	ebp
	ret	0
?RemoveOnFire@CGamePlayerTeam@@AAEHXZ ENDP		; CGamePlayerTeam::RemoveOnFire
_TEXT	ENDS
; Function compile flags: /Odtp
; File c:\users\user\downloads\xashxt_v0.81_rev.1_with_sources\xashxt_v0.81_rev.1_src\server\maprules.cpp
_TEXT	SEGMENT
_pPlayer$1 = -12					; size = 4
_pszTargetTeam$2 = -8					; size = 4
_this$ = -4						; size = 4
_pActivator$ = 8					; size = 4
_pCaller$ = 12						; size = 4
_useType$ = 16						; size = 4
_value$ = 20						; size = 4
?Use@CGamePlayerTeam@@UAEXPAVCBaseEntity@@0W4USE_TYPE@@M@Z PROC ; CGamePlayerTeam::Use
; _this$ = ecx

; 865  : {

	push	ebp
	mov	ebp, esp
	sub	esp, 12					; 0000000cH
	mov	DWORD PTR _this$[ebp], ecx

; 866  : 	if ( !CanFireForActivator( pActivator ) )

	mov	eax, DWORD PTR _pActivator$[ebp]
	push	eax
	mov	ecx, DWORD PTR _this$[ebp]
	call	?CanFireForActivator@CRuleEntity@@IAEHPAVCBaseEntity@@@Z ; CRuleEntity::CanFireForActivator
	test	eax, eax
	jne	SHORT $LN2@Use

; 867  : 		return;

	jmp	$LN1@Use
$LN2@Use:

; 868  : 
; 869  : 	if ( pActivator->IsPlayer() )

	mov	ecx, DWORD PTR _pActivator$[ebp]
	mov	edx, DWORD PTR [ecx]
	mov	ecx, DWORD PTR _pActivator$[ebp]
	mov	eax, DWORD PTR [edx+220]
	call	eax
	test	eax, eax
	je	SHORT $LN3@Use

; 870  : 	{
; 871  : 		const char *pszTargetTeam = TargetTeamName( STRING(pev->target) );

	mov	ecx, DWORD PTR _this$[ebp]
	mov	edx, DWORD PTR [ecx+4]
	mov	eax, DWORD PTR [edx+456]
	push	eax
	call	DWORD PTR ?g_engfuncs@@3Uenginefuncs_s@@A+264
	add	esp, 4
	push	eax
	mov	ecx, DWORD PTR _this$[ebp]
	call	?TargetTeamName@CGamePlayerTeam@@AAEPBDPBD@Z ; CGamePlayerTeam::TargetTeamName
	mov	DWORD PTR _pszTargetTeam$2[ebp], eax

; 872  : 		if ( pszTargetTeam )

	cmp	DWORD PTR _pszTargetTeam$2[ebp], 0
	je	SHORT $LN3@Use

; 873  : 		{
; 874  : 			CBasePlayer *pPlayer = (CBasePlayer *)pActivator;

	mov	ecx, DWORD PTR _pActivator$[ebp]
	mov	DWORD PTR _pPlayer$1[ebp], ecx

; 875  : 			g_pGameRules->ChangePlayerTeam( pPlayer, pszTargetTeam, ShouldKillPlayer(), ShouldGibPlayer() );

	mov	ecx, DWORD PTR _this$[ebp]
	call	?ShouldGibPlayer@CGamePlayerTeam@@AAEHXZ ; CGamePlayerTeam::ShouldGibPlayer
	push	eax
	mov	ecx, DWORD PTR _this$[ebp]
	call	?ShouldKillPlayer@CGamePlayerTeam@@AAEHXZ ; CGamePlayerTeam::ShouldKillPlayer
	push	eax
	mov	edx, DWORD PTR _pszTargetTeam$2[ebp]
	push	edx
	mov	eax, DWORD PTR _pPlayer$1[ebp]
	push	eax
	mov	ecx, DWORD PTR ?g_pGameRules@@3PAVCGameRules@@A ; g_pGameRules
	mov	edx, DWORD PTR [ecx]
	mov	ecx, DWORD PTR ?g_pGameRules@@3PAVCGameRules@@A ; g_pGameRules
	mov	eax, DWORD PTR [edx+216]
	call	eax
$LN3@Use:

; 876  : 		}
; 877  : 	}
; 878  : 	
; 879  : 	if ( RemoveOnFire() )

	mov	ecx, DWORD PTR _this$[ebp]
	call	?RemoveOnFire@CGamePlayerTeam@@AAEHXZ	; CGamePlayerTeam::RemoveOnFire
	test	eax, eax
	je	SHORT $LN1@Use

; 880  : 	{
; 881  : 		UTIL_Remove( this );

	mov	ecx, DWORD PTR _this$[ebp]
	push	ecx
	call	?UTIL_Remove@@YAXPAVCBaseEntity@@@Z	; UTIL_Remove
	add	esp, 4
$LN1@Use:

; 882  : 	}
; 883  : }

	mov	esp, ebp
	pop	ebp
	ret	16					; 00000010H
?Use@CGamePlayerTeam@@UAEXPAVCBaseEntity@@0W4USE_TYPE@@M@Z ENDP ; CGamePlayerTeam::Use
_TEXT	ENDS
; Function compile flags: /Odtp
; File c:\users\user\downloads\xashxt_v0.81_rev.1_with_sources\xashxt_v0.81_rev.1_src\server\maprules.cpp
;	COMDAT ??__Egame_player_equip@@YAXXZ
text$di	SEGMENT
??__Egame_player_equip@@YAXXZ PROC			; `dynamic initializer for 'game_player_equip'', COMDAT

; 759  : LINK_ENTITY_TO_CLASS( game_player_equip, CGamePlayerEquip );

	push	ebp
	mov	ebp, esp
	push	OFFSET $SG76494
	mov	ecx, OFFSET ?game_player_equip@@3V?$CEntityFactory@VCGamePlayerEquip@@@@A
	call	??0?$CEntityFactory@VCGamePlayerEquip@@@@QAE@PBD@Z ; CEntityFactory<CGamePlayerEquip>::CEntityFactory<CGamePlayerEquip>
	pop	ebp
	ret	0
??__Egame_player_equip@@YAXXZ ENDP			; `dynamic initializer for 'game_player_equip''
text$di	ENDS
; Function compile flags: /Odtp
; File c:\users\user\downloads\xashxt_v0.81_rev.1_with_sources\xashxt_v0.81_rev.1_src\server\util.h
;	COMDAT ?GetEntitySize@?$CEntityFactory@VCGamePlayerEquip@@@@UAEIXZ
_TEXT	SEGMENT
_this$ = -4						; size = 4
?GetEntitySize@?$CEntityFactory@VCGamePlayerEquip@@@@UAEIXZ PROC ; CEntityFactory<CGamePlayerEquip>::GetEntitySize, COMDAT
; _this$ = ecx

; 103  : 	{

	push	ebp
	mov	ebp, esp
	push	ecx
	mov	DWORD PTR _this$[ebp], ecx

; 104  : 		return sizeof(T);

	mov	eax, 1912				; 00000778H

; 105  : 	}

	mov	esp, ebp
	pop	ebp
	ret	0
?GetEntitySize@?$CEntityFactory@VCGamePlayerEquip@@@@UAEIXZ ENDP ; CEntityFactory<CGamePlayerEquip>::GetEntitySize
_TEXT	ENDS
; Function compile flags: /Odtp
; File c:\users\user\downloads\xashxt_v0.81_rev.1_with_sources\xashxt_v0.81_rev.1_src\server\util.h
;	COMDAT ?Destroy@?$CEntityFactory@VCGamePlayerEquip@@@@UAEXPAVCBaseEntity@@@Z
_TEXT	SEGMENT
_this$ = -4						; size = 4
_pEntity$ = 8						; size = 4
?Destroy@?$CEntityFactory@VCGamePlayerEquip@@@@UAEXPAVCBaseEntity@@@Z PROC ; CEntityFactory<CGamePlayerEquip>::Destroy, COMDAT
; _this$ = ecx

; 98   : 	{

	push	ebp
	mov	ebp, esp
	push	ecx
	mov	DWORD PTR _this$[ebp], ecx

; 99   : 		UTIL_Remove( pEntity );

	mov	eax, DWORD PTR _pEntity$[ebp]
	push	eax
	call	?UTIL_Remove@@YAXPAVCBaseEntity@@@Z	; UTIL_Remove
	add	esp, 4

; 100  : 	}

	mov	esp, ebp
	pop	ebp
	ret	4
?Destroy@?$CEntityFactory@VCGamePlayerEquip@@@@UAEXPAVCBaseEntity@@@Z ENDP ; CEntityFactory<CGamePlayerEquip>::Destroy
_TEXT	ENDS
; Function compile flags: /Odtp
; File c:\users\user\downloads\xashxt_v0.81_rev.1_with_sources\xashxt_v0.81_rev.1_src\server\util.h
;	COMDAT ?Create@?$CEntityFactory@VCGamePlayerEquip@@@@UAEPAVCBaseEntity@@PBDPAUentvars_s@@@Z
_TEXT	SEGMENT
_this$ = -8						; size = 4
_pEnt$ = -4						; size = 4
_pClassName$ = 8					; size = 4
_pev$ = 12						; size = 4
?Create@?$CEntityFactory@VCGamePlayerEquip@@@@UAEPAVCBaseEntity@@PBDPAUentvars_s@@@Z PROC ; CEntityFactory<CGamePlayerEquip>::Create, COMDAT
; _this$ = ecx

; 92   : 	{

	push	ebp
	mov	ebp, esp
	sub	esp, 8
	mov	DWORD PTR _this$[ebp], ecx

; 93   : 		T* pEnt = GetClassPtr((T*)pev, pClassName);

	mov	eax, DWORD PTR _pClassName$[ebp]
	push	eax
	mov	ecx, DWORD PTR _pev$[ebp]
	push	ecx
	call	??$GetClassPtr@VCGamePlayerEquip@@@@YAPAVCGamePlayerEquip@@PAV0@PBD@Z ; GetClassPtr<CGamePlayerEquip>
	add	esp, 8
	mov	DWORD PTR _pEnt$[ebp], eax

; 94   : 		return pEnt;

	mov	eax, DWORD PTR _pEnt$[ebp]

; 95   : 	}

	mov	esp, ebp
	pop	ebp
	ret	8
?Create@?$CEntityFactory@VCGamePlayerEquip@@@@UAEPAVCBaseEntity@@PBDPAUentvars_s@@@Z ENDP ; CEntityFactory<CGamePlayerEquip>::Create
_TEXT	ENDS
; Function compile flags: /Odtp
; File c:\users\user\downloads\xashxt_v0.81_rev.1_with_sources\xashxt_v0.81_rev.1_src\server\util.h
;	COMDAT ??0?$CEntityFactory@VCGamePlayerEquip@@@@QAE@PBD@Z
_TEXT	SEGMENT
tv76 = -8						; size = 4
_this$ = -4						; size = 4
_pClassName$ = 8					; size = 4
??0?$CEntityFactory@VCGamePlayerEquip@@@@QAE@PBD@Z PROC	; CEntityFactory<CGamePlayerEquip>::CEntityFactory<CGamePlayerEquip>, COMDAT
; _this$ = ecx

; 86   : 	CEntityFactory( const char *pClassName )

	push	ebp
	mov	ebp, esp
	sub	esp, 8
	mov	DWORD PTR _this$[ebp], ecx

; 87   : 	{

	mov	ecx, DWORD PTR _this$[ebp]
	call	??0IEntityFactory@@QAE@XZ
	mov	eax, DWORD PTR _this$[ebp]
	mov	DWORD PTR [eax], OFFSET ??_7?$CEntityFactory@VCGamePlayerEquip@@@@6B@

; 88   : 		EntityFactoryDictionary()->InstallFactory( this, pClassName );

	call	?EntityFactoryDictionary@@YAPAVIEntityFactoryDictionary@@XZ ; EntityFactoryDictionary
	mov	DWORD PTR tv76[ebp], eax
	mov	ecx, DWORD PTR _pClassName$[ebp]
	push	ecx
	mov	edx, DWORD PTR _this$[ebp]
	push	edx
	mov	eax, DWORD PTR tv76[ebp]
	mov	edx, DWORD PTR [eax]
	mov	ecx, DWORD PTR tv76[ebp]
	mov	eax, DWORD PTR [edx]
	call	eax

; 89   : 	}

	mov	eax, DWORD PTR _this$[ebp]
	mov	esp, ebp
	pop	ebp
	ret	4
??0?$CEntityFactory@VCGamePlayerEquip@@@@QAE@PBD@Z ENDP	; CEntityFactory<CGamePlayerEquip>::CEntityFactory<CGamePlayerEquip>
_TEXT	ENDS
; Function compile flags: /Odtp
;	COMDAT ??0CGamePlayerEquip@@QAE@XZ
_TEXT	SEGMENT
_this$ = -4						; size = 4
??0CGamePlayerEquip@@QAE@XZ PROC			; CGamePlayerEquip::CGamePlayerEquip, COMDAT
; _this$ = ecx
	push	ebp
	mov	ebp, esp
	push	ecx
	mov	DWORD PTR _this$[ebp], ecx
	mov	ecx, DWORD PTR _this$[ebp]
	call	??0CRulePointEntity@@QAE@XZ
	mov	eax, DWORD PTR _this$[ebp]
	mov	DWORD PTR [eax], OFFSET ??_7CGamePlayerEquip@@6B@
	mov	eax, DWORD PTR _this$[ebp]
	mov	esp, ebp
	pop	ebp
	ret	0
??0CGamePlayerEquip@@QAE@XZ ENDP			; CGamePlayerEquip::CGamePlayerEquip
_TEXT	ENDS
; Function compile flags: /Odtp
; File c:\users\user\downloads\xashxt_v0.81_rev.1_with_sources\xashxt_v0.81_rev.1_src\server\maprules.cpp
_TEXT	SEGMENT
_pPlayer$ = -16						; size = 4
_this$ = -12						; size = 4
_j$1 = -8						; size = 4
_i$2 = -4						; size = 4
_pEntity$ = 8						; size = 4
?EquipPlayer@CGamePlayerEquip@@AAEXPAVCBaseEntity@@@Z PROC ; CGamePlayerEquip::EquipPlayer
; _this$ = ecx

; 797  : {

	push	ebp
	mov	ebp, esp
	sub	esp, 16					; 00000010H
	mov	DWORD PTR _this$[ebp], ecx

; 798  : 	CBasePlayer *pPlayer = NULL;

	mov	DWORD PTR _pPlayer$[ebp], 0

; 799  : 
; 800  : 	if ( pEntity->IsPlayer() )

	mov	eax, DWORD PTR _pEntity$[ebp]
	mov	edx, DWORD PTR [eax]
	mov	ecx, DWORD PTR _pEntity$[ebp]
	mov	eax, DWORD PTR [edx+220]
	call	eax
	test	eax, eax
	je	SHORT $LN8@EquipPlaye

; 801  : 	{
; 802  : 		pPlayer = (CBasePlayer *)pEntity;

	mov	ecx, DWORD PTR _pEntity$[ebp]
	mov	DWORD PTR _pPlayer$[ebp], ecx
$LN8@EquipPlaye:

; 803  : 	}
; 804  : 
; 805  : 	if ( !pPlayer )

	cmp	DWORD PTR _pPlayer$[ebp], 0
	jne	SHORT $LN9@EquipPlaye

; 806  : 		return;

	jmp	SHORT $LN1@EquipPlaye
$LN9@EquipPlaye:

; 807  : 
; 808  : 	for ( int i = 0; i < MAX_EQUIP; i++ )

	mov	DWORD PTR _i$2[ebp], 0
	jmp	SHORT $LN4@EquipPlaye
$LN2@EquipPlaye:
	mov	edx, DWORD PTR _i$2[ebp]
	add	edx, 1
	mov	DWORD PTR _i$2[ebp], edx
$LN4@EquipPlaye:
	cmp	DWORD PTR _i$2[ebp], 32			; 00000020H
	jge	SHORT $LN1@EquipPlaye

; 809  : 	{
; 810  : 		if ( !m_weaponNames[i] )

	mov	eax, DWORD PTR _i$2[ebp]
	mov	ecx, DWORD PTR _this$[ebp]
	cmp	DWORD PTR [ecx+eax*4+1656], 0
	jne	SHORT $LN10@EquipPlaye

; 811  : 			break;

	jmp	SHORT $LN1@EquipPlaye
$LN10@EquipPlaye:

; 812  : 		for ( int j = 0; j < m_weaponCount[i]; j++ )

	mov	DWORD PTR _j$1[ebp], 0
	jmp	SHORT $LN7@EquipPlaye
$LN5@EquipPlaye:
	mov	edx, DWORD PTR _j$1[ebp]
	add	edx, 1
	mov	DWORD PTR _j$1[ebp], edx
$LN7@EquipPlaye:
	mov	eax, DWORD PTR _i$2[ebp]
	mov	ecx, DWORD PTR _this$[ebp]
	mov	edx, DWORD PTR _j$1[ebp]
	cmp	edx, DWORD PTR [ecx+eax*4+1784]
	jge	SHORT $LN6@EquipPlaye

; 813  : 		{
; 814  :  			pPlayer->GiveNamedItem( STRING(m_weaponNames[i]) );

	mov	eax, DWORD PTR _i$2[ebp]
	mov	ecx, DWORD PTR _this$[ebp]
	mov	edx, DWORD PTR [ecx+eax*4+1656]
	push	edx
	call	DWORD PTR ?g_engfuncs@@3Uenginefuncs_s@@A+264
	add	esp, 4
	push	eax
	mov	ecx, DWORD PTR _pPlayer$[ebp]
	call	?GiveNamedItem@CBasePlayer@@QAEXPBD@Z	; CBasePlayer::GiveNamedItem

; 815  : 		}

	jmp	SHORT $LN5@EquipPlaye
$LN6@EquipPlaye:

; 816  : 	}

	jmp	SHORT $LN2@EquipPlaye
$LN1@EquipPlaye:

; 817  : }

	mov	esp, ebp
	pop	ebp
	ret	4
?EquipPlayer@CGamePlayerEquip@@AAEXPAVCBaseEntity@@@Z ENDP ; CGamePlayerEquip::EquipPlayer
_TEXT	ENDS
; Function compile flags: /Odtp
; File c:\users\user\downloads\xashxt_v0.81_rev.1_with_sources\xashxt_v0.81_rev.1_src\server\maprules.cpp
;	COMDAT ?UseOnly@CGamePlayerEquip@@QAEHXZ
_TEXT	SEGMENT
_this$ = -8						; size = 4
tv72 = -4						; size = 4
?UseOnly@CGamePlayerEquip@@QAEHXZ PROC			; CGamePlayerEquip::UseOnly, COMDAT
; _this$ = ecx

; 750  : 	inline BOOL UseOnly( void ) { return (pev->spawnflags & SF_PLAYEREQUIP_USEONLY) ? TRUE : FALSE; }

	push	ebp
	mov	ebp, esp
	sub	esp, 8
	mov	DWORD PTR _this$[ebp], ecx
	mov	eax, DWORD PTR _this$[ebp]
	mov	ecx, DWORD PTR [eax+4]
	mov	edx, DWORD PTR [ecx+416]
	and	edx, 1
	je	SHORT $LN3@UseOnly
	mov	DWORD PTR tv72[ebp], 1
	jmp	SHORT $LN4@UseOnly
$LN3@UseOnly:
	mov	DWORD PTR tv72[ebp], 0
$LN4@UseOnly:
	mov	eax, DWORD PTR tv72[ebp]
	mov	esp, ebp
	pop	ebp
	ret	0
?UseOnly@CGamePlayerEquip@@QAEHXZ ENDP			; CGamePlayerEquip::UseOnly
_TEXT	ENDS
; Function compile flags: /Odtp
; File c:\users\user\downloads\xashxt_v0.81_rev.1_with_sources\xashxt_v0.81_rev.1_src\server\maprules.cpp
_TEXT	SEGMENT
_this$ = -4						; size = 4
_pActivator$ = 8					; size = 4
_pCaller$ = 12						; size = 4
_useType$ = 16						; size = 4
_value$ = 20						; size = 4
?Use@CGamePlayerEquip@@UAEXPAVCBaseEntity@@0W4USE_TYPE@@M@Z PROC ; CGamePlayerEquip::Use
; _this$ = ecx

; 821  : {

	push	ebp
	mov	ebp, esp
	push	ecx
	mov	DWORD PTR _this$[ebp], ecx

; 822  : 	EquipPlayer( pActivator );

	mov	eax, DWORD PTR _pActivator$[ebp]
	push	eax
	mov	ecx, DWORD PTR _this$[ebp]
	call	?EquipPlayer@CGamePlayerEquip@@AAEXPAVCBaseEntity@@@Z ; CGamePlayerEquip::EquipPlayer

; 823  : }

	mov	esp, ebp
	pop	ebp
	ret	16					; 00000010H
?Use@CGamePlayerEquip@@UAEXPAVCBaseEntity@@0W4USE_TYPE@@M@Z ENDP ; CGamePlayerEquip::Use
_TEXT	ENDS
; Function compile flags: /Odtp
; File c:\users\user\downloads\xashxt_v0.81_rev.1_with_sources\xashxt_v0.81_rev.1_src\server\maprules.cpp
_TEXT	SEGMENT
_this$ = -4						; size = 4
_pOther$ = 8						; size = 4
?Touch@CGamePlayerEquip@@UAEXPAVCBaseEntity@@@Z PROC	; CGamePlayerEquip::Touch
; _this$ = ecx

; 786  : {

	push	ebp
	mov	ebp, esp
	push	ecx
	mov	DWORD PTR _this$[ebp], ecx

; 787  : 	if ( !CanFireForActivator( pOther ) )

	mov	eax, DWORD PTR _pOther$[ebp]
	push	eax
	mov	ecx, DWORD PTR _this$[ebp]
	call	?CanFireForActivator@CRuleEntity@@IAEHPAVCBaseEntity@@@Z ; CRuleEntity::CanFireForActivator
	test	eax, eax
	jne	SHORT $LN2@Touch

; 788  : 		return;

	jmp	SHORT $LN1@Touch
$LN2@Touch:

; 789  : 
; 790  : 	if ( UseOnly() )

	mov	ecx, DWORD PTR _this$[ebp]
	call	?UseOnly@CGamePlayerEquip@@QAEHXZ	; CGamePlayerEquip::UseOnly
	test	eax, eax
	je	SHORT $LN3@Touch

; 791  : 		return;

	jmp	SHORT $LN1@Touch
$LN3@Touch:

; 792  : 
; 793  : 	EquipPlayer( pOther );

	mov	ecx, DWORD PTR _pOther$[ebp]
	push	ecx
	mov	ecx, DWORD PTR _this$[ebp]
	call	?EquipPlayer@CGamePlayerEquip@@AAEXPAVCBaseEntity@@@Z ; CGamePlayerEquip::EquipPlayer
$LN1@Touch:

; 794  : }

	mov	esp, ebp
	pop	ebp
	ret	4
?Touch@CGamePlayerEquip@@UAEXPAVCBaseEntity@@@Z ENDP	; CGamePlayerEquip::Touch
_TEXT	ENDS
; Function compile flags: /Odtp
; File c:\users\user\downloads\xashxt_v0.81_rev.1_with_sources\xashxt_v0.81_rev.1_src\server\maprules.cpp
_TEXT	SEGMENT
tv134 = -144						; size = 4
_this$ = -140						; size = 4
_i$1 = -136						; size = 4
_tmp$2 = -132						; size = 128
__$ArrayPad$ = -4					; size = 4
_pkvd$ = 8						; size = 4
?KeyValue@CGamePlayerEquip@@UAEXPAUKeyValueData_s@@@Z PROC ; CGamePlayerEquip::KeyValue
; _this$ = ecx

; 762  : {

	push	ebp
	mov	ebp, esp
	sub	esp, 144				; 00000090H
	mov	eax, DWORD PTR ___security_cookie
	xor	eax, ebp
	mov	DWORD PTR __$ArrayPad$[ebp], eax
	mov	DWORD PTR _this$[ebp], ecx

; 763  : 	BaseClass::KeyValue( pkvd );

	mov	eax, DWORD PTR _pkvd$[ebp]
	push	eax
	mov	ecx, DWORD PTR _this$[ebp]
	call	?KeyValue@CRuleEntity@@UAEXPAUKeyValueData_s@@@Z ; CRuleEntity::KeyValue

; 764  : 
; 765  : 	if ( !pkvd->fHandled )

	mov	ecx, DWORD PTR _pkvd$[ebp]
	cmp	DWORD PTR [ecx+12], 0
	jne	$LN1@KeyValue

; 766  : 	{
; 767  : 		for ( int i = 0; i < MAX_EQUIP; i++ )

	mov	DWORD PTR _i$1[ebp], 0
	jmp	SHORT $LN4@KeyValue
$LN2@KeyValue:
	mov	edx, DWORD PTR _i$1[ebp]
	add	edx, 1
	mov	DWORD PTR _i$1[ebp], edx
$LN4@KeyValue:
	cmp	DWORD PTR _i$1[ebp], 32			; 00000020H
	jge	$LN1@KeyValue

; 768  : 		{
; 769  : 			if ( !m_weaponNames[i] )

	mov	eax, DWORD PTR _i$1[ebp]
	mov	ecx, DWORD PTR _this$[ebp]
	cmp	DWORD PTR [ecx+eax*4+1656], 0
	jne	$LN6@KeyValue

; 770  : 			{
; 771  : 				char tmp[128];
; 772  : 
; 773  : 				UTIL_StripToken( pkvd->szKeyName, tmp );

	lea	edx, DWORD PTR _tmp$2[ebp]
	push	edx
	mov	eax, DWORD PTR _pkvd$[ebp]
	mov	ecx, DWORD PTR [eax+4]
	push	ecx
	call	?UTIL_StripToken@@YAXPBDPAD@Z		; UTIL_StripToken
	add	esp, 8

; 774  : 
; 775  : 				m_weaponNames[i] = ALLOC_STRING(tmp);

	lea	edx, DWORD PTR _tmp$2[ebp]
	push	edx
	call	DWORD PTR ?g_engfuncs@@3Uenginefuncs_s@@A+268
	add	esp, 4
	mov	ecx, DWORD PTR _i$1[ebp]
	mov	edx, DWORD PTR _this$[ebp]
	mov	DWORD PTR [edx+ecx*4+1656], eax

; 776  : 				m_weaponCount[i] = atoi(pkvd->szValue);

	mov	eax, DWORD PTR _pkvd$[ebp]
	mov	ecx, DWORD PTR [eax+8]
	push	ecx
	call	_atoi
	add	esp, 4
	mov	edx, DWORD PTR _i$1[ebp]
	mov	ecx, DWORD PTR _this$[ebp]
	mov	DWORD PTR [ecx+edx*4+1784], eax

; 777  : 				m_weaponCount[i] = Q_max(1,m_weaponCount[i]);

	mov	edx, DWORD PTR _i$1[ebp]
	mov	eax, DWORD PTR _this$[ebp]
	cmp	DWORD PTR [eax+edx*4+1784], 1
	jge	SHORT $LN8@KeyValue
	mov	DWORD PTR tv134[ebp], 1
	jmp	SHORT $LN9@KeyValue
$LN8@KeyValue:
	mov	ecx, DWORD PTR _i$1[ebp]
	mov	edx, DWORD PTR _this$[ebp]
	mov	eax, DWORD PTR [edx+ecx*4+1784]
	mov	DWORD PTR tv134[ebp], eax
$LN9@KeyValue:
	mov	ecx, DWORD PTR _i$1[ebp]
	mov	edx, DWORD PTR _this$[ebp]
	mov	eax, DWORD PTR tv134[ebp]
	mov	DWORD PTR [edx+ecx*4+1784], eax

; 778  : 				pkvd->fHandled = TRUE;

	mov	ecx, DWORD PTR _pkvd$[ebp]
	mov	DWORD PTR [ecx+12], 1

; 779  : 				break;

	jmp	SHORT $LN1@KeyValue
$LN6@KeyValue:

; 780  : 			}
; 781  : 		}

	jmp	$LN2@KeyValue
$LN1@KeyValue:

; 782  : 	}
; 783  : }

	mov	ecx, DWORD PTR __$ArrayPad$[ebp]
	xor	ecx, ebp
	call	@__security_check_cookie@4
	mov	esp, ebp
	pop	ebp
	ret	4
?KeyValue@CGamePlayerEquip@@UAEXPAUKeyValueData_s@@@Z ENDP ; CGamePlayerEquip::KeyValue
_TEXT	ENDS
; Function compile flags: /Odtp
; File c:\users\user\downloads\xashxt_v0.81_rev.1_with_sources\xashxt_v0.81_rev.1_src\server\maprules.cpp
;	COMDAT ??__Egame_counter_set@@YAXXZ
text$di	SEGMENT
??__Egame_counter_set@@YAXXZ PROC			; `dynamic initializer for 'game_counter_set'', COMDAT

; 720  : LINK_ENTITY_TO_CLASS( game_counter_set, CGameCounterSet );

	push	ebp
	mov	ebp, esp
	push	OFFSET $SG76420
	mov	ecx, OFFSET ?game_counter_set@@3V?$CEntityFactory@VCGameCounterSet@@@@A
	call	??0?$CEntityFactory@VCGameCounterSet@@@@QAE@PBD@Z ; CEntityFactory<CGameCounterSet>::CEntityFactory<CGameCounterSet>
	pop	ebp
	ret	0
??__Egame_counter_set@@YAXXZ ENDP			; `dynamic initializer for 'game_counter_set''
text$di	ENDS
; Function compile flags: /Odtp
; File c:\users\user\downloads\xashxt_v0.81_rev.1_with_sources\xashxt_v0.81_rev.1_src\server\util.h
;	COMDAT ?GetEntitySize@?$CEntityFactory@VCGameCounterSet@@@@UAEIXZ
_TEXT	SEGMENT
_this$ = -4						; size = 4
?GetEntitySize@?$CEntityFactory@VCGameCounterSet@@@@UAEIXZ PROC ; CEntityFactory<CGameCounterSet>::GetEntitySize, COMDAT
; _this$ = ecx

; 103  : 	{

	push	ebp
	mov	ebp, esp
	push	ecx
	mov	DWORD PTR _this$[ebp], ecx

; 104  : 		return sizeof(T);

	mov	eax, 1656				; 00000678H

; 105  : 	}

	mov	esp, ebp
	pop	ebp
	ret	0
?GetEntitySize@?$CEntityFactory@VCGameCounterSet@@@@UAEIXZ ENDP ; CEntityFactory<CGameCounterSet>::GetEntitySize
_TEXT	ENDS
; Function compile flags: /Odtp
; File c:\users\user\downloads\xashxt_v0.81_rev.1_with_sources\xashxt_v0.81_rev.1_src\server\util.h
;	COMDAT ?Destroy@?$CEntityFactory@VCGameCounterSet@@@@UAEXPAVCBaseEntity@@@Z
_TEXT	SEGMENT
_this$ = -4						; size = 4
_pEntity$ = 8						; size = 4
?Destroy@?$CEntityFactory@VCGameCounterSet@@@@UAEXPAVCBaseEntity@@@Z PROC ; CEntityFactory<CGameCounterSet>::Destroy, COMDAT
; _this$ = ecx

; 98   : 	{

	push	ebp
	mov	ebp, esp
	push	ecx
	mov	DWORD PTR _this$[ebp], ecx

; 99   : 		UTIL_Remove( pEntity );

	mov	eax, DWORD PTR _pEntity$[ebp]
	push	eax
	call	?UTIL_Remove@@YAXPAVCBaseEntity@@@Z	; UTIL_Remove
	add	esp, 4

; 100  : 	}

	mov	esp, ebp
	pop	ebp
	ret	4
?Destroy@?$CEntityFactory@VCGameCounterSet@@@@UAEXPAVCBaseEntity@@@Z ENDP ; CEntityFactory<CGameCounterSet>::Destroy
_TEXT	ENDS
; Function compile flags: /Odtp
; File c:\users\user\downloads\xashxt_v0.81_rev.1_with_sources\xashxt_v0.81_rev.1_src\server\util.h
;	COMDAT ?Create@?$CEntityFactory@VCGameCounterSet@@@@UAEPAVCBaseEntity@@PBDPAUentvars_s@@@Z
_TEXT	SEGMENT
_this$ = -8						; size = 4
_pEnt$ = -4						; size = 4
_pClassName$ = 8					; size = 4
_pev$ = 12						; size = 4
?Create@?$CEntityFactory@VCGameCounterSet@@@@UAEPAVCBaseEntity@@PBDPAUentvars_s@@@Z PROC ; CEntityFactory<CGameCounterSet>::Create, COMDAT
; _this$ = ecx

; 92   : 	{

	push	ebp
	mov	ebp, esp
	sub	esp, 8
	mov	DWORD PTR _this$[ebp], ecx

; 93   : 		T* pEnt = GetClassPtr((T*)pev, pClassName);

	mov	eax, DWORD PTR _pClassName$[ebp]
	push	eax
	mov	ecx, DWORD PTR _pev$[ebp]
	push	ecx
	call	??$GetClassPtr@VCGameCounterSet@@@@YAPAVCGameCounterSet@@PAV0@PBD@Z ; GetClassPtr<CGameCounterSet>
	add	esp, 8
	mov	DWORD PTR _pEnt$[ebp], eax

; 94   : 		return pEnt;

	mov	eax, DWORD PTR _pEnt$[ebp]

; 95   : 	}

	mov	esp, ebp
	pop	ebp
	ret	8
?Create@?$CEntityFactory@VCGameCounterSet@@@@UAEPAVCBaseEntity@@PBDPAUentvars_s@@@Z ENDP ; CEntityFactory<CGameCounterSet>::Create
_TEXT	ENDS
; Function compile flags: /Odtp
; File c:\users\user\downloads\xashxt_v0.81_rev.1_with_sources\xashxt_v0.81_rev.1_src\server\util.h
;	COMDAT ??0?$CEntityFactory@VCGameCounterSet@@@@QAE@PBD@Z
_TEXT	SEGMENT
tv76 = -8						; size = 4
_this$ = -4						; size = 4
_pClassName$ = 8					; size = 4
??0?$CEntityFactory@VCGameCounterSet@@@@QAE@PBD@Z PROC	; CEntityFactory<CGameCounterSet>::CEntityFactory<CGameCounterSet>, COMDAT
; _this$ = ecx

; 86   : 	CEntityFactory( const char *pClassName )

	push	ebp
	mov	ebp, esp
	sub	esp, 8
	mov	DWORD PTR _this$[ebp], ecx

; 87   : 	{

	mov	ecx, DWORD PTR _this$[ebp]
	call	??0IEntityFactory@@QAE@XZ
	mov	eax, DWORD PTR _this$[ebp]
	mov	DWORD PTR [eax], OFFSET ??_7?$CEntityFactory@VCGameCounterSet@@@@6B@

; 88   : 		EntityFactoryDictionary()->InstallFactory( this, pClassName );

	call	?EntityFactoryDictionary@@YAPAVIEntityFactoryDictionary@@XZ ; EntityFactoryDictionary
	mov	DWORD PTR tv76[ebp], eax
	mov	ecx, DWORD PTR _pClassName$[ebp]
	push	ecx
	mov	edx, DWORD PTR _this$[ebp]
	push	edx
	mov	eax, DWORD PTR tv76[ebp]
	mov	edx, DWORD PTR [eax]
	mov	ecx, DWORD PTR tv76[ebp]
	mov	eax, DWORD PTR [edx]
	call	eax

; 89   : 	}

	mov	eax, DWORD PTR _this$[ebp]
	mov	esp, ebp
	pop	ebp
	ret	4
??0?$CEntityFactory@VCGameCounterSet@@@@QAE@PBD@Z ENDP	; CEntityFactory<CGameCounterSet>::CEntityFactory<CGameCounterSet>
_TEXT	ENDS
; Function compile flags: /Odtp
;	COMDAT ??0CGameCounterSet@@QAE@XZ
_TEXT	SEGMENT
_this$ = -4						; size = 4
??0CGameCounterSet@@QAE@XZ PROC				; CGameCounterSet::CGameCounterSet, COMDAT
; _this$ = ecx
	push	ebp
	mov	ebp, esp
	push	ecx
	mov	DWORD PTR _this$[ebp], ecx
	mov	ecx, DWORD PTR _this$[ebp]
	call	??0CRulePointEntity@@QAE@XZ
	mov	eax, DWORD PTR _this$[ebp]
	mov	DWORD PTR [eax], OFFSET ??_7CGameCounterSet@@6B@
	mov	eax, DWORD PTR _this$[ebp]
	mov	esp, ebp
	pop	ebp
	ret	0
??0CGameCounterSet@@QAE@XZ ENDP				; CGameCounterSet::CGameCounterSet
_TEXT	ENDS
; Function compile flags: /Odtp
; File c:\users\user\downloads\xashxt_v0.81_rev.1_with_sources\xashxt_v0.81_rev.1_src\server\maprules.cpp
;	COMDAT ?RemoveOnFire@CGameCounterSet@@QAEHXZ
_TEXT	SEGMENT
_this$ = -8						; size = 4
tv72 = -4						; size = 4
?RemoveOnFire@CGameCounterSet@@QAEHXZ PROC		; CGameCounterSet::RemoveOnFire, COMDAT
; _this$ = ecx

; 717  : 	inline BOOL RemoveOnFire( void ) { return (pev->spawnflags & SF_GAMECOUNTSET_FIREONCE) ? TRUE : FALSE; }

	push	ebp
	mov	ebp, esp
	sub	esp, 8
	mov	DWORD PTR _this$[ebp], ecx
	mov	eax, DWORD PTR _this$[ebp]
	mov	ecx, DWORD PTR [eax+4]
	mov	edx, DWORD PTR [ecx+416]
	and	edx, 1
	je	SHORT $LN3@RemoveOnFi
	mov	DWORD PTR tv72[ebp], 1
	jmp	SHORT $LN4@RemoveOnFi
$LN3@RemoveOnFi:
	mov	DWORD PTR tv72[ebp], 0
$LN4@RemoveOnFi:
	mov	eax, DWORD PTR tv72[ebp]
	mov	esp, ebp
	pop	ebp
	ret	0
?RemoveOnFire@CGameCounterSet@@QAEHXZ ENDP		; CGameCounterSet::RemoveOnFire
_TEXT	ENDS
; Function compile flags: /Odtp
; File c:\users\user\downloads\xashxt_v0.81_rev.1_with_sources\xashxt_v0.81_rev.1_src\server\maprules.cpp
_TEXT	SEGMENT
_this$ = -4						; size = 4
_pActivator$ = 8					; size = 4
_pCaller$ = 12						; size = 4
_useType$ = 16						; size = 4
_value$ = 20						; size = 4
?Use@CGameCounterSet@@UAEXPAVCBaseEntity@@0W4USE_TYPE@@M@Z PROC ; CGameCounterSet::Use
; _this$ = ecx

; 723  : {

	push	ebp
	mov	ebp, esp
	push	ecx
	mov	DWORD PTR _this$[ebp], ecx

; 724  : 	if ( !CanFireForActivator( pActivator ) )

	mov	eax, DWORD PTR _pActivator$[ebp]
	push	eax
	mov	ecx, DWORD PTR _this$[ebp]
	call	?CanFireForActivator@CRuleEntity@@IAEHPAVCBaseEntity@@@Z ; CRuleEntity::CanFireForActivator
	test	eax, eax
	jne	SHORT $LN2@Use

; 725  : 		return;

	jmp	SHORT $LN1@Use
$LN2@Use:

; 726  : 
; 727  : 	SUB_UseTargets( pActivator, USE_SET, pev->frags );

	push	0
	mov	ecx, DWORD PTR _this$[ebp]
	mov	edx, DWORD PTR [ecx+4]
	push	ecx
	movss	xmm0, DWORD PTR [edx+356]
	movss	DWORD PTR [esp], xmm0
	push	2
	mov	eax, DWORD PTR _pActivator$[ebp]
	push	eax
	mov	ecx, DWORD PTR _this$[ebp]
	call	?SUB_UseTargets@CBaseEntity@@QAEXPAV1@W4USE_TYPE@@MH@Z ; CBaseEntity::SUB_UseTargets

; 728  : 
; 729  : 	if ( RemoveOnFire() )

	mov	ecx, DWORD PTR _this$[ebp]
	call	?RemoveOnFire@CGameCounterSet@@QAEHXZ	; CGameCounterSet::RemoveOnFire
	test	eax, eax
	je	SHORT $LN3@Use

; 730  : 	{
; 731  : 		UTIL_Remove( this );

	mov	ecx, DWORD PTR _this$[ebp]
	push	ecx
	call	?UTIL_Remove@@YAXPAVCBaseEntity@@@Z	; UTIL_Remove
	add	esp, 4
$LN3@Use:
$LN1@Use:

; 732  : 	}
; 733  : }

	mov	esp, ebp
	pop	ebp
	ret	16					; 00000010H
?Use@CGameCounterSet@@UAEXPAVCBaseEntity@@0W4USE_TYPE@@M@Z ENDP ; CGameCounterSet::Use
_TEXT	ENDS
; Function compile flags: /Odtp
; File c:\users\user\downloads\xashxt_v0.81_rev.1_with_sources\xashxt_v0.81_rev.1_src\server\maprules.cpp
;	COMDAT ??__Egame_counter@@YAXXZ
text$di	SEGMENT
??__Egame_counter@@YAXXZ PROC				; `dynamic initializer for 'game_counter'', COMDAT

; 659  : LINK_ENTITY_TO_CLASS( game_counter, CGameCounter );

	push	ebp
	mov	ebp, esp
	push	OFFSET $SG76343
	mov	ecx, OFFSET ?game_counter@@3V?$CEntityFactory@VCGameCounter@@@@A
	call	??0?$CEntityFactory@VCGameCounter@@@@QAE@PBD@Z ; CEntityFactory<CGameCounter>::CEntityFactory<CGameCounter>
	pop	ebp
	ret	0
??__Egame_counter@@YAXXZ ENDP				; `dynamic initializer for 'game_counter''
text$di	ENDS
; Function compile flags: /Odtp
; File c:\users\user\downloads\xashxt_v0.81_rev.1_with_sources\xashxt_v0.81_rev.1_src\server\util.h
;	COMDAT ?GetEntitySize@?$CEntityFactory@VCGameCounter@@@@UAEIXZ
_TEXT	SEGMENT
_this$ = -4						; size = 4
?GetEntitySize@?$CEntityFactory@VCGameCounter@@@@UAEIXZ PROC ; CEntityFactory<CGameCounter>::GetEntitySize, COMDAT
; _this$ = ecx

; 103  : 	{

	push	ebp
	mov	ebp, esp
	push	ecx
	mov	DWORD PTR _this$[ebp], ecx

; 104  : 		return sizeof(T);

	mov	eax, 1656				; 00000678H

; 105  : 	}

	mov	esp, ebp
	pop	ebp
	ret	0
?GetEntitySize@?$CEntityFactory@VCGameCounter@@@@UAEIXZ ENDP ; CEntityFactory<CGameCounter>::GetEntitySize
_TEXT	ENDS
; Function compile flags: /Odtp
; File c:\users\user\downloads\xashxt_v0.81_rev.1_with_sources\xashxt_v0.81_rev.1_src\server\util.h
;	COMDAT ?Destroy@?$CEntityFactory@VCGameCounter@@@@UAEXPAVCBaseEntity@@@Z
_TEXT	SEGMENT
_this$ = -4						; size = 4
_pEntity$ = 8						; size = 4
?Destroy@?$CEntityFactory@VCGameCounter@@@@UAEXPAVCBaseEntity@@@Z PROC ; CEntityFactory<CGameCounter>::Destroy, COMDAT
; _this$ = ecx

; 98   : 	{

	push	ebp
	mov	ebp, esp
	push	ecx
	mov	DWORD PTR _this$[ebp], ecx

; 99   : 		UTIL_Remove( pEntity );

	mov	eax, DWORD PTR _pEntity$[ebp]
	push	eax
	call	?UTIL_Remove@@YAXPAVCBaseEntity@@@Z	; UTIL_Remove
	add	esp, 4

; 100  : 	}

	mov	esp, ebp
	pop	ebp
	ret	4
?Destroy@?$CEntityFactory@VCGameCounter@@@@UAEXPAVCBaseEntity@@@Z ENDP ; CEntityFactory<CGameCounter>::Destroy
_TEXT	ENDS
; Function compile flags: /Odtp
; File c:\users\user\downloads\xashxt_v0.81_rev.1_with_sources\xashxt_v0.81_rev.1_src\server\util.h
;	COMDAT ?Create@?$CEntityFactory@VCGameCounter@@@@UAEPAVCBaseEntity@@PBDPAUentvars_s@@@Z
_TEXT	SEGMENT
_this$ = -8						; size = 4
_pEnt$ = -4						; size = 4
_pClassName$ = 8					; size = 4
_pev$ = 12						; size = 4
?Create@?$CEntityFactory@VCGameCounter@@@@UAEPAVCBaseEntity@@PBDPAUentvars_s@@@Z PROC ; CEntityFactory<CGameCounter>::Create, COMDAT
; _this$ = ecx

; 92   : 	{

	push	ebp
	mov	ebp, esp
	sub	esp, 8
	mov	DWORD PTR _this$[ebp], ecx

; 93   : 		T* pEnt = GetClassPtr((T*)pev, pClassName);

	mov	eax, DWORD PTR _pClassName$[ebp]
	push	eax
	mov	ecx, DWORD PTR _pev$[ebp]
	push	ecx
	call	??$GetClassPtr@VCGameCounter@@@@YAPAVCGameCounter@@PAV0@PBD@Z ; GetClassPtr<CGameCounter>
	add	esp, 8
	mov	DWORD PTR _pEnt$[ebp], eax

; 94   : 		return pEnt;

	mov	eax, DWORD PTR _pEnt$[ebp]

; 95   : 	}

	mov	esp, ebp
	pop	ebp
	ret	8
?Create@?$CEntityFactory@VCGameCounter@@@@UAEPAVCBaseEntity@@PBDPAUentvars_s@@@Z ENDP ; CEntityFactory<CGameCounter>::Create
_TEXT	ENDS
; Function compile flags: /Odtp
; File c:\users\user\downloads\xashxt_v0.81_rev.1_with_sources\xashxt_v0.81_rev.1_src\server\util.h
;	COMDAT ??0?$CEntityFactory@VCGameCounter@@@@QAE@PBD@Z
_TEXT	SEGMENT
tv76 = -8						; size = 4
_this$ = -4						; size = 4
_pClassName$ = 8					; size = 4
??0?$CEntityFactory@VCGameCounter@@@@QAE@PBD@Z PROC	; CEntityFactory<CGameCounter>::CEntityFactory<CGameCounter>, COMDAT
; _this$ = ecx

; 86   : 	CEntityFactory( const char *pClassName )

	push	ebp
	mov	ebp, esp
	sub	esp, 8
	mov	DWORD PTR _this$[ebp], ecx

; 87   : 	{

	mov	ecx, DWORD PTR _this$[ebp]
	call	??0IEntityFactory@@QAE@XZ
	mov	eax, DWORD PTR _this$[ebp]
	mov	DWORD PTR [eax], OFFSET ??_7?$CEntityFactory@VCGameCounter@@@@6B@

; 88   : 		EntityFactoryDictionary()->InstallFactory( this, pClassName );

	call	?EntityFactoryDictionary@@YAPAVIEntityFactoryDictionary@@XZ ; EntityFactoryDictionary
	mov	DWORD PTR tv76[ebp], eax
	mov	ecx, DWORD PTR _pClassName$[ebp]
	push	ecx
	mov	edx, DWORD PTR _this$[ebp]
	push	edx
	mov	eax, DWORD PTR tv76[ebp]
	mov	edx, DWORD PTR [eax]
	mov	ecx, DWORD PTR tv76[ebp]
	mov	eax, DWORD PTR [edx]
	call	eax

; 89   : 	}

	mov	eax, DWORD PTR _this$[ebp]
	mov	esp, ebp
	pop	ebp
	ret	4
??0?$CEntityFactory@VCGameCounter@@@@QAE@PBD@Z ENDP	; CEntityFactory<CGameCounter>::CEntityFactory<CGameCounter>
_TEXT	ENDS
; Function compile flags: /Odtp
;	COMDAT ??0CGameCounter@@QAE@XZ
_TEXT	SEGMENT
_this$ = -4						; size = 4
??0CGameCounter@@QAE@XZ PROC				; CGameCounter::CGameCounter, COMDAT
; _this$ = ecx
	push	ebp
	mov	ebp, esp
	push	ecx
	mov	DWORD PTR _this$[ebp], ecx
	mov	ecx, DWORD PTR _this$[ebp]
	call	??0CRulePointEntity@@QAE@XZ
	mov	eax, DWORD PTR _this$[ebp]
	mov	DWORD PTR [eax], OFFSET ??_7CGameCounter@@6B@
	mov	eax, DWORD PTR _this$[ebp]
	mov	esp, ebp
	pop	ebp
	ret	0
??0CGameCounter@@QAE@XZ ENDP				; CGameCounter::CGameCounter
_TEXT	ENDS
; Function compile flags: /Odtp
; File c:\users\user\downloads\xashxt_v0.81_rev.1_with_sources\xashxt_v0.81_rev.1_src\server\maprules.cpp
;	COMDAT ?SetInitialValue@CGameCounter@@AAEXH@Z
_TEXT	SEGMENT
_this$ = -4						; size = 4
_value$ = 8						; size = 4
?SetInitialValue@CGameCounter@@AAEXH@Z PROC		; CGameCounter::SetInitialValue, COMDAT
; _this$ = ecx

; 656  : 	inline void SetInitialValue( int value ) { pev->dmg = value; }

	push	ebp
	mov	ebp, esp
	push	ecx
	mov	DWORD PTR _this$[ebp], ecx
	cvtsi2ss xmm0, DWORD PTR _value$[ebp]
	mov	eax, DWORD PTR _this$[ebp]
	mov	ecx, DWORD PTR [eax+4]
	movss	DWORD PTR [ecx+480], xmm0
	mov	esp, ebp
	pop	ebp
	ret	4
?SetInitialValue@CGameCounter@@AAEXH@Z ENDP		; CGameCounter::SetInitialValue
_TEXT	ENDS
; Function compile flags: /Odtp
; File c:\users\user\downloads\xashxt_v0.81_rev.1_with_sources\xashxt_v0.81_rev.1_src\server\maprules.cpp
;	COMDAT ?SetCountValue@CGameCounter@@AAEXH@Z
_TEXT	SEGMENT
_this$ = -4						; size = 4
_value$ = 8						; size = 4
?SetCountValue@CGameCounter@@AAEXH@Z PROC		; CGameCounter::SetCountValue, COMDAT
; _this$ = ecx

; 655  : 	inline void SetCountValue( int value ) { pev->frags = value; }

	push	ebp
	mov	ebp, esp
	push	ecx
	mov	DWORD PTR _this$[ebp], ecx
	cvtsi2ss xmm0, DWORD PTR _value$[ebp]
	mov	eax, DWORD PTR _this$[ebp]
	mov	ecx, DWORD PTR [eax+4]
	movss	DWORD PTR [ecx+356], xmm0
	mov	esp, ebp
	pop	ebp
	ret	4
?SetCountValue@CGameCounter@@AAEXH@Z ENDP		; CGameCounter::SetCountValue
_TEXT	ENDS
; Function compile flags: /Odtp
; File c:\users\user\downloads\xashxt_v0.81_rev.1_with_sources\xashxt_v0.81_rev.1_src\server\maprules.cpp
;	COMDAT ?HitLimit@CGameCounter@@QAEHXZ
_TEXT	SEGMENT
tv69 = -8						; size = 4
_this$ = -4						; size = 4
?HitLimit@CGameCounter@@QAEHXZ PROC			; CGameCounter::HitLimit, COMDAT
; _this$ = ecx

; 653  : 	inline BOOL HitLimit( void ) { return CountValue() == LimitValue(); }

	push	ebp
	mov	ebp, esp
	sub	esp, 8
	push	esi
	mov	DWORD PTR _this$[ebp], ecx
	mov	ecx, DWORD PTR _this$[ebp]
	call	?CountValue@CGameCounter@@QAEHXZ	; CGameCounter::CountValue
	mov	esi, eax
	mov	ecx, DWORD PTR _this$[ebp]
	call	?LimitValue@CGameCounter@@QAEHXZ	; CGameCounter::LimitValue
	cmp	esi, eax
	jne	SHORT $LN3@HitLimit
	mov	DWORD PTR tv69[ebp], 1
	jmp	SHORT $LN4@HitLimit
$LN3@HitLimit:
	mov	DWORD PTR tv69[ebp], 0
$LN4@HitLimit:
	mov	eax, DWORD PTR tv69[ebp]
	pop	esi
	mov	esp, ebp
	pop	ebp
	ret	0
?HitLimit@CGameCounter@@QAEHXZ ENDP			; CGameCounter::HitLimit
_TEXT	ENDS
; Function compile flags: /Odtp
; File c:\users\user\downloads\xashxt_v0.81_rev.1_with_sources\xashxt_v0.81_rev.1_src\server\maprules.cpp
;	COMDAT ?LimitValue@CGameCounter@@QAEHXZ
_TEXT	SEGMENT
_this$ = -4						; size = 4
?LimitValue@CGameCounter@@QAEHXZ PROC			; CGameCounter::LimitValue, COMDAT
; _this$ = ecx

; 652  : 	inline int LimitValue( void ) { return pev->health; }

	push	ebp
	mov	ebp, esp
	push	ecx
	mov	DWORD PTR _this$[ebp], ecx
	mov	eax, DWORD PTR _this$[ebp]
	mov	ecx, DWORD PTR [eax+4]
	cvttss2si eax, DWORD PTR [ecx+352]
	mov	esp, ebp
	pop	ebp
	ret	0
?LimitValue@CGameCounter@@QAEHXZ ENDP			; CGameCounter::LimitValue
_TEXT	ENDS
; Function compile flags: /Odtp
; File c:\users\user\downloads\xashxt_v0.81_rev.1_with_sources\xashxt_v0.81_rev.1_src\server\maprules.cpp
;	COMDAT ?CountValue@CGameCounter@@QAEHXZ
_TEXT	SEGMENT
_this$ = -4						; size = 4
?CountValue@CGameCounter@@QAEHXZ PROC			; CGameCounter::CountValue, COMDAT
; _this$ = ecx

; 651  : 	inline int CountValue( void ) { return pev->frags; }

	push	ebp
	mov	ebp, esp
	push	ecx
	mov	DWORD PTR _this$[ebp], ecx
	mov	eax, DWORD PTR _this$[ebp]
	mov	ecx, DWORD PTR [eax+4]
	cvttss2si eax, DWORD PTR [ecx+356]
	mov	esp, ebp
	pop	ebp
	ret	0
?CountValue@CGameCounter@@QAEHXZ ENDP			; CGameCounter::CountValue
_TEXT	ENDS
; Function compile flags: /Odtp
; File c:\users\user\downloads\xashxt_v0.81_rev.1_with_sources\xashxt_v0.81_rev.1_src\server\maprules.cpp
;	COMDAT ?ResetCount@CGameCounter@@QAEXXZ
_TEXT	SEGMENT
_this$ = -4						; size = 4
?ResetCount@CGameCounter@@QAEXXZ PROC			; CGameCounter::ResetCount, COMDAT
; _this$ = ecx

; 650  : 	inline void ResetCount( void ) { pev->frags = pev->dmg; }

	push	ebp
	mov	ebp, esp
	push	ecx
	mov	DWORD PTR _this$[ebp], ecx
	mov	eax, DWORD PTR _this$[ebp]
	mov	ecx, DWORD PTR [eax+4]
	mov	edx, DWORD PTR _this$[ebp]
	mov	eax, DWORD PTR [edx+4]
	mov	ecx, DWORD PTR [ecx+480]
	mov	DWORD PTR [eax+356], ecx
	mov	esp, ebp
	pop	ebp
	ret	0
?ResetCount@CGameCounter@@QAEXXZ ENDP			; CGameCounter::ResetCount
_TEXT	ENDS
; Function compile flags: /Odtp
; File c:\users\user\downloads\xashxt_v0.81_rev.1_with_sources\xashxt_v0.81_rev.1_src\server\maprules.cpp
;	COMDAT ?CountDown@CGameCounter@@QAEXXZ
_TEXT	SEGMENT
_this$ = -4						; size = 4
?CountDown@CGameCounter@@QAEXXZ PROC			; CGameCounter::CountDown, COMDAT
; _this$ = ecx

; 649  : 	inline void CountDown( void ) { pev->frags--; }

	push	ebp
	mov	ebp, esp
	push	ecx
	mov	DWORD PTR _this$[ebp], ecx
	mov	eax, DWORD PTR _this$[ebp]
	mov	ecx, DWORD PTR [eax+4]
	movss	xmm0, DWORD PTR [ecx+356]
	subss	xmm0, DWORD PTR __real@3f800000
	mov	edx, DWORD PTR _this$[ebp]
	mov	eax, DWORD PTR [edx+4]
	movss	DWORD PTR [eax+356], xmm0
	mov	esp, ebp
	pop	ebp
	ret	0
?CountDown@CGameCounter@@QAEXXZ ENDP			; CGameCounter::CountDown
_TEXT	ENDS
; Function compile flags: /Odtp
; File c:\users\user\downloads\xashxt_v0.81_rev.1_with_sources\xashxt_v0.81_rev.1_src\server\maprules.cpp
;	COMDAT ?CountUp@CGameCounter@@QAEXXZ
_TEXT	SEGMENT
_this$ = -4						; size = 4
?CountUp@CGameCounter@@QAEXXZ PROC			; CGameCounter::CountUp, COMDAT
; _this$ = ecx

; 648  : 	inline void CountUp( void ) { pev->frags++; }

	push	ebp
	mov	ebp, esp
	push	ecx
	mov	DWORD PTR _this$[ebp], ecx
	mov	eax, DWORD PTR _this$[ebp]
	mov	ecx, DWORD PTR [eax+4]
	movss	xmm0, DWORD PTR [ecx+356]
	addss	xmm0, DWORD PTR __real@3f800000
	mov	edx, DWORD PTR _this$[ebp]
	mov	eax, DWORD PTR [edx+4]
	movss	DWORD PTR [eax+356], xmm0
	mov	esp, ebp
	pop	ebp
	ret	0
?CountUp@CGameCounter@@QAEXXZ ENDP			; CGameCounter::CountUp
_TEXT	ENDS
; Function compile flags: /Odtp
; File c:\users\user\downloads\xashxt_v0.81_rev.1_with_sources\xashxt_v0.81_rev.1_src\server\maprules.cpp
;	COMDAT ?ResetOnFire@CGameCounter@@QAEHXZ
_TEXT	SEGMENT
_this$ = -8						; size = 4
tv72 = -4						; size = 4
?ResetOnFire@CGameCounter@@QAEHXZ PROC			; CGameCounter::ResetOnFire, COMDAT
; _this$ = ecx

; 646  : 	inline BOOL ResetOnFire( void ) { return (pev->spawnflags & SF_GAMECOUNT_RESET) ? TRUE : FALSE; }

	push	ebp
	mov	ebp, esp
	sub	esp, 8
	mov	DWORD PTR _this$[ebp], ecx
	mov	eax, DWORD PTR _this$[ebp]
	mov	ecx, DWORD PTR [eax+4]
	mov	edx, DWORD PTR [ecx+416]
	and	edx, 2
	je	SHORT $LN3@ResetOnFir
	mov	DWORD PTR tv72[ebp], 1
	jmp	SHORT $LN4@ResetOnFir
$LN3@ResetOnFir:
	mov	DWORD PTR tv72[ebp], 0
$LN4@ResetOnFir:
	mov	eax, DWORD PTR tv72[ebp]
	mov	esp, ebp
	pop	ebp
	ret	0
?ResetOnFire@CGameCounter@@QAEHXZ ENDP			; CGameCounter::ResetOnFire
_TEXT	ENDS
; Function compile flags: /Odtp
; File c:\users\user\downloads\xashxt_v0.81_rev.1_with_sources\xashxt_v0.81_rev.1_src\server\maprules.cpp
;	COMDAT ?RemoveOnFire@CGameCounter@@QAEHXZ
_TEXT	SEGMENT
_this$ = -8						; size = 4
tv72 = -4						; size = 4
?RemoveOnFire@CGameCounter@@QAEHXZ PROC			; CGameCounter::RemoveOnFire, COMDAT
; _this$ = ecx

; 645  : 	inline BOOL RemoveOnFire( void ) { return (pev->spawnflags & SF_GAMECOUNT_FIREONCE) ? TRUE : FALSE; }

	push	ebp
	mov	ebp, esp
	sub	esp, 8
	mov	DWORD PTR _this$[ebp], ecx
	mov	eax, DWORD PTR _this$[ebp]
	mov	ecx, DWORD PTR [eax+4]
	mov	edx, DWORD PTR [ecx+416]
	and	edx, 1
	je	SHORT $LN3@RemoveOnFi
	mov	DWORD PTR tv72[ebp], 1
	jmp	SHORT $LN4@RemoveOnFi
$LN3@RemoveOnFi:
	mov	DWORD PTR tv72[ebp], 0
$LN4@RemoveOnFi:
	mov	eax, DWORD PTR tv72[ebp]
	mov	esp, ebp
	pop	ebp
	ret	0
?RemoveOnFire@CGameCounter@@QAEHXZ ENDP			; CGameCounter::RemoveOnFire
_TEXT	ENDS
; Function compile flags: /Odtp
; File c:\users\user\downloads\xashxt_v0.81_rev.1_with_sources\xashxt_v0.81_rev.1_src\server\maprules.cpp
_TEXT	SEGMENT
tv72 = -8						; size = 4
_this$ = -4						; size = 4
_pActivator$ = 8					; size = 4
_pCaller$ = 12						; size = 4
_useType$ = 16						; size = 4
_value$ = 20						; size = 4
?Use@CGameCounter@@UAEXPAVCBaseEntity@@0W4USE_TYPE@@M@Z PROC ; CGameCounter::Use
; _this$ = ecx

; 669  : {

	push	ebp
	mov	ebp, esp
	sub	esp, 8
	mov	DWORD PTR _this$[ebp], ecx

; 670  : 	if ( !CanFireForActivator( pActivator ) )

	mov	eax, DWORD PTR _pActivator$[ebp]
	push	eax
	mov	ecx, DWORD PTR _this$[ebp]
	call	?CanFireForActivator@CRuleEntity@@IAEHPAVCBaseEntity@@@Z ; CRuleEntity::CanFireForActivator
	test	eax, eax
	jne	SHORT $LN4@Use

; 671  : 		return;

	jmp	$LN1@Use
$LN4@Use:

; 672  : 
; 673  : 	switch( useType )

	mov	ecx, DWORD PTR _useType$[ebp]
	mov	DWORD PTR tv72[ebp], ecx
	cmp	DWORD PTR tv72[ebp], 3
	ja	SHORT $LN2@Use
	mov	edx, DWORD PTR tv72[ebp]
	jmp	DWORD PTR $LN12@Use[edx*4]
$LN5@Use:

; 674  : 	{
; 675  : 	case USE_ON:
; 676  : 	case USE_TOGGLE:
; 677  : 		CountUp();

	mov	ecx, DWORD PTR _this$[ebp]
	call	?CountUp@CGameCounter@@QAEXXZ		; CGameCounter::CountUp

; 678  : 		break;

	jmp	SHORT $LN2@Use
$LN6@Use:

; 679  : 	
; 680  : 	case USE_OFF:
; 681  : 		CountDown();

	mov	ecx, DWORD PTR _this$[ebp]
	call	?CountDown@CGameCounter@@QAEXXZ		; CGameCounter::CountDown

; 682  : 		break;

	jmp	SHORT $LN2@Use
$LN7@Use:

; 683  : 
; 684  : 	case USE_SET:
; 685  : 		SetCountValue( (int)value );

	cvttss2si eax, DWORD PTR _value$[ebp]
	push	eax
	mov	ecx, DWORD PTR _this$[ebp]
	call	?SetCountValue@CGameCounter@@AAEXH@Z	; CGameCounter::SetCountValue
$LN2@Use:

; 686  : 		break;
; 687  : 	}
; 688  : 	
; 689  : 	if ( HitLimit() )

	mov	ecx, DWORD PTR _this$[ebp]
	call	?HitLimit@CGameCounter@@QAEHXZ		; CGameCounter::HitLimit
	test	eax, eax
	je	SHORT $LN10@Use

; 690  : 	{
; 691  : 		SUB_UseTargets( pActivator, USE_TOGGLE, 0 );

	push	0
	push	ecx
	xorps	xmm0, xmm0
	movss	DWORD PTR [esp], xmm0
	push	3
	mov	ecx, DWORD PTR _pActivator$[ebp]
	push	ecx
	mov	ecx, DWORD PTR _this$[ebp]
	call	?SUB_UseTargets@CBaseEntity@@QAEXPAV1@W4USE_TYPE@@MH@Z ; CBaseEntity::SUB_UseTargets

; 692  : 		if ( RemoveOnFire() )

	mov	ecx, DWORD PTR _this$[ebp]
	call	?RemoveOnFire@CGameCounter@@QAEHXZ	; CGameCounter::RemoveOnFire
	test	eax, eax
	je	SHORT $LN9@Use

; 693  : 		{
; 694  : 			UTIL_Remove( this );

	mov	edx, DWORD PTR _this$[ebp]
	push	edx
	call	?UTIL_Remove@@YAXPAVCBaseEntity@@@Z	; UTIL_Remove
	add	esp, 4
$LN9@Use:

; 695  : 		}
; 696  : 		
; 697  : 		if ( ResetOnFire() )

	mov	ecx, DWORD PTR _this$[ebp]
	call	?ResetOnFire@CGameCounter@@QAEHXZ	; CGameCounter::ResetOnFire
	test	eax, eax
	je	SHORT $LN10@Use

; 698  : 		{
; 699  : 			ResetCount();

	mov	ecx, DWORD PTR _this$[ebp]
	call	?ResetCount@CGameCounter@@QAEXXZ	; CGameCounter::ResetCount
$LN10@Use:
$LN1@Use:

; 700  : 		}
; 701  : 	}
; 702  : }

	mov	esp, ebp
	pop	ebp
	ret	16					; 00000010H
	npad	3
$LN12@Use:
	DD	$LN6@Use
	DD	$LN5@Use
	DD	$LN7@Use
	DD	$LN5@Use
?Use@CGameCounter@@UAEXPAVCBaseEntity@@0W4USE_TYPE@@M@Z ENDP ; CGameCounter::Use
_TEXT	ENDS
; Function compile flags: /Odtp
; File c:\users\user\downloads\xashxt_v0.81_rev.1_with_sources\xashxt_v0.81_rev.1_src\server\maprules.cpp
_TEXT	SEGMENT
_this$ = -4						; size = 4
?Spawn@CGameCounter@@UAEXXZ PROC			; CGameCounter::Spawn
; _this$ = ecx

; 662  : {

	push	ebp
	mov	ebp, esp
	push	ecx
	mov	DWORD PTR _this$[ebp], ecx

; 663  : 	// Save off the initial count
; 664  : 	SetInitialValue( CountValue() );

	mov	ecx, DWORD PTR _this$[ebp]
	call	?CountValue@CGameCounter@@QAEHXZ	; CGameCounter::CountValue
	push	eax
	mov	ecx, DWORD PTR _this$[ebp]
	call	?SetInitialValue@CGameCounter@@AAEXH@Z	; CGameCounter::SetInitialValue

; 665  : 	CRulePointEntity::Spawn();

	mov	ecx, DWORD PTR _this$[ebp]
	call	?Spawn@CRulePointEntity@@UAEXXZ		; CRulePointEntity::Spawn

; 666  : }

	mov	esp, ebp
	pop	ebp
	ret	0
?Spawn@CGameCounter@@UAEXXZ ENDP			; CGameCounter::Spawn
_TEXT	ENDS
; Function compile flags: /Odtp
; File c:\users\user\downloads\xashxt_v0.81_rev.1_with_sources\xashxt_v0.81_rev.1_src\server\maprules.cpp
;	COMDAT ??__Egame_player_hurt@@YAXXZ
text$di	SEGMENT
??__Egame_player_hurt@@YAXXZ PROC			; `dynamic initializer for 'game_player_hurt'', COMDAT

; 605  : LINK_ENTITY_TO_CLASS( game_player_hurt, CGamePlayerHurt );

	push	ebp
	mov	ebp, esp
	push	OFFSET $SG76236
	mov	ecx, OFFSET ?game_player_hurt@@3V?$CEntityFactory@VCGamePlayerHurt@@@@A
	call	??0?$CEntityFactory@VCGamePlayerHurt@@@@QAE@PBD@Z ; CEntityFactory<CGamePlayerHurt>::CEntityFactory<CGamePlayerHurt>
	pop	ebp
	ret	0
??__Egame_player_hurt@@YAXXZ ENDP			; `dynamic initializer for 'game_player_hurt''
text$di	ENDS
; Function compile flags: /Odtp
; File c:\users\user\downloads\xashxt_v0.81_rev.1_with_sources\xashxt_v0.81_rev.1_src\server\util.h
;	COMDAT ?GetEntitySize@?$CEntityFactory@VCGamePlayerHurt@@@@UAEIXZ
_TEXT	SEGMENT
_this$ = -4						; size = 4
?GetEntitySize@?$CEntityFactory@VCGamePlayerHurt@@@@UAEIXZ PROC ; CEntityFactory<CGamePlayerHurt>::GetEntitySize, COMDAT
; _this$ = ecx

; 103  : 	{

	push	ebp
	mov	ebp, esp
	push	ecx
	mov	DWORD PTR _this$[ebp], ecx

; 104  : 		return sizeof(T);

	mov	eax, 1656				; 00000678H

; 105  : 	}

	mov	esp, ebp
	pop	ebp
	ret	0
?GetEntitySize@?$CEntityFactory@VCGamePlayerHurt@@@@UAEIXZ ENDP ; CEntityFactory<CGamePlayerHurt>::GetEntitySize
_TEXT	ENDS
; Function compile flags: /Odtp
; File c:\users\user\downloads\xashxt_v0.81_rev.1_with_sources\xashxt_v0.81_rev.1_src\server\util.h
;	COMDAT ?Destroy@?$CEntityFactory@VCGamePlayerHurt@@@@UAEXPAVCBaseEntity@@@Z
_TEXT	SEGMENT
_this$ = -4						; size = 4
_pEntity$ = 8						; size = 4
?Destroy@?$CEntityFactory@VCGamePlayerHurt@@@@UAEXPAVCBaseEntity@@@Z PROC ; CEntityFactory<CGamePlayerHurt>::Destroy, COMDAT
; _this$ = ecx

; 98   : 	{

	push	ebp
	mov	ebp, esp
	push	ecx
	mov	DWORD PTR _this$[ebp], ecx

; 99   : 		UTIL_Remove( pEntity );

	mov	eax, DWORD PTR _pEntity$[ebp]
	push	eax
	call	?UTIL_Remove@@YAXPAVCBaseEntity@@@Z	; UTIL_Remove
	add	esp, 4

; 100  : 	}

	mov	esp, ebp
	pop	ebp
	ret	4
?Destroy@?$CEntityFactory@VCGamePlayerHurt@@@@UAEXPAVCBaseEntity@@@Z ENDP ; CEntityFactory<CGamePlayerHurt>::Destroy
_TEXT	ENDS
; Function compile flags: /Odtp
; File c:\users\user\downloads\xashxt_v0.81_rev.1_with_sources\xashxt_v0.81_rev.1_src\server\util.h
;	COMDAT ?Create@?$CEntityFactory@VCGamePlayerHurt@@@@UAEPAVCBaseEntity@@PBDPAUentvars_s@@@Z
_TEXT	SEGMENT
_this$ = -8						; size = 4
_pEnt$ = -4						; size = 4
_pClassName$ = 8					; size = 4
_pev$ = 12						; size = 4
?Create@?$CEntityFactory@VCGamePlayerHurt@@@@UAEPAVCBaseEntity@@PBDPAUentvars_s@@@Z PROC ; CEntityFactory<CGamePlayerHurt>::Create, COMDAT
; _this$ = ecx

; 92   : 	{

	push	ebp
	mov	ebp, esp
	sub	esp, 8
	mov	DWORD PTR _this$[ebp], ecx

; 93   : 		T* pEnt = GetClassPtr((T*)pev, pClassName);

	mov	eax, DWORD PTR _pClassName$[ebp]
	push	eax
	mov	ecx, DWORD PTR _pev$[ebp]
	push	ecx
	call	??$GetClassPtr@VCGamePlayerHurt@@@@YAPAVCGamePlayerHurt@@PAV0@PBD@Z ; GetClassPtr<CGamePlayerHurt>
	add	esp, 8
	mov	DWORD PTR _pEnt$[ebp], eax

; 94   : 		return pEnt;

	mov	eax, DWORD PTR _pEnt$[ebp]

; 95   : 	}

	mov	esp, ebp
	pop	ebp
	ret	8
?Create@?$CEntityFactory@VCGamePlayerHurt@@@@UAEPAVCBaseEntity@@PBDPAUentvars_s@@@Z ENDP ; CEntityFactory<CGamePlayerHurt>::Create
_TEXT	ENDS
; Function compile flags: /Odtp
; File c:\users\user\downloads\xashxt_v0.81_rev.1_with_sources\xashxt_v0.81_rev.1_src\server\util.h
;	COMDAT ??0?$CEntityFactory@VCGamePlayerHurt@@@@QAE@PBD@Z
_TEXT	SEGMENT
tv76 = -8						; size = 4
_this$ = -4						; size = 4
_pClassName$ = 8					; size = 4
??0?$CEntityFactory@VCGamePlayerHurt@@@@QAE@PBD@Z PROC	; CEntityFactory<CGamePlayerHurt>::CEntityFactory<CGamePlayerHurt>, COMDAT
; _this$ = ecx

; 86   : 	CEntityFactory( const char *pClassName )

	push	ebp
	mov	ebp, esp
	sub	esp, 8
	mov	DWORD PTR _this$[ebp], ecx

; 87   : 	{

	mov	ecx, DWORD PTR _this$[ebp]
	call	??0IEntityFactory@@QAE@XZ
	mov	eax, DWORD PTR _this$[ebp]
	mov	DWORD PTR [eax], OFFSET ??_7?$CEntityFactory@VCGamePlayerHurt@@@@6B@

; 88   : 		EntityFactoryDictionary()->InstallFactory( this, pClassName );

	call	?EntityFactoryDictionary@@YAPAVIEntityFactoryDictionary@@XZ ; EntityFactoryDictionary
	mov	DWORD PTR tv76[ebp], eax
	mov	ecx, DWORD PTR _pClassName$[ebp]
	push	ecx
	mov	edx, DWORD PTR _this$[ebp]
	push	edx
	mov	eax, DWORD PTR tv76[ebp]
	mov	edx, DWORD PTR [eax]
	mov	ecx, DWORD PTR tv76[ebp]
	mov	eax, DWORD PTR [edx]
	call	eax

; 89   : 	}

	mov	eax, DWORD PTR _this$[ebp]
	mov	esp, ebp
	pop	ebp
	ret	4
??0?$CEntityFactory@VCGamePlayerHurt@@@@QAE@PBD@Z ENDP	; CEntityFactory<CGamePlayerHurt>::CEntityFactory<CGamePlayerHurt>
_TEXT	ENDS
; Function compile flags: /Odtp
;	COMDAT ??0CGamePlayerHurt@@QAE@XZ
_TEXT	SEGMENT
_this$ = -4						; size = 4
??0CGamePlayerHurt@@QAE@XZ PROC				; CGamePlayerHurt::CGamePlayerHurt, COMDAT
; _this$ = ecx
	push	ebp
	mov	ebp, esp
	push	ecx
	mov	DWORD PTR _this$[ebp], ecx
	mov	ecx, DWORD PTR _this$[ebp]
	call	??0CRulePointEntity@@QAE@XZ
	mov	eax, DWORD PTR _this$[ebp]
	mov	DWORD PTR [eax], OFFSET ??_7CGamePlayerHurt@@6B@
	mov	eax, DWORD PTR _this$[ebp]
	mov	esp, ebp
	pop	ebp
	ret	0
??0CGamePlayerHurt@@QAE@XZ ENDP				; CGamePlayerHurt::CGamePlayerHurt
_TEXT	ENDS
; Function compile flags: /Odtp
; File c:\users\user\downloads\xashxt_v0.81_rev.1_with_sources\xashxt_v0.81_rev.1_src\server\maprules.cpp
;	COMDAT ?RemoveOnFire@CGamePlayerHurt@@QAEHXZ
_TEXT	SEGMENT
_this$ = -8						; size = 4
tv72 = -4						; size = 4
?RemoveOnFire@CGamePlayerHurt@@QAEHXZ PROC		; CGamePlayerHurt::RemoveOnFire, COMDAT
; _this$ = ecx

; 602  : 	inline BOOL RemoveOnFire( void ) { return (pev->spawnflags & SF_PKILL_FIREONCE) ? TRUE : FALSE; }

	push	ebp
	mov	ebp, esp
	sub	esp, 8
	mov	DWORD PTR _this$[ebp], ecx
	mov	eax, DWORD PTR _this$[ebp]
	mov	ecx, DWORD PTR [eax+4]
	mov	edx, DWORD PTR [ecx+416]
	and	edx, 1
	je	SHORT $LN3@RemoveOnFi
	mov	DWORD PTR tv72[ebp], 1
	jmp	SHORT $LN4@RemoveOnFi
$LN3@RemoveOnFi:
	mov	DWORD PTR tv72[ebp], 0
$LN4@RemoveOnFi:
	mov	eax, DWORD PTR tv72[ebp]
	mov	esp, ebp
	pop	ebp
	ret	0
?RemoveOnFire@CGamePlayerHurt@@QAEHXZ ENDP		; CGamePlayerHurt::RemoveOnFire
_TEXT	ENDS
; Function compile flags: /Odtp
; File c:\users\user\downloads\xashxt_v0.81_rev.1_with_sources\xashxt_v0.81_rev.1_src\server\maprules.cpp
_TEXT	SEGMENT
_this$ = -4						; size = 4
_pActivator$ = 8					; size = 4
_pCaller$ = 12						; size = 4
_useType$ = 16						; size = 4
_value$ = 20						; size = 4
?Use@CGamePlayerHurt@@UAEXPAVCBaseEntity@@0W4USE_TYPE@@M@Z PROC ; CGamePlayerHurt::Use
; _this$ = ecx

; 609  : {

	push	ebp
	mov	ebp, esp
	push	ecx
	mov	DWORD PTR _this$[ebp], ecx

; 610  : 	if ( !CanFireForActivator( pActivator ) )

	mov	eax, DWORD PTR _pActivator$[ebp]
	push	eax
	mov	ecx, DWORD PTR _this$[ebp]
	call	?CanFireForActivator@CRuleEntity@@IAEHPAVCBaseEntity@@@Z ; CRuleEntity::CanFireForActivator
	test	eax, eax
	jne	SHORT $LN2@Use

; 611  : 		return;

	jmp	$LN1@Use
$LN2@Use:

; 612  : 
; 613  : 	if ( pActivator->IsPlayer() )

	mov	ecx, DWORD PTR _pActivator$[ebp]
	mov	edx, DWORD PTR [ecx]
	mov	ecx, DWORD PTR _pActivator$[ebp]
	mov	eax, DWORD PTR [edx+220]
	call	eax
	test	eax, eax
	je	SHORT $LN5@Use

; 614  : 	{
; 615  : 		if ( pev->dmg < 0 )

	mov	ecx, DWORD PTR _this$[ebp]
	mov	edx, DWORD PTR [ecx+4]
	xorps	xmm0, xmm0
	comiss	xmm0, DWORD PTR [edx+480]
	jbe	SHORT $LN4@Use

; 616  : 			pActivator->TakeHealth( -pev->dmg, DMG_GENERIC );

	push	0
	mov	eax, DWORD PTR _this$[ebp]
	mov	ecx, DWORD PTR [eax+4]
	movss	xmm0, DWORD PTR [ecx+480]
	xorps	xmm0, DWORD PTR __xmm@80000000800000008000000080000000
	push	ecx
	movss	DWORD PTR [esp], xmm0
	mov	edx, DWORD PTR _pActivator$[ebp]
	mov	eax, DWORD PTR [edx]
	mov	ecx, DWORD PTR _pActivator$[ebp]
	mov	edx, DWORD PTR [eax+100]
	call	edx

; 617  : 		else

	jmp	SHORT $LN5@Use
$LN4@Use:

; 618  : 			pActivator->TakeDamage( pev, pev, pev->dmg, DMG_GENERIC );

	push	0
	mov	eax, DWORD PTR _this$[ebp]
	mov	ecx, DWORD PTR [eax+4]
	push	ecx
	movss	xmm0, DWORD PTR [ecx+480]
	movss	DWORD PTR [esp], xmm0
	mov	edx, DWORD PTR _this$[ebp]
	mov	eax, DWORD PTR [edx+4]
	push	eax
	mov	ecx, DWORD PTR _this$[ebp]
	mov	edx, DWORD PTR [ecx+4]
	push	edx
	mov	eax, DWORD PTR _pActivator$[ebp]
	mov	edx, DWORD PTR [eax]
	mov	ecx, DWORD PTR _pActivator$[ebp]
	mov	eax, DWORD PTR [edx+96]
	call	eax
$LN5@Use:

; 619  : 	}
; 620  : 	
; 621  : 	SUB_UseTargets( pActivator, useType, value );

	push	0
	push	ecx
	movss	xmm0, DWORD PTR _value$[ebp]
	movss	DWORD PTR [esp], xmm0
	mov	ecx, DWORD PTR _useType$[ebp]
	push	ecx
	mov	edx, DWORD PTR _pActivator$[ebp]
	push	edx
	mov	ecx, DWORD PTR _this$[ebp]
	call	?SUB_UseTargets@CBaseEntity@@QAEXPAV1@W4USE_TYPE@@MH@Z ; CBaseEntity::SUB_UseTargets

; 622  : 
; 623  : 	if ( RemoveOnFire() )

	mov	ecx, DWORD PTR _this$[ebp]
	call	?RemoveOnFire@CGamePlayerHurt@@QAEHXZ	; CGamePlayerHurt::RemoveOnFire
	test	eax, eax
	je	SHORT $LN6@Use

; 624  : 	{
; 625  : 		UTIL_Remove( this );

	mov	eax, DWORD PTR _this$[ebp]
	push	eax
	call	?UTIL_Remove@@YAXPAVCBaseEntity@@@Z	; UTIL_Remove
	add	esp, 4
$LN6@Use:
$LN1@Use:

; 626  : 	}
; 627  : }

	mov	esp, ebp
	pop	ebp
	ret	16					; 00000010H
?Use@CGamePlayerHurt@@UAEXPAVCBaseEntity@@0W4USE_TYPE@@M@Z ENDP ; CGamePlayerHurt::Use
_TEXT	ENDS
; Function compile flags: /Odtp
;	COMDAT ??__FnameHolder@?1???$DataMapInit@VCGamePlayerZone@@@@YAPAUdatamap_s@@PAVCGamePlayerZone@@@Z@YAXXZ
text$yd	SEGMENT
??__FnameHolder@?1???$DataMapInit@VCGamePlayerZone@@@@YAPAUdatamap_s@@PAVCGamePlayerZone@@@Z@YAXXZ PROC ; `DataMapInit<CGamePlayerZone>'::`2'::`dynamic atexit destructor for 'nameHolder'', COMDAT
	push	ebp
	mov	ebp, esp
	mov	ecx, OFFSET ?nameHolder@?1???$DataMapInit@VCGamePlayerZone@@@@YAPAUdatamap_s@@PAVCGamePlayerZone@@@Z@4VCDatadescGeneratedNameHolder@@A
	call	??1CDatadescGeneratedNameHolder@@QAE@XZ	; CDatadescGeneratedNameHolder::~CDatadescGeneratedNameHolder
	pop	ebp
	ret	0
??__FnameHolder@?1???$DataMapInit@VCGamePlayerZone@@@@YAPAUdatamap_s@@PAVCGamePlayerZone@@@Z@YAXXZ ENDP ; `DataMapInit<CGamePlayerZone>'::`2'::`dynamic atexit destructor for 'nameHolder''
text$yd	ENDS
; Function compile flags: /Odtp
; File c:\users\user\downloads\xashxt_v0.81_rev.1_with_sources\xashxt_v0.81_rev.1_src\server\maprules.cpp
;	COMDAT ??__Eg_DataMapHolder@CGamePlayerZone_DataDescInit@@YAXXZ
text$di	SEGMENT
??__Eg_DataMapHolder@CGamePlayerZone_DataDescInit@@YAXXZ PROC ; CGamePlayerZone_DataDescInit::`dynamic initializer for 'g_DataMapHolder'', COMDAT

; 501  : BEGIN_DATADESC( CGamePlayerZone )

	push	ebp
	mov	ebp, esp
	push	0
	call	??$DataMapInit@VCGamePlayerZone@@@@YAPAUdatamap_s@@PAVCGamePlayerZone@@@Z ; DataMapInit<CGamePlayerZone>
	add	esp, 4
	mov	DWORD PTR ?g_DataMapHolder@CGamePlayerZone_DataDescInit@@3PAUdatamap_s@@A, eax ; CGamePlayerZone_DataDescInit::g_DataMapHolder
	pop	ebp
	ret	0
??__Eg_DataMapHolder@CGamePlayerZone_DataDescInit@@YAXXZ ENDP ; CGamePlayerZone_DataDescInit::`dynamic initializer for 'g_DataMapHolder''
text$di	ENDS
; Function compile flags: /Odtp
; File c:\users\user\downloads\xashxt_v0.81_rev.1_with_sources\xashxt_v0.81_rev.1_src\server\maprules.cpp
_TEXT	SEGMENT
__$EHRec$ = -12						; size = 12
___formal$ = 8						; size = 4
??$DataMapInit@VCGamePlayerZone@@@@YAPAUdatamap_s@@PAVCGamePlayerZone@@@Z PROC ; DataMapInit<CGamePlayerZone>

; 501  : BEGIN_DATADESC( CGamePlayerZone )

	push	ebp
	mov	ebp, esp
	push	-1
	push	__ehhandler$??$DataMapInit@VCGamePlayerZone@@@@YAPAUdatamap_s@@PAVCGamePlayerZone@@@Z
	mov	eax, DWORD PTR fs:0
	push	eax
	mov	eax, DWORD PTR ___security_cookie
	xor	eax, ebp
	push	eax
	lea	eax, DWORD PTR __$EHRec$[ebp]
	mov	DWORD PTR fs:0, eax
	mov	eax, DWORD PTR __tls_index
	mov	ecx, DWORD PTR fs:__tls_array
	mov	edx, DWORD PTR [ecx+eax*4]
	mov	eax, DWORD PTR ?$TSS0@?1???$DataMapInit@VCGamePlayerZone@@@@YAPAUdatamap_s@@PAVCGamePlayerZone@@@Z@4HA
	cmp	eax, DWORD PTR __Init_thread_epoch[edx]
	jle	SHORT $LN2@DataMapIni
	push	OFFSET ?$TSS0@?1???$DataMapInit@VCGamePlayerZone@@@@YAPAUdatamap_s@@PAVCGamePlayerZone@@@Z@4HA
	call	__Init_thread_header
	add	esp, 4
	cmp	DWORD PTR ?$TSS0@?1???$DataMapInit@VCGamePlayerZone@@@@YAPAUdatamap_s@@PAVCGamePlayerZone@@@Z@4HA, -1
	jne	SHORT $LN2@DataMapIni
	mov	DWORD PTR __$EHRec$[ebp+8], 0
	push	OFFSET $SG76135
	mov	ecx, OFFSET ?nameHolder@?1???$DataMapInit@VCGamePlayerZone@@@@YAPAUdatamap_s@@PAVCGamePlayerZone@@@Z@4VCDatadescGeneratedNameHolder@@A
	call	??0CDatadescGeneratedNameHolder@@QAE@PBD@Z ; CDatadescGeneratedNameHolder::CDatadescGeneratedNameHolder
	push	OFFSET ??__FnameHolder@?1???$DataMapInit@VCGamePlayerZone@@@@YAPAUdatamap_s@@PAVCGamePlayerZone@@@Z@YAXXZ ; `DataMapInit<CGamePlayerZone>'::`2'::`dynamic atexit destructor for 'nameHolder''
	call	_atexit
	add	esp, 4
	mov	DWORD PTR __$EHRec$[ebp+8], -1
	push	OFFSET ?$TSS0@?1???$DataMapInit@VCGamePlayerZone@@@@YAPAUdatamap_s@@PAVCGamePlayerZone@@@Z@4HA
	call	__Init_thread_footer
	add	esp, 4
$LN2@DataMapIni:
	call	?GetBaseMap@CGamePlayerZone@@SAPAUdatamap_s@@XZ ; CGamePlayerZone::GetBaseMap
	mov	DWORD PTR ?m_DataMap@CGamePlayerZone@@2Udatamap_s@@A+12, eax

; 502  : 	DEFINE_KEYFIELD( m_iszInTarget, FIELD_STRING, "intarget" ),
; 503  : 	DEFINE_KEYFIELD( m_iszOutTarget, FIELD_STRING, "outtarget" ),
; 504  : 	DEFINE_KEYFIELD( m_iszInCount, FIELD_STRING, "incount" ),
; 505  : 	DEFINE_KEYFIELD( m_iszOutCount, FIELD_STRING, "outcount" ),
; 506  : END_DATADESC()

	mov	ecx, 1
	test	ecx, ecx
	je	SHORT $LN3@DataMapIni
	mov	DWORD PTR ?m_DataMap@CGamePlayerZone@@2Udatamap_s@@A+4, 4
	mov	edx, 24					; 00000018H
	shl	edx, 0
	add	edx, OFFSET ?dataDesc@?1???$DataMapInit@VCGamePlayerZone@@@@YAPAUdatamap_s@@PAVCGamePlayerZone@@@Z@4PAUtypedescription_s@@A
	mov	DWORD PTR ?m_DataMap@CGamePlayerZone@@2Udatamap_s@@A, edx
	jmp	SHORT $LN4@DataMapIni
$LN3@DataMapIni:
	mov	DWORD PTR ?m_DataMap@CGamePlayerZone@@2Udatamap_s@@A+4, 1
	mov	DWORD PTR ?m_DataMap@CGamePlayerZone@@2Udatamap_s@@A, OFFSET ?dataDesc@?1???$DataMapInit@VCGamePlayerZone@@@@YAPAUdatamap_s@@PAVCGamePlayerZone@@@Z@4PAUtypedescription_s@@A
$LN4@DataMapIni:
	mov	eax, OFFSET ?m_DataMap@CGamePlayerZone@@2Udatamap_s@@A ; CGamePlayerZone::m_DataMap
	mov	ecx, DWORD PTR __$EHRec$[ebp]
	mov	DWORD PTR fs:0, ecx
	pop	ecx
	mov	esp, ebp
	pop	ebp
	ret	0
_TEXT	ENDS
text$x	SEGMENT
__unwindfunclet$??$DataMapInit@VCGamePlayerZone@@@@YAPAUdatamap_s@@PAVCGamePlayerZone@@@Z$0:
	push	OFFSET ?$TSS0@?1???$DataMapInit@VCGamePlayerZone@@@@YAPAUdatamap_s@@PAVCGamePlayerZone@@@Z@4HA
	call	__Init_thread_abort
	pop	ecx
	ret	0
__ehhandler$??$DataMapInit@VCGamePlayerZone@@@@YAPAUdatamap_s@@PAVCGamePlayerZone@@@Z:
	mov	edx, DWORD PTR [esp+8]
	lea	eax, DWORD PTR [edx+12]
	mov	ecx, DWORD PTR [edx-4]
	xor	ecx, eax
	call	@__security_check_cookie@4
	mov	eax, OFFSET __ehfuncinfo$??$DataMapInit@VCGamePlayerZone@@@@YAPAUdatamap_s@@PAVCGamePlayerZone@@@Z
	jmp	___CxxFrameHandler3
text$x	ENDS
??$DataMapInit@VCGamePlayerZone@@@@YAPAUdatamap_s@@PAVCGamePlayerZone@@@Z ENDP ; DataMapInit<CGamePlayerZone>
; Function compile flags: /Odtp
; File c:\users\user\downloads\xashxt_v0.81_rev.1_with_sources\xashxt_v0.81_rev.1_src\common\datamap.h
;	COMDAT ??$DataMapAccess@VCRuleBrushEntity@@@@YAXPAVCRuleBrushEntity@@PAPAUdatamap_s@@@Z
_TEXT	SEGMENT
_ignored$ = 8						; size = 4
_p$ = 12						; size = 4
??$DataMapAccess@VCRuleBrushEntity@@@@YAXPAVCRuleBrushEntity@@PAPAUdatamap_s@@@Z PROC ; DataMapAccess<CRuleBrushEntity>, COMDAT

; 182  : {

	push	ebp
	mov	ebp, esp

; 183  : 	*p = &T::m_DataMap;

	mov	eax, DWORD PTR _p$[ebp]
	mov	DWORD PTR [eax], OFFSET ?m_DataMap@CRuleEntity@@2Udatamap_s@@A ; CRuleEntity::m_DataMap

; 184  : }

	pop	ebp
	ret	0
??$DataMapAccess@VCRuleBrushEntity@@@@YAXPAVCRuleBrushEntity@@PAPAUdatamap_s@@@Z ENDP ; DataMapAccess<CRuleBrushEntity>
_TEXT	ENDS
; Function compile flags: /Odtp
; File c:\users\user\downloads\xashxt_v0.81_rev.1_with_sources\xashxt_v0.81_rev.1_src\server\maprules.cpp
;	COMDAT ??__Egame_zone_player@@YAXXZ
text$di	SEGMENT
??__Egame_zone_player@@YAXXZ PROC			; `dynamic initializer for 'game_zone_player'', COMDAT

; 499  : LINK_ENTITY_TO_CLASS( game_zone_player, CGamePlayerZone );

	push	ebp
	mov	ebp, esp
	push	OFFSET $SG76082
	mov	ecx, OFFSET ?game_zone_player@@3V?$CEntityFactory@VCGamePlayerZone@@@@A
	call	??0?$CEntityFactory@VCGamePlayerZone@@@@QAE@PBD@Z ; CEntityFactory<CGamePlayerZone>::CEntityFactory<CGamePlayerZone>
	pop	ebp
	ret	0
??__Egame_zone_player@@YAXXZ ENDP			; `dynamic initializer for 'game_zone_player''
text$di	ENDS
; Function compile flags: /Odtp
; File c:\users\user\downloads\xashxt_v0.81_rev.1_with_sources\xashxt_v0.81_rev.1_src\server\util.h
;	COMDAT ?GetEntitySize@?$CEntityFactory@VCGamePlayerZone@@@@UAEIXZ
_TEXT	SEGMENT
_this$ = -4						; size = 4
?GetEntitySize@?$CEntityFactory@VCGamePlayerZone@@@@UAEIXZ PROC ; CEntityFactory<CGamePlayerZone>::GetEntitySize, COMDAT
; _this$ = ecx

; 103  : 	{

	push	ebp
	mov	ebp, esp
	push	ecx
	mov	DWORD PTR _this$[ebp], ecx

; 104  : 		return sizeof(T);

	mov	eax, 1672				; 00000688H

; 105  : 	}

	mov	esp, ebp
	pop	ebp
	ret	0
?GetEntitySize@?$CEntityFactory@VCGamePlayerZone@@@@UAEIXZ ENDP ; CEntityFactory<CGamePlayerZone>::GetEntitySize
_TEXT	ENDS
; Function compile flags: /Odtp
; File c:\users\user\downloads\xashxt_v0.81_rev.1_with_sources\xashxt_v0.81_rev.1_src\server\util.h
;	COMDAT ?Destroy@?$CEntityFactory@VCGamePlayerZone@@@@UAEXPAVCBaseEntity@@@Z
_TEXT	SEGMENT
_this$ = -4						; size = 4
_pEntity$ = 8						; size = 4
?Destroy@?$CEntityFactory@VCGamePlayerZone@@@@UAEXPAVCBaseEntity@@@Z PROC ; CEntityFactory<CGamePlayerZone>::Destroy, COMDAT
; _this$ = ecx

; 98   : 	{

	push	ebp
	mov	ebp, esp
	push	ecx
	mov	DWORD PTR _this$[ebp], ecx

; 99   : 		UTIL_Remove( pEntity );

	mov	eax, DWORD PTR _pEntity$[ebp]
	push	eax
	call	?UTIL_Remove@@YAXPAVCBaseEntity@@@Z	; UTIL_Remove
	add	esp, 4

; 100  : 	}

	mov	esp, ebp
	pop	ebp
	ret	4
?Destroy@?$CEntityFactory@VCGamePlayerZone@@@@UAEXPAVCBaseEntity@@@Z ENDP ; CEntityFactory<CGamePlayerZone>::Destroy
_TEXT	ENDS
; Function compile flags: /Odtp
; File c:\users\user\downloads\xashxt_v0.81_rev.1_with_sources\xashxt_v0.81_rev.1_src\server\util.h
;	COMDAT ?Create@?$CEntityFactory@VCGamePlayerZone@@@@UAEPAVCBaseEntity@@PBDPAUentvars_s@@@Z
_TEXT	SEGMENT
_this$ = -8						; size = 4
_pEnt$ = -4						; size = 4
_pClassName$ = 8					; size = 4
_pev$ = 12						; size = 4
?Create@?$CEntityFactory@VCGamePlayerZone@@@@UAEPAVCBaseEntity@@PBDPAUentvars_s@@@Z PROC ; CEntityFactory<CGamePlayerZone>::Create, COMDAT
; _this$ = ecx

; 92   : 	{

	push	ebp
	mov	ebp, esp
	sub	esp, 8
	mov	DWORD PTR _this$[ebp], ecx

; 93   : 		T* pEnt = GetClassPtr((T*)pev, pClassName);

	mov	eax, DWORD PTR _pClassName$[ebp]
	push	eax
	mov	ecx, DWORD PTR _pev$[ebp]
	push	ecx
	call	??$GetClassPtr@VCGamePlayerZone@@@@YAPAVCGamePlayerZone@@PAV0@PBD@Z ; GetClassPtr<CGamePlayerZone>
	add	esp, 8
	mov	DWORD PTR _pEnt$[ebp], eax

; 94   : 		return pEnt;

	mov	eax, DWORD PTR _pEnt$[ebp]

; 95   : 	}

	mov	esp, ebp
	pop	ebp
	ret	8
?Create@?$CEntityFactory@VCGamePlayerZone@@@@UAEPAVCBaseEntity@@PBDPAUentvars_s@@@Z ENDP ; CEntityFactory<CGamePlayerZone>::Create
_TEXT	ENDS
; Function compile flags: /Odtp
; File c:\users\user\downloads\xashxt_v0.81_rev.1_with_sources\xashxt_v0.81_rev.1_src\server\util.h
;	COMDAT ??0?$CEntityFactory@VCGamePlayerZone@@@@QAE@PBD@Z
_TEXT	SEGMENT
tv76 = -8						; size = 4
_this$ = -4						; size = 4
_pClassName$ = 8					; size = 4
??0?$CEntityFactory@VCGamePlayerZone@@@@QAE@PBD@Z PROC	; CEntityFactory<CGamePlayerZone>::CEntityFactory<CGamePlayerZone>, COMDAT
; _this$ = ecx

; 86   : 	CEntityFactory( const char *pClassName )

	push	ebp
	mov	ebp, esp
	sub	esp, 8
	mov	DWORD PTR _this$[ebp], ecx

; 87   : 	{

	mov	ecx, DWORD PTR _this$[ebp]
	call	??0IEntityFactory@@QAE@XZ
	mov	eax, DWORD PTR _this$[ebp]
	mov	DWORD PTR [eax], OFFSET ??_7?$CEntityFactory@VCGamePlayerZone@@@@6B@

; 88   : 		EntityFactoryDictionary()->InstallFactory( this, pClassName );

	call	?EntityFactoryDictionary@@YAPAVIEntityFactoryDictionary@@XZ ; EntityFactoryDictionary
	mov	DWORD PTR tv76[ebp], eax
	mov	ecx, DWORD PTR _pClassName$[ebp]
	push	ecx
	mov	edx, DWORD PTR _this$[ebp]
	push	edx
	mov	eax, DWORD PTR tv76[ebp]
	mov	edx, DWORD PTR [eax]
	mov	ecx, DWORD PTR tv76[ebp]
	mov	eax, DWORD PTR [edx]
	call	eax

; 89   : 	}

	mov	eax, DWORD PTR _this$[ebp]
	mov	esp, ebp
	pop	ebp
	ret	4
??0?$CEntityFactory@VCGamePlayerZone@@@@QAE@PBD@Z ENDP	; CEntityFactory<CGamePlayerZone>::CEntityFactory<CGamePlayerZone>
_TEXT	ENDS
; Function compile flags: /Odtp
;	COMDAT ??0CGamePlayerZone@@QAE@XZ
_TEXT	SEGMENT
_this$ = -4						; size = 4
??0CGamePlayerZone@@QAE@XZ PROC				; CGamePlayerZone::CGamePlayerZone, COMDAT
; _this$ = ecx
	push	ebp
	mov	ebp, esp
	push	ecx
	mov	DWORD PTR _this$[ebp], ecx
	mov	ecx, DWORD PTR _this$[ebp]
	call	??0CRuleBrushEntity@@QAE@XZ
	mov	eax, DWORD PTR _this$[ebp]
	mov	DWORD PTR [eax], OFFSET ??_7CGamePlayerZone@@6B@
	mov	eax, DWORD PTR _this$[ebp]
	mov	esp, ebp
	pop	ebp
	ret	0
??0CGamePlayerZone@@QAE@XZ ENDP				; CGamePlayerZone::CGamePlayerZone
_TEXT	ENDS
; Function compile flags: /Odtp
; File c:\users\user\downloads\xashxt_v0.81_rev.1_with_sources\xashxt_v0.81_rev.1_src\server\maprules.cpp
_TEXT	SEGMENT
_this$ = -4						; size = 4
?GetDataDescMap@CGamePlayerZone@@UAEPAUdatamap_s@@XZ PROC ; CGamePlayerZone::GetDataDescMap
; _this$ = ecx

; 501  : BEGIN_DATADESC( CGamePlayerZone )

	push	ebp
	mov	ebp, esp
	push	ecx
	mov	DWORD PTR _this$[ebp], ecx
	mov	eax, OFFSET ?m_DataMap@CGamePlayerZone@@2Udatamap_s@@A ; CGamePlayerZone::m_DataMap
	mov	esp, ebp
	pop	ebp
	ret	0
?GetDataDescMap@CGamePlayerZone@@UAEPAUdatamap_s@@XZ ENDP ; CGamePlayerZone::GetDataDescMap
_TEXT	ENDS
; Function compile flags: /Odtp
; File c:\users\user\downloads\xashxt_v0.81_rev.1_with_sources\xashxt_v0.81_rev.1_src\server\maprules.cpp
_TEXT	SEGMENT
_pResult$ = -4						; size = 4
?GetBaseMap@CGamePlayerZone@@SAPAUdatamap_s@@XZ PROC	; CGamePlayerZone::GetBaseMap

; 501  : BEGIN_DATADESC( CGamePlayerZone )

	push	ebp
	mov	ebp, esp
	push	ecx
	lea	eax, DWORD PTR _pResult$[ebp]
	push	eax
	push	0
	call	??$DataMapAccess@VCRuleBrushEntity@@@@YAXPAVCRuleBrushEntity@@PAPAUdatamap_s@@@Z ; DataMapAccess<CRuleBrushEntity>
	add	esp, 8
	mov	eax, DWORD PTR _pResult$[ebp]
	mov	esp, ebp
	pop	ebp
	ret	0
?GetBaseMap@CGamePlayerZone@@SAPAUdatamap_s@@XZ ENDP	; CGamePlayerZone::GetBaseMap
_TEXT	ENDS
; Function compile flags: /Odtp
; File c:\users\user\downloads\xashxt_v0.81_rev.1_with_sources\xashxt_v0.81_rev.1_src\server\maprules.cpp
_TEXT	SEGMENT
_trace$1 = -80						; size = 56
_hullNumber$2 = -24					; size = 4
_playersOutCount$ = -20					; size = 4
_playersInCount$ = -16					; size = 4
_i$3 = -12						; size = 4
_pPlayer$ = -8						; size = 4
_this$ = -4						; size = 4
_pActivator$ = 8					; size = 4
_pCaller$ = 12						; size = 4
_useType$ = 16						; size = 4
_value$ = 20						; size = 4
?Use@CGamePlayerZone@@UAEXPAVCBaseEntity@@0W4USE_TYPE@@M@Z PROC ; CGamePlayerZone::Use
; _this$ = ecx

; 535  : {

	push	ebp
	mov	ebp, esp
	sub	esp, 80					; 00000050H
	mov	DWORD PTR _this$[ebp], ecx

; 536  : 	int playersInCount = 0;

	mov	DWORD PTR _playersInCount$[ebp], 0

; 537  : 	int playersOutCount = 0;

	mov	DWORD PTR _playersOutCount$[ebp], 0

; 538  : 
; 539  : 	if ( !CanFireForActivator( pActivator ) )

	mov	eax, DWORD PTR _pActivator$[ebp]
	push	eax
	mov	ecx, DWORD PTR _this$[ebp]
	call	?CanFireForActivator@CRuleEntity@@IAEHPAVCBaseEntity@@@Z ; CRuleEntity::CanFireForActivator
	test	eax, eax
	jne	SHORT $LN5@Use

; 540  : 		return;

	jmp	$LN1@Use
$LN5@Use:

; 541  : 
; 542  : 	CBaseEntity *pPlayer = NULL;

	mov	DWORD PTR _pPlayer$[ebp], 0

; 543  : 
; 544  : 	for ( int i = 1; i <= gpGlobals->maxClients; i++ )

	mov	DWORD PTR _i$3[ebp], 1
	jmp	SHORT $LN4@Use
$LN2@Use:
	mov	ecx, DWORD PTR _i$3[ebp]
	add	ecx, 1
	mov	DWORD PTR _i$3[ebp], ecx
$LN4@Use:
	mov	edx, DWORD PTR ?gpGlobals@@3PAUglobalvars_t@@A ; gpGlobals
	mov	eax, DWORD PTR _i$3[ebp]
	cmp	eax, DWORD PTR [edx+144]
	jg	$LN3@Use

; 545  : 	{
; 546  : 		pPlayer = UTIL_PlayerByIndex( i );

	mov	ecx, DWORD PTR _i$3[ebp]
	push	ecx
	call	?UTIL_PlayerByIndex@@YAPAVCBaseEntity@@H@Z ; UTIL_PlayerByIndex
	add	esp, 4
	mov	DWORD PTR _pPlayer$[ebp], eax

; 547  : 		if ( pPlayer )

	cmp	DWORD PTR _pPlayer$[ebp], 0
	je	$LN11@Use

; 548  : 		{
; 549  : 			TraceResult trace;

	lea	ecx, DWORD PTR _trace$1[ebp]
	call	??0gametrace_s@@QAE@XZ

; 550  : 			int			hullNumber;
; 551  : 
; 552  : 			hullNumber = human_hull;

	mov	DWORD PTR _hullNumber$2[ebp], 1

; 553  : 			if ( pPlayer->pev->flags & FL_DUCKING )

	mov	edx, DWORD PTR _pPlayer$[ebp]
	mov	eax, DWORD PTR [edx+4]
	mov	ecx, DWORD PTR [eax+420]
	and	ecx, 16384				; 00004000H
	je	SHORT $LN7@Use

; 554  : 			{
; 555  : 				hullNumber = head_hull;

	mov	DWORD PTR _hullNumber$2[ebp], 3
$LN7@Use:

; 556  : 			}
; 557  : 
; 558  : 			UTIL_TraceModel( pPlayer->GetAbsOrigin(), pPlayer->GetAbsOrigin(), hullNumber, edict(), &trace );

	lea	edx, DWORD PTR _trace$1[ebp]
	push	edx
	mov	ecx, DWORD PTR _this$[ebp]
	call	?edict@CBaseEntity@@QAEPAUedict_s@@XZ	; CBaseEntity::edict
	push	eax
	mov	eax, DWORD PTR _hullNumber$2[ebp]
	push	eax
	mov	ecx, DWORD PTR _pPlayer$[ebp]
	call	?GetAbsOrigin@CBaseEntity@@QBEABVVector@@XZ ; CBaseEntity::GetAbsOrigin
	push	eax
	mov	ecx, DWORD PTR _pPlayer$[ebp]
	call	?GetAbsOrigin@CBaseEntity@@QBEABVVector@@XZ ; CBaseEntity::GetAbsOrigin
	push	eax
	call	?UTIL_TraceModel@@YAXABVVector@@0HPAUedict_s@@PAUgametrace_s@@@Z ; UTIL_TraceModel
	add	esp, 20					; 00000014H

; 559  : 
; 560  : 			if ( trace.fStartSolid )

	cmp	DWORD PTR _trace$1[ebp+4], 0
	je	SHORT $LN8@Use

; 561  : 			{
; 562  : 				playersInCount++;

	mov	ecx, DWORD PTR _playersInCount$[ebp]
	add	ecx, 1
	mov	DWORD PTR _playersInCount$[ebp], ecx

; 563  : 				if ( m_iszInTarget )

	mov	edx, DWORD PTR _this$[ebp]
	cmp	DWORD PTR [edx+1656], 0
	je	SHORT $LN10@Use

; 564  : 				{
; 565  : 					UTIL_FireTargets( STRING(m_iszInTarget), pPlayer, pActivator, useType, value );

	push	ecx
	movss	xmm0, DWORD PTR _value$[ebp]
	movss	DWORD PTR [esp], xmm0
	mov	eax, DWORD PTR _useType$[ebp]
	push	eax
	mov	ecx, DWORD PTR _pActivator$[ebp]
	push	ecx
	mov	edx, DWORD PTR _pPlayer$[ebp]
	push	edx
	mov	eax, DWORD PTR _this$[ebp]
	mov	ecx, DWORD PTR [eax+1656]
	push	ecx
	call	DWORD PTR ?g_engfuncs@@3Uenginefuncs_s@@A+264
	add	esp, 4
	push	eax
	call	?UTIL_FireTargets@@YAXPBDPAVCBaseEntity@@1W4USE_TYPE@@M@Z ; UTIL_FireTargets
	add	esp, 20					; 00000014H
$LN10@Use:

; 566  : 				}
; 567  : 			}
; 568  : 			else

	jmp	SHORT $LN11@Use
$LN8@Use:

; 569  : 			{
; 570  : 				playersOutCount++;

	mov	edx, DWORD PTR _playersOutCount$[ebp]
	add	edx, 1
	mov	DWORD PTR _playersOutCount$[ebp], edx

; 571  : 				if ( m_iszOutTarget )

	mov	eax, DWORD PTR _this$[ebp]
	cmp	DWORD PTR [eax+1660], 0
	je	SHORT $LN11@Use

; 572  : 				{
; 573  : 					UTIL_FireTargets( STRING(m_iszOutTarget), pPlayer, pActivator, useType, value );

	push	ecx
	movss	xmm0, DWORD PTR _value$[ebp]
	movss	DWORD PTR [esp], xmm0
	mov	ecx, DWORD PTR _useType$[ebp]
	push	ecx
	mov	edx, DWORD PTR _pActivator$[ebp]
	push	edx
	mov	eax, DWORD PTR _pPlayer$[ebp]
	push	eax
	mov	ecx, DWORD PTR _this$[ebp]
	mov	edx, DWORD PTR [ecx+1660]
	push	edx
	call	DWORD PTR ?g_engfuncs@@3Uenginefuncs_s@@A+264
	add	esp, 4
	push	eax
	call	?UTIL_FireTargets@@YAXPBDPAVCBaseEntity@@1W4USE_TYPE@@M@Z ; UTIL_FireTargets
	add	esp, 20					; 00000014H
$LN11@Use:

; 574  : 				}
; 575  : 			}
; 576  : 		}
; 577  : 	}

	jmp	$LN2@Use
$LN3@Use:

; 578  : 
; 579  : 	if ( m_iszInCount )

	mov	eax, DWORD PTR _this$[ebp]
	cmp	DWORD PTR [eax+1664], 0
	je	SHORT $LN12@Use

; 580  : 	{
; 581  : 		UTIL_FireTargets( STRING(m_iszInCount), pActivator, this, USE_SET, playersInCount );

	cvtsi2ss xmm0, DWORD PTR _playersInCount$[ebp]
	push	ecx
	movss	DWORD PTR [esp], xmm0
	push	2
	mov	ecx, DWORD PTR _this$[ebp]
	push	ecx
	mov	edx, DWORD PTR _pActivator$[ebp]
	push	edx
	mov	eax, DWORD PTR _this$[ebp]
	mov	ecx, DWORD PTR [eax+1664]
	push	ecx
	call	DWORD PTR ?g_engfuncs@@3Uenginefuncs_s@@A+264
	add	esp, 4
	push	eax
	call	?UTIL_FireTargets@@YAXPBDPAVCBaseEntity@@1W4USE_TYPE@@M@Z ; UTIL_FireTargets
	add	esp, 20					; 00000014H
$LN12@Use:

; 582  : 	}
; 583  : 
; 584  : 	if ( m_iszOutCount )

	mov	edx, DWORD PTR _this$[ebp]
	cmp	DWORD PTR [edx+1668], 0
	je	SHORT $LN13@Use

; 585  : 	{
; 586  : 		UTIL_FireTargets( STRING(m_iszOutCount), pActivator, this, USE_SET, playersOutCount );

	cvtsi2ss xmm0, DWORD PTR _playersOutCount$[ebp]
	push	ecx
	movss	DWORD PTR [esp], xmm0
	push	2
	mov	eax, DWORD PTR _this$[ebp]
	push	eax
	mov	ecx, DWORD PTR _pActivator$[ebp]
	push	ecx
	mov	edx, DWORD PTR _this$[ebp]
	mov	eax, DWORD PTR [edx+1668]
	push	eax
	call	DWORD PTR ?g_engfuncs@@3Uenginefuncs_s@@A+264
	add	esp, 4
	push	eax
	call	?UTIL_FireTargets@@YAXPBDPAVCBaseEntity@@1W4USE_TYPE@@M@Z ; UTIL_FireTargets
	add	esp, 20					; 00000014H
$LN13@Use:
$LN1@Use:

; 587  : 	}
; 588  : }

	mov	esp, ebp
	pop	ebp
	ret	16					; 00000010H
?Use@CGamePlayerZone@@UAEXPAVCBaseEntity@@0W4USE_TYPE@@M@Z ENDP ; CGamePlayerZone::Use
_TEXT	ENDS
; Function compile flags: /Odtp
; File c:\users\user\downloads\xashxt_v0.81_rev.1_with_sources\xashxt_v0.81_rev.1_src\server\maprules.cpp
_TEXT	SEGMENT
_this$ = -4						; size = 4
_pkvd$ = 8						; size = 4
?KeyValue@CGamePlayerZone@@UAEXPAUKeyValueData_s@@@Z PROC ; CGamePlayerZone::KeyValue
; _this$ = ecx

; 509  : {

	push	ebp
	mov	ebp, esp
	push	ecx
	mov	DWORD PTR _this$[ebp], ecx

; 510  : 	if (FStrEq(pkvd->szKeyName, "intarget"))

	push	OFFSET $SG76145
	mov	eax, DWORD PTR _pkvd$[ebp]
	mov	ecx, DWORD PTR [eax+4]
	push	ecx
	call	?FStrEq@@YAHPBD0@Z			; FStrEq
	add	esp, 8
	test	eax, eax
	je	SHORT $LN2@KeyValue

; 511  : 	{
; 512  : 		m_iszInTarget = ALLOC_STRING( pkvd->szValue );

	mov	edx, DWORD PTR _pkvd$[ebp]
	mov	eax, DWORD PTR [edx+8]
	push	eax
	call	DWORD PTR ?g_engfuncs@@3Uenginefuncs_s@@A+268
	add	esp, 4
	mov	ecx, DWORD PTR _this$[ebp]
	mov	DWORD PTR [ecx+1656], eax

; 513  : 		pkvd->fHandled = TRUE;

	mov	edx, DWORD PTR _pkvd$[ebp]
	mov	DWORD PTR [edx+12], 1
	jmp	$LN1@KeyValue
$LN2@KeyValue:

; 514  : 	}
; 515  : 	else if (FStrEq(pkvd->szKeyName, "outtarget"))

	push	OFFSET $SG76148
	mov	eax, DWORD PTR _pkvd$[ebp]
	mov	ecx, DWORD PTR [eax+4]
	push	ecx
	call	?FStrEq@@YAHPBD0@Z			; FStrEq
	add	esp, 8
	test	eax, eax
	je	SHORT $LN4@KeyValue

; 516  : 	{
; 517  : 		m_iszOutTarget = ALLOC_STRING( pkvd->szValue );

	mov	edx, DWORD PTR _pkvd$[ebp]
	mov	eax, DWORD PTR [edx+8]
	push	eax
	call	DWORD PTR ?g_engfuncs@@3Uenginefuncs_s@@A+268
	add	esp, 4
	mov	ecx, DWORD PTR _this$[ebp]
	mov	DWORD PTR [ecx+1660], eax

; 518  : 		pkvd->fHandled = TRUE;

	mov	edx, DWORD PTR _pkvd$[ebp]
	mov	DWORD PTR [edx+12], 1
	jmp	$LN1@KeyValue
$LN4@KeyValue:

; 519  : 	}
; 520  : 	else if (FStrEq(pkvd->szKeyName, "incount"))

	push	OFFSET $SG76151
	mov	eax, DWORD PTR _pkvd$[ebp]
	mov	ecx, DWORD PTR [eax+4]
	push	ecx
	call	?FStrEq@@YAHPBD0@Z			; FStrEq
	add	esp, 8
	test	eax, eax
	je	SHORT $LN6@KeyValue

; 521  : 	{
; 522  : 		m_iszInCount = ALLOC_STRING( pkvd->szValue );

	mov	edx, DWORD PTR _pkvd$[ebp]
	mov	eax, DWORD PTR [edx+8]
	push	eax
	call	DWORD PTR ?g_engfuncs@@3Uenginefuncs_s@@A+268
	add	esp, 4
	mov	ecx, DWORD PTR _this$[ebp]
	mov	DWORD PTR [ecx+1664], eax

; 523  : 		pkvd->fHandled = TRUE;

	mov	edx, DWORD PTR _pkvd$[ebp]
	mov	DWORD PTR [edx+12], 1
	jmp	SHORT $LN1@KeyValue
$LN6@KeyValue:

; 524  : 	}
; 525  : 	else if (FStrEq(pkvd->szKeyName, "outcount"))

	push	OFFSET $SG76154
	mov	eax, DWORD PTR _pkvd$[ebp]
	mov	ecx, DWORD PTR [eax+4]
	push	ecx
	call	?FStrEq@@YAHPBD0@Z			; FStrEq
	add	esp, 8
	test	eax, eax
	je	SHORT $LN8@KeyValue

; 526  : 	{
; 527  : 		m_iszOutCount = ALLOC_STRING( pkvd->szValue );

	mov	edx, DWORD PTR _pkvd$[ebp]
	mov	eax, DWORD PTR [edx+8]
	push	eax
	call	DWORD PTR ?g_engfuncs@@3Uenginefuncs_s@@A+268
	add	esp, 4
	mov	ecx, DWORD PTR _this$[ebp]
	mov	DWORD PTR [ecx+1668], eax

; 528  : 		pkvd->fHandled = TRUE;

	mov	edx, DWORD PTR _pkvd$[ebp]
	mov	DWORD PTR [edx+12], 1

; 529  : 	}
; 530  : 	else

	jmp	SHORT $LN1@KeyValue
$LN8@KeyValue:

; 531  : 		CRuleBrushEntity::KeyValue( pkvd );

	mov	eax, DWORD PTR _pkvd$[ebp]
	push	eax
	mov	ecx, DWORD PTR _this$[ebp]
	call	?KeyValue@CRuleEntity@@UAEXPAUKeyValueData_s@@@Z ; CRuleEntity::KeyValue
$LN1@KeyValue:

; 532  : }

	mov	esp, ebp
	pop	ebp
	ret	4
?KeyValue@CGamePlayerZone@@UAEXPAUKeyValueData_s@@@Z ENDP ; CGamePlayerZone::KeyValue
_TEXT	ENDS
; Function compile flags: /Odtp
; File c:\users\user\downloads\xashxt_v0.81_rev.1_with_sources\xashxt_v0.81_rev.1_src\server\maprules.cpp
;	COMDAT ??__Egame_team_set@@YAXXZ
text$di	SEGMENT
??__Egame_team_set@@YAXXZ PROC				; `dynamic initializer for 'game_team_set'', COMDAT

; 457  : LINK_ENTITY_TO_CLASS( game_team_set, CGameTeamSet );

	push	ebp
	mov	ebp, esp
	push	OFFSET $SG75996
	mov	ecx, OFFSET ?game_team_set@@3V?$CEntityFactory@VCGameTeamSet@@@@A
	call	??0?$CEntityFactory@VCGameTeamSet@@@@QAE@PBD@Z ; CEntityFactory<CGameTeamSet>::CEntityFactory<CGameTeamSet>
	pop	ebp
	ret	0
??__Egame_team_set@@YAXXZ ENDP				; `dynamic initializer for 'game_team_set''
text$di	ENDS
; Function compile flags: /Odtp
; File c:\users\user\downloads\xashxt_v0.81_rev.1_with_sources\xashxt_v0.81_rev.1_src\server\util.h
;	COMDAT ?GetEntitySize@?$CEntityFactory@VCGameTeamSet@@@@UAEIXZ
_TEXT	SEGMENT
_this$ = -4						; size = 4
?GetEntitySize@?$CEntityFactory@VCGameTeamSet@@@@UAEIXZ PROC ; CEntityFactory<CGameTeamSet>::GetEntitySize, COMDAT
; _this$ = ecx

; 103  : 	{

	push	ebp
	mov	ebp, esp
	push	ecx
	mov	DWORD PTR _this$[ebp], ecx

; 104  : 		return sizeof(T);

	mov	eax, 1656				; 00000678H

; 105  : 	}

	mov	esp, ebp
	pop	ebp
	ret	0
?GetEntitySize@?$CEntityFactory@VCGameTeamSet@@@@UAEIXZ ENDP ; CEntityFactory<CGameTeamSet>::GetEntitySize
_TEXT	ENDS
; Function compile flags: /Odtp
; File c:\users\user\downloads\xashxt_v0.81_rev.1_with_sources\xashxt_v0.81_rev.1_src\server\util.h
;	COMDAT ?Destroy@?$CEntityFactory@VCGameTeamSet@@@@UAEXPAVCBaseEntity@@@Z
_TEXT	SEGMENT
_this$ = -4						; size = 4
_pEntity$ = 8						; size = 4
?Destroy@?$CEntityFactory@VCGameTeamSet@@@@UAEXPAVCBaseEntity@@@Z PROC ; CEntityFactory<CGameTeamSet>::Destroy, COMDAT
; _this$ = ecx

; 98   : 	{

	push	ebp
	mov	ebp, esp
	push	ecx
	mov	DWORD PTR _this$[ebp], ecx

; 99   : 		UTIL_Remove( pEntity );

	mov	eax, DWORD PTR _pEntity$[ebp]
	push	eax
	call	?UTIL_Remove@@YAXPAVCBaseEntity@@@Z	; UTIL_Remove
	add	esp, 4

; 100  : 	}

	mov	esp, ebp
	pop	ebp
	ret	4
?Destroy@?$CEntityFactory@VCGameTeamSet@@@@UAEXPAVCBaseEntity@@@Z ENDP ; CEntityFactory<CGameTeamSet>::Destroy
_TEXT	ENDS
; Function compile flags: /Odtp
; File c:\users\user\downloads\xashxt_v0.81_rev.1_with_sources\xashxt_v0.81_rev.1_src\server\util.h
;	COMDAT ?Create@?$CEntityFactory@VCGameTeamSet@@@@UAEPAVCBaseEntity@@PBDPAUentvars_s@@@Z
_TEXT	SEGMENT
_this$ = -8						; size = 4
_pEnt$ = -4						; size = 4
_pClassName$ = 8					; size = 4
_pev$ = 12						; size = 4
?Create@?$CEntityFactory@VCGameTeamSet@@@@UAEPAVCBaseEntity@@PBDPAUentvars_s@@@Z PROC ; CEntityFactory<CGameTeamSet>::Create, COMDAT
; _this$ = ecx

; 92   : 	{

	push	ebp
	mov	ebp, esp
	sub	esp, 8
	mov	DWORD PTR _this$[ebp], ecx

; 93   : 		T* pEnt = GetClassPtr((T*)pev, pClassName);

	mov	eax, DWORD PTR _pClassName$[ebp]
	push	eax
	mov	ecx, DWORD PTR _pev$[ebp]
	push	ecx
	call	??$GetClassPtr@VCGameTeamSet@@@@YAPAVCGameTeamSet@@PAV0@PBD@Z ; GetClassPtr<CGameTeamSet>
	add	esp, 8
	mov	DWORD PTR _pEnt$[ebp], eax

; 94   : 		return pEnt;

	mov	eax, DWORD PTR _pEnt$[ebp]

; 95   : 	}

	mov	esp, ebp
	pop	ebp
	ret	8
?Create@?$CEntityFactory@VCGameTeamSet@@@@UAEPAVCBaseEntity@@PBDPAUentvars_s@@@Z ENDP ; CEntityFactory<CGameTeamSet>::Create
_TEXT	ENDS
; Function compile flags: /Odtp
; File c:\users\user\downloads\xashxt_v0.81_rev.1_with_sources\xashxt_v0.81_rev.1_src\server\util.h
;	COMDAT ??0?$CEntityFactory@VCGameTeamSet@@@@QAE@PBD@Z
_TEXT	SEGMENT
tv76 = -8						; size = 4
_this$ = -4						; size = 4
_pClassName$ = 8					; size = 4
??0?$CEntityFactory@VCGameTeamSet@@@@QAE@PBD@Z PROC	; CEntityFactory<CGameTeamSet>::CEntityFactory<CGameTeamSet>, COMDAT
; _this$ = ecx

; 86   : 	CEntityFactory( const char *pClassName )

	push	ebp
	mov	ebp, esp
	sub	esp, 8
	mov	DWORD PTR _this$[ebp], ecx

; 87   : 	{

	mov	ecx, DWORD PTR _this$[ebp]
	call	??0IEntityFactory@@QAE@XZ
	mov	eax, DWORD PTR _this$[ebp]
	mov	DWORD PTR [eax], OFFSET ??_7?$CEntityFactory@VCGameTeamSet@@@@6B@

; 88   : 		EntityFactoryDictionary()->InstallFactory( this, pClassName );

	call	?EntityFactoryDictionary@@YAPAVIEntityFactoryDictionary@@XZ ; EntityFactoryDictionary
	mov	DWORD PTR tv76[ebp], eax
	mov	ecx, DWORD PTR _pClassName$[ebp]
	push	ecx
	mov	edx, DWORD PTR _this$[ebp]
	push	edx
	mov	eax, DWORD PTR tv76[ebp]
	mov	edx, DWORD PTR [eax]
	mov	ecx, DWORD PTR tv76[ebp]
	mov	eax, DWORD PTR [edx]
	call	eax

; 89   : 	}

	mov	eax, DWORD PTR _this$[ebp]
	mov	esp, ebp
	pop	ebp
	ret	4
??0?$CEntityFactory@VCGameTeamSet@@@@QAE@PBD@Z ENDP	; CEntityFactory<CGameTeamSet>::CEntityFactory<CGameTeamSet>
_TEXT	ENDS
; Function compile flags: /Odtp
;	COMDAT ??0CGameTeamSet@@QAE@XZ
_TEXT	SEGMENT
_this$ = -4						; size = 4
??0CGameTeamSet@@QAE@XZ PROC				; CGameTeamSet::CGameTeamSet, COMDAT
; _this$ = ecx
	push	ebp
	mov	ebp, esp
	push	ecx
	mov	DWORD PTR _this$[ebp], ecx
	mov	ecx, DWORD PTR _this$[ebp]
	call	??0CRulePointEntity@@QAE@XZ
	mov	eax, DWORD PTR _this$[ebp]
	mov	DWORD PTR [eax], OFFSET ??_7CGameTeamSet@@6B@
	mov	eax, DWORD PTR _this$[ebp]
	mov	esp, ebp
	pop	ebp
	ret	0
??0CGameTeamSet@@QAE@XZ ENDP				; CGameTeamSet::CGameTeamSet
_TEXT	ENDS
; Function compile flags: /Odtp
; File c:\users\user\downloads\xashxt_v0.81_rev.1_with_sources\xashxt_v0.81_rev.1_src\server\maprules.cpp
;	COMDAT ?ShouldClearTeam@CGameTeamSet@@QAEHXZ
_TEXT	SEGMENT
_this$ = -8						; size = 4
tv72 = -4						; size = 4
?ShouldClearTeam@CGameTeamSet@@QAEHXZ PROC		; CGameTeamSet::ShouldClearTeam, COMDAT
; _this$ = ecx

; 454  : 	inline BOOL ShouldClearTeam( void ) { return (pev->spawnflags & SF_TEAMSET_CLEARTEAM) ? TRUE : FALSE; }

	push	ebp
	mov	ebp, esp
	sub	esp, 8
	mov	DWORD PTR _this$[ebp], ecx
	mov	eax, DWORD PTR _this$[ebp]
	mov	ecx, DWORD PTR [eax+4]
	mov	edx, DWORD PTR [ecx+416]
	and	edx, 2
	je	SHORT $LN3@ShouldClea
	mov	DWORD PTR tv72[ebp], 1
	jmp	SHORT $LN4@ShouldClea
$LN3@ShouldClea:
	mov	DWORD PTR tv72[ebp], 0
$LN4@ShouldClea:
	mov	eax, DWORD PTR tv72[ebp]
	mov	esp, ebp
	pop	ebp
	ret	0
?ShouldClearTeam@CGameTeamSet@@QAEHXZ ENDP		; CGameTeamSet::ShouldClearTeam
_TEXT	ENDS
; Function compile flags: /Odtp
; File c:\users\user\downloads\xashxt_v0.81_rev.1_with_sources\xashxt_v0.81_rev.1_src\server\maprules.cpp
;	COMDAT ?RemoveOnFire@CGameTeamSet@@QAEHXZ
_TEXT	SEGMENT
_this$ = -8						; size = 4
tv72 = -4						; size = 4
?RemoveOnFire@CGameTeamSet@@QAEHXZ PROC			; CGameTeamSet::RemoveOnFire, COMDAT
; _this$ = ecx

; 453  : 	inline BOOL RemoveOnFire( void ) { return (pev->spawnflags & SF_TEAMSET_FIREONCE) ? TRUE : FALSE; }

	push	ebp
	mov	ebp, esp
	sub	esp, 8
	mov	DWORD PTR _this$[ebp], ecx
	mov	eax, DWORD PTR _this$[ebp]
	mov	ecx, DWORD PTR [eax+4]
	mov	edx, DWORD PTR [ecx+416]
	and	edx, 1
	je	SHORT $LN3@RemoveOnFi
	mov	DWORD PTR tv72[ebp], 1
	jmp	SHORT $LN4@RemoveOnFi
$LN3@RemoveOnFi:
	mov	DWORD PTR tv72[ebp], 0
$LN4@RemoveOnFi:
	mov	eax, DWORD PTR tv72[ebp]
	mov	esp, ebp
	pop	ebp
	ret	0
?RemoveOnFire@CGameTeamSet@@QAEHXZ ENDP			; CGameTeamSet::RemoveOnFire
_TEXT	ENDS
; Function compile flags: /Odtp
; File c:\users\user\downloads\xashxt_v0.81_rev.1_with_sources\xashxt_v0.81_rev.1_src\server\maprules.cpp
_TEXT	SEGMENT
_this$ = -4						; size = 4
_pActivator$ = 8					; size = 4
_pCaller$ = 12						; size = 4
_useType$ = 16						; size = 4
_value$ = 20						; size = 4
?Use@CGameTeamSet@@UAEXPAVCBaseEntity@@0W4USE_TYPE@@M@Z PROC ; CGameTeamSet::Use
; _this$ = ecx

; 460  : {

	push	ebp
	mov	ebp, esp
	push	ecx
	mov	DWORD PTR _this$[ebp], ecx

; 461  : 	if ( !CanFireForActivator( pActivator ) )

	mov	eax, DWORD PTR _pActivator$[ebp]
	push	eax
	mov	ecx, DWORD PTR _this$[ebp]
	call	?CanFireForActivator@CRuleEntity@@IAEHPAVCBaseEntity@@@Z ; CRuleEntity::CanFireForActivator
	test	eax, eax
	jne	SHORT $LN2@Use

; 462  : 		return;

	jmp	SHORT $LN1@Use
$LN2@Use:

; 463  : 
; 464  : 	if ( ShouldClearTeam() )

	mov	ecx, DWORD PTR _this$[ebp]
	call	?ShouldClearTeam@CGameTeamSet@@QAEHXZ	; CGameTeamSet::ShouldClearTeam
	test	eax, eax
	je	SHORT $LN3@Use

; 465  : 	{
; 466  : 		SUB_UseTargets( pActivator, USE_SET, -1 );

	push	0
	push	ecx
	movss	xmm0, DWORD PTR __real@bf800000
	movss	DWORD PTR [esp], xmm0
	push	2
	mov	ecx, DWORD PTR _pActivator$[ebp]
	push	ecx
	mov	ecx, DWORD PTR _this$[ebp]
	call	?SUB_UseTargets@CBaseEntity@@QAEXPAV1@W4USE_TYPE@@MH@Z ; CBaseEntity::SUB_UseTargets

; 467  : 	}
; 468  : 	else

	jmp	SHORT $LN4@Use
$LN3@Use:

; 469  : 	{
; 470  : 		SUB_UseTargets( pActivator, USE_SET, 0 );

	push	0
	push	ecx
	xorps	xmm0, xmm0
	movss	DWORD PTR [esp], xmm0
	push	2
	mov	edx, DWORD PTR _pActivator$[ebp]
	push	edx
	mov	ecx, DWORD PTR _this$[ebp]
	call	?SUB_UseTargets@CBaseEntity@@QAEXPAV1@W4USE_TYPE@@MH@Z ; CBaseEntity::SUB_UseTargets
$LN4@Use:

; 471  : 	}
; 472  : 
; 473  : 	if ( RemoveOnFire() )

	mov	ecx, DWORD PTR _this$[ebp]
	call	?RemoveOnFire@CGameTeamSet@@QAEHXZ	; CGameTeamSet::RemoveOnFire
	test	eax, eax
	je	SHORT $LN5@Use

; 474  : 	{
; 475  : 		UTIL_Remove( this );

	mov	eax, DWORD PTR _this$[ebp]
	push	eax
	call	?UTIL_Remove@@YAXPAVCBaseEntity@@@Z	; UTIL_Remove
	add	esp, 4
$LN5@Use:
$LN1@Use:

; 476  : 	}
; 477  : }

	mov	esp, ebp
	pop	ebp
	ret	16					; 00000010H
?Use@CGameTeamSet@@UAEXPAVCBaseEntity@@0W4USE_TYPE@@M@Z ENDP ; CGameTeamSet::Use
_TEXT	ENDS
; Function compile flags: /Odtp
; File c:\users\user\downloads\xashxt_v0.81_rev.1_with_sources\xashxt_v0.81_rev.1_src\server\maprules.cpp
;	COMDAT ??__Egame_team_master@@YAXXZ
text$di	SEGMENT
??__Egame_team_master@@YAXXZ PROC			; `dynamic initializer for 'game_team_master'', COMDAT

; 355  : LINK_ENTITY_TO_CLASS( game_team_master, CGameTeamMaster );

	push	ebp
	mov	ebp, esp
	push	OFFSET $SG75890
	mov	ecx, OFFSET ?game_team_master@@3V?$CEntityFactory@VCGameTeamMaster@@@@A
	call	??0?$CEntityFactory@VCGameTeamMaster@@@@QAE@PBD@Z ; CEntityFactory<CGameTeamMaster>::CEntityFactory<CGameTeamMaster>
	pop	ebp
	ret	0
??__Egame_team_master@@YAXXZ ENDP			; `dynamic initializer for 'game_team_master''
text$di	ENDS
; Function compile flags: /Odtp
; File c:\users\user\downloads\xashxt_v0.81_rev.1_with_sources\xashxt_v0.81_rev.1_src\server\util.h
;	COMDAT ?GetEntitySize@?$CEntityFactory@VCGameTeamMaster@@@@UAEIXZ
_TEXT	SEGMENT
_this$ = -4						; size = 4
?GetEntitySize@?$CEntityFactory@VCGameTeamMaster@@@@UAEIXZ PROC ; CEntityFactory<CGameTeamMaster>::GetEntitySize, COMDAT
; _this$ = ecx

; 103  : 	{

	push	ebp
	mov	ebp, esp
	push	ecx
	mov	DWORD PTR _this$[ebp], ecx

; 104  : 		return sizeof(T);

	mov	eax, 1664				; 00000680H

; 105  : 	}

	mov	esp, ebp
	pop	ebp
	ret	0
?GetEntitySize@?$CEntityFactory@VCGameTeamMaster@@@@UAEIXZ ENDP ; CEntityFactory<CGameTeamMaster>::GetEntitySize
_TEXT	ENDS
; Function compile flags: /Odtp
; File c:\users\user\downloads\xashxt_v0.81_rev.1_with_sources\xashxt_v0.81_rev.1_src\server\util.h
;	COMDAT ?Destroy@?$CEntityFactory@VCGameTeamMaster@@@@UAEXPAVCBaseEntity@@@Z
_TEXT	SEGMENT
_this$ = -4						; size = 4
_pEntity$ = 8						; size = 4
?Destroy@?$CEntityFactory@VCGameTeamMaster@@@@UAEXPAVCBaseEntity@@@Z PROC ; CEntityFactory<CGameTeamMaster>::Destroy, COMDAT
; _this$ = ecx

; 98   : 	{

	push	ebp
	mov	ebp, esp
	push	ecx
	mov	DWORD PTR _this$[ebp], ecx

; 99   : 		UTIL_Remove( pEntity );

	mov	eax, DWORD PTR _pEntity$[ebp]
	push	eax
	call	?UTIL_Remove@@YAXPAVCBaseEntity@@@Z	; UTIL_Remove
	add	esp, 4

; 100  : 	}

	mov	esp, ebp
	pop	ebp
	ret	4
?Destroy@?$CEntityFactory@VCGameTeamMaster@@@@UAEXPAVCBaseEntity@@@Z ENDP ; CEntityFactory<CGameTeamMaster>::Destroy
_TEXT	ENDS
; Function compile flags: /Odtp
; File c:\users\user\downloads\xashxt_v0.81_rev.1_with_sources\xashxt_v0.81_rev.1_src\server\util.h
;	COMDAT ?Create@?$CEntityFactory@VCGameTeamMaster@@@@UAEPAVCBaseEntity@@PBDPAUentvars_s@@@Z
_TEXT	SEGMENT
_this$ = -8						; size = 4
_pEnt$ = -4						; size = 4
_pClassName$ = 8					; size = 4
_pev$ = 12						; size = 4
?Create@?$CEntityFactory@VCGameTeamMaster@@@@UAEPAVCBaseEntity@@PBDPAUentvars_s@@@Z PROC ; CEntityFactory<CGameTeamMaster>::Create, COMDAT
; _this$ = ecx

; 92   : 	{

	push	ebp
	mov	ebp, esp
	sub	esp, 8
	mov	DWORD PTR _this$[ebp], ecx

; 93   : 		T* pEnt = GetClassPtr((T*)pev, pClassName);

	mov	eax, DWORD PTR _pClassName$[ebp]
	push	eax
	mov	ecx, DWORD PTR _pev$[ebp]
	push	ecx
	call	??$GetClassPtr@VCGameTeamMaster@@@@YAPAVCGameTeamMaster@@PAV0@PBD@Z ; GetClassPtr<CGameTeamMaster>
	add	esp, 8
	mov	DWORD PTR _pEnt$[ebp], eax

; 94   : 		return pEnt;

	mov	eax, DWORD PTR _pEnt$[ebp]

; 95   : 	}

	mov	esp, ebp
	pop	ebp
	ret	8
?Create@?$CEntityFactory@VCGameTeamMaster@@@@UAEPAVCBaseEntity@@PBDPAUentvars_s@@@Z ENDP ; CEntityFactory<CGameTeamMaster>::Create
_TEXT	ENDS
; Function compile flags: /Odtp
; File c:\users\user\downloads\xashxt_v0.81_rev.1_with_sources\xashxt_v0.81_rev.1_src\server\util.h
;	COMDAT ??0?$CEntityFactory@VCGameTeamMaster@@@@QAE@PBD@Z
_TEXT	SEGMENT
tv76 = -8						; size = 4
_this$ = -4						; size = 4
_pClassName$ = 8					; size = 4
??0?$CEntityFactory@VCGameTeamMaster@@@@QAE@PBD@Z PROC	; CEntityFactory<CGameTeamMaster>::CEntityFactory<CGameTeamMaster>, COMDAT
; _this$ = ecx

; 86   : 	CEntityFactory( const char *pClassName )

	push	ebp
	mov	ebp, esp
	sub	esp, 8
	mov	DWORD PTR _this$[ebp], ecx

; 87   : 	{

	mov	ecx, DWORD PTR _this$[ebp]
	call	??0IEntityFactory@@QAE@XZ
	mov	eax, DWORD PTR _this$[ebp]
	mov	DWORD PTR [eax], OFFSET ??_7?$CEntityFactory@VCGameTeamMaster@@@@6B@

; 88   : 		EntityFactoryDictionary()->InstallFactory( this, pClassName );

	call	?EntityFactoryDictionary@@YAPAVIEntityFactoryDictionary@@XZ ; EntityFactoryDictionary
	mov	DWORD PTR tv76[ebp], eax
	mov	ecx, DWORD PTR _pClassName$[ebp]
	push	ecx
	mov	edx, DWORD PTR _this$[ebp]
	push	edx
	mov	eax, DWORD PTR tv76[ebp]
	mov	edx, DWORD PTR [eax]
	mov	ecx, DWORD PTR tv76[ebp]
	mov	eax, DWORD PTR [edx]
	call	eax

; 89   : 	}

	mov	eax, DWORD PTR _this$[ebp]
	mov	esp, ebp
	pop	ebp
	ret	4
??0?$CEntityFactory@VCGameTeamMaster@@@@QAE@PBD@Z ENDP	; CEntityFactory<CGameTeamMaster>::CEntityFactory<CGameTeamMaster>
_TEXT	ENDS
; Function compile flags: /Odtp
;	COMDAT ??0CGameTeamMaster@@QAE@XZ
_TEXT	SEGMENT
_this$ = -4						; size = 4
??0CGameTeamMaster@@QAE@XZ PROC				; CGameTeamMaster::CGameTeamMaster, COMDAT
; _this$ = ecx
	push	ebp
	mov	ebp, esp
	push	ecx
	mov	DWORD PTR _this$[ebp], ecx
	mov	ecx, DWORD PTR _this$[ebp]
	call	??0CRulePointEntity@@QAE@XZ
	mov	eax, DWORD PTR _this$[ebp]
	mov	DWORD PTR [eax], OFFSET ??_7CGameTeamMaster@@6B@
	mov	eax, DWORD PTR _this$[ebp]
	mov	esp, ebp
	pop	ebp
	ret	0
??0CGameTeamMaster@@QAE@XZ ENDP				; CGameTeamMaster::CGameTeamMaster
_TEXT	ENDS
; Function compile flags: /Odtp
; File c:\users\user\downloads\xashxt_v0.81_rev.1_with_sources\xashxt_v0.81_rev.1_src\server\maprules.cpp
_TEXT	SEGMENT
_this$ = -4						; size = 4
_pActivator$ = 8					; size = 4
?TeamMatch@CGameTeamMaster@@AAEHPAVCBaseEntity@@@Z PROC	; CGameTeamMaster::TeamMatch
; _this$ = ecx

; 429  : {

	push	ebp
	mov	ebp, esp
	push	ecx
	mov	DWORD PTR _this$[ebp], ecx

; 430  : 	if ( m_teamIndex < 0 && AnyTeam() )

	mov	eax, DWORD PTR _this$[ebp]
	cmp	DWORD PTR [eax+1656], 0
	jge	SHORT $LN2@TeamMatch
	mov	ecx, DWORD PTR _this$[ebp]
	call	?AnyTeam@CGameTeamMaster@@QAEHXZ	; CGameTeamMaster::AnyTeam
	test	eax, eax
	je	SHORT $LN2@TeamMatch

; 431  : 		return TRUE;

	mov	eax, 1
	jmp	SHORT $LN1@TeamMatch
$LN2@TeamMatch:

; 432  : 
; 433  : 	if ( !pActivator )

	cmp	DWORD PTR _pActivator$[ebp], 0
	jne	SHORT $LN3@TeamMatch

; 434  : 		return FALSE;

	xor	eax, eax
	jmp	SHORT $LN1@TeamMatch
$LN3@TeamMatch:

; 435  : 
; 436  : 	return UTIL_TeamsMatch( pActivator->TeamID(), TeamID() );

	mov	ecx, DWORD PTR _this$[ebp]
	mov	edx, DWORD PTR [ecx]
	mov	ecx, DWORD PTR _this$[ebp]
	mov	eax, DWORD PTR [edx+260]
	call	eax
	push	eax
	mov	ecx, DWORD PTR _pActivator$[ebp]
	mov	edx, DWORD PTR [ecx]
	mov	ecx, DWORD PTR _pActivator$[ebp]
	mov	eax, DWORD PTR [edx+260]
	call	eax
	push	eax
	call	?UTIL_TeamsMatch@@YAHPBD0@Z		; UTIL_TeamsMatch
	add	esp, 8
$LN1@TeamMatch:

; 437  : }

	mov	esp, ebp
	pop	ebp
	ret	4
?TeamMatch@CGameTeamMaster@@AAEHPAVCBaseEntity@@@Z ENDP	; CGameTeamMaster::TeamMatch
_TEXT	ENDS
; Function compile flags: /Odtp
; File c:\users\user\downloads\xashxt_v0.81_rev.1_with_sources\xashxt_v0.81_rev.1_src\server\maprules.cpp
;	COMDAT ?AnyTeam@CGameTeamMaster@@QAEHXZ
_TEXT	SEGMENT
_this$ = -8						; size = 4
tv72 = -4						; size = 4
?AnyTeam@CGameTeamMaster@@QAEHXZ PROC			; CGameTeamMaster::AnyTeam, COMDAT
; _this$ = ecx

; 346  : 	inline BOOL AnyTeam( void ) { return (pev->spawnflags & SF_TEAMMASTER_ANYTEAM) ? TRUE : FALSE; }

	push	ebp
	mov	ebp, esp
	sub	esp, 8
	mov	DWORD PTR _this$[ebp], ecx
	mov	eax, DWORD PTR _this$[ebp]
	mov	ecx, DWORD PTR [eax+4]
	mov	edx, DWORD PTR [ecx+416]
	and	edx, 2
	je	SHORT $LN3@AnyTeam
	mov	DWORD PTR tv72[ebp], 1
	jmp	SHORT $LN4@AnyTeam
$LN3@AnyTeam:
	mov	DWORD PTR tv72[ebp], 0
$LN4@AnyTeam:
	mov	eax, DWORD PTR tv72[ebp]
	mov	esp, ebp
	pop	ebp
	ret	0
?AnyTeam@CGameTeamMaster@@QAEHXZ ENDP			; CGameTeamMaster::AnyTeam
_TEXT	ENDS
; Function compile flags: /Odtp
; File c:\users\user\downloads\xashxt_v0.81_rev.1_with_sources\xashxt_v0.81_rev.1_src\server\maprules.cpp
;	COMDAT ?RemoveOnFire@CGameTeamMaster@@QAEHXZ
_TEXT	SEGMENT
_this$ = -8						; size = 4
tv72 = -4						; size = 4
?RemoveOnFire@CGameTeamMaster@@QAEHXZ PROC		; CGameTeamMaster::RemoveOnFire, COMDAT
; _this$ = ecx

; 345  : 	inline BOOL RemoveOnFire( void ) { return (pev->spawnflags & SF_TEAMMASTER_FIREONCE) ? TRUE : FALSE; }

	push	ebp
	mov	ebp, esp
	sub	esp, 8
	mov	DWORD PTR _this$[ebp], ecx
	mov	eax, DWORD PTR _this$[ebp]
	mov	ecx, DWORD PTR [eax+4]
	mov	edx, DWORD PTR [ecx+416]
	and	edx, 1
	je	SHORT $LN3@RemoveOnFi
	mov	DWORD PTR tv72[ebp], 1
	jmp	SHORT $LN4@RemoveOnFi
$LN3@RemoveOnFi:
	mov	DWORD PTR tv72[ebp], 0
$LN4@RemoveOnFi:
	mov	eax, DWORD PTR tv72[ebp]
	mov	esp, ebp
	pop	ebp
	ret	0
?RemoveOnFire@CGameTeamMaster@@QAEHXZ ENDP		; CGameTeamMaster::RemoveOnFire
_TEXT	ENDS
; Function compile flags: /Odtp
; File c:\users\user\downloads\xashxt_v0.81_rev.1_with_sources\xashxt_v0.81_rev.1_src\server\maprules.cpp
_TEXT	SEGMENT
_this$ = -4						; size = 4
?TeamID@CGameTeamMaster@@UAEPBDXZ PROC			; CGameTeamMaster::TeamID
; _this$ = ecx

; 420  : {

	push	ebp
	mov	ebp, esp
	push	ecx
	mov	DWORD PTR _this$[ebp], ecx

; 421  : 	if ( m_teamIndex < 0 )		// Currently set to "no team"

	mov	eax, DWORD PTR _this$[ebp]
	cmp	DWORD PTR [eax+1656], 0
	jge	SHORT $LN2@TeamID

; 422  : 		return "";

	mov	eax, OFFSET $SG75930
	jmp	SHORT $LN1@TeamID
$LN2@TeamID:

; 423  : 
; 424  : 	return g_pGameRules->GetIndexedTeamName( m_teamIndex );		// UNDONE: Fill this in with the team from the "teamlist"

	mov	ecx, DWORD PTR _this$[ebp]
	mov	edx, DWORD PTR [ecx+1656]
	push	edx
	mov	eax, DWORD PTR ?g_pGameRules@@3PAVCGameRules@@A ; g_pGameRules
	mov	edx, DWORD PTR [eax]
	mov	ecx, DWORD PTR ?g_pGameRules@@3PAVCGameRules@@A ; g_pGameRules
	mov	eax, DWORD PTR [edx+208]
	call	eax
$LN1@TeamID:

; 425  : }

	mov	esp, ebp
	pop	ebp
	ret	0
?TeamID@CGameTeamMaster@@UAEPBDXZ ENDP			; CGameTeamMaster::TeamID
_TEXT	ENDS
; Function compile flags: /Odtp
; File c:\users\user\downloads\xashxt_v0.81_rev.1_with_sources\xashxt_v0.81_rev.1_src\server\maprules.cpp
_TEXT	SEGMENT
_this$ = -4						; size = 4
_pActivator$ = 8					; size = 4
?IsTriggered@CGameTeamMaster@@UAEHPAVCBaseEntity@@@Z PROC ; CGameTeamMaster::IsTriggered
; _this$ = ecx

; 414  : {

	push	ebp
	mov	ebp, esp
	push	ecx
	mov	DWORD PTR _this$[ebp], ecx

; 415  : 	return TeamMatch( pActivator );

	mov	eax, DWORD PTR _pActivator$[ebp]
	push	eax
	mov	ecx, DWORD PTR _this$[ebp]
	call	?TeamMatch@CGameTeamMaster@@AAEHPAVCBaseEntity@@@Z ; CGameTeamMaster::TeamMatch

; 416  : }

	mov	esp, ebp
	pop	ebp
	ret	4
?IsTriggered@CGameTeamMaster@@UAEHPAVCBaseEntity@@@Z ENDP ; CGameTeamMaster::IsTriggered
_TEXT	ENDS
; Function compile flags: /Odtp
; File c:\users\user\downloads\xashxt_v0.81_rev.1_with_sources\xashxt_v0.81_rev.1_src\server\maprules.cpp
_TEXT	SEGMENT
_this$ = -4						; size = 4
_pActivator$ = 8					; size = 4
_pCaller$ = 12						; size = 4
_useType$ = 16						; size = 4
_value$ = 20						; size = 4
?Use@CGameTeamMaster@@UAEXPAVCBaseEntity@@0W4USE_TYPE@@M@Z PROC ; CGameTeamMaster::Use
; _this$ = ecx

; 387  : {

	push	ebp
	mov	ebp, esp
	push	ecx
	mov	DWORD PTR _this$[ebp], ecx

; 388  : 	if ( !CanFireForActivator( pActivator ) )

	mov	eax, DWORD PTR _pActivator$[ebp]
	push	eax
	mov	ecx, DWORD PTR _this$[ebp]
	call	?CanFireForActivator@CRuleEntity@@IAEHPAVCBaseEntity@@@Z ; CRuleEntity::CanFireForActivator
	test	eax, eax
	jne	SHORT $LN2@Use

; 389  : 		return;

	jmp	$LN1@Use
$LN2@Use:

; 390  : 
; 391  : 	if ( useType == USE_SET )

	cmp	DWORD PTR _useType$[ebp], 2
	jne	SHORT $LN3@Use

; 392  : 	{
; 393  : 		if ( value < 0 )

	xorps	xmm0, xmm0
	comiss	xmm0, DWORD PTR _value$[ebp]
	jbe	SHORT $LN4@Use

; 394  : 		{
; 395  : 			m_teamIndex = -1;

	mov	ecx, DWORD PTR _this$[ebp]
	mov	DWORD PTR [ecx+1656], -1

; 396  : 		}
; 397  : 		else

	jmp	SHORT $LN5@Use
$LN4@Use:

; 398  : 		{
; 399  : 			m_teamIndex = g_pGameRules->GetTeamIndex( pActivator->TeamID() );

	mov	edx, DWORD PTR _pActivator$[ebp]
	mov	eax, DWORD PTR [edx]
	mov	ecx, DWORD PTR _pActivator$[ebp]
	mov	edx, DWORD PTR [eax+260]
	call	edx
	push	eax
	mov	eax, DWORD PTR ?g_pGameRules@@3PAVCGameRules@@A ; g_pGameRules
	mov	edx, DWORD PTR [eax]
	mov	ecx, DWORD PTR ?g_pGameRules@@3PAVCGameRules@@A ; g_pGameRules
	mov	eax, DWORD PTR [edx+204]
	call	eax
	mov	ecx, DWORD PTR _this$[ebp]
	mov	DWORD PTR [ecx+1656], eax
$LN5@Use:

; 400  : 		}
; 401  : 		return;

	jmp	SHORT $LN1@Use
$LN3@Use:

; 402  : 	}
; 403  : 
; 404  : 	if ( TeamMatch( pActivator ) )

	mov	edx, DWORD PTR _pActivator$[ebp]
	push	edx
	mov	ecx, DWORD PTR _this$[ebp]
	call	?TeamMatch@CGameTeamMaster@@AAEHPAVCBaseEntity@@@Z ; CGameTeamMaster::TeamMatch
	test	eax, eax
	je	SHORT $LN7@Use

; 405  : 	{
; 406  : 		SUB_UseTargets( pActivator, triggerType, value );

	push	0
	push	ecx
	movss	xmm0, DWORD PTR _value$[ebp]
	movss	DWORD PTR [esp], xmm0
	mov	eax, DWORD PTR _this$[ebp]
	mov	ecx, DWORD PTR [eax+1660]
	push	ecx
	mov	edx, DWORD PTR _pActivator$[ebp]
	push	edx
	mov	ecx, DWORD PTR _this$[ebp]
	call	?SUB_UseTargets@CBaseEntity@@QAEXPAV1@W4USE_TYPE@@MH@Z ; CBaseEntity::SUB_UseTargets

; 407  : 		if ( RemoveOnFire() )

	mov	ecx, DWORD PTR _this$[ebp]
	call	?RemoveOnFire@CGameTeamMaster@@QAEHXZ	; CGameTeamMaster::RemoveOnFire
	test	eax, eax
	je	SHORT $LN7@Use

; 408  : 			UTIL_Remove( this );

	mov	eax, DWORD PTR _this$[ebp]
	push	eax
	call	?UTIL_Remove@@YAXPAVCBaseEntity@@@Z	; UTIL_Remove
	add	esp, 4
$LN7@Use:
$LN1@Use:

; 409  : 	}
; 410  : }

	mov	esp, ebp
	pop	ebp
	ret	16					; 00000010H
?Use@CGameTeamMaster@@UAEXPAVCBaseEntity@@0W4USE_TYPE@@M@Z ENDP ; CGameTeamMaster::Use
_TEXT	ENDS
; Function compile flags: /Odtp
; File c:\users\user\downloads\xashxt_v0.81_rev.1_with_sources\xashxt_v0.81_rev.1_src\server\maprules.cpp
_TEXT	SEGMENT
_type$1 = -12						; size = 4
tv82 = -8						; size = 4
_this$ = -4						; size = 4
_pkvd$ = 8						; size = 4
?KeyValue@CGameTeamMaster@@UAEXPAUKeyValueData_s@@@Z PROC ; CGameTeamMaster::KeyValue
; _this$ = ecx

; 358  : {

	push	ebp
	mov	ebp, esp
	sub	esp, 12					; 0000000cH
	mov	DWORD PTR _this$[ebp], ecx

; 359  : 	if (FStrEq(pkvd->szKeyName, "teamindex"))

	push	OFFSET $SG75901
	mov	eax, DWORD PTR _pkvd$[ebp]
	mov	ecx, DWORD PTR [eax+4]
	push	ecx
	call	?FStrEq@@YAHPBD0@Z			; FStrEq
	add	esp, 8
	test	eax, eax
	je	SHORT $LN4@KeyValue

; 360  : 	{
; 361  : 		m_teamIndex = atoi( pkvd->szValue );

	mov	edx, DWORD PTR _pkvd$[ebp]
	mov	eax, DWORD PTR [edx+8]
	push	eax
	call	_atoi
	add	esp, 4
	mov	ecx, DWORD PTR _this$[ebp]
	mov	DWORD PTR [ecx+1656], eax

; 362  : 		pkvd->fHandled = TRUE;

	mov	edx, DWORD PTR _pkvd$[ebp]
	mov	DWORD PTR [edx+12], 1
	jmp	$LN1@KeyValue
$LN4@KeyValue:

; 363  : 	}
; 364  : 	else if (FStrEq(pkvd->szKeyName, "triggerstate"))

	push	OFFSET $SG75904
	mov	eax, DWORD PTR _pkvd$[ebp]
	mov	ecx, DWORD PTR [eax+4]
	push	ecx
	call	?FStrEq@@YAHPBD0@Z			; FStrEq
	add	esp, 8
	test	eax, eax
	je	SHORT $LN6@KeyValue

; 365  : 	{
; 366  : 		int type = atoi( pkvd->szValue );

	mov	edx, DWORD PTR _pkvd$[ebp]
	mov	eax, DWORD PTR [edx+8]
	push	eax
	call	_atoi
	add	esp, 4
	mov	DWORD PTR _type$1[ebp], eax

; 367  : 		switch( type )

	mov	ecx, DWORD PTR _type$1[ebp]
	mov	DWORD PTR tv82[ebp], ecx
	cmp	DWORD PTR tv82[ebp], 0
	je	SHORT $LN8@KeyValue
	cmp	DWORD PTR tv82[ebp], 2
	je	SHORT $LN9@KeyValue
	jmp	SHORT $LN10@KeyValue
$LN8@KeyValue:

; 368  : 		{
; 369  : 		case 0:
; 370  : 			triggerType = USE_OFF;

	mov	edx, DWORD PTR _this$[ebp]
	mov	DWORD PTR [edx+1660], 0

; 371  : 			break;

	jmp	SHORT $LN2@KeyValue
$LN9@KeyValue:

; 372  : 		case 2:
; 373  : 			triggerType = USE_TOGGLE;

	mov	eax, DWORD PTR _this$[ebp]
	mov	DWORD PTR [eax+1660], 3

; 374  : 			break;

	jmp	SHORT $LN2@KeyValue
$LN10@KeyValue:

; 375  : 		default:
; 376  : 			triggerType = USE_ON;

	mov	ecx, DWORD PTR _this$[ebp]
	mov	DWORD PTR [ecx+1660], 1
$LN2@KeyValue:

; 377  : 			break;
; 378  : 		}
; 379  : 		pkvd->fHandled = TRUE;

	mov	edx, DWORD PTR _pkvd$[ebp]
	mov	DWORD PTR [edx+12], 1

; 380  : 	}
; 381  : 	else

	jmp	SHORT $LN1@KeyValue
$LN6@KeyValue:

; 382  : 		CRulePointEntity::KeyValue( pkvd );

	mov	eax, DWORD PTR _pkvd$[ebp]
	push	eax
	mov	ecx, DWORD PTR _this$[ebp]
	call	?KeyValue@CRuleEntity@@UAEXPAUKeyValueData_s@@@Z ; CRuleEntity::KeyValue
$LN1@KeyValue:

; 383  : }

	mov	esp, ebp
	pop	ebp
	ret	4
?KeyValue@CGameTeamMaster@@UAEXPAUKeyValueData_s@@@Z ENDP ; CGameTeamMaster::KeyValue
_TEXT	ENDS
; Function compile flags: /Odtp
;	COMDAT ??__FnameHolder@?1???$DataMapInit@VCGameText@@@@YAPAUdatamap_s@@PAVCGameText@@@Z@YAXXZ
text$yd	SEGMENT
??__FnameHolder@?1???$DataMapInit@VCGameText@@@@YAPAUdatamap_s@@PAVCGameText@@@Z@YAXXZ PROC ; `DataMapInit<CGameText>'::`2'::`dynamic atexit destructor for 'nameHolder'', COMDAT
	push	ebp
	mov	ebp, esp
	mov	ecx, OFFSET ?nameHolder@?1???$DataMapInit@VCGameText@@@@YAPAUdatamap_s@@PAVCGameText@@@Z@4VCDatadescGeneratedNameHolder@@A
	call	??1CDatadescGeneratedNameHolder@@QAE@XZ	; CDatadescGeneratedNameHolder::~CDatadescGeneratedNameHolder
	pop	ebp
	ret	0
??__FnameHolder@?1???$DataMapInit@VCGameText@@@@YAPAUdatamap_s@@PAVCGameText@@@Z@YAXXZ ENDP ; `DataMapInit<CGameText>'::`2'::`dynamic atexit destructor for 'nameHolder''
text$yd	ENDS
; Function compile flags: /Odtp
; File c:\users\user\downloads\xashxt_v0.81_rev.1_with_sources\xashxt_v0.81_rev.1_src\server\maprules.cpp
;	COMDAT ??__Eg_DataMapHolder@CGameText_DataDescInit@@YAXXZ
text$di	SEGMENT
??__Eg_DataMapHolder@CGameText_DataDescInit@@YAXXZ PROC	; CGameText_DataDescInit::`dynamic initializer for 'g_DataMapHolder'', COMDAT

; 235  : BEGIN_DATADESC( CGameText )

	push	ebp
	mov	ebp, esp
	push	0
	call	??$DataMapInit@VCGameText@@@@YAPAUdatamap_s@@PAVCGameText@@@Z ; DataMapInit<CGameText>
	add	esp, 4
	mov	DWORD PTR ?g_DataMapHolder@CGameText_DataDescInit@@3PAUdatamap_s@@A, eax ; CGameText_DataDescInit::g_DataMapHolder
	pop	ebp
	ret	0
??__Eg_DataMapHolder@CGameText_DataDescInit@@YAXXZ ENDP	; CGameText_DataDescInit::`dynamic initializer for 'g_DataMapHolder''
text$di	ENDS
; Function compile flags: /Odtp
; File c:\users\user\downloads\xashxt_v0.81_rev.1_with_sources\xashxt_v0.81_rev.1_src\server\maprules.cpp
_TEXT	SEGMENT
__$EHRec$ = -12						; size = 12
___formal$ = 8						; size = 4
??$DataMapInit@VCGameText@@@@YAPAUdatamap_s@@PAVCGameText@@@Z PROC ; DataMapInit<CGameText>

; 235  : BEGIN_DATADESC( CGameText )

	push	ebp
	mov	ebp, esp
	push	-1
	push	__ehhandler$??$DataMapInit@VCGameText@@@@YAPAUdatamap_s@@PAVCGameText@@@Z
	mov	eax, DWORD PTR fs:0
	push	eax
	mov	eax, DWORD PTR ___security_cookie
	xor	eax, ebp
	push	eax
	lea	eax, DWORD PTR __$EHRec$[ebp]
	mov	DWORD PTR fs:0, eax
	mov	eax, DWORD PTR __tls_index
	mov	ecx, DWORD PTR fs:__tls_array
	mov	edx, DWORD PTR [ecx+eax*4]
	mov	eax, DWORD PTR ?$TSS0@?1???$DataMapInit@VCGameText@@@@YAPAUdatamap_s@@PAVCGameText@@@Z@4HA
	cmp	eax, DWORD PTR __Init_thread_epoch[edx]
	jle	SHORT $LN2@DataMapIni
	push	OFFSET ?$TSS0@?1???$DataMapInit@VCGameText@@@@YAPAUdatamap_s@@PAVCGameText@@@Z@4HA
	call	__Init_thread_header
	add	esp, 4
	cmp	DWORD PTR ?$TSS0@?1???$DataMapInit@VCGameText@@@@YAPAUdatamap_s@@PAVCGameText@@@Z@4HA, -1
	jne	SHORT $LN2@DataMapIni
	mov	DWORD PTR __$EHRec$[ebp+8], 0
	push	OFFSET $SG75770
	mov	ecx, OFFSET ?nameHolder@?1???$DataMapInit@VCGameText@@@@YAPAUdatamap_s@@PAVCGameText@@@Z@4VCDatadescGeneratedNameHolder@@A
	call	??0CDatadescGeneratedNameHolder@@QAE@PBD@Z ; CDatadescGeneratedNameHolder::CDatadescGeneratedNameHolder
	push	OFFSET ??__FnameHolder@?1???$DataMapInit@VCGameText@@@@YAPAUdatamap_s@@PAVCGameText@@@Z@YAXXZ ; `DataMapInit<CGameText>'::`2'::`dynamic atexit destructor for 'nameHolder''
	call	_atexit
	add	esp, 4
	mov	DWORD PTR __$EHRec$[ebp+8], -1
	push	OFFSET ?$TSS0@?1???$DataMapInit@VCGameText@@@@YAPAUdatamap_s@@PAVCGameText@@@Z@4HA
	call	__Init_thread_footer
	add	esp, 4
$LN2@DataMapIni:
	call	?GetBaseMap@CGameText@@SAPAUdatamap_s@@XZ ; CGameText::GetBaseMap
	mov	DWORD PTR ?m_DataMap@CGameText@@2Udatamap_s@@A+12, eax

; 236  : 	DEFINE_ARRAY( m_textParms, FIELD_CHARACTER, sizeof(hudtextparms_t) ),
; 237  : END_DATADESC()

	mov	ecx, 1
	test	ecx, ecx
	je	SHORT $LN3@DataMapIni
	mov	DWORD PTR ?m_DataMap@CGameText@@2Udatamap_s@@A+4, 1
	mov	edx, 24					; 00000018H
	shl	edx, 0
	add	edx, OFFSET ?dataDesc@?1???$DataMapInit@VCGameText@@@@YAPAUdatamap_s@@PAVCGameText@@@Z@4PAUtypedescription_s@@A
	mov	DWORD PTR ?m_DataMap@CGameText@@2Udatamap_s@@A, edx
	jmp	SHORT $LN4@DataMapIni
$LN3@DataMapIni:
	mov	DWORD PTR ?m_DataMap@CGameText@@2Udatamap_s@@A+4, 1
	mov	DWORD PTR ?m_DataMap@CGameText@@2Udatamap_s@@A, OFFSET ?dataDesc@?1???$DataMapInit@VCGameText@@@@YAPAUdatamap_s@@PAVCGameText@@@Z@4PAUtypedescription_s@@A
$LN4@DataMapIni:
	mov	eax, OFFSET ?m_DataMap@CGameText@@2Udatamap_s@@A ; CGameText::m_DataMap
	mov	ecx, DWORD PTR __$EHRec$[ebp]
	mov	DWORD PTR fs:0, ecx
	pop	ecx
	mov	esp, ebp
	pop	ebp
	ret	0
_TEXT	ENDS
text$x	SEGMENT
__unwindfunclet$??$DataMapInit@VCGameText@@@@YAPAUdatamap_s@@PAVCGameText@@@Z$0:
	push	OFFSET ?$TSS0@?1???$DataMapInit@VCGameText@@@@YAPAUdatamap_s@@PAVCGameText@@@Z@4HA
	call	__Init_thread_abort
	pop	ecx
	ret	0
__ehhandler$??$DataMapInit@VCGameText@@@@YAPAUdatamap_s@@PAVCGameText@@@Z:
	mov	edx, DWORD PTR [esp+8]
	lea	eax, DWORD PTR [edx+12]
	mov	ecx, DWORD PTR [edx-4]
	xor	ecx, eax
	call	@__security_check_cookie@4
	mov	eax, OFFSET __ehfuncinfo$??$DataMapInit@VCGameText@@@@YAPAUdatamap_s@@PAVCGameText@@@Z
	jmp	___CxxFrameHandler3
text$x	ENDS
??$DataMapInit@VCGameText@@@@YAPAUdatamap_s@@PAVCGameText@@@Z ENDP ; DataMapInit<CGameText>
; Function compile flags: /Odtp
; File c:\users\user\downloads\xashxt_v0.81_rev.1_with_sources\xashxt_v0.81_rev.1_src\common\datamap.h
;	COMDAT ??$DataMapAccess@VCRulePointEntity@@@@YAXPAVCRulePointEntity@@PAPAUdatamap_s@@@Z
_TEXT	SEGMENT
_ignored$ = 8						; size = 4
_p$ = 12						; size = 4
??$DataMapAccess@VCRulePointEntity@@@@YAXPAVCRulePointEntity@@PAPAUdatamap_s@@@Z PROC ; DataMapAccess<CRulePointEntity>, COMDAT

; 182  : {

	push	ebp
	mov	ebp, esp

; 183  : 	*p = &T::m_DataMap;

	mov	eax, DWORD PTR _p$[ebp]
	mov	DWORD PTR [eax], OFFSET ?m_DataMap@CRuleEntity@@2Udatamap_s@@A ; CRuleEntity::m_DataMap

; 184  : }

	pop	ebp
	ret	0
??$DataMapAccess@VCRulePointEntity@@@@YAXPAVCRulePointEntity@@PAPAUdatamap_s@@@Z ENDP ; DataMapAccess<CRulePointEntity>
_TEXT	ENDS
; Function compile flags: /Odtp
; File c:\users\user\downloads\xashxt_v0.81_rev.1_with_sources\xashxt_v0.81_rev.1_src\server\maprules.cpp
;	COMDAT ??__Egame_text@@YAXXZ
text$di	SEGMENT
??__Egame_text@@YAXXZ PROC				; `dynamic initializer for 'game_text'', COMDAT

; 231  : LINK_ENTITY_TO_CLASS( game_text, CGameText );

	push	ebp
	mov	ebp, esp
	push	OFFSET $SG75726
	mov	ecx, OFFSET ?game_text@@3V?$CEntityFactory@VCGameText@@@@A
	call	??0?$CEntityFactory@VCGameText@@@@QAE@PBD@Z ; CEntityFactory<CGameText>::CEntityFactory<CGameText>
	pop	ebp
	ret	0
??__Egame_text@@YAXXZ ENDP				; `dynamic initializer for 'game_text''
text$di	ENDS
; Function compile flags: /Odtp
; File c:\users\user\downloads\xashxt_v0.81_rev.1_with_sources\xashxt_v0.81_rev.1_src\server\util.h
;	COMDAT ?GetEntitySize@?$CEntityFactory@VCGameText@@@@UAEIXZ
_TEXT	SEGMENT
_this$ = -4						; size = 4
?GetEntitySize@?$CEntityFactory@VCGameText@@@@UAEIXZ PROC ; CEntityFactory<CGameText>::GetEntitySize, COMDAT
; _this$ = ecx

; 103  : 	{

	push	ebp
	mov	ebp, esp
	push	ecx
	mov	DWORD PTR _this$[ebp], ecx

; 104  : 		return sizeof(T);

	mov	eax, 1696				; 000006a0H

; 105  : 	}

	mov	esp, ebp
	pop	ebp
	ret	0
?GetEntitySize@?$CEntityFactory@VCGameText@@@@UAEIXZ ENDP ; CEntityFactory<CGameText>::GetEntitySize
_TEXT	ENDS
; Function compile flags: /Odtp
; File c:\users\user\downloads\xashxt_v0.81_rev.1_with_sources\xashxt_v0.81_rev.1_src\server\util.h
;	COMDAT ?Destroy@?$CEntityFactory@VCGameText@@@@UAEXPAVCBaseEntity@@@Z
_TEXT	SEGMENT
_this$ = -4						; size = 4
_pEntity$ = 8						; size = 4
?Destroy@?$CEntityFactory@VCGameText@@@@UAEXPAVCBaseEntity@@@Z PROC ; CEntityFactory<CGameText>::Destroy, COMDAT
; _this$ = ecx

; 98   : 	{

	push	ebp
	mov	ebp, esp
	push	ecx
	mov	DWORD PTR _this$[ebp], ecx

; 99   : 		UTIL_Remove( pEntity );

	mov	eax, DWORD PTR _pEntity$[ebp]
	push	eax
	call	?UTIL_Remove@@YAXPAVCBaseEntity@@@Z	; UTIL_Remove
	add	esp, 4

; 100  : 	}

	mov	esp, ebp
	pop	ebp
	ret	4
?Destroy@?$CEntityFactory@VCGameText@@@@UAEXPAVCBaseEntity@@@Z ENDP ; CEntityFactory<CGameText>::Destroy
_TEXT	ENDS
; Function compile flags: /Odtp
; File c:\users\user\downloads\xashxt_v0.81_rev.1_with_sources\xashxt_v0.81_rev.1_src\server\util.h
;	COMDAT ?Create@?$CEntityFactory@VCGameText@@@@UAEPAVCBaseEntity@@PBDPAUentvars_s@@@Z
_TEXT	SEGMENT
_this$ = -8						; size = 4
_pEnt$ = -4						; size = 4
_pClassName$ = 8					; size = 4
_pev$ = 12						; size = 4
?Create@?$CEntityFactory@VCGameText@@@@UAEPAVCBaseEntity@@PBDPAUentvars_s@@@Z PROC ; CEntityFactory<CGameText>::Create, COMDAT
; _this$ = ecx

; 92   : 	{

	push	ebp
	mov	ebp, esp
	sub	esp, 8
	mov	DWORD PTR _this$[ebp], ecx

; 93   : 		T* pEnt = GetClassPtr((T*)pev, pClassName);

	mov	eax, DWORD PTR _pClassName$[ebp]
	push	eax
	mov	ecx, DWORD PTR _pev$[ebp]
	push	ecx
	call	??$GetClassPtr@VCGameText@@@@YAPAVCGameText@@PAV0@PBD@Z ; GetClassPtr<CGameText>
	add	esp, 8
	mov	DWORD PTR _pEnt$[ebp], eax

; 94   : 		return pEnt;

	mov	eax, DWORD PTR _pEnt$[ebp]

; 95   : 	}

	mov	esp, ebp
	pop	ebp
	ret	8
?Create@?$CEntityFactory@VCGameText@@@@UAEPAVCBaseEntity@@PBDPAUentvars_s@@@Z ENDP ; CEntityFactory<CGameText>::Create
_TEXT	ENDS
; Function compile flags: /Odtp
; File c:\users\user\downloads\xashxt_v0.81_rev.1_with_sources\xashxt_v0.81_rev.1_src\server\util.h
;	COMDAT ??0?$CEntityFactory@VCGameText@@@@QAE@PBD@Z
_TEXT	SEGMENT
tv76 = -8						; size = 4
_this$ = -4						; size = 4
_pClassName$ = 8					; size = 4
??0?$CEntityFactory@VCGameText@@@@QAE@PBD@Z PROC	; CEntityFactory<CGameText>::CEntityFactory<CGameText>, COMDAT
; _this$ = ecx

; 86   : 	CEntityFactory( const char *pClassName )

	push	ebp
	mov	ebp, esp
	sub	esp, 8
	mov	DWORD PTR _this$[ebp], ecx

; 87   : 	{

	mov	ecx, DWORD PTR _this$[ebp]
	call	??0IEntityFactory@@QAE@XZ
	mov	eax, DWORD PTR _this$[ebp]
	mov	DWORD PTR [eax], OFFSET ??_7?$CEntityFactory@VCGameText@@@@6B@

; 88   : 		EntityFactoryDictionary()->InstallFactory( this, pClassName );

	call	?EntityFactoryDictionary@@YAPAVIEntityFactoryDictionary@@XZ ; EntityFactoryDictionary
	mov	DWORD PTR tv76[ebp], eax
	mov	ecx, DWORD PTR _pClassName$[ebp]
	push	ecx
	mov	edx, DWORD PTR _this$[ebp]
	push	edx
	mov	eax, DWORD PTR tv76[ebp]
	mov	edx, DWORD PTR [eax]
	mov	ecx, DWORD PTR tv76[ebp]
	mov	eax, DWORD PTR [edx]
	call	eax

; 89   : 	}

	mov	eax, DWORD PTR _this$[ebp]
	mov	esp, ebp
	pop	ebp
	ret	4
??0?$CEntityFactory@VCGameText@@@@QAE@PBD@Z ENDP	; CEntityFactory<CGameText>::CEntityFactory<CGameText>
_TEXT	ENDS
; Function compile flags: /Odtp
;	COMDAT ??0CGameText@@QAE@XZ
_TEXT	SEGMENT
_this$ = -4						; size = 4
??0CGameText@@QAE@XZ PROC				; CGameText::CGameText, COMDAT
; _this$ = ecx
	push	ebp
	mov	ebp, esp
	push	ecx
	mov	DWORD PTR _this$[ebp], ecx
	mov	ecx, DWORD PTR _this$[ebp]
	call	??0CRulePointEntity@@QAE@XZ
	mov	eax, DWORD PTR _this$[ebp]
	mov	DWORD PTR [eax], OFFSET ??_7CGameText@@6B@
	mov	eax, DWORD PTR _this$[ebp]
	mov	esp, ebp
	pop	ebp
	ret	0
??0CGameText@@QAE@XZ ENDP				; CGameText::CGameText
_TEXT	ENDS
; Function compile flags: /Odtp
; File c:\users\user\downloads\xashxt_v0.81_rev.1_with_sources\xashxt_v0.81_rev.1_src\server\maprules.cpp
;	COMDAT ?MessageGet@CGameText@@QAEPBDXZ
_TEXT	SEGMENT
_this$ = -4						; size = 4
?MessageGet@CGameText@@QAEPBDXZ PROC			; CGameText::MessageGet, COMDAT
; _this$ = ecx

; 224  : 	inline	const char *MessageGet( void ) { return STRING(pev->message); }

	push	ebp
	mov	ebp, esp
	push	ecx
	mov	DWORD PTR _this$[ebp], ecx
	mov	eax, DWORD PTR _this$[ebp]
	mov	ecx, DWORD PTR [eax+4]
	mov	edx, DWORD PTR [ecx+468]
	push	edx
	call	DWORD PTR ?g_engfuncs@@3Uenginefuncs_s@@A+264
	add	esp, 4
	mov	esp, ebp
	pop	ebp
	ret	0
?MessageGet@CGameText@@QAEPBDXZ ENDP			; CGameText::MessageGet
_TEXT	ENDS
; Function compile flags: /Odtp
; File c:\users\user\downloads\xashxt_v0.81_rev.1_with_sources\xashxt_v0.81_rev.1_src\server\maprules.cpp
;	COMDAT ?MessageToAll@CGameText@@QAEHXZ
_TEXT	SEGMENT
_this$ = -4						; size = 4
?MessageToAll@CGameText@@QAEHXZ PROC			; CGameText::MessageToAll, COMDAT
; _this$ = ecx

; 222  : 	inline	BOOL MessageToAll( void ) { return (pev->spawnflags & SF_ENVTEXT_ALLPLAYERS); }

	push	ebp
	mov	ebp, esp
	push	ecx
	mov	DWORD PTR _this$[ebp], ecx
	mov	eax, DWORD PTR _this$[ebp]
	mov	ecx, DWORD PTR [eax+4]
	mov	eax, DWORD PTR [ecx+416]
	and	eax, 1
	mov	esp, ebp
	pop	ebp
	ret	0
?MessageToAll@CGameText@@QAEHXZ ENDP			; CGameText::MessageToAll
_TEXT	ENDS
; Function compile flags: /Odtp
; File c:\users\user\downloads\xashxt_v0.81_rev.1_with_sources\xashxt_v0.81_rev.1_src\server\maprules.cpp
_TEXT	SEGMENT
_this$ = -4						; size = 4
?GetDataDescMap@CGameText@@UAEPAUdatamap_s@@XZ PROC	; CGameText::GetDataDescMap
; _this$ = ecx

; 235  : BEGIN_DATADESC( CGameText )

	push	ebp
	mov	ebp, esp
	push	ecx
	mov	DWORD PTR _this$[ebp], ecx
	mov	eax, OFFSET ?m_DataMap@CGameText@@2Udatamap_s@@A ; CGameText::m_DataMap
	mov	esp, ebp
	pop	ebp
	ret	0
?GetDataDescMap@CGameText@@UAEPAUdatamap_s@@XZ ENDP	; CGameText::GetDataDescMap
_TEXT	ENDS
; Function compile flags: /Odtp
; File c:\users\user\downloads\xashxt_v0.81_rev.1_with_sources\xashxt_v0.81_rev.1_src\server\maprules.cpp
_TEXT	SEGMENT
_pResult$ = -4						; size = 4
?GetBaseMap@CGameText@@SAPAUdatamap_s@@XZ PROC		; CGameText::GetBaseMap

; 235  : BEGIN_DATADESC( CGameText )

	push	ebp
	mov	ebp, esp
	push	ecx
	lea	eax, DWORD PTR _pResult$[ebp]
	push	eax
	push	0
	call	??$DataMapAccess@VCRulePointEntity@@@@YAXPAVCRulePointEntity@@PAPAUdatamap_s@@@Z ; DataMapAccess<CRulePointEntity>
	add	esp, 8
	mov	eax, DWORD PTR _pResult$[ebp]
	mov	esp, ebp
	pop	ebp
	ret	0
?GetBaseMap@CGameText@@SAPAUdatamap_s@@XZ ENDP		; CGameText::GetBaseMap
_TEXT	ENDS
; Function compile flags: /Odtp
; File c:\users\user\downloads\xashxt_v0.81_rev.1_with_sources\xashxt_v0.81_rev.1_src\server\maprules.cpp
_TEXT	SEGMENT
_this$ = -40						; size = 4
_color$1 = -36						; size = 16
_color$2 = -20						; size = 16
__$ArrayPad$ = -4					; size = 4
_pkvd$ = 8						; size = 4
?KeyValue@CGameText@@UAEXPAUKeyValueData_s@@@Z PROC	; CGameText::KeyValue
; _this$ = ecx

; 240  : {

	push	ebp
	mov	ebp, esp
	sub	esp, 40					; 00000028H
	mov	eax, DWORD PTR ___security_cookie
	xor	eax, ebp
	mov	DWORD PTR __$ArrayPad$[ebp], eax
	mov	DWORD PTR _this$[ebp], ecx

; 241  : 	if (FStrEq(pkvd->szKeyName, "channel"))

	push	OFFSET $SG75782
	mov	eax, DWORD PTR _pkvd$[ebp]
	mov	ecx, DWORD PTR [eax+4]
	push	ecx
	call	?FStrEq@@YAHPBD0@Z			; FStrEq
	add	esp, 8
	test	eax, eax
	je	SHORT $LN2@KeyValue

; 242  : 	{
; 243  : 		m_textParms.channel = atoi( pkvd->szValue );

	mov	edx, DWORD PTR _pkvd$[ebp]
	mov	eax, DWORD PTR [edx+8]
	push	eax
	call	_atoi
	add	esp, 4
	mov	ecx, DWORD PTR _this$[ebp]
	mov	DWORD PTR [ecx+1692], eax

; 244  : 		pkvd->fHandled = TRUE;

	mov	edx, DWORD PTR _pkvd$[ebp]
	mov	DWORD PTR [edx+12], 1
	jmp	$LN21@KeyValue
$LN2@KeyValue:

; 245  : 	}
; 246  : 	else if (FStrEq(pkvd->szKeyName, "x"))

	push	OFFSET $SG75785
	mov	eax, DWORD PTR _pkvd$[ebp]
	mov	ecx, DWORD PTR [eax+4]
	push	ecx
	call	?FStrEq@@YAHPBD0@Z			; FStrEq
	add	esp, 8
	test	eax, eax
	je	SHORT $LN4@KeyValue

; 247  : 	{
; 248  : 		m_textParms.x = atof( pkvd->szValue );

	mov	edx, DWORD PTR _pkvd$[ebp]
	mov	eax, DWORD PTR [edx+8]
	push	eax
	call	_atof
	add	esp, 4
	mov	ecx, DWORD PTR _this$[ebp]
	fstp	DWORD PTR [ecx+1656]

; 249  : 		pkvd->fHandled = TRUE;

	mov	edx, DWORD PTR _pkvd$[ebp]
	mov	DWORD PTR [edx+12], 1
	jmp	$LN21@KeyValue
$LN4@KeyValue:

; 250  : 	}
; 251  : 	else if (FStrEq(pkvd->szKeyName, "y"))

	push	OFFSET $SG75788
	mov	eax, DWORD PTR _pkvd$[ebp]
	mov	ecx, DWORD PTR [eax+4]
	push	ecx
	call	?FStrEq@@YAHPBD0@Z			; FStrEq
	add	esp, 8
	test	eax, eax
	je	SHORT $LN6@KeyValue

; 252  : 	{
; 253  : 		m_textParms.y = atof( pkvd->szValue );

	mov	edx, DWORD PTR _pkvd$[ebp]
	mov	eax, DWORD PTR [edx+8]
	push	eax
	call	_atof
	add	esp, 4
	mov	ecx, DWORD PTR _this$[ebp]
	fstp	DWORD PTR [ecx+1660]

; 254  : 		pkvd->fHandled = TRUE;

	mov	edx, DWORD PTR _pkvd$[ebp]
	mov	DWORD PTR [edx+12], 1
	jmp	$LN21@KeyValue
$LN6@KeyValue:

; 255  : 	}
; 256  : 	else if (FStrEq(pkvd->szKeyName, "effect"))

	push	OFFSET $SG75791
	mov	eax, DWORD PTR _pkvd$[ebp]
	mov	ecx, DWORD PTR [eax+4]
	push	ecx
	call	?FStrEq@@YAHPBD0@Z			; FStrEq
	add	esp, 8
	test	eax, eax
	je	SHORT $LN8@KeyValue

; 257  : 	{
; 258  : 		m_textParms.effect = atoi( pkvd->szValue );

	mov	edx, DWORD PTR _pkvd$[ebp]
	mov	eax, DWORD PTR [edx+8]
	push	eax
	call	_atoi
	add	esp, 4
	mov	ecx, DWORD PTR _this$[ebp]
	mov	DWORD PTR [ecx+1664], eax

; 259  : 		pkvd->fHandled = TRUE;

	mov	edx, DWORD PTR _pkvd$[ebp]
	mov	DWORD PTR [edx+12], 1
	jmp	$LN21@KeyValue
$LN8@KeyValue:

; 260  : 	}
; 261  : 	else if (FStrEq(pkvd->szKeyName, "color"))

	push	OFFSET $SG75794
	mov	eax, DWORD PTR _pkvd$[ebp]
	mov	ecx, DWORD PTR [eax+4]
	push	ecx
	call	?FStrEq@@YAHPBD0@Z			; FStrEq
	add	esp, 8
	test	eax, eax
	je	SHORT $LN10@KeyValue

; 262  : 	{
; 263  : 		int color[4];
; 264  : 		UTIL_StringToIntArray( color, 4, pkvd->szValue );

	mov	edx, DWORD PTR _pkvd$[ebp]
	mov	eax, DWORD PTR [edx+8]
	push	eax
	push	4
	lea	ecx, DWORD PTR _color$2[ebp]
	push	ecx
	call	?UTIL_StringToIntArray@@YAXPAHHPBD@Z	; UTIL_StringToIntArray
	add	esp, 12					; 0000000cH

; 265  : 		m_textParms.r1 = color[0];

	mov	edx, 4
	imul	eax, edx, 0
	mov	ecx, DWORD PTR _this$[ebp]
	mov	dl, BYTE PTR _color$2[ebp+eax]
	mov	BYTE PTR [ecx+1668], dl

; 266  : 		m_textParms.g1 = color[1];

	mov	eax, 4
	shl	eax, 0
	mov	ecx, DWORD PTR _this$[ebp]
	mov	dl, BYTE PTR _color$2[ebp+eax]
	mov	BYTE PTR [ecx+1669], dl

; 267  : 		m_textParms.b1 = color[2];

	mov	eax, 4
	shl	eax, 1
	mov	ecx, DWORD PTR _this$[ebp]
	mov	dl, BYTE PTR _color$2[ebp+eax]
	mov	BYTE PTR [ecx+1670], dl

; 268  : 		m_textParms.a1 = color[3];

	mov	eax, 4
	imul	ecx, eax, 3
	mov	edx, DWORD PTR _this$[ebp]
	mov	al, BYTE PTR _color$2[ebp+ecx]
	mov	BYTE PTR [edx+1671], al

; 269  : 		pkvd->fHandled = TRUE;

	mov	ecx, DWORD PTR _pkvd$[ebp]
	mov	DWORD PTR [ecx+12], 1
	jmp	$LN21@KeyValue
$LN10@KeyValue:

; 270  : 	}
; 271  : 	else if (FStrEq(pkvd->szKeyName, "color2"))

	push	OFFSET $SG75797
	mov	edx, DWORD PTR _pkvd$[ebp]
	mov	eax, DWORD PTR [edx+4]
	push	eax
	call	?FStrEq@@YAHPBD0@Z			; FStrEq
	add	esp, 8
	test	eax, eax
	je	SHORT $LN12@KeyValue

; 272  : 	{
; 273  : 		int color[4];
; 274  : 		UTIL_StringToIntArray( color, 4, pkvd->szValue );

	mov	ecx, DWORD PTR _pkvd$[ebp]
	mov	edx, DWORD PTR [ecx+8]
	push	edx
	push	4
	lea	eax, DWORD PTR _color$1[ebp]
	push	eax
	call	?UTIL_StringToIntArray@@YAXPAHHPBD@Z	; UTIL_StringToIntArray
	add	esp, 12					; 0000000cH

; 275  : 		m_textParms.r2 = color[0];

	mov	ecx, 4
	imul	edx, ecx, 0
	mov	eax, DWORD PTR _this$[ebp]
	mov	cl, BYTE PTR _color$1[ebp+edx]
	mov	BYTE PTR [eax+1672], cl

; 276  : 		m_textParms.g2 = color[1];

	mov	edx, 4
	shl	edx, 0
	mov	eax, DWORD PTR _this$[ebp]
	mov	cl, BYTE PTR _color$1[ebp+edx]
	mov	BYTE PTR [eax+1673], cl

; 277  : 		m_textParms.b2 = color[2];

	mov	edx, 4
	shl	edx, 1
	mov	eax, DWORD PTR _this$[ebp]
	mov	cl, BYTE PTR _color$1[ebp+edx]
	mov	BYTE PTR [eax+1674], cl

; 278  : 		m_textParms.a2 = color[3];

	mov	edx, 4
	imul	eax, edx, 3
	mov	ecx, DWORD PTR _this$[ebp]
	mov	dl, BYTE PTR _color$1[ebp+eax]
	mov	BYTE PTR [ecx+1675], dl

; 279  : 		pkvd->fHandled = TRUE;

	mov	eax, DWORD PTR _pkvd$[ebp]
	mov	DWORD PTR [eax+12], 1
	jmp	$LN21@KeyValue
$LN12@KeyValue:

; 280  : 	}
; 281  : 	else if (FStrEq(pkvd->szKeyName, "fadein"))

	push	OFFSET $SG75800
	mov	ecx, DWORD PTR _pkvd$[ebp]
	mov	edx, DWORD PTR [ecx+4]
	push	edx
	call	?FStrEq@@YAHPBD0@Z			; FStrEq
	add	esp, 8
	test	eax, eax
	je	SHORT $LN14@KeyValue

; 282  : 	{
; 283  : 		m_textParms.fadeinTime = atof( pkvd->szValue );

	mov	eax, DWORD PTR _pkvd$[ebp]
	mov	ecx, DWORD PTR [eax+8]
	push	ecx
	call	_atof
	add	esp, 4
	mov	edx, DWORD PTR _this$[ebp]
	fstp	DWORD PTR [edx+1676]

; 284  : 		pkvd->fHandled = TRUE;

	mov	eax, DWORD PTR _pkvd$[ebp]
	mov	DWORD PTR [eax+12], 1
	jmp	$LN21@KeyValue
$LN14@KeyValue:

; 285  : 	}
; 286  : 	else if (FStrEq(pkvd->szKeyName, "fadeout"))

	push	OFFSET $SG75803
	mov	ecx, DWORD PTR _pkvd$[ebp]
	mov	edx, DWORD PTR [ecx+4]
	push	edx
	call	?FStrEq@@YAHPBD0@Z			; FStrEq
	add	esp, 8
	test	eax, eax
	je	SHORT $LN16@KeyValue

; 287  : 	{
; 288  : 		m_textParms.fadeoutTime = atof( pkvd->szValue );

	mov	eax, DWORD PTR _pkvd$[ebp]
	mov	ecx, DWORD PTR [eax+8]
	push	ecx
	call	_atof
	add	esp, 4
	mov	edx, DWORD PTR _this$[ebp]
	fstp	DWORD PTR [edx+1680]

; 289  : 		pkvd->fHandled = TRUE;

	mov	eax, DWORD PTR _pkvd$[ebp]
	mov	DWORD PTR [eax+12], 1
	jmp	$LN21@KeyValue
$LN16@KeyValue:

; 290  : 	}
; 291  : 	else if (FStrEq(pkvd->szKeyName, "holdtime"))

	push	OFFSET $SG75806
	mov	ecx, DWORD PTR _pkvd$[ebp]
	mov	edx, DWORD PTR [ecx+4]
	push	edx
	call	?FStrEq@@YAHPBD0@Z			; FStrEq
	add	esp, 8
	test	eax, eax
	je	SHORT $LN18@KeyValue

; 292  : 	{
; 293  : 		m_textParms.holdTime = atof( pkvd->szValue );

	mov	eax, DWORD PTR _pkvd$[ebp]
	mov	ecx, DWORD PTR [eax+8]
	push	ecx
	call	_atof
	add	esp, 4
	mov	edx, DWORD PTR _this$[ebp]
	fstp	DWORD PTR [edx+1684]

; 294  : 		pkvd->fHandled = TRUE;

	mov	eax, DWORD PTR _pkvd$[ebp]
	mov	DWORD PTR [eax+12], 1
	jmp	SHORT $LN21@KeyValue
$LN18@KeyValue:

; 295  : 	}
; 296  : 	else if (FStrEq(pkvd->szKeyName, "fxtime"))

	push	OFFSET $SG75809
	mov	ecx, DWORD PTR _pkvd$[ebp]
	mov	edx, DWORD PTR [ecx+4]
	push	edx
	call	?FStrEq@@YAHPBD0@Z			; FStrEq
	add	esp, 8
	test	eax, eax
	je	SHORT $LN20@KeyValue

; 297  : 	{
; 298  : 		m_textParms.fxTime = atof( pkvd->szValue );

	mov	eax, DWORD PTR _pkvd$[ebp]
	mov	ecx, DWORD PTR [eax+8]
	push	ecx
	call	_atof
	add	esp, 4
	mov	edx, DWORD PTR _this$[ebp]
	fstp	DWORD PTR [edx+1688]

; 299  : 		pkvd->fHandled = TRUE;

	mov	eax, DWORD PTR _pkvd$[ebp]
	mov	DWORD PTR [eax+12], 1

; 300  : 	}
; 301  : 	else

	jmp	SHORT $LN21@KeyValue
$LN20@KeyValue:

; 302  : 		CRulePointEntity::KeyValue( pkvd );

	mov	ecx, DWORD PTR _pkvd$[ebp]
	push	ecx
	mov	ecx, DWORD PTR _this$[ebp]
	call	?KeyValue@CRuleEntity@@UAEXPAUKeyValueData_s@@@Z ; CRuleEntity::KeyValue
$LN21@KeyValue:

; 303  : }

	mov	ecx, DWORD PTR __$ArrayPad$[ebp]
	xor	ecx, ebp
	call	@__security_check_cookie@4
	mov	esp, ebp
	pop	ebp
	ret	4
?KeyValue@CGameText@@UAEXPAUKeyValueData_s@@@Z ENDP	; CGameText::KeyValue
_TEXT	ENDS
; Function compile flags: /Odtp
; File c:\users\user\downloads\xashxt_v0.81_rev.1_with_sources\xashxt_v0.81_rev.1_src\server\maprules.cpp
_TEXT	SEGMENT
_this$ = -4						; size = 4
_pActivator$ = 8					; size = 4
_pCaller$ = 12						; size = 4
_useType$ = 16						; size = 4
_value$ = 20						; size = 4
?Use@CGameText@@UAEXPAVCBaseEntity@@0W4USE_TYPE@@M@Z PROC ; CGameText::Use
; _this$ = ecx

; 307  : {

	push	ebp
	mov	ebp, esp
	push	ecx
	mov	DWORD PTR _this$[ebp], ecx

; 308  : 	if ( !CanFireForActivator( pActivator ) )

	mov	eax, DWORD PTR _pActivator$[ebp]
	push	eax
	mov	ecx, DWORD PTR _this$[ebp]
	call	?CanFireForActivator@CRuleEntity@@IAEHPAVCBaseEntity@@@Z ; CRuleEntity::CanFireForActivator
	test	eax, eax
	jne	SHORT $LN2@Use

; 309  : 		return;

	jmp	SHORT $LN1@Use
$LN2@Use:

; 310  : 
; 311  : 	if ( MessageToAll() )

	mov	ecx, DWORD PTR _this$[ebp]
	call	?MessageToAll@CGameText@@QAEHXZ		; CGameText::MessageToAll
	test	eax, eax
	je	SHORT $LN3@Use

; 312  : 	{
; 313  : 		UTIL_HudMessageAll( m_textParms, MessageGet() );

	mov	ecx, DWORD PTR _this$[ebp]
	call	?MessageGet@CGameText@@QAEPBDXZ		; CGameText::MessageGet
	push	eax
	mov	ecx, DWORD PTR _this$[ebp]
	add	ecx, 1656				; 00000678H
	push	ecx
	call	?UTIL_HudMessageAll@@YAXABUhudtextparms_s@@PBD@Z ; UTIL_HudMessageAll
	add	esp, 8

; 314  : 	}
; 315  : 	else

	jmp	SHORT $LN1@Use
$LN3@Use:

; 316  : 	{
; 317  : 		if ( pActivator && pActivator->IsNetClient() )

	cmp	DWORD PTR _pActivator$[ebp], 0
	je	SHORT $LN1@Use
	mov	edx, DWORD PTR _pActivator$[ebp]
	mov	eax, DWORD PTR [edx]
	mov	ecx, DWORD PTR _pActivator$[ebp]
	mov	edx, DWORD PTR [eax+224]
	call	edx
	test	eax, eax
	je	SHORT $LN1@Use

; 318  : 		{
; 319  : 			UTIL_HudMessage( pActivator, m_textParms, MessageGet() );

	mov	ecx, DWORD PTR _this$[ebp]
	call	?MessageGet@CGameText@@QAEPBDXZ		; CGameText::MessageGet
	push	eax
	mov	eax, DWORD PTR _this$[ebp]
	add	eax, 1656				; 00000678H
	push	eax
	mov	ecx, DWORD PTR _pActivator$[ebp]
	push	ecx
	call	?UTIL_HudMessage@@YAXPAVCBaseEntity@@ABUhudtextparms_s@@PBD@Z ; UTIL_HudMessage
	add	esp, 12					; 0000000cH
$LN1@Use:

; 320  : 		}
; 321  : 	}
; 322  : }

	mov	esp, ebp
	pop	ebp
	ret	16					; 00000010H
?Use@CGameText@@UAEXPAVCBaseEntity@@0W4USE_TYPE@@M@Z ENDP ; CGameText::Use
_TEXT	ENDS
; Function compile flags: /Odtp
; File c:\users\user\downloads\xashxt_v0.81_rev.1_with_sources\xashxt_v0.81_rev.1_src\server\maprules.cpp
;	COMDAT ??__Egame_end@@YAXXZ
text$di	SEGMENT
??__Egame_end@@YAXXZ PROC				; `dynamic initializer for 'game_end'', COMDAT

; 192  : LINK_ENTITY_TO_CLASS( game_end, CGameEnd );

	push	ebp
	mov	ebp, esp
	push	OFFSET $SG75636
	mov	ecx, OFFSET ?game_end@@3V?$CEntityFactory@VCGameEnd@@@@A
	call	??0?$CEntityFactory@VCGameEnd@@@@QAE@PBD@Z ; CEntityFactory<CGameEnd>::CEntityFactory<CGameEnd>
	pop	ebp
	ret	0
??__Egame_end@@YAXXZ ENDP				; `dynamic initializer for 'game_end''
text$di	ENDS
; Function compile flags: /Odtp
; File c:\users\user\downloads\xashxt_v0.81_rev.1_with_sources\xashxt_v0.81_rev.1_src\server\util.h
;	COMDAT ?GetEntitySize@?$CEntityFactory@VCGameEnd@@@@UAEIXZ
_TEXT	SEGMENT
_this$ = -4						; size = 4
?GetEntitySize@?$CEntityFactory@VCGameEnd@@@@UAEIXZ PROC ; CEntityFactory<CGameEnd>::GetEntitySize, COMDAT
; _this$ = ecx

; 103  : 	{

	push	ebp
	mov	ebp, esp
	push	ecx
	mov	DWORD PTR _this$[ebp], ecx

; 104  : 		return sizeof(T);

	mov	eax, 1656				; 00000678H

; 105  : 	}

	mov	esp, ebp
	pop	ebp
	ret	0
?GetEntitySize@?$CEntityFactory@VCGameEnd@@@@UAEIXZ ENDP ; CEntityFactory<CGameEnd>::GetEntitySize
_TEXT	ENDS
; Function compile flags: /Odtp
; File c:\users\user\downloads\xashxt_v0.81_rev.1_with_sources\xashxt_v0.81_rev.1_src\server\util.h
;	COMDAT ?Destroy@?$CEntityFactory@VCGameEnd@@@@UAEXPAVCBaseEntity@@@Z
_TEXT	SEGMENT
_this$ = -4						; size = 4
_pEntity$ = 8						; size = 4
?Destroy@?$CEntityFactory@VCGameEnd@@@@UAEXPAVCBaseEntity@@@Z PROC ; CEntityFactory<CGameEnd>::Destroy, COMDAT
; _this$ = ecx

; 98   : 	{

	push	ebp
	mov	ebp, esp
	push	ecx
	mov	DWORD PTR _this$[ebp], ecx

; 99   : 		UTIL_Remove( pEntity );

	mov	eax, DWORD PTR _pEntity$[ebp]
	push	eax
	call	?UTIL_Remove@@YAXPAVCBaseEntity@@@Z	; UTIL_Remove
	add	esp, 4

; 100  : 	}

	mov	esp, ebp
	pop	ebp
	ret	4
?Destroy@?$CEntityFactory@VCGameEnd@@@@UAEXPAVCBaseEntity@@@Z ENDP ; CEntityFactory<CGameEnd>::Destroy
_TEXT	ENDS
; Function compile flags: /Odtp
; File c:\users\user\downloads\xashxt_v0.81_rev.1_with_sources\xashxt_v0.81_rev.1_src\server\util.h
;	COMDAT ?Create@?$CEntityFactory@VCGameEnd@@@@UAEPAVCBaseEntity@@PBDPAUentvars_s@@@Z
_TEXT	SEGMENT
_this$ = -8						; size = 4
_pEnt$ = -4						; size = 4
_pClassName$ = 8					; size = 4
_pev$ = 12						; size = 4
?Create@?$CEntityFactory@VCGameEnd@@@@UAEPAVCBaseEntity@@PBDPAUentvars_s@@@Z PROC ; CEntityFactory<CGameEnd>::Create, COMDAT
; _this$ = ecx

; 92   : 	{

	push	ebp
	mov	ebp, esp
	sub	esp, 8
	mov	DWORD PTR _this$[ebp], ecx

; 93   : 		T* pEnt = GetClassPtr((T*)pev, pClassName);

	mov	eax, DWORD PTR _pClassName$[ebp]
	push	eax
	mov	ecx, DWORD PTR _pev$[ebp]
	push	ecx
	call	??$GetClassPtr@VCGameEnd@@@@YAPAVCGameEnd@@PAV0@PBD@Z ; GetClassPtr<CGameEnd>
	add	esp, 8
	mov	DWORD PTR _pEnt$[ebp], eax

; 94   : 		return pEnt;

	mov	eax, DWORD PTR _pEnt$[ebp]

; 95   : 	}

	mov	esp, ebp
	pop	ebp
	ret	8
?Create@?$CEntityFactory@VCGameEnd@@@@UAEPAVCBaseEntity@@PBDPAUentvars_s@@@Z ENDP ; CEntityFactory<CGameEnd>::Create
_TEXT	ENDS
; Function compile flags: /Odtp
; File c:\users\user\downloads\xashxt_v0.81_rev.1_with_sources\xashxt_v0.81_rev.1_src\server\util.h
;	COMDAT ??0?$CEntityFactory@VCGameEnd@@@@QAE@PBD@Z
_TEXT	SEGMENT
tv76 = -8						; size = 4
_this$ = -4						; size = 4
_pClassName$ = 8					; size = 4
??0?$CEntityFactory@VCGameEnd@@@@QAE@PBD@Z PROC		; CEntityFactory<CGameEnd>::CEntityFactory<CGameEnd>, COMDAT
; _this$ = ecx

; 86   : 	CEntityFactory( const char *pClassName )

	push	ebp
	mov	ebp, esp
	sub	esp, 8
	mov	DWORD PTR _this$[ebp], ecx

; 87   : 	{

	mov	ecx, DWORD PTR _this$[ebp]
	call	??0IEntityFactory@@QAE@XZ
	mov	eax, DWORD PTR _this$[ebp]
	mov	DWORD PTR [eax], OFFSET ??_7?$CEntityFactory@VCGameEnd@@@@6B@

; 88   : 		EntityFactoryDictionary()->InstallFactory( this, pClassName );

	call	?EntityFactoryDictionary@@YAPAVIEntityFactoryDictionary@@XZ ; EntityFactoryDictionary
	mov	DWORD PTR tv76[ebp], eax
	mov	ecx, DWORD PTR _pClassName$[ebp]
	push	ecx
	mov	edx, DWORD PTR _this$[ebp]
	push	edx
	mov	eax, DWORD PTR tv76[ebp]
	mov	edx, DWORD PTR [eax]
	mov	ecx, DWORD PTR tv76[ebp]
	mov	eax, DWORD PTR [edx]
	call	eax

; 89   : 	}

	mov	eax, DWORD PTR _this$[ebp]
	mov	esp, ebp
	pop	ebp
	ret	4
??0?$CEntityFactory@VCGameEnd@@@@QAE@PBD@Z ENDP		; CEntityFactory<CGameEnd>::CEntityFactory<CGameEnd>
_TEXT	ENDS
; Function compile flags: /Odtp
;	COMDAT ??0CGameEnd@@QAE@XZ
_TEXT	SEGMENT
_this$ = -4						; size = 4
??0CGameEnd@@QAE@XZ PROC				; CGameEnd::CGameEnd, COMDAT
; _this$ = ecx
	push	ebp
	mov	ebp, esp
	push	ecx
	mov	DWORD PTR _this$[ebp], ecx
	mov	ecx, DWORD PTR _this$[ebp]
	call	??0CRulePointEntity@@QAE@XZ
	mov	eax, DWORD PTR _this$[ebp]
	mov	DWORD PTR [eax], OFFSET ??_7CGameEnd@@6B@
	mov	eax, DWORD PTR _this$[ebp]
	mov	esp, ebp
	pop	ebp
	ret	0
??0CGameEnd@@QAE@XZ ENDP				; CGameEnd::CGameEnd
_TEXT	ENDS
; Function compile flags: /Odtp
; File c:\users\user\downloads\xashxt_v0.81_rev.1_with_sources\xashxt_v0.81_rev.1_src\server\maprules.cpp
_TEXT	SEGMENT
_this$ = -4						; size = 4
_pActivator$ = 8					; size = 4
_pCaller$ = 12						; size = 4
_useType$ = 16						; size = 4
_value$ = 20						; size = 4
?Use@CGameEnd@@UAEXPAVCBaseEntity@@0W4USE_TYPE@@M@Z PROC ; CGameEnd::Use
; _this$ = ecx

; 196  : {

	push	ebp
	mov	ebp, esp
	push	ecx
	mov	DWORD PTR _this$[ebp], ecx

; 197  : 	if ( !CanFireForActivator( pActivator ) )

	mov	eax, DWORD PTR _pActivator$[ebp]
	push	eax
	mov	ecx, DWORD PTR _this$[ebp]
	call	?CanFireForActivator@CRuleEntity@@IAEHPAVCBaseEntity@@@Z ; CRuleEntity::CanFireForActivator
	test	eax, eax
	jne	SHORT $LN2@Use

; 198  : 		return;

	jmp	SHORT $LN1@Use
$LN2@Use:

; 199  : 
; 200  : 	g_pGameRules->EndMultiplayerGame();

	mov	ecx, DWORD PTR ?g_pGameRules@@3PAVCGameRules@@A ; g_pGameRules
	mov	edx, DWORD PTR [ecx]
	mov	ecx, DWORD PTR ?g_pGameRules@@3PAVCGameRules@@A ; g_pGameRules
	mov	eax, DWORD PTR [edx+236]
	call	eax
$LN1@Use:

; 201  : }

	mov	esp, ebp
	pop	ebp
	ret	16					; 00000010H
?Use@CGameEnd@@UAEXPAVCBaseEntity@@0W4USE_TYPE@@M@Z ENDP ; CGameEnd::Use
_TEXT	ENDS
; Function compile flags: /Odtp
; File c:\users\user\downloads\xashxt_v0.81_rev.1_with_sources\xashxt_v0.81_rev.1_src\server\maprules.cpp
;	COMDAT ??__Egame_score@@YAXXZ
text$di	SEGMENT
??__Egame_score@@YAXXZ PROC				; `dynamic initializer for 'game_score'', COMDAT

; 144  : LINK_ENTITY_TO_CLASS( game_score, CGameScore );

	push	ebp
	mov	ebp, esp
	push	OFFSET $SG75563
	mov	ecx, OFFSET ?game_score@@3V?$CEntityFactory@VCGameScore@@@@A
	call	??0?$CEntityFactory@VCGameScore@@@@QAE@PBD@Z ; CEntityFactory<CGameScore>::CEntityFactory<CGameScore>
	pop	ebp
	ret	0
??__Egame_score@@YAXXZ ENDP				; `dynamic initializer for 'game_score''
text$di	ENDS
; Function compile flags: /Odtp
; File c:\users\user\downloads\xashxt_v0.81_rev.1_with_sources\xashxt_v0.81_rev.1_src\server\util.h
;	COMDAT ?GetEntitySize@?$CEntityFactory@VCGameScore@@@@UAEIXZ
_TEXT	SEGMENT
_this$ = -4						; size = 4
?GetEntitySize@?$CEntityFactory@VCGameScore@@@@UAEIXZ PROC ; CEntityFactory<CGameScore>::GetEntitySize, COMDAT
; _this$ = ecx

; 103  : 	{

	push	ebp
	mov	ebp, esp
	push	ecx
	mov	DWORD PTR _this$[ebp], ecx

; 104  : 		return sizeof(T);

	mov	eax, 1656				; 00000678H

; 105  : 	}

	mov	esp, ebp
	pop	ebp
	ret	0
?GetEntitySize@?$CEntityFactory@VCGameScore@@@@UAEIXZ ENDP ; CEntityFactory<CGameScore>::GetEntitySize
_TEXT	ENDS
; Function compile flags: /Odtp
; File c:\users\user\downloads\xashxt_v0.81_rev.1_with_sources\xashxt_v0.81_rev.1_src\server\util.h
;	COMDAT ?Destroy@?$CEntityFactory@VCGameScore@@@@UAEXPAVCBaseEntity@@@Z
_TEXT	SEGMENT
_this$ = -4						; size = 4
_pEntity$ = 8						; size = 4
?Destroy@?$CEntityFactory@VCGameScore@@@@UAEXPAVCBaseEntity@@@Z PROC ; CEntityFactory<CGameScore>::Destroy, COMDAT
; _this$ = ecx

; 98   : 	{

	push	ebp
	mov	ebp, esp
	push	ecx
	mov	DWORD PTR _this$[ebp], ecx

; 99   : 		UTIL_Remove( pEntity );

	mov	eax, DWORD PTR _pEntity$[ebp]
	push	eax
	call	?UTIL_Remove@@YAXPAVCBaseEntity@@@Z	; UTIL_Remove
	add	esp, 4

; 100  : 	}

	mov	esp, ebp
	pop	ebp
	ret	4
?Destroy@?$CEntityFactory@VCGameScore@@@@UAEXPAVCBaseEntity@@@Z ENDP ; CEntityFactory<CGameScore>::Destroy
_TEXT	ENDS
; Function compile flags: /Odtp
; File c:\users\user\downloads\xashxt_v0.81_rev.1_with_sources\xashxt_v0.81_rev.1_src\server\util.h
;	COMDAT ?Create@?$CEntityFactory@VCGameScore@@@@UAEPAVCBaseEntity@@PBDPAUentvars_s@@@Z
_TEXT	SEGMENT
_this$ = -8						; size = 4
_pEnt$ = -4						; size = 4
_pClassName$ = 8					; size = 4
_pev$ = 12						; size = 4
?Create@?$CEntityFactory@VCGameScore@@@@UAEPAVCBaseEntity@@PBDPAUentvars_s@@@Z PROC ; CEntityFactory<CGameScore>::Create, COMDAT
; _this$ = ecx

; 92   : 	{

	push	ebp
	mov	ebp, esp
	sub	esp, 8
	mov	DWORD PTR _this$[ebp], ecx

; 93   : 		T* pEnt = GetClassPtr((T*)pev, pClassName);

	mov	eax, DWORD PTR _pClassName$[ebp]
	push	eax
	mov	ecx, DWORD PTR _pev$[ebp]
	push	ecx
	call	??$GetClassPtr@VCGameScore@@@@YAPAVCGameScore@@PAV0@PBD@Z ; GetClassPtr<CGameScore>
	add	esp, 8
	mov	DWORD PTR _pEnt$[ebp], eax

; 94   : 		return pEnt;

	mov	eax, DWORD PTR _pEnt$[ebp]

; 95   : 	}

	mov	esp, ebp
	pop	ebp
	ret	8
?Create@?$CEntityFactory@VCGameScore@@@@UAEPAVCBaseEntity@@PBDPAUentvars_s@@@Z ENDP ; CEntityFactory<CGameScore>::Create
_TEXT	ENDS
; Function compile flags: /Odtp
; File c:\users\user\downloads\xashxt_v0.81_rev.1_with_sources\xashxt_v0.81_rev.1_src\server\util.h
;	COMDAT ??0?$CEntityFactory@VCGameScore@@@@QAE@PBD@Z
_TEXT	SEGMENT
tv76 = -8						; size = 4
_this$ = -4						; size = 4
_pClassName$ = 8					; size = 4
??0?$CEntityFactory@VCGameScore@@@@QAE@PBD@Z PROC	; CEntityFactory<CGameScore>::CEntityFactory<CGameScore>, COMDAT
; _this$ = ecx

; 86   : 	CEntityFactory( const char *pClassName )

	push	ebp
	mov	ebp, esp
	sub	esp, 8
	mov	DWORD PTR _this$[ebp], ecx

; 87   : 	{

	mov	ecx, DWORD PTR _this$[ebp]
	call	??0IEntityFactory@@QAE@XZ
	mov	eax, DWORD PTR _this$[ebp]
	mov	DWORD PTR [eax], OFFSET ??_7?$CEntityFactory@VCGameScore@@@@6B@

; 88   : 		EntityFactoryDictionary()->InstallFactory( this, pClassName );

	call	?EntityFactoryDictionary@@YAPAVIEntityFactoryDictionary@@XZ ; EntityFactoryDictionary
	mov	DWORD PTR tv76[ebp], eax
	mov	ecx, DWORD PTR _pClassName$[ebp]
	push	ecx
	mov	edx, DWORD PTR _this$[ebp]
	push	edx
	mov	eax, DWORD PTR tv76[ebp]
	mov	edx, DWORD PTR [eax]
	mov	ecx, DWORD PTR tv76[ebp]
	mov	eax, DWORD PTR [edx]
	call	eax

; 89   : 	}

	mov	eax, DWORD PTR _this$[ebp]
	mov	esp, ebp
	pop	ebp
	ret	4
??0?$CEntityFactory@VCGameScore@@@@QAE@PBD@Z ENDP	; CEntityFactory<CGameScore>::CEntityFactory<CGameScore>
_TEXT	ENDS
; Function compile flags: /Odtp
;	COMDAT ??0CGameScore@@QAE@XZ
_TEXT	SEGMENT
_this$ = -4						; size = 4
??0CGameScore@@QAE@XZ PROC				; CGameScore::CGameScore, COMDAT
; _this$ = ecx
	push	ebp
	mov	ebp, esp
	push	ecx
	mov	DWORD PTR _this$[ebp], ecx
	mov	ecx, DWORD PTR _this$[ebp]
	call	??0CRulePointEntity@@QAE@XZ
	mov	eax, DWORD PTR _this$[ebp]
	mov	DWORD PTR [eax], OFFSET ??_7CGameScore@@6B@
	mov	eax, DWORD PTR _this$[ebp]
	mov	esp, ebp
	pop	ebp
	ret	0
??0CGameScore@@QAE@XZ ENDP				; CGameScore::CGameScore
_TEXT	ENDS
; Function compile flags: /Odtp
; File c:\users\user\downloads\xashxt_v0.81_rev.1_with_sources\xashxt_v0.81_rev.1_src\server\maprules.cpp
;	COMDAT ?SetPoints@CGameScore@@QAEXH@Z
_TEXT	SEGMENT
_this$ = -4						; size = 4
_points$ = 8						; size = 4
?SetPoints@CGameScore@@QAEXH@Z PROC			; CGameScore::SetPoints, COMDAT
; _this$ = ecx

; 141  : 	inline	void	SetPoints( int points ) { pev->frags = points; }

	push	ebp
	mov	ebp, esp
	push	ecx
	mov	DWORD PTR _this$[ebp], ecx
	cvtsi2ss xmm0, DWORD PTR _points$[ebp]
	mov	eax, DWORD PTR _this$[ebp]
	mov	ecx, DWORD PTR [eax+4]
	movss	DWORD PTR [ecx+356], xmm0
	mov	esp, ebp
	pop	ebp
	ret	4
?SetPoints@CGameScore@@QAEXH@Z ENDP			; CGameScore::SetPoints
_TEXT	ENDS
; Function compile flags: /Odtp
; File c:\users\user\downloads\xashxt_v0.81_rev.1_with_sources\xashxt_v0.81_rev.1_src\server\maprules.cpp
;	COMDAT ?AwardToTeam@CGameScore@@QAEHXZ
_TEXT	SEGMENT
_this$ = -4						; size = 4
?AwardToTeam@CGameScore@@QAEHXZ PROC			; CGameScore::AwardToTeam, COMDAT
; _this$ = ecx

; 139  : 	inline	BOOL	AwardToTeam( void ) { return pev->spawnflags & SF_SCORE_TEAM; }

	push	ebp
	mov	ebp, esp
	push	ecx
	mov	DWORD PTR _this$[ebp], ecx
	mov	eax, DWORD PTR _this$[ebp]
	mov	ecx, DWORD PTR [eax+4]
	mov	eax, DWORD PTR [ecx+416]
	and	eax, 2
	mov	esp, ebp
	pop	ebp
	ret	0
?AwardToTeam@CGameScore@@QAEHXZ ENDP			; CGameScore::AwardToTeam
_TEXT	ENDS
; Function compile flags: /Odtp
; File c:\users\user\downloads\xashxt_v0.81_rev.1_with_sources\xashxt_v0.81_rev.1_src\server\maprules.cpp
;	COMDAT ?AllowNegativeScore@CGameScore@@QAEHXZ
_TEXT	SEGMENT
_this$ = -4						; size = 4
?AllowNegativeScore@CGameScore@@QAEHXZ PROC		; CGameScore::AllowNegativeScore, COMDAT
; _this$ = ecx

; 138  : 	inline	BOOL	AllowNegativeScore( void ) { return pev->spawnflags & SF_SCORE_NEGATIVE; }

	push	ebp
	mov	ebp, esp
	push	ecx
	mov	DWORD PTR _this$[ebp], ecx
	mov	eax, DWORD PTR _this$[ebp]
	mov	ecx, DWORD PTR [eax+4]
	mov	eax, DWORD PTR [ecx+416]
	and	eax, 1
	mov	esp, ebp
	pop	ebp
	ret	0
?AllowNegativeScore@CGameScore@@QAEHXZ ENDP		; CGameScore::AllowNegativeScore
_TEXT	ENDS
; Function compile flags: /Odtp
; File c:\users\user\downloads\xashxt_v0.81_rev.1_with_sources\xashxt_v0.81_rev.1_src\server\maprules.cpp
;	COMDAT ?Points@CGameScore@@QAEHXZ
_TEXT	SEGMENT
_this$ = -4						; size = 4
?Points@CGameScore@@QAEHXZ PROC				; CGameScore::Points, COMDAT
; _this$ = ecx

; 137  : 	inline	int	Points( void ) { return pev->frags; }

	push	ebp
	mov	ebp, esp
	push	ecx
	mov	DWORD PTR _this$[ebp], ecx
	mov	eax, DWORD PTR _this$[ebp]
	mov	ecx, DWORD PTR [eax+4]
	cvttss2si eax, DWORD PTR [ecx+356]
	mov	esp, ebp
	pop	ebp
	ret	0
?Points@CGameScore@@QAEHXZ ENDP				; CGameScore::Points
_TEXT	ENDS
; Function compile flags: /Odtp
; File c:\users\user\downloads\xashxt_v0.81_rev.1_with_sources\xashxt_v0.81_rev.1_src\server\maprules.cpp
_TEXT	SEGMENT
_this$ = -4						; size = 4
_pkvd$ = 8						; size = 4
?KeyValue@CGameScore@@UAEXPAUKeyValueData_s@@@Z PROC	; CGameScore::KeyValue
; _this$ = ecx

; 153  : {

	push	ebp
	mov	ebp, esp
	push	ecx
	mov	DWORD PTR _this$[ebp], ecx

; 154  : 	if (FStrEq(pkvd->szKeyName, "points"))

	push	OFFSET $SG75575
	mov	eax, DWORD PTR _pkvd$[ebp]
	mov	ecx, DWORD PTR [eax+4]
	push	ecx
	call	?FStrEq@@YAHPBD0@Z			; FStrEq
	add	esp, 8
	test	eax, eax
	je	SHORT $LN2@KeyValue

; 155  : 	{
; 156  : 		SetPoints( atoi(pkvd->szValue) );

	mov	edx, DWORD PTR _pkvd$[ebp]
	mov	eax, DWORD PTR [edx+8]
	push	eax
	call	_atoi
	add	esp, 4
	push	eax
	mov	ecx, DWORD PTR _this$[ebp]
	call	?SetPoints@CGameScore@@QAEXH@Z		; CGameScore::SetPoints

; 157  : 		pkvd->fHandled = TRUE;

	mov	ecx, DWORD PTR _pkvd$[ebp]
	mov	DWORD PTR [ecx+12], 1

; 158  : 	}
; 159  : 	else

	jmp	SHORT $LN1@KeyValue
$LN2@KeyValue:

; 160  : 		CRulePointEntity::KeyValue( pkvd );

	mov	edx, DWORD PTR _pkvd$[ebp]
	push	edx
	mov	ecx, DWORD PTR _this$[ebp]
	call	?KeyValue@CRuleEntity@@UAEXPAUKeyValueData_s@@@Z ; CRuleEntity::KeyValue
$LN1@KeyValue:

; 161  : }

	mov	esp, ebp
	pop	ebp
	ret	4
?KeyValue@CGameScore@@UAEXPAUKeyValueData_s@@@Z ENDP	; CGameScore::KeyValue
_TEXT	ENDS
; Function compile flags: /Odtp
; File c:\users\user\downloads\xashxt_v0.81_rev.1_with_sources\xashxt_v0.81_rev.1_src\server\maprules.cpp
_TEXT	SEGMENT
_this$ = -4						; size = 4
_pActivator$ = 8					; size = 4
_pCaller$ = 12						; size = 4
_useType$ = 16						; size = 4
_value$ = 20						; size = 4
?Use@CGameScore@@UAEXPAVCBaseEntity@@0W4USE_TYPE@@M@Z PROC ; CGameScore::Use
; _this$ = ecx

; 164  : {

	push	ebp
	mov	ebp, esp
	push	ecx
	mov	DWORD PTR _this$[ebp], ecx

; 165  : 	if ( !CanFireForActivator( pActivator ) )

	mov	eax, DWORD PTR _pActivator$[ebp]
	push	eax
	mov	ecx, DWORD PTR _this$[ebp]
	call	?CanFireForActivator@CRuleEntity@@IAEHPAVCBaseEntity@@@Z ; CRuleEntity::CanFireForActivator
	test	eax, eax
	jne	SHORT $LN2@Use

; 166  : 		return;

	jmp	SHORT $LN1@Use
$LN2@Use:

; 167  : 
; 168  : 	// Only players can use this
; 169  : 	if ( pActivator->IsPlayer() )

	mov	ecx, DWORD PTR _pActivator$[ebp]
	mov	edx, DWORD PTR [ecx]
	mov	ecx, DWORD PTR _pActivator$[ebp]
	mov	eax, DWORD PTR [edx+220]
	call	eax
	test	eax, eax
	je	SHORT $LN1@Use

; 170  : 	{
; 171  : 		if ( AwardToTeam() )

	mov	ecx, DWORD PTR _this$[ebp]
	call	?AwardToTeam@CGameScore@@QAEHXZ		; CGameScore::AwardToTeam
	test	eax, eax
	je	SHORT $LN4@Use

; 172  : 		{
; 173  : 			pActivator->AddPointsToTeam( Points(), AllowNegativeScore() );

	mov	ecx, DWORD PTR _this$[ebp]
	call	?AllowNegativeScore@CGameScore@@QAEHXZ	; CGameScore::AllowNegativeScore
	push	eax
	mov	ecx, DWORD PTR _this$[ebp]
	call	?Points@CGameScore@@QAEHXZ		; CGameScore::Points
	push	eax
	mov	ecx, DWORD PTR _pActivator$[ebp]
	mov	edx, DWORD PTR [ecx]
	mov	ecx, DWORD PTR _pActivator$[ebp]
	mov	eax, DWORD PTR [edx+140]
	call	eax

; 174  : 		}
; 175  : 		else

	jmp	SHORT $LN1@Use
$LN4@Use:

; 176  : 		{
; 177  : 			pActivator->AddPoints( Points(), AllowNegativeScore() );

	mov	ecx, DWORD PTR _this$[ebp]
	call	?AllowNegativeScore@CGameScore@@QAEHXZ	; CGameScore::AllowNegativeScore
	push	eax
	mov	ecx, DWORD PTR _this$[ebp]
	call	?Points@CGameScore@@QAEHXZ		; CGameScore::Points
	push	eax
	mov	ecx, DWORD PTR _pActivator$[ebp]
	mov	edx, DWORD PTR [ecx]
	mov	ecx, DWORD PTR _pActivator$[ebp]
	mov	eax, DWORD PTR [edx+136]
	call	eax
$LN1@Use:

; 178  : 		}
; 179  : 	}
; 180  : }

	mov	esp, ebp
	pop	ebp
	ret	16					; 00000010H
?Use@CGameScore@@UAEXPAVCBaseEntity@@0W4USE_TYPE@@M@Z ENDP ; CGameScore::Use
_TEXT	ENDS
; Function compile flags: /Odtp
; File c:\users\user\downloads\xashxt_v0.81_rev.1_with_sources\xashxt_v0.81_rev.1_src\server\maprules.cpp
_TEXT	SEGMENT
_this$ = -4						; size = 4
?Spawn@CGameScore@@UAEXXZ PROC				; CGameScore::Spawn
; _this$ = ecx

; 148  : {

	push	ebp
	mov	ebp, esp
	push	ecx
	mov	DWORD PTR _this$[ebp], ecx

; 149  : 	CRulePointEntity::Spawn();

	mov	ecx, DWORD PTR _this$[ebp]
	call	?Spawn@CRulePointEntity@@UAEXXZ		; CRulePointEntity::Spawn

; 150  : }

	mov	esp, ebp
	pop	ebp
	ret	0
?Spawn@CGameScore@@UAEXXZ ENDP				; CGameScore::Spawn
_TEXT	ENDS
; Function compile flags: /Odtp
;	COMDAT ??0CRuleBrushEntity@@QAE@XZ
_TEXT	SEGMENT
_this$ = -4						; size = 4
??0CRuleBrushEntity@@QAE@XZ PROC			; CRuleBrushEntity::CRuleBrushEntity, COMDAT
; _this$ = ecx
	push	ebp
	mov	ebp, esp
	push	ecx
	mov	DWORD PTR _this$[ebp], ecx
	mov	ecx, DWORD PTR _this$[ebp]
	call	??0CRuleEntity@@QAE@XZ
	mov	eax, DWORD PTR _this$[ebp]
	mov	DWORD PTR [eax], OFFSET ??_7CRuleBrushEntity@@6B@
	mov	eax, DWORD PTR _this$[ebp]
	mov	esp, ebp
	pop	ebp
	ret	0
??0CRuleBrushEntity@@QAE@XZ ENDP			; CRuleBrushEntity::CRuleBrushEntity
_TEXT	ENDS
; Function compile flags: /Odtp
; File c:\users\user\downloads\xashxt_v0.81_rev.1_with_sources\xashxt_v0.81_rev.1_src\server\maprules.cpp
_TEXT	SEGMENT
_this$ = -4						; size = 4
?Spawn@CRuleBrushEntity@@UAEXXZ PROC			; CRuleBrushEntity::Spawn
; _this$ = ecx

; 115  : {

	push	ebp
	mov	ebp, esp
	push	ecx
	mov	DWORD PTR _this$[ebp], ecx

; 116  : 	SET_MODEL( edict(), STRING(pev->model) );

	mov	eax, DWORD PTR _this$[ebp]
	mov	ecx, DWORD PTR [eax+4]
	mov	edx, DWORD PTR [ecx+184]
	push	edx
	call	DWORD PTR ?g_engfuncs@@3Uenginefuncs_s@@A+264
	add	esp, 4
	push	eax
	mov	ecx, DWORD PTR _this$[ebp]
	call	?edict@CBaseEntity@@QAEPAUedict_s@@XZ	; CBaseEntity::edict
	push	eax
	call	DWORD PTR ?g_engfuncs@@3Uenginefuncs_s@@A+8
	add	esp, 8

; 117  : 	BaseClass :: Spawn();

	mov	ecx, DWORD PTR _this$[ebp]
	call	?Spawn@CRuleEntity@@UAEXXZ		; CRuleEntity::Spawn

; 118  : }

	mov	esp, ebp
	pop	ebp
	ret	0
?Spawn@CRuleBrushEntity@@UAEXXZ ENDP			; CRuleBrushEntity::Spawn
_TEXT	ENDS
; Function compile flags: /Odtp
;	COMDAT ??0CRulePointEntity@@QAE@XZ
_TEXT	SEGMENT
_this$ = -4						; size = 4
??0CRulePointEntity@@QAE@XZ PROC			; CRulePointEntity::CRulePointEntity, COMDAT
; _this$ = ecx
	push	ebp
	mov	ebp, esp
	push	ecx
	mov	DWORD PTR _this$[ebp], ecx
	mov	ecx, DWORD PTR _this$[ebp]
	call	??0CRuleEntity@@QAE@XZ
	mov	eax, DWORD PTR _this$[ebp]
	mov	DWORD PTR [eax], OFFSET ??_7CRulePointEntity@@6B@
	mov	eax, DWORD PTR _this$[ebp]
	mov	esp, ebp
	pop	ebp
	ret	0
??0CRulePointEntity@@QAE@XZ ENDP			; CRulePointEntity::CRulePointEntity
_TEXT	ENDS
; Function compile flags: /Odtp
; File c:\users\user\downloads\xashxt_v0.81_rev.1_with_sources\xashxt_v0.81_rev.1_src\server\maprules.cpp
_TEXT	SEGMENT
_this$ = -4						; size = 4
?Spawn@CRulePointEntity@@UAEXXZ PROC			; CRulePointEntity::Spawn
; _this$ = ecx

; 97   : {

	push	ebp
	mov	ebp, esp
	push	ecx
	mov	DWORD PTR _this$[ebp], ecx

; 98   : 	CRuleEntity::Spawn();

	mov	ecx, DWORD PTR _this$[ebp]
	call	?Spawn@CRuleEntity@@UAEXXZ		; CRuleEntity::Spawn

; 99   : 	pev->frame = 0;

	mov	eax, DWORD PTR _this$[ebp]
	mov	ecx, DWORD PTR [eax+4]
	xorps	xmm0, xmm0
	movss	DWORD PTR [ecx+304], xmm0

; 100  : 	pev->model = 0;

	mov	edx, DWORD PTR _this$[ebp]
	mov	eax, DWORD PTR [edx+4]
	mov	DWORD PTR [eax+184], 0

; 101  : }

	mov	esp, ebp
	pop	ebp
	ret	0
?Spawn@CRulePointEntity@@UAEXXZ ENDP			; CRulePointEntity::Spawn
_TEXT	ENDS
; Function compile flags: /Odtp
;	COMDAT ??__FnameHolder@?1???$DataMapInit@VCRuleEntity@@@@YAPAUdatamap_s@@PAVCRuleEntity@@@Z@YAXXZ
text$yd	SEGMENT
??__FnameHolder@?1???$DataMapInit@VCRuleEntity@@@@YAPAUdatamap_s@@PAVCRuleEntity@@@Z@YAXXZ PROC ; `DataMapInit<CRuleEntity>'::`2'::`dynamic atexit destructor for 'nameHolder'', COMDAT
	push	ebp
	mov	ebp, esp
	mov	ecx, OFFSET ?nameHolder@?1???$DataMapInit@VCRuleEntity@@@@YAPAUdatamap_s@@PAVCRuleEntity@@@Z@4VCDatadescGeneratedNameHolder@@A
	call	??1CDatadescGeneratedNameHolder@@QAE@XZ	; CDatadescGeneratedNameHolder::~CDatadescGeneratedNameHolder
	pop	ebp
	ret	0
??__FnameHolder@?1???$DataMapInit@VCRuleEntity@@@@YAPAUdatamap_s@@PAVCRuleEntity@@@Z@YAXXZ ENDP ; `DataMapInit<CRuleEntity>'::`2'::`dynamic atexit destructor for 'nameHolder''
text$yd	ENDS
; Function compile flags: /Odtp
; File c:\users\user\downloads\xashxt_v0.81_rev.1_with_sources\xashxt_v0.81_rev.1_src\server\maprules.cpp
;	COMDAT ??__Eg_DataMapHolder@CRuleEntity_DataDescInit@@YAXXZ
text$di	SEGMENT
??__Eg_DataMapHolder@CRuleEntity_DataDescInit@@YAXXZ PROC ; CRuleEntity_DataDescInit::`dynamic initializer for 'g_DataMapHolder'', COMDAT

; 50   : BEGIN_DATADESC( CRuleEntity )

	push	ebp
	mov	ebp, esp
	push	0
	call	??$DataMapInit@VCRuleEntity@@@@YAPAUdatamap_s@@PAVCRuleEntity@@@Z ; DataMapInit<CRuleEntity>
	add	esp, 4
	mov	DWORD PTR ?g_DataMapHolder@CRuleEntity_DataDescInit@@3PAUdatamap_s@@A, eax ; CRuleEntity_DataDescInit::g_DataMapHolder
	pop	ebp
	ret	0
??__Eg_DataMapHolder@CRuleEntity_DataDescInit@@YAXXZ ENDP ; CRuleEntity_DataDescInit::`dynamic initializer for 'g_DataMapHolder''
text$di	ENDS
; Function compile flags: /Odtp
; File c:\users\user\downloads\xashxt_v0.81_rev.1_with_sources\xashxt_v0.81_rev.1_src\server\maprules.cpp
_TEXT	SEGMENT
__$EHRec$ = -12						; size = 12
___formal$ = 8						; size = 4
??$DataMapInit@VCRuleEntity@@@@YAPAUdatamap_s@@PAVCRuleEntity@@@Z PROC ; DataMapInit<CRuleEntity>

; 50   : BEGIN_DATADESC( CRuleEntity )

	push	ebp
	mov	ebp, esp
	push	-1
	push	__ehhandler$??$DataMapInit@VCRuleEntity@@@@YAPAUdatamap_s@@PAVCRuleEntity@@@Z
	mov	eax, DWORD PTR fs:0
	push	eax
	mov	eax, DWORD PTR ___security_cookie
	xor	eax, ebp
	push	eax
	lea	eax, DWORD PTR __$EHRec$[ebp]
	mov	DWORD PTR fs:0, eax
	mov	eax, DWORD PTR __tls_index
	mov	ecx, DWORD PTR fs:__tls_array
	mov	edx, DWORD PTR [ecx+eax*4]
	mov	eax, DWORD PTR ?$TSS0@?1???$DataMapInit@VCRuleEntity@@@@YAPAUdatamap_s@@PAVCRuleEntity@@@Z@4HA
	cmp	eax, DWORD PTR __Init_thread_epoch[edx]
	jle	SHORT $LN2@DataMapIni
	push	OFFSET ?$TSS0@?1???$DataMapInit@VCRuleEntity@@@@YAPAUdatamap_s@@PAVCRuleEntity@@@Z@4HA
	call	__Init_thread_header
	add	esp, 4
	cmp	DWORD PTR ?$TSS0@?1???$DataMapInit@VCRuleEntity@@@@YAPAUdatamap_s@@PAVCRuleEntity@@@Z@4HA, -1
	jne	SHORT $LN2@DataMapIni
	mov	DWORD PTR __$EHRec$[ebp+8], 0
	push	OFFSET $SG75420
	mov	ecx, OFFSET ?nameHolder@?1???$DataMapInit@VCRuleEntity@@@@YAPAUdatamap_s@@PAVCRuleEntity@@@Z@4VCDatadescGeneratedNameHolder@@A
	call	??0CDatadescGeneratedNameHolder@@QAE@PBD@Z ; CDatadescGeneratedNameHolder::CDatadescGeneratedNameHolder
	push	OFFSET ??__FnameHolder@?1???$DataMapInit@VCRuleEntity@@@@YAPAUdatamap_s@@PAVCRuleEntity@@@Z@YAXXZ ; `DataMapInit<CRuleEntity>'::`2'::`dynamic atexit destructor for 'nameHolder''
	call	_atexit
	add	esp, 4
	mov	DWORD PTR __$EHRec$[ebp+8], -1
	push	OFFSET ?$TSS0@?1???$DataMapInit@VCRuleEntity@@@@YAPAUdatamap_s@@PAVCRuleEntity@@@Z@4HA
	call	__Init_thread_footer
	add	esp, 4
$LN2@DataMapIni:
	call	?GetBaseMap@CRuleEntity@@SAPAUdatamap_s@@XZ ; CRuleEntity::GetBaseMap
	mov	DWORD PTR ?m_DataMap@CRuleEntity@@2Udatamap_s@@A+12, eax

; 51   : 	DEFINE_KEYFIELD( m_iszMaster, FIELD_STRING, "master" ),
; 52   : END_DATADESC()

	mov	ecx, 1
	test	ecx, ecx
	je	SHORT $LN3@DataMapIni
	mov	DWORD PTR ?m_DataMap@CRuleEntity@@2Udatamap_s@@A+4, 1
	mov	edx, 24					; 00000018H
	shl	edx, 0
	add	edx, OFFSET ?dataDesc@?1???$DataMapInit@VCRuleEntity@@@@YAPAUdatamap_s@@PAVCRuleEntity@@@Z@4PAUtypedescription_s@@A
	mov	DWORD PTR ?m_DataMap@CRuleEntity@@2Udatamap_s@@A, edx
	jmp	SHORT $LN4@DataMapIni
$LN3@DataMapIni:
	mov	DWORD PTR ?m_DataMap@CRuleEntity@@2Udatamap_s@@A+4, 1
	mov	DWORD PTR ?m_DataMap@CRuleEntity@@2Udatamap_s@@A, OFFSET ?dataDesc@?1???$DataMapInit@VCRuleEntity@@@@YAPAUdatamap_s@@PAVCRuleEntity@@@Z@4PAUtypedescription_s@@A
$LN4@DataMapIni:
	mov	eax, OFFSET ?m_DataMap@CRuleEntity@@2Udatamap_s@@A ; CRuleEntity::m_DataMap
	mov	ecx, DWORD PTR __$EHRec$[ebp]
	mov	DWORD PTR fs:0, ecx
	pop	ecx
	mov	esp, ebp
	pop	ebp
	ret	0
_TEXT	ENDS
text$x	SEGMENT
__unwindfunclet$??$DataMapInit@VCRuleEntity@@@@YAPAUdatamap_s@@PAVCRuleEntity@@@Z$0:
	push	OFFSET ?$TSS0@?1???$DataMapInit@VCRuleEntity@@@@YAPAUdatamap_s@@PAVCRuleEntity@@@Z@4HA
	call	__Init_thread_abort
	pop	ecx
	ret	0
__ehhandler$??$DataMapInit@VCRuleEntity@@@@YAPAUdatamap_s@@PAVCRuleEntity@@@Z:
	mov	edx, DWORD PTR [esp+8]
	lea	eax, DWORD PTR [edx+12]
	mov	ecx, DWORD PTR [edx-4]
	xor	ecx, eax
	call	@__security_check_cookie@4
	mov	eax, OFFSET __ehfuncinfo$??$DataMapInit@VCRuleEntity@@@@YAPAUdatamap_s@@PAVCRuleEntity@@@Z
	jmp	___CxxFrameHandler3
text$x	ENDS
??$DataMapInit@VCRuleEntity@@@@YAPAUdatamap_s@@PAVCRuleEntity@@@Z ENDP ; DataMapInit<CRuleEntity>
; Function compile flags: /Odtp
; File c:\users\user\downloads\xashxt_v0.81_rev.1_with_sources\xashxt_v0.81_rev.1_src\common\datamap.h
;	COMDAT ??$DataMapAccess@VCBaseEntity@@@@YAXPAVCBaseEntity@@PAPAUdatamap_s@@@Z
_TEXT	SEGMENT
_ignored$ = 8						; size = 4
_p$ = 12						; size = 4
??$DataMapAccess@VCBaseEntity@@@@YAXPAVCBaseEntity@@PAPAUdatamap_s@@@Z PROC ; DataMapAccess<CBaseEntity>, COMDAT

; 182  : {

	push	ebp
	mov	ebp, esp

; 183  : 	*p = &T::m_DataMap;

	mov	eax, DWORD PTR _p$[ebp]
	mov	DWORD PTR [eax], OFFSET ?m_DataMap@CBaseEntity@@2Udatamap_s@@A ; CBaseEntity::m_DataMap

; 184  : }

	pop	ebp
	ret	0
??$DataMapAccess@VCBaseEntity@@@@YAXPAVCBaseEntity@@PAPAUdatamap_s@@@Z ENDP ; DataMapAccess<CBaseEntity>
_TEXT	ENDS
; Function compile flags: /Odtp
;	COMDAT ??0CRuleEntity@@QAE@XZ
_TEXT	SEGMENT
_this$ = -4						; size = 4
??0CRuleEntity@@QAE@XZ PROC				; CRuleEntity::CRuleEntity, COMDAT
; _this$ = ecx
	push	ebp
	mov	ebp, esp
	push	ecx
	mov	DWORD PTR _this$[ebp], ecx
	mov	ecx, DWORD PTR _this$[ebp]
	call	??0CBaseEntity@@QAE@XZ
	mov	eax, DWORD PTR _this$[ebp]
	mov	DWORD PTR [eax], OFFSET ??_7CRuleEntity@@6B@
	mov	eax, DWORD PTR _this$[ebp]
	mov	esp, ebp
	pop	ebp
	ret	0
??0CRuleEntity@@QAE@XZ ENDP				; CRuleEntity::CRuleEntity
_TEXT	ENDS
; Function compile flags: /Odtp
; File c:\users\user\downloads\xashxt_v0.81_rev.1_with_sources\xashxt_v0.81_rev.1_src\server\maprules.cpp
_TEXT	SEGMENT
_this$ = -4						; size = 4
_pActivator$ = 8					; size = 4
?CanFireForActivator@CRuleEntity@@IAEHPAVCBaseEntity@@@Z PROC ; CRuleEntity::CanFireForActivator
; _this$ = ecx

; 74   : {

	push	ebp
	mov	ebp, esp
	push	ecx
	mov	DWORD PTR _this$[ebp], ecx

; 75   : 	if ( m_iszMaster )

	mov	eax, DWORD PTR _this$[ebp]
	cmp	DWORD PTR [eax+1652], 0
	je	SHORT $LN2@CanFireFor

; 76   : 	{
; 77   : 		if ( UTIL_IsMasterTriggered( m_iszMaster, pActivator ) )

	mov	ecx, DWORD PTR _pActivator$[ebp]
	push	ecx
	mov	edx, DWORD PTR _this$[ebp]
	mov	eax, DWORD PTR [edx+1652]
	push	eax
	call	?UTIL_IsMasterTriggered@@YAHHPAVCBaseEntity@@@Z ; UTIL_IsMasterTriggered
	add	esp, 8
	test	eax, eax
	je	SHORT $LN3@CanFireFor

; 78   : 			return TRUE;

	mov	eax, 1
	jmp	SHORT $LN1@CanFireFor

; 79   : 		else

	jmp	SHORT $LN2@CanFireFor
$LN3@CanFireFor:

; 80   : 			return FALSE;

	xor	eax, eax
	jmp	SHORT $LN1@CanFireFor
$LN2@CanFireFor:

; 81   : 	}
; 82   : 	
; 83   : 	return TRUE;

	mov	eax, 1
$LN1@CanFireFor:

; 84   : }

	mov	esp, ebp
	pop	ebp
	ret	4
?CanFireForActivator@CRuleEntity@@IAEHPAVCBaseEntity@@@Z ENDP ; CRuleEntity::CanFireForActivator
_TEXT	ENDS
; Function compile flags: /Odtp
; File c:\users\user\downloads\xashxt_v0.81_rev.1_with_sources\xashxt_v0.81_rev.1_src\server\maprules.cpp
;	COMDAT ?SetMaster@CRuleEntity@@QAEXH@Z
_TEXT	SEGMENT
_this$ = -4						; size = 4
_iszMaster$ = 8						; size = 4
?SetMaster@CRuleEntity@@QAEXH@Z PROC			; CRuleEntity::SetMaster, COMDAT
; _this$ = ecx

; 41   : 	void	SetMaster( int iszMaster ) { m_iszMaster = iszMaster; }

	push	ebp
	mov	ebp, esp
	push	ecx
	mov	DWORD PTR _this$[ebp], ecx
	mov	eax, DWORD PTR _this$[ebp]
	mov	ecx, DWORD PTR _iszMaster$[ebp]
	mov	DWORD PTR [eax+1652], ecx
	mov	esp, ebp
	pop	ebp
	ret	4
?SetMaster@CRuleEntity@@QAEXH@Z ENDP			; CRuleEntity::SetMaster
_TEXT	ENDS
; Function compile flags: /Odtp
; File c:\users\user\downloads\xashxt_v0.81_rev.1_with_sources\xashxt_v0.81_rev.1_src\server\maprules.cpp
_TEXT	SEGMENT
_this$ = -4						; size = 4
?GetDataDescMap@CRuleEntity@@UAEPAUdatamap_s@@XZ PROC	; CRuleEntity::GetDataDescMap
; _this$ = ecx

; 50   : BEGIN_DATADESC( CRuleEntity )

	push	ebp
	mov	ebp, esp
	push	ecx
	mov	DWORD PTR _this$[ebp], ecx
	mov	eax, OFFSET ?m_DataMap@CRuleEntity@@2Udatamap_s@@A ; CRuleEntity::m_DataMap
	mov	esp, ebp
	pop	ebp
	ret	0
?GetDataDescMap@CRuleEntity@@UAEPAUdatamap_s@@XZ ENDP	; CRuleEntity::GetDataDescMap
_TEXT	ENDS
; Function compile flags: /Odtp
; File c:\users\user\downloads\xashxt_v0.81_rev.1_with_sources\xashxt_v0.81_rev.1_src\server\maprules.cpp
_TEXT	SEGMENT
_pResult$ = -4						; size = 4
?GetBaseMap@CRuleEntity@@SAPAUdatamap_s@@XZ PROC	; CRuleEntity::GetBaseMap

; 50   : BEGIN_DATADESC( CRuleEntity )

	push	ebp
	mov	ebp, esp
	push	ecx
	lea	eax, DWORD PTR _pResult$[ebp]
	push	eax
	push	0
	call	??$DataMapAccess@VCBaseEntity@@@@YAXPAVCBaseEntity@@PAPAUdatamap_s@@@Z ; DataMapAccess<CBaseEntity>
	add	esp, 8
	mov	eax, DWORD PTR _pResult$[ebp]
	mov	esp, ebp
	pop	ebp
	ret	0
?GetBaseMap@CRuleEntity@@SAPAUdatamap_s@@XZ ENDP	; CRuleEntity::GetBaseMap
_TEXT	ENDS
; Function compile flags: /Odtp
; File c:\users\user\downloads\xashxt_v0.81_rev.1_with_sources\xashxt_v0.81_rev.1_src\server\maprules.cpp
_TEXT	SEGMENT
_this$ = -4						; size = 4
_pkvd$ = 8						; size = 4
?KeyValue@CRuleEntity@@UAEXPAUKeyValueData_s@@@Z PROC	; CRuleEntity::KeyValue
; _this$ = ecx

; 63   : {

	push	ebp
	mov	ebp, esp
	push	ecx
	mov	DWORD PTR _this$[ebp], ecx

; 64   : 	if (FStrEq(pkvd->szKeyName, "master"))

	push	OFFSET $SG75434
	mov	eax, DWORD PTR _pkvd$[ebp]
	mov	ecx, DWORD PTR [eax+4]
	push	ecx
	call	?FStrEq@@YAHPBD0@Z			; FStrEq
	add	esp, 8
	test	eax, eax
	je	SHORT $LN2@KeyValue

; 65   : 	{
; 66   : 		SetMaster( ALLOC_STRING(pkvd->szValue) );

	mov	edx, DWORD PTR _pkvd$[ebp]
	mov	eax, DWORD PTR [edx+8]
	push	eax
	call	DWORD PTR ?g_engfuncs@@3Uenginefuncs_s@@A+268
	add	esp, 4
	push	eax
	mov	ecx, DWORD PTR _this$[ebp]
	call	?SetMaster@CRuleEntity@@QAEXH@Z		; CRuleEntity::SetMaster

; 67   : 		pkvd->fHandled = TRUE;

	mov	ecx, DWORD PTR _pkvd$[ebp]
	mov	DWORD PTR [ecx+12], 1

; 68   : 	}
; 69   : 	else

	jmp	SHORT $LN1@KeyValue
$LN2@KeyValue:

; 70   : 		CBaseEntity::KeyValue( pkvd );

	mov	edx, DWORD PTR _pkvd$[ebp]
	push	edx
	mov	ecx, DWORD PTR _this$[ebp]
	call	?KeyValue@CBaseEntity@@UAEXPAUKeyValueData_s@@@Z ; CBaseEntity::KeyValue
$LN1@KeyValue:

; 71   : }

	mov	esp, ebp
	pop	ebp
	ret	4
?KeyValue@CRuleEntity@@UAEXPAUKeyValueData_s@@@Z ENDP	; CRuleEntity::KeyValue
_TEXT	ENDS
; Function compile flags: /Odtp
; File c:\users\user\downloads\xashxt_v0.81_rev.1_with_sources\xashxt_v0.81_rev.1_src\server\maprules.cpp
_TEXT	SEGMENT
_this$ = -4						; size = 4
?Spawn@CRuleEntity@@UAEXXZ PROC				; CRuleEntity::Spawn
; _this$ = ecx

; 55   : {

	push	ebp
	mov	ebp, esp
	push	ecx
	mov	DWORD PTR _this$[ebp], ecx

; 56   : 	pev->solid	= SOLID_NOT;

	mov	eax, DWORD PTR _this$[ebp]
	mov	ecx, DWORD PTR [eax+4]
	mov	DWORD PTR [ecx+268], 0

; 57   : 	pev->movetype	= MOVETYPE_NONE;

	mov	edx, DWORD PTR _this$[ebp]
	mov	eax, DWORD PTR [edx+4]
	mov	DWORD PTR [eax+264], 0

; 58   : 	pev->effects	= EF_NODRAW;

	mov	ecx, DWORD PTR _this$[ebp]
	mov	edx, DWORD PTR [ecx+4]
	mov	DWORD PTR [edx+280], 128		; 00000080H

; 59   : }

	mov	esp, ebp
	pop	ebp
	ret	0
?Spawn@CRuleEntity@@UAEXXZ ENDP				; CRuleEntity::Spawn
_TEXT	ENDS
; Function compile flags: /Odtp
;	COMDAT ??0CBaseEntity@@QAE@XZ
_TEXT	SEGMENT
_this$ = -4						; size = 4
??0CBaseEntity@@QAE@XZ PROC				; CBaseEntity::CBaseEntity, COMDAT
; _this$ = ecx
	push	ebp
	mov	ebp, esp
	push	ecx
	mov	DWORD PTR _this$[ebp], ecx
	mov	eax, DWORD PTR _this$[ebp]
	mov	DWORD PTR [eax], OFFSET ??_7CBaseEntity@@6B@
	mov	ecx, DWORD PTR _this$[ebp]
	add	ecx, 76					; 0000004cH
	call	??0Vector@@QAE@XZ			; Vector::Vector
	mov	ecx, DWORD PTR _this$[ebp]
	add	ecx, 88					; 00000058H
	call	??0Vector@@QAE@XZ			; Vector::Vector
	mov	ecx, DWORD PTR _this$[ebp]
	add	ecx, 100				; 00000064H
	call	??0Vector@@QAE@XZ			; Vector::Vector
	mov	ecx, DWORD PTR _this$[ebp]
	add	ecx, 112				; 00000070H
	call	??0Vector@@QAE@XZ			; Vector::Vector
	mov	ecx, DWORD PTR _this$[ebp]
	add	ecx, 124				; 0000007cH
	call	??0Vector@@QAE@XZ			; Vector::Vector
	mov	ecx, DWORD PTR _this$[ebp]
	add	ecx, 136				; 00000088H
	call	??0Vector@@QAE@XZ			; Vector::Vector
	mov	ecx, DWORD PTR _this$[ebp]
	add	ecx, 180				; 000000b4H
	call	??0matrix4x4@@QAE@XZ			; matrix4x4::matrix4x4
	mov	ecx, DWORD PTR _this$[ebp]
	add	ecx, 248				; 000000f8H
	call	??0CMeshDesc@@QAE@XZ			; CMeshDesc::CMeshDesc
	mov	eax, DWORD PTR _this$[ebp]
	mov	esp, ebp
	pop	ebp
	ret	0
??0CBaseEntity@@QAE@XZ ENDP				; CBaseEntity::CBaseEntity
_TEXT	ENDS
; Function compile flags: /Odtp
; File c:\users\user\downloads\xashxt_v0.81_rev.1_with_sources\xashxt_v0.81_rev.1_src\server\cbase.h
;	COMDAT ?Illumination@CBaseEntity@@UAEHXZ
_TEXT	SEGMENT
_this$ = -4						; size = 4
?Illumination@CBaseEntity@@UAEHXZ PROC			; CBaseEntity::Illumination, COMDAT
; _this$ = ecx

; 706  : 	virtual int Illumination( ) { return GETENTITYILLUM( ENT( pev ) ); };

	push	ebp
	mov	ebp, esp
	push	ecx
	mov	DWORD PTR _this$[ebp], ecx
	mov	eax, DWORD PTR _this$[ebp]
	mov	ecx, DWORD PTR [eax+4]
	push	ecx
	call	?ENT@@YAPAUedict_s@@PBUentvars_s@@@Z	; ENT
	add	esp, 4
	push	eax
	call	DWORD PTR ?g_engfuncs@@3Uenginefuncs_s@@A+60
	add	esp, 4
	mov	esp, ebp
	pop	ebp
	ret	0
?Illumination@CBaseEntity@@UAEHXZ ENDP			; CBaseEntity::Illumination
_TEXT	ENDS
; Function compile flags: /Odtp
; File c:\users\user\downloads\xashxt_v0.81_rev.1_with_sources\xashxt_v0.81_rev.1_src\server\cbase.h
;	COMDAT ?IsPointSized@CBaseEntity@@UBEHXZ
_TEXT	SEGMENT
_this$ = -8						; size = 4
tv70 = -1						; size = 1
?IsPointSized@CBaseEntity@@UBEHXZ PROC			; CBaseEntity::IsPointSized, COMDAT
; _this$ = ecx

; 704  : 	virtual BOOL IsPointSized() const { return (pev->size == g_vecZero) ? true : false; }

	push	ebp
	mov	ebp, esp
	sub	esp, 8
	mov	DWORD PTR _this$[ebp], ecx
	push	OFFSET ?g_vecZero@@3VVector@@B		; g_vecZero
	mov	eax, DWORD PTR _this$[ebp]
	mov	ecx, DWORD PTR [eax+4]
	add	ecx, 244				; 000000f4H
	call	??8Vector@@QBEHABV0@@Z			; Vector::operator==
	test	eax, eax
	je	SHORT $LN3@IsPointSiz
	mov	BYTE PTR tv70[ebp], 1
	jmp	SHORT $LN4@IsPointSiz
$LN3@IsPointSiz:
	mov	BYTE PTR tv70[ebp], 0
$LN4@IsPointSiz:
	movzx	eax, BYTE PTR tv70[ebp]
	mov	esp, ebp
	pop	ebp
	ret	0
?IsPointSized@CBaseEntity@@UBEHXZ ENDP			; CBaseEntity::IsPointSized
_TEXT	ENDS
; Function compile flags: /Odtp
; File c:\users\user\downloads\xashxt_v0.81_rev.1_with_sources\xashxt_v0.81_rev.1_src\server\cbase.h
;	COMDAT ?BodyTarget@CBaseEntity@@UAE?AVVector@@ABV2@@Z
_TEXT	SEGMENT
_this$ = -4						; size = 4
___$ReturnUdt$ = 8					; size = 4
_posSrc$ = 12						; size = 4
?BodyTarget@CBaseEntity@@UAE?AVVector@@ABV2@@Z PROC	; CBaseEntity::BodyTarget, COMDAT
; _this$ = ecx

; 703  : 	virtual Vector BodyTarget( const Vector &posSrc ) { return Center( ); };		// position to shoot at

	push	ebp
	mov	ebp, esp
	push	ecx
	mov	DWORD PTR _this$[ebp], ecx
	mov	eax, DWORD PTR ___$ReturnUdt$[ebp]
	push	eax
	mov	ecx, DWORD PTR _this$[ebp]
	mov	edx, DWORD PTR [ecx]
	mov	ecx, DWORD PTR _this$[ebp]
	mov	eax, DWORD PTR [edx+300]
	call	eax
	mov	eax, DWORD PTR ___$ReturnUdt$[ebp]
	mov	esp, ebp
	pop	ebp
	ret	8
?BodyTarget@CBaseEntity@@UAE?AVVector@@ABV2@@Z ENDP	; CBaseEntity::BodyTarget
_TEXT	ENDS
; Function compile flags: /Odtp
; File c:\users\user\downloads\xashxt_v0.81_rev.1_with_sources\xashxt_v0.81_rev.1_src\server\cbase.h
;	COMDAT ?EarPosition@CBaseEntity@@UAE?AVVector@@XZ
_TEXT	SEGMENT
_this$ = -4						; size = 4
___$ReturnUdt$ = 8					; size = 4
?EarPosition@CBaseEntity@@UAE?AVVector@@XZ PROC		; CBaseEntity::EarPosition, COMDAT
; _this$ = ecx

; 702  : 	virtual Vector EarPosition( ) { return GetAbsOrigin() + pev->view_ofs; };			// position of ears

	push	ebp
	mov	ebp, esp
	push	ecx
	mov	DWORD PTR _this$[ebp], ecx
	mov	eax, DWORD PTR _this$[ebp]
	mov	ecx, DWORD PTR [eax+4]
	add	ecx, 372				; 00000174H
	push	ecx
	mov	edx, DWORD PTR ___$ReturnUdt$[ebp]
	push	edx
	mov	ecx, DWORD PTR _this$[ebp]
	call	?GetAbsOrigin@CBaseEntity@@QBEABVVector@@XZ ; CBaseEntity::GetAbsOrigin
	mov	ecx, eax
	call	??HVector@@QBE?AV0@ABV0@@Z		; Vector::operator+
	mov	eax, DWORD PTR ___$ReturnUdt$[ebp]
	mov	esp, ebp
	pop	ebp
	ret	4
?EarPosition@CBaseEntity@@UAE?AVVector@@XZ ENDP		; CBaseEntity::EarPosition
_TEXT	ENDS
; Function compile flags: /Odtp
; File c:\users\user\downloads\xashxt_v0.81_rev.1_with_sources\xashxt_v0.81_rev.1_src\server\cbase.h
;	COMDAT ?EyePosition@CBaseEntity@@UAE?AVVector@@XZ
_TEXT	SEGMENT
_this$ = -4						; size = 4
___$ReturnUdt$ = 8					; size = 4
?EyePosition@CBaseEntity@@UAE?AVVector@@XZ PROC		; CBaseEntity::EyePosition, COMDAT
; _this$ = ecx

; 701  : 	virtual Vector EyePosition( ) { return GetAbsOrigin() + pev->view_ofs; };			// position of eyes

	push	ebp
	mov	ebp, esp
	push	ecx
	mov	DWORD PTR _this$[ebp], ecx
	mov	eax, DWORD PTR _this$[ebp]
	mov	ecx, DWORD PTR [eax+4]
	add	ecx, 372				; 00000174H
	push	ecx
	mov	edx, DWORD PTR ___$ReturnUdt$[ebp]
	push	edx
	mov	ecx, DWORD PTR _this$[ebp]
	call	?GetAbsOrigin@CBaseEntity@@QBEABVVector@@XZ ; CBaseEntity::GetAbsOrigin
	mov	ecx, eax
	call	??HVector@@QBE?AV0@ABV0@@Z		; Vector::operator+
	mov	eax, DWORD PTR ___$ReturnUdt$[ebp]
	mov	esp, ebp
	pop	ebp
	ret	4
?EyePosition@CBaseEntity@@UAE?AVVector@@XZ ENDP		; CBaseEntity::EyePosition
_TEXT	ENDS
; Function compile flags: /Odtp
; File c:\users\user\downloads\xashxt_v0.81_rev.1_with_sources\xashxt_v0.81_rev.1_src\server\cbase.h
;	COMDAT ?Center@CBaseEntity@@UAE?AVVector@@XZ
_TEXT	SEGMENT
$T1 = -16						; size = 12
_this$ = -4						; size = 4
___$ReturnUdt$ = 8					; size = 4
?Center@CBaseEntity@@UAE?AVVector@@XZ PROC		; CBaseEntity::Center, COMDAT
; _this$ = ecx

; 700  : 	virtual Vector Center( ) { return (pev->absmax + pev->absmin) * 0.5; }; // center point of entity

	push	ebp
	mov	ebp, esp
	sub	esp, 16					; 00000010H
	mov	DWORD PTR _this$[ebp], ecx
	push	ecx
	movss	xmm0, DWORD PTR __real@3f000000
	movss	DWORD PTR [esp], xmm0
	mov	eax, DWORD PTR ___$ReturnUdt$[ebp]
	push	eax
	mov	ecx, DWORD PTR _this$[ebp]
	mov	edx, DWORD PTR [ecx+4]
	add	edx, 196				; 000000c4H
	push	edx
	lea	eax, DWORD PTR $T1[ebp]
	push	eax
	mov	ecx, DWORD PTR _this$[ebp]
	mov	ecx, DWORD PTR [ecx+4]
	add	ecx, 208				; 000000d0H
	call	??HVector@@QBE?AV0@ABV0@@Z		; Vector::operator+
	mov	ecx, eax
	call	??DVector@@QBE?AV0@M@Z			; Vector::operator*
	mov	eax, DWORD PTR ___$ReturnUdt$[ebp]
	mov	esp, ebp
	pop	ebp
	ret	4
?Center@CBaseEntity@@UAE?AVVector@@XZ ENDP		; CBaseEntity::Center
_TEXT	ENDS
; Function compile flags: /Odtp
; File c:\users\user\downloads\xashxt_v0.81_rev.1_with_sources\xashxt_v0.81_rev.1_src\server\cbase.h
;	COMDAT ?edict@CBaseEntity@@QAEPAUedict_s@@XZ
_TEXT	SEGMENT
_this$ = -4						; size = 4
?edict@CBaseEntity@@QAEPAUedict_s@@XZ PROC		; CBaseEntity::edict, COMDAT
; _this$ = ecx

; 696  : 	edict_t *edict() { return ENT( pev ); };

	push	ebp
	mov	ebp, esp
	push	ecx
	mov	DWORD PTR _this$[ebp], ecx
	mov	eax, DWORD PTR _this$[ebp]
	mov	ecx, DWORD PTR [eax+4]
	push	ecx
	call	?ENT@@YAPAUedict_s@@PBUentvars_s@@@Z	; ENT
	add	esp, 4
	mov	esp, ebp
	pop	ebp
	ret	0
?edict@CBaseEntity@@QAEPAUedict_s@@XZ ENDP		; CBaseEntity::edict
_TEXT	ENDS
; Function compile flags: /Odtp
; File c:\users\user\downloads\xashxt_v0.81_rev.1_with_sources\xashxt_v0.81_rev.1_src\server\cbase.h
;	COMDAT ?FBecomeProne@CBaseEntity@@UAEHXZ
_TEXT	SEGMENT
_this$ = -4						; size = 4
?FBecomeProne@CBaseEntity@@UAEHXZ PROC			; CBaseEntity::FBecomeProne, COMDAT
; _this$ = ecx

; 695  : 	virtual BOOL FBecomeProne( void ) {return FALSE;};

	push	ebp
	mov	ebp, esp
	push	ecx
	mov	DWORD PTR _this$[ebp], ecx
	xor	eax, eax
	mov	esp, ebp
	pop	ebp
	ret	0
?FBecomeProne@CBaseEntity@@UAEHXZ ENDP			; CBaseEntity::FBecomeProne
_TEXT	ENDS
; Function compile flags: /Odtp
; File c:\users\user\downloads\xashxt_v0.81_rev.1_with_sources\xashxt_v0.81_rev.1_src\server\cbase.h
;	COMDAT ?UpdateOwner@CBaseEntity@@UAEXXZ
_TEXT	SEGMENT
_this$ = -4						; size = 4
?UpdateOwner@CBaseEntity@@UAEXXZ PROC			; CBaseEntity::UpdateOwner, COMDAT
; _this$ = ecx

; 691  : 	virtual	void UpdateOwner( void ) { return; };

	push	ebp
	mov	ebp, esp
	push	ecx
	mov	DWORD PTR _this$[ebp], ecx
	mov	esp, ebp
	pop	ebp
	ret	0
?UpdateOwner@CBaseEntity@@UAEXXZ ENDP			; CBaseEntity::UpdateOwner
_TEXT	ENDS
; Function compile flags: /Odtp
; File c:\users\user\downloads\xashxt_v0.81_rev.1_with_sources\xashxt_v0.81_rev.1_src\server\cbase.h
;	COMDAT ?Respawn@CBaseEntity@@UAEPAV1@XZ
_TEXT	SEGMENT
_this$ = -4						; size = 4
?Respawn@CBaseEntity@@UAEPAV1@XZ PROC			; CBaseEntity::Respawn, COMDAT
; _this$ = ecx

; 499  : 	virtual CBaseEntity *Respawn( void ) { return NULL; }

	push	ebp
	mov	ebp, esp
	push	ecx
	mov	DWORD PTR _this$[ebp], ecx
	xor	eax, eax
	mov	esp, ebp
	pop	ebp
	ret	0
?Respawn@CBaseEntity@@UAEPAV1@XZ ENDP			; CBaseEntity::Respawn
_TEXT	ENDS
; Function compile flags: /Odtp
; File c:\users\user\downloads\xashxt_v0.81_rev.1_with_sources\xashxt_v0.81_rev.1_src\server\cbase.h
;	COMDAT ??3CBaseEntity@@SAXPAXPAUentvars_s@@@Z
_TEXT	SEGMENT
_pMem$ = 8						; size = 4
_pev$ = 12						; size = 4
??3CBaseEntity@@SAXPAXPAUentvars_s@@@Z PROC		; CBaseEntity::operator delete, COMDAT

; 482  : 	{

	push	ebp
	mov	ebp, esp

; 483  : 		pev->flags |= FL_KILLME;

	mov	eax, DWORD PTR _pev$[ebp]
	mov	ecx, DWORD PTR [eax+420]
	or	ecx, 1073741824				; 40000000H
	mov	edx, DWORD PTR _pev$[ebp]
	mov	DWORD PTR [edx+420], ecx

; 484  : 	};

	pop	ebp
	ret	0
??3CBaseEntity@@SAXPAXPAUentvars_s@@@Z ENDP		; CBaseEntity::operator delete
_TEXT	ENDS
; Function compile flags: /Odtp
; File c:\users\user\downloads\xashxt_v0.81_rev.1_with_sources\xashxt_v0.81_rev.1_src\server\cbase.h
;	COMDAT ??2CBaseEntity@@SAPAXIPAUentvars_s@@@Z
_TEXT	SEGMENT
_stAllocateBlock$ = 8					; size = 4
_pev$ = 12						; size = 4
??2CBaseEntity@@SAPAXIPAUentvars_s@@@Z PROC		; CBaseEntity::operator new, COMDAT

; 475  : 	{

	push	ebp
	mov	ebp, esp

; 476  : 		return (void *)ALLOC_PRIVATE(ENT(pev), stAllocateBlock);

	mov	eax, DWORD PTR _stAllocateBlock$[ebp]
	push	eax
	mov	ecx, DWORD PTR _pev$[ebp]
	push	ecx
	call	?ENT@@YAPAUedict_s@@PBUentvars_s@@@Z	; ENT
	add	esp, 4
	push	eax
	call	DWORD PTR ?g_engfuncs@@3Uenginefuncs_s@@A+252
	add	esp, 8

; 477  : 	};

	pop	ebp
	ret	0
??2CBaseEntity@@SAPAXIPAUentvars_s@@@Z ENDP		; CBaseEntity::operator new
_TEXT	ENDS
; Function compile flags: /Odtp
; File c:\users\user\downloads\xashxt_v0.81_rev.1_with_sources\xashxt_v0.81_rev.1_src\server\cbase.h
;	COMDAT ?MoveDone@CBaseEntity@@UAEXXZ
_TEXT	SEGMENT
_this$ = -4						; size = 4
?MoveDone@CBaseEntity@@UAEXXZ PROC			; CBaseEntity::MoveDone, COMDAT
; _this$ = ecx

; 471  : 	virtual void MoveDone( void ) { if( m_pfnMoveDone )(this->*m_pfnMoveDone)(); };

	push	ebp
	mov	ebp, esp
	push	ecx
	mov	DWORD PTR _this$[ebp], ecx
	mov	eax, DWORD PTR _this$[ebp]
	cmp	DWORD PTR [eax+1648], 0
	je	SHORT $LN1@MoveDone
	mov	edx, DWORD PTR _this$[ebp]
	mov	ecx, DWORD PTR _this$[ebp]
	mov	eax, DWORD PTR [edx+1648]
	call	eax
$LN1@MoveDone:
	mov	esp, ebp
	pop	ebp
	ret	0
?MoveDone@CBaseEntity@@UAEXXZ ENDP			; CBaseEntity::MoveDone
_TEXT	ENDS
; Function compile flags: /Odtp
; File c:\users\user\downloads\xashxt_v0.81_rev.1_with_sources\xashxt_v0.81_rev.1_src\server\cbase.h
;	COMDAT ?Blocked@CBaseEntity@@UAEXPAV1@@Z
_TEXT	SEGMENT
tv77 = -8						; size = 4
_this$ = -4						; size = 4
_pOther$ = 8						; size = 4
?Blocked@CBaseEntity@@UAEXPAV1@@Z PROC			; CBaseEntity::Blocked, COMDAT
; _this$ = ecx

; 462  : 	{

	push	ebp
	mov	ebp, esp
	sub	esp, 8
	mov	DWORD PTR _this$[ebp], ecx

; 463  : 		if( m_pfnBlocked )

	mov	eax, DWORD PTR _this$[ebp]
	cmp	DWORD PTR [eax+1644], 0
	je	SHORT $LN2@Blocked

; 464  : 			(this->*m_pfnBlocked)( pOther );

	mov	ecx, DWORD PTR _pOther$[ebp]
	push	ecx
	mov	edx, DWORD PTR _this$[ebp]
	mov	ecx, DWORD PTR _this$[ebp]
	mov	eax, DWORD PTR [edx+1644]
	call	eax
$LN2@Blocked:

; 465  : 
; 466  : 		// forward the blocked event to our parent, if any.
; 467  : 		if( m_hParent != NULL )

	mov	ecx, DWORD PTR _this$[ebp]
	add	ecx, 148				; 00000094H
	call	??BEHANDLE@@QAEHXZ			; EHANDLE::operator int
	test	eax, eax
	je	SHORT $LN1@Blocked

; 468  : 			m_hParent->Blocked( pOther );

	mov	ecx, DWORD PTR _this$[ebp]
	add	ecx, 148				; 00000094H
	call	??CEHANDLE@@QAEPAVCBaseEntity@@XZ	; EHANDLE::operator->
	mov	DWORD PTR tv77[ebp], eax
	mov	ecx, DWORD PTR _pOther$[ebp]
	push	ecx
	mov	edx, DWORD PTR tv77[ebp]
	mov	eax, DWORD PTR [edx]
	mov	ecx, DWORD PTR tv77[ebp]
	mov	edx, DWORD PTR [eax+280]
	call	edx
$LN1@Blocked:

; 469  : 	}

	mov	esp, ebp
	pop	ebp
	ret	4
?Blocked@CBaseEntity@@UAEXPAV1@@Z ENDP			; CBaseEntity::Blocked
_TEXT	ENDS
; Function compile flags: /Odtp
; File c:\users\user\downloads\xashxt_v0.81_rev.1_with_sources\xashxt_v0.81_rev.1_src\server\cbase.h
;	COMDAT ?Touch@CBaseEntity@@UAEXPAV1@@Z
_TEXT	SEGMENT
tv77 = -8						; size = 4
_this$ = -4						; size = 4
_pOther$ = 8						; size = 4
?Touch@CBaseEntity@@UAEXPAV1@@Z PROC			; CBaseEntity::Touch, COMDAT
; _this$ = ecx

; 452  : 	{

	push	ebp
	mov	ebp, esp
	sub	esp, 8
	mov	DWORD PTR _this$[ebp], ecx

; 453  : 		if( m_pfnTouch )

	mov	eax, DWORD PTR _this$[ebp]
	cmp	DWORD PTR [eax+1636], 0
	je	SHORT $LN2@Touch

; 454  : 			(this->*m_pfnTouch)( pOther );

	mov	ecx, DWORD PTR _pOther$[ebp]
	push	ecx
	mov	edx, DWORD PTR _this$[ebp]
	mov	ecx, DWORD PTR _this$[ebp]
	mov	eax, DWORD PTR [edx+1636]
	call	eax
$LN2@Touch:

; 455  : 
; 456  : 		// forward the blocked event to our parent, if any.
; 457  : 		if( m_hParent != NULL )

	mov	ecx, DWORD PTR _this$[ebp]
	add	ecx, 148				; 00000094H
	call	??BEHANDLE@@QAEHXZ			; EHANDLE::operator int
	test	eax, eax
	je	SHORT $LN1@Touch

; 458  : 			m_hParent->Touch( pOther );

	mov	ecx, DWORD PTR _this$[ebp]
	add	ecx, 148				; 00000094H
	call	??CEHANDLE@@QAEPAVCBaseEntity@@XZ	; EHANDLE::operator->
	mov	DWORD PTR tv77[ebp], eax
	mov	ecx, DWORD PTR _pOther$[ebp]
	push	ecx
	mov	edx, DWORD PTR tv77[ebp]
	mov	eax, DWORD PTR [edx]
	mov	ecx, DWORD PTR tv77[ebp]
	mov	edx, DWORD PTR [eax+276]
	call	edx
$LN1@Touch:

; 459  : 	}

	mov	esp, ebp
	pop	ebp
	ret	4
?Touch@CBaseEntity@@UAEXPAV1@@Z ENDP			; CBaseEntity::Touch
_TEXT	ENDS
; Function compile flags: /Odtp
; File c:\users\user\downloads\xashxt_v0.81_rev.1_with_sources\xashxt_v0.81_rev.1_src\server\cbase.h
;	COMDAT ?Use@CBaseEntity@@UAEXPAV1@0W4USE_TYPE@@M@Z
_TEXT	SEGMENT
_this$ = -4						; size = 4
_pActivator$ = 8					; size = 4
_pCaller$ = 12						; size = 4
_useType$ = 16						; size = 4
_value$ = 20						; size = 4
?Use@CBaseEntity@@UAEXPAV1@0W4USE_TYPE@@M@Z PROC	; CBaseEntity::Use, COMDAT
; _this$ = ecx

; 447  : 	{

	push	ebp
	mov	ebp, esp
	push	ecx
	mov	DWORD PTR _this$[ebp], ecx

; 448  : 		if (m_pfnUse) (this->*m_pfnUse)( pActivator, pCaller, useType, value );

	mov	eax, DWORD PTR _this$[ebp]
	cmp	DWORD PTR [eax+1640], 0
	je	SHORT $LN2@Use
	push	ecx
	movss	xmm0, DWORD PTR _value$[ebp]
	movss	DWORD PTR [esp], xmm0
	mov	ecx, DWORD PTR _useType$[ebp]
	push	ecx
	mov	edx, DWORD PTR _pCaller$[ebp]
	push	edx
	mov	eax, DWORD PTR _pActivator$[ebp]
	push	eax
	mov	edx, DWORD PTR _this$[ebp]
	mov	ecx, DWORD PTR _this$[ebp]
	mov	eax, DWORD PTR [edx+1640]
	call	eax
$LN2@Use:

; 449  : 	}

	mov	esp, ebp
	pop	ebp
	ret	16					; 00000010H
?Use@CBaseEntity@@UAEXPAV1@0W4USE_TYPE@@M@Z ENDP	; CBaseEntity::Use
_TEXT	ENDS
; Function compile flags: /Odtp
; File c:\users\user\downloads\xashxt_v0.81_rev.1_with_sources\xashxt_v0.81_rev.1_src\server\cbase.h
;	COMDAT ?Think@CBaseEntity@@UAEXXZ
_TEXT	SEGMENT
_this$ = -4						; size = 4
?Think@CBaseEntity@@UAEXXZ PROC				; CBaseEntity::Think, COMDAT
; _this$ = ecx

; 444  : 	virtual void Think( void ) { if (m_pfnThink) (this->*m_pfnThink)(); };

	push	ebp
	mov	ebp, esp
	push	ecx
	mov	DWORD PTR _this$[ebp], ecx
	mov	eax, DWORD PTR _this$[ebp]
	cmp	DWORD PTR [eax+1632], 0
	je	SHORT $LN1@Think
	mov	edx, DWORD PTR _this$[ebp]
	mov	ecx, DWORD PTR _this$[ebp]
	mov	eax, DWORD PTR [edx+1632]
	call	eax
$LN1@Think:
	mov	esp, ebp
	pop	ebp
	ret	0
?Think@CBaseEntity@@UAEXXZ ENDP				; CBaseEntity::Think
_TEXT	ENDS
; Function compile flags: /Odtp
; File c:\users\user\downloads\xashxt_v0.81_rev.1_with_sources\xashxt_v0.81_rev.1_src\server\cbase.h
;	COMDAT ?TeamID@CBaseEntity@@UAEPBDXZ
_TEXT	SEGMENT
_this$ = -4						; size = 4
?TeamID@CBaseEntity@@UAEPBDXZ PROC			; CBaseEntity::TeamID, COMDAT
; _this$ = ecx

; 433  : 	virtual const char	*TeamID( void ) { return ""; }

	push	ebp
	mov	ebp, esp
	push	ecx
	mov	DWORD PTR _this$[ebp], ecx
	mov	eax, OFFSET ??_C@_00CNPNBAHC@@
	mov	esp, ebp
	pop	ebp
	ret	0
?TeamID@CBaseEntity@@UAEPBDXZ ENDP			; CBaseEntity::TeamID
_TEXT	ENDS
; Function compile flags: /Odtp
; File c:\users\user\downloads\xashxt_v0.81_rev.1_with_sources\xashxt_v0.81_rev.1_src\server\cbase.h
;	COMDAT ?IsBreakable@CBaseEntity@@UAEHXZ
_TEXT	SEGMENT
_this$ = -4						; size = 4
?IsBreakable@CBaseEntity@@UAEHXZ PROC			; CBaseEntity::IsBreakable, COMDAT
; _this$ = ecx

; 432  : 	virtual BOOL	IsBreakable( void ) { return FALSE; }

	push	ebp
	mov	ebp, esp
	push	ecx
	mov	DWORD PTR _this$[ebp], ecx
	xor	eax, eax
	mov	esp, ebp
	pop	ebp
	ret	0
?IsBreakable@CBaseEntity@@UAEHXZ ENDP			; CBaseEntity::IsBreakable
_TEXT	ENDS
; Function compile flags: /Odtp
; File c:\users\user\downloads\xashxt_v0.81_rev.1_with_sources\xashxt_v0.81_rev.1_src\server\cbase.h
;	COMDAT ?IsMover@CBaseEntity@@UAEHXZ
_TEXT	SEGMENT
_this$ = -4						; size = 4
?IsMover@CBaseEntity@@UAEHXZ PROC			; CBaseEntity::IsMover, COMDAT
; _this$ = ecx

; 431  : 	virtual BOOL	IsMover( void ) { return FALSE; }

	push	ebp
	mov	ebp, esp
	push	ecx
	mov	DWORD PTR _this$[ebp], ecx
	xor	eax, eax
	mov	esp, ebp
	pop	ebp
	ret	0
?IsMover@CBaseEntity@@UAEHXZ ENDP			; CBaseEntity::IsMover
_TEXT	ENDS
; Function compile flags: /Odtp
; File c:\users\user\downloads\xashxt_v0.81_rev.1_with_sources\xashxt_v0.81_rev.1_src\server\cbase.h
;	COMDAT ?IsTank@CBaseEntity@@UAEHXZ
_TEXT	SEGMENT
_this$ = -4						; size = 4
?IsTank@CBaseEntity@@UAEHXZ PROC			; CBaseEntity::IsTank, COMDAT
; _this$ = ecx

; 430  : 	virtual BOOL	IsTank( void ) { return FALSE; }

	push	ebp
	mov	ebp, esp
	push	ecx
	mov	DWORD PTR _this$[ebp], ecx
	xor	eax, eax
	mov	esp, ebp
	pop	ebp
	ret	0
?IsTank@CBaseEntity@@UAEHXZ ENDP			; CBaseEntity::IsTank
_TEXT	ENDS
; Function compile flags: /Odtp
; File c:\users\user\downloads\xashxt_v0.81_rev.1_with_sources\xashxt_v0.81_rev.1_src\server\cbase.h
;	COMDAT ?IsPortal@CBaseEntity@@UAEHXZ
_TEXT	SEGMENT
_this$ = -4						; size = 4
?IsPortal@CBaseEntity@@UAEHXZ PROC			; CBaseEntity::IsPortal, COMDAT
; _this$ = ecx

; 429  : 	virtual BOOL	IsPortal( void ) { return FALSE; }

	push	ebp
	mov	ebp, esp
	push	ecx
	mov	DWORD PTR _this$[ebp], ecx
	xor	eax, eax
	mov	esp, ebp
	pop	ebp
	ret	0
?IsPortal@CBaseEntity@@UAEHXZ ENDP			; CBaseEntity::IsPortal
_TEXT	ENDS
; Function compile flags: /Odtp
; File c:\users\user\downloads\xashxt_v0.81_rev.1_with_sources\xashxt_v0.81_rev.1_src\server\cbase.h
;	COMDAT ?IsFuncScreen@CBaseEntity@@UAEHXZ
_TEXT	SEGMENT
_this$ = -4						; size = 4
?IsFuncScreen@CBaseEntity@@UAEHXZ PROC			; CBaseEntity::IsFuncScreen, COMDAT
; _this$ = ecx

; 428  : 	virtual BOOL	IsFuncScreen( void ) { return FALSE; }

	push	ebp
	mov	ebp, esp
	push	ecx
	mov	DWORD PTR _this$[ebp], ecx
	xor	eax, eax
	mov	esp, ebp
	pop	ebp
	ret	0
?IsFuncScreen@CBaseEntity@@UAEHXZ ENDP			; CBaseEntity::IsFuncScreen
_TEXT	ENDS
; Function compile flags: /Odtp
; File c:\users\user\downloads\xashxt_v0.81_rev.1_with_sources\xashxt_v0.81_rev.1_src\server\cbase.h
;	COMDAT ?IsProjectile@CBaseEntity@@UAEHXZ
_TEXT	SEGMENT
_this$ = -4						; size = 4
?IsProjectile@CBaseEntity@@UAEHXZ PROC			; CBaseEntity::IsProjectile, COMDAT
; _this$ = ecx

; 427  : 	virtual BOOL	IsProjectile( void ) { return FALSE; }

	push	ebp
	mov	ebp, esp
	push	ecx
	mov	DWORD PTR _this$[ebp], ecx
	xor	eax, eax
	mov	esp, ebp
	pop	ebp
	ret	0
?IsProjectile@CBaseEntity@@UAEHXZ ENDP			; CBaseEntity::IsProjectile
_TEXT	ENDS
; Function compile flags: /Odtp
; File c:\users\user\downloads\xashxt_v0.81_rev.1_with_sources\xashxt_v0.81_rev.1_src\server\cbase.h
;	COMDAT ?IsPushable@CBaseEntity@@UAEHXZ
_TEXT	SEGMENT
_this$ = -4						; size = 4
?IsPushable@CBaseEntity@@UAEHXZ PROC			; CBaseEntity::IsPushable, COMDAT
; _this$ = ecx

; 426  : 	virtual BOOL	IsPushable( void ) { return FALSE; }

	push	ebp
	mov	ebp, esp
	push	ecx
	mov	DWORD PTR _this$[ebp], ecx
	xor	eax, eax
	mov	esp, ebp
	pop	ebp
	ret	0
?IsPushable@CBaseEntity@@UAEHXZ ENDP			; CBaseEntity::IsPushable
_TEXT	ENDS
; Function compile flags: /Odtp
; File c:\users\user\downloads\xashxt_v0.81_rev.1_with_sources\xashxt_v0.81_rev.1_src\server\cbase.h
;	COMDAT ?IsMonster@CBaseEntity@@UAEHXZ
_TEXT	SEGMENT
_this$ = -8						; size = 4
tv68 = -4						; size = 4
?IsMonster@CBaseEntity@@UAEHXZ PROC			; CBaseEntity::IsMonster, COMDAT
; _this$ = ecx

; 425  : 	virtual BOOL	IsMonster( void ) { return (pev->flags & FL_MONSTER ? TRUE : FALSE); }

	push	ebp
	mov	ebp, esp
	sub	esp, 8
	mov	DWORD PTR _this$[ebp], ecx
	mov	eax, DWORD PTR _this$[ebp]
	mov	ecx, DWORD PTR [eax+4]
	mov	edx, DWORD PTR [ecx+420]
	and	edx, 32					; 00000020H
	je	SHORT $LN3@IsMonster
	mov	DWORD PTR tv68[ebp], 1
	jmp	SHORT $LN4@IsMonster
$LN3@IsMonster:
	mov	DWORD PTR tv68[ebp], 0
$LN4@IsMonster:
	mov	eax, DWORD PTR tv68[ebp]
	mov	esp, ebp
	pop	ebp
	ret	0
?IsMonster@CBaseEntity@@UAEHXZ ENDP			; CBaseEntity::IsMonster
_TEXT	ENDS
; Function compile flags: /Odtp
; File c:\users\user\downloads\xashxt_v0.81_rev.1_with_sources\xashxt_v0.81_rev.1_src\server\cbase.h
;	COMDAT ?IsNetClient@CBaseEntity@@UAEHXZ
_TEXT	SEGMENT
_this$ = -4						; size = 4
?IsNetClient@CBaseEntity@@UAEHXZ PROC			; CBaseEntity::IsNetClient, COMDAT
; _this$ = ecx

; 424  : 	virtual BOOL	IsNetClient( void ) { return FALSE; }

	push	ebp
	mov	ebp, esp
	push	ecx
	mov	DWORD PTR _this$[ebp], ecx
	xor	eax, eax
	mov	esp, ebp
	pop	ebp
	ret	0
?IsNetClient@CBaseEntity@@UAEHXZ ENDP			; CBaseEntity::IsNetClient
_TEXT	ENDS
; Function compile flags: /Odtp
; File c:\users\user\downloads\xashxt_v0.81_rev.1_with_sources\xashxt_v0.81_rev.1_src\server\cbase.h
;	COMDAT ?IsPlayer@CBaseEntity@@UAEHXZ
_TEXT	SEGMENT
_this$ = -4						; size = 4
?IsPlayer@CBaseEntity@@UAEHXZ PROC			; CBaseEntity::IsPlayer, COMDAT
; _this$ = ecx

; 423  : 	virtual BOOL	IsPlayer( void ) { return FALSE; }

	push	ebp
	mov	ebp, esp
	push	ecx
	mov	DWORD PTR _this$[ebp], ecx
	xor	eax, eax
	mov	esp, ebp
	pop	ebp
	ret	0
?IsPlayer@CBaseEntity@@UAEHXZ ENDP			; CBaseEntity::IsPlayer
_TEXT	ENDS
; Function compile flags: /Odtp
; File c:\users\user\downloads\xashxt_v0.81_rev.1_with_sources\xashxt_v0.81_rev.1_src\server\cbase.h
;	COMDAT ?HasTarget@CBaseEntity@@UAEHH@Z
_TEXT	SEGMENT
_this$ = -4						; size = 4
_targetname$ = 8					; size = 4
?HasTarget@CBaseEntity@@UAEHH@Z PROC			; CBaseEntity::HasTarget, COMDAT
; _this$ = ecx

; 421  : 	virtual BOOL	HasTarget( string_t targetname ) { return FStrEq(STRING(targetname), STRING(pev->targetname) ); }

	push	ebp
	mov	ebp, esp
	push	ecx
	mov	DWORD PTR _this$[ebp], ecx
	mov	eax, DWORD PTR _this$[ebp]
	mov	ecx, DWORD PTR [eax+4]
	mov	edx, DWORD PTR [ecx+460]
	push	edx
	call	DWORD PTR ?g_engfuncs@@3Uenginefuncs_s@@A+264
	add	esp, 4
	push	eax
	mov	eax, DWORD PTR _targetname$[ebp]
	push	eax
	call	DWORD PTR ?g_engfuncs@@3Uenginefuncs_s@@A+264
	add	esp, 4
	push	eax
	call	?FStrEq@@YAHPBD0@Z			; FStrEq
	add	esp, 8
	mov	esp, ebp
	pop	ebp
	ret	4
?HasTarget@CBaseEntity@@UAEHH@Z ENDP			; CBaseEntity::HasTarget
_TEXT	ENDS
; Function compile flags: /Odtp
; File c:\users\user\downloads\xashxt_v0.81_rev.1_with_sources\xashxt_v0.81_rev.1_src\server\cbase.h
;	COMDAT ?ReflectGauss@CBaseEntity@@UAEHXZ
_TEXT	SEGMENT
tv77 = -8						; size = 4
_this$ = -4						; size = 4
?ReflectGauss@CBaseEntity@@UAEHXZ PROC			; CBaseEntity::ReflectGauss, COMDAT
; _this$ = ecx

; 420  : 	virtual BOOL	ReflectGauss( void ) { return (( IsBSPModel() || IsCustomModel()) && !pev->takedamage ); }

	push	ebp
	mov	ebp, esp
	sub	esp, 8
	mov	DWORD PTR _this$[ebp], ecx
	mov	eax, DWORD PTR _this$[ebp]
	mov	edx, DWORD PTR [eax]
	mov	ecx, DWORD PTR _this$[ebp]
	mov	eax, DWORD PTR [edx+200]
	call	eax
	test	eax, eax
	jne	SHORT $LN3@ReflectGau
	mov	ecx, DWORD PTR _this$[ebp]
	mov	edx, DWORD PTR [ecx]
	mov	ecx, DWORD PTR _this$[ebp]
	mov	eax, DWORD PTR [edx+204]
	call	eax
	test	eax, eax
	je	SHORT $LN4@ReflectGau
$LN3@ReflectGau:
	mov	ecx, DWORD PTR _this$[ebp]
	mov	edx, DWORD PTR [ecx+4]
	movss	xmm0, DWORD PTR [edx+364]
	ucomiss	xmm0, DWORD PTR __real@00000000
	lahf
	test	ah, 68					; 00000044H
	jp	SHORT $LN4@ReflectGau
	mov	DWORD PTR tv77[ebp], 1
	jmp	SHORT $LN5@ReflectGau
$LN4@ReflectGau:
	mov	DWORD PTR tv77[ebp], 0
$LN5@ReflectGau:
	mov	eax, DWORD PTR tv77[ebp]
	mov	esp, ebp
	pop	ebp
	ret	0
?ReflectGauss@CBaseEntity@@UAEHXZ ENDP			; CBaseEntity::ReflectGauss
_TEXT	ENDS
; Function compile flags: /Odtp
; File c:\users\user\downloads\xashxt_v0.81_rev.1_with_sources\xashxt_v0.81_rev.1_src\server\cbase.h
;	COMDAT ?IsCustomModel@CBaseEntity@@UAEHXZ
_TEXT	SEGMENT
_this$ = -8						; size = 4
tv67 = -4						; size = 4
?IsCustomModel@CBaseEntity@@UAEHXZ PROC			; CBaseEntity::IsCustomModel, COMDAT
; _this$ = ecx

; 419  : 	virtual BOOL	IsCustomModel( void ) { return pev->solid == SOLID_CUSTOM; }

	push	ebp
	mov	ebp, esp
	sub	esp, 8
	mov	DWORD PTR _this$[ebp], ecx
	mov	eax, DWORD PTR _this$[ebp]
	mov	ecx, DWORD PTR [eax+4]
	cmp	DWORD PTR [ecx+268], 5
	jne	SHORT $LN3@IsCustomMo
	mov	DWORD PTR tv67[ebp], 1
	jmp	SHORT $LN4@IsCustomMo
$LN3@IsCustomMo:
	mov	DWORD PTR tv67[ebp], 0
$LN4@IsCustomMo:
	mov	eax, DWORD PTR tv67[ebp]
	mov	esp, ebp
	pop	ebp
	ret	0
?IsCustomModel@CBaseEntity@@UAEHXZ ENDP			; CBaseEntity::IsCustomModel
_TEXT	ENDS
; Function compile flags: /Odtp
; File c:\users\user\downloads\xashxt_v0.81_rev.1_with_sources\xashxt_v0.81_rev.1_src\server\cbase.h
;	COMDAT ?IsBSPModel@CBaseEntity@@UAEHXZ
_TEXT	SEGMENT
_this$ = -8						; size = 4
tv69 = -4						; size = 4
?IsBSPModel@CBaseEntity@@UAEHXZ PROC			; CBaseEntity::IsBSPModel, COMDAT
; _this$ = ecx

; 418  : 	virtual BOOL	IsBSPModel( void ) { return UTIL_GetModelType( pev->modelindex ) == mod_brush; }

	push	ebp
	mov	ebp, esp
	sub	esp, 8
	mov	DWORD PTR _this$[ebp], ecx
	mov	eax, DWORD PTR _this$[ebp]
	mov	ecx, DWORD PTR [eax+4]
	mov	edx, DWORD PTR [ecx+180]
	push	edx
	call	?UTIL_GetModelType@@YA?AW4modtype_t@@H@Z ; UTIL_GetModelType
	add	esp, 4
	test	eax, eax
	jne	SHORT $LN3@IsBSPModel
	mov	DWORD PTR tv69[ebp], 1
	jmp	SHORT $LN4@IsBSPModel
$LN3@IsBSPModel:
	mov	DWORD PTR tv69[ebp], 0
$LN4@IsBSPModel:
	mov	eax, DWORD PTR tv69[ebp]
	mov	esp, ebp
	pop	ebp
	ret	0
?IsBSPModel@CBaseEntity@@UAEHXZ ENDP			; CBaseEntity::IsBSPModel
_TEXT	ENDS
; Function compile flags: /Odtp
; File c:\users\user\downloads\xashxt_v0.81_rev.1_with_sources\xashxt_v0.81_rev.1_src\server\cbase.h
;	COMDAT ?IsAlive@CBaseEntity@@UAEHXZ
_TEXT	SEGMENT
tv70 = -8						; size = 4
_this$ = -4						; size = 4
?IsAlive@CBaseEntity@@UAEHXZ PROC			; CBaseEntity::IsAlive, COMDAT
; _this$ = ecx

; 417  : 	virtual BOOL	IsAlive( void ) { return (pev->deadflag == DEAD_NO) && pev->health > 0; }

	push	ebp
	mov	ebp, esp
	sub	esp, 8
	mov	DWORD PTR _this$[ebp], ecx
	mov	eax, DWORD PTR _this$[ebp]
	mov	ecx, DWORD PTR [eax+4]
	cmp	DWORD PTR [ecx+368], 0
	jne	SHORT $LN3@IsAlive
	mov	edx, DWORD PTR _this$[ebp]
	mov	eax, DWORD PTR [edx+4]
	movss	xmm0, DWORD PTR [eax+352]
	comiss	xmm0, DWORD PTR __real@00000000
	jbe	SHORT $LN3@IsAlive
	mov	DWORD PTR tv70[ebp], 1
	jmp	SHORT $LN4@IsAlive
$LN3@IsAlive:
	mov	DWORD PTR tv70[ebp], 0
$LN4@IsAlive:
	mov	eax, DWORD PTR tv70[ebp]
	mov	esp, ebp
	pop	ebp
	ret	0
?IsAlive@CBaseEntity@@UAEHXZ ENDP			; CBaseEntity::IsAlive
_TEXT	ENDS
; Function compile flags: /Odtp
; File c:\users\user\downloads\xashxt_v0.81_rev.1_with_sources\xashxt_v0.81_rev.1_src\server\cbase.h
;	COMDAT ?IsSneaking@CBaseEntity@@UAEHXZ
_TEXT	SEGMENT
_this$ = -4						; size = 4
?IsSneaking@CBaseEntity@@UAEHXZ PROC			; CBaseEntity::IsSneaking, COMDAT
; _this$ = ecx

; 416  : 	virtual BOOL	IsSneaking( void ) { return FALSE; }

	push	ebp
	mov	ebp, esp
	push	ecx
	mov	DWORD PTR _this$[ebp], ecx
	xor	eax, eax
	mov	esp, ebp
	pop	ebp
	ret	0
?IsSneaking@CBaseEntity@@UAEHXZ ENDP			; CBaseEntity::IsSneaking
_TEXT	ENDS
; Function compile flags: /Odtp
; File c:\users\user\downloads\xashxt_v0.81_rev.1_with_sources\xashxt_v0.81_rev.1_src\server\cbase.h
;	COMDAT ?OnControls@CBaseEntity@@UAEHPAV1@@Z
_TEXT	SEGMENT
_this$ = -4						; size = 4
_pTest$ = 8						; size = 4
?OnControls@CBaseEntity@@UAEHPAV1@@Z PROC		; CBaseEntity::OnControls, COMDAT
; _this$ = ecx

; 415  : 	virtual BOOL	OnControls( CBaseEntity *pTest ) { return FALSE; }

	push	ebp
	mov	ebp, esp
	push	ecx
	mov	DWORD PTR _this$[ebp], ecx
	xor	eax, eax
	mov	esp, ebp
	pop	ebp
	ret	4
?OnControls@CBaseEntity@@UAEHPAV1@@Z ENDP		; CBaseEntity::OnControls
_TEXT	ENDS
; Function compile flags: /Odtp
; File c:\users\user\downloads\xashxt_v0.81_rev.1_with_sources\xashxt_v0.81_rev.1_src\server\cbase.h
;	COMDAT ?StopSneaking@CBaseEntity@@UAEXXZ
_TEXT	SEGMENT
_this$ = -4						; size = 4
?StopSneaking@CBaseEntity@@UAEXXZ PROC			; CBaseEntity::StopSneaking, COMDAT
; _this$ = ecx

; 414  : 	virtual void	StopSneaking( void ) {}

	push	ebp
	mov	ebp, esp
	push	ecx
	mov	DWORD PTR _this$[ebp], ecx
	mov	esp, ebp
	pop	ebp
	ret	0
?StopSneaking@CBaseEntity@@UAEXXZ ENDP			; CBaseEntity::StopSneaking
_TEXT	ENDS
; Function compile flags: /Odtp
; File c:\users\user\downloads\xashxt_v0.81_rev.1_with_sources\xashxt_v0.81_rev.1_src\server\cbase.h
;	COMDAT ?StartSneaking@CBaseEntity@@UAEXXZ
_TEXT	SEGMENT
_this$ = -4						; size = 4
?StartSneaking@CBaseEntity@@UAEXXZ PROC			; CBaseEntity::StartSneaking, COMDAT
; _this$ = ecx

; 413  : 	virtual void	StartSneaking( void ) {}

	push	ebp
	mov	ebp, esp
	push	ecx
	mov	DWORD PTR _this$[ebp], ecx
	mov	esp, ebp
	pop	ebp
	ret	0
?StartSneaking@CBaseEntity@@UAEXXZ ENDP			; CBaseEntity::StartSneaking
_TEXT	ENDS
; Function compile flags: /Odtp
; File c:\users\user\downloads\xashxt_v0.81_rev.1_with_sources\xashxt_v0.81_rev.1_src\server\cbase.h
;	COMDAT ?SetToggleState@CBaseEntity@@UAEXH@Z
_TEXT	SEGMENT
_this$ = -4						; size = 4
_state$ = 8						; size = 4
?SetToggleState@CBaseEntity@@UAEXH@Z PROC		; CBaseEntity::SetToggleState, COMDAT
; _this$ = ecx

; 412  : 	virtual void	SetToggleState( int state ) {}

	push	ebp
	mov	ebp, esp
	push	ecx
	mov	DWORD PTR _this$[ebp], ecx
	mov	esp, ebp
	pop	ebp
	ret	4
?SetToggleState@CBaseEntity@@UAEXH@Z ENDP		; CBaseEntity::SetToggleState
_TEXT	ENDS
; Function compile flags: /Odtp
; File c:\users\user\downloads\xashxt_v0.81_rev.1_with_sources\xashxt_v0.81_rev.1_src\server\cbase.h
;	COMDAT ?TransferReset@CBaseEntity@@UAEXXZ
_TEXT	SEGMENT
_this$ = -4						; size = 4
?TransferReset@CBaseEntity@@UAEXXZ PROC			; CBaseEntity::TransferReset, COMDAT
; _this$ = ecx

; 409  : 	virtual void	TransferReset( void ) {}

	push	ebp
	mov	ebp, esp
	push	ecx
	mov	DWORD PTR _this$[ebp], ecx
	mov	esp, ebp
	pop	ebp
	ret	0
?TransferReset@CBaseEntity@@UAEXXZ ENDP			; CBaseEntity::TransferReset
_TEXT	ENDS
; Function compile flags: /Odtp
; File c:\users\user\downloads\xashxt_v0.81_rev.1_with_sources\xashxt_v0.81_rev.1_src\server\cbase.h
;	COMDAT ?OverrideReset@CBaseEntity@@UAEXXZ
_TEXT	SEGMENT
_this$ = -4						; size = 4
?OverrideReset@CBaseEntity@@UAEXXZ PROC			; CBaseEntity::OverrideReset, COMDAT
; _this$ = ecx

; 408  : 	virtual void	OverrideReset( void ) {}

	push	ebp
	mov	ebp, esp
	push	ecx
	mov	DWORD PTR _this$[ebp], ecx
	mov	esp, ebp
	pop	ebp
	ret	0
?OverrideReset@CBaseEntity@@UAEXXZ ENDP			; CBaseEntity::OverrideReset
_TEXT	ENDS
; Function compile flags: /Odtp
; File c:\users\user\downloads\xashxt_v0.81_rev.1_with_sources\xashxt_v0.81_rev.1_src\server\cbase.h
;	COMDAT ?IsMoving@CBaseEntity@@UAEHXZ
_TEXT	SEGMENT
_this$ = -4						; size = 4
?IsMoving@CBaseEntity@@UAEHXZ PROC			; CBaseEntity::IsMoving, COMDAT
; _this$ = ecx

; 407  : 	virtual int	IsMoving( void ) { return GetAbsVelocity() != g_vecZero; }

	push	ebp
	mov	ebp, esp
	push	ecx
	mov	DWORD PTR _this$[ebp], ecx
	push	OFFSET ?g_vecZero@@3VVector@@B		; g_vecZero
	mov	ecx, DWORD PTR _this$[ebp]
	call	?GetAbsVelocity@CBaseEntity@@QBEABVVector@@XZ ; CBaseEntity::GetAbsVelocity
	mov	ecx, eax
	call	??9Vector@@QBEHABV0@@Z			; Vector::operator!=
	mov	esp, ebp
	pop	ebp
	ret	0
?IsMoving@CBaseEntity@@UAEHXZ ENDP			; CBaseEntity::IsMoving
_TEXT	ENDS
; Function compile flags: /Odtp
; File c:\users\user\downloads\xashxt_v0.81_rev.1_with_sources\xashxt_v0.81_rev.1_src\server\cbase.h
;	COMDAT ?GetDelay@CBaseEntity@@UAEMXZ
_TEXT	SEGMENT
_this$ = -4						; size = 4
?GetDelay@CBaseEntity@@UAEMXZ PROC			; CBaseEntity::GetDelay, COMDAT
; _this$ = ecx

; 406  : 	virtual float	GetDelay( void ) { return 0; }

	push	ebp
	mov	ebp, esp
	push	ecx
	mov	DWORD PTR _this$[ebp], ecx
	fldz
	mov	esp, ebp
	pop	ebp
	ret	0
?GetDelay@CBaseEntity@@UAEMXZ ENDP			; CBaseEntity::GetDelay
_TEXT	ENDS
; Function compile flags: /Odtp
; File c:\users\user\downloads\xashxt_v0.81_rev.1_with_sources\xashxt_v0.81_rev.1_src\server\cbase.h
;	COMDAT ?GiveAmmo@CBaseEntity@@UAEHHPADH@Z
_TEXT	SEGMENT
_this$ = -4						; size = 4
_iAmount$ = 8						; size = 4
_szName$ = 12						; size = 4
_iMax$ = 16						; size = 4
?GiveAmmo@CBaseEntity@@UAEHHPADH@Z PROC			; CBaseEntity::GiveAmmo, COMDAT
; _this$ = ecx

; 405  : 	virtual int 	GiveAmmo( int iAmount, char *szName, int iMax ) { return -1; };

	push	ebp
	mov	ebp, esp
	push	ecx
	mov	DWORD PTR _this$[ebp], ecx
	or	eax, -1
	mov	esp, ebp
	pop	ebp
	ret	12					; 0000000cH
?GiveAmmo@CBaseEntity@@UAEHHPADH@Z ENDP			; CBaseEntity::GiveAmmo
_TEXT	ENDS
; Function compile flags: /Odtp
; File c:\users\user\downloads\xashxt_v0.81_rev.1_with_sources\xashxt_v0.81_rev.1_src\server\cbase.h
;	COMDAT ?RemovePlayerItem@CBaseEntity@@UAEHPAVCBasePlayerItem@@@Z
_TEXT	SEGMENT
_this$ = -4						; size = 4
_pItem$ = 8						; size = 4
?RemovePlayerItem@CBaseEntity@@UAEHPAVCBasePlayerItem@@@Z PROC ; CBaseEntity::RemovePlayerItem, COMDAT
; _this$ = ecx

; 404  : 	virtual BOOL	RemovePlayerItem( CBasePlayerItem *pItem ) { return 0; }

	push	ebp
	mov	ebp, esp
	push	ecx
	mov	DWORD PTR _this$[ebp], ecx
	xor	eax, eax
	mov	esp, ebp
	pop	ebp
	ret	4
?RemovePlayerItem@CBaseEntity@@UAEHPAVCBasePlayerItem@@@Z ENDP ; CBaseEntity::RemovePlayerItem
_TEXT	ENDS
; Function compile flags: /Odtp
; File c:\users\user\downloads\xashxt_v0.81_rev.1_with_sources\xashxt_v0.81_rev.1_src\server\cbase.h
;	COMDAT ?AddPlayerItem@CBaseEntity@@UAEHPAVCBasePlayerItem@@@Z
_TEXT	SEGMENT
_this$ = -4						; size = 4
_pItem$ = 8						; size = 4
?AddPlayerItem@CBaseEntity@@UAEHPAVCBasePlayerItem@@@Z PROC ; CBaseEntity::AddPlayerItem, COMDAT
; _this$ = ecx

; 403  : 	virtual BOOL	AddPlayerItem( CBasePlayerItem *pItem ) { return 0; }

	push	ebp
	mov	ebp, esp
	push	ecx
	mov	DWORD PTR _this$[ebp], ecx
	xor	eax, eax
	mov	esp, ebp
	pop	ebp
	ret	4
?AddPlayerItem@CBaseEntity@@UAEHPAVCBasePlayerItem@@@Z ENDP ; CBaseEntity::AddPlayerItem
_TEXT	ENDS
; Function compile flags: /Odtp
; File c:\users\user\downloads\xashxt_v0.81_rev.1_with_sources\xashxt_v0.81_rev.1_src\server\cbase.h
;	COMDAT ?AddPointsToTeam@CBaseEntity@@UAEXHH@Z
_TEXT	SEGMENT
_this$ = -4						; size = 4
_score$ = 8						; size = 4
_bAllowNegativeScore$ = 12				; size = 4
?AddPointsToTeam@CBaseEntity@@UAEXHH@Z PROC		; CBaseEntity::AddPointsToTeam, COMDAT
; _this$ = ecx

; 402  : 	virtual void	AddPointsToTeam( int score, BOOL bAllowNegativeScore ) {}

	push	ebp
	mov	ebp, esp
	push	ecx
	mov	DWORD PTR _this$[ebp], ecx
	mov	esp, ebp
	pop	ebp
	ret	8
?AddPointsToTeam@CBaseEntity@@UAEXHH@Z ENDP		; CBaseEntity::AddPointsToTeam
_TEXT	ENDS
; Function compile flags: /Odtp
; File c:\users\user\downloads\xashxt_v0.81_rev.1_with_sources\xashxt_v0.81_rev.1_src\server\cbase.h
;	COMDAT ?AddPoints@CBaseEntity@@UAEXHH@Z
_TEXT	SEGMENT
_this$ = -4						; size = 4
_score$ = 8						; size = 4
_bAllowNegativeScore$ = 12				; size = 4
?AddPoints@CBaseEntity@@UAEXHH@Z PROC			; CBaseEntity::AddPoints, COMDAT
; _this$ = ecx

; 401  : 	virtual void	AddPoints( int score, BOOL bAllowNegativeScore ) {}

	push	ebp
	mov	ebp, esp
	push	ecx
	mov	DWORD PTR _this$[ebp], ecx
	mov	esp, ebp
	pop	ebp
	ret	8
?AddPoints@CBaseEntity@@UAEXHH@Z ENDP			; CBaseEntity::AddPoints
_TEXT	ENDS
; Function compile flags: /Odtp
; File c:\users\user\downloads\xashxt_v0.81_rev.1_with_sources\xashxt_v0.81_rev.1_src\server\cbase.h
;	COMDAT ?GetToggleState@CBaseEntity@@UAEHXZ
_TEXT	SEGMENT
_this$ = -4						; size = 4
?GetToggleState@CBaseEntity@@UAEHXZ PROC		; CBaseEntity::GetToggleState, COMDAT
; _this$ = ecx

; 400  : 	virtual int	GetToggleState( void ) { return TS_AT_TOP; }

	push	ebp
	mov	ebp, esp
	push	ecx
	mov	DWORD PTR _this$[ebp], ecx
	xor	eax, eax
	mov	esp, ebp
	pop	ebp
	ret	0
?GetToggleState@CBaseEntity@@UAEHXZ ENDP		; CBaseEntity::GetToggleState
_TEXT	ENDS
; Function compile flags: /Odtp
; File c:\users\user\downloads\xashxt_v0.81_rev.1_with_sources\xashxt_v0.81_rev.1_src\server\cbase.h
;	COMDAT ?MySquadMonsterPointer@CBaseEntity@@UAEPAVCSquadMonster@@XZ
_TEXT	SEGMENT
_this$ = -4						; size = 4
?MySquadMonsterPointer@CBaseEntity@@UAEPAVCSquadMonster@@XZ PROC ; CBaseEntity::MySquadMonsterPointer, COMDAT
; _this$ = ecx

; 399  : 	virtual CSquadMonster *MySquadMonsterPointer( void ) { return NULL;}

	push	ebp
	mov	ebp, esp
	push	ecx
	mov	DWORD PTR _this$[ebp], ecx
	xor	eax, eax
	mov	esp, ebp
	pop	ebp
	ret	0
?MySquadMonsterPointer@CBaseEntity@@UAEPAVCSquadMonster@@XZ ENDP ; CBaseEntity::MySquadMonsterPointer
_TEXT	ENDS
; Function compile flags: /Odtp
; File c:\users\user\downloads\xashxt_v0.81_rev.1_with_sources\xashxt_v0.81_rev.1_src\server\cbase.h
;	COMDAT ?MyMonsterPointer@CBaseEntity@@UAEPAVCBaseMonster@@XZ
_TEXT	SEGMENT
_this$ = -4						; size = 4
?MyMonsterPointer@CBaseEntity@@UAEPAVCBaseMonster@@XZ PROC ; CBaseEntity::MyMonsterPointer, COMDAT
; _this$ = ecx

; 398  : 	virtual CBaseMonster *MyMonsterPointer( void ) { return NULL;}

	push	ebp
	mov	ebp, esp
	push	ecx
	mov	DWORD PTR _this$[ebp], ecx
	xor	eax, eax
	mov	esp, ebp
	pop	ebp
	ret	0
?MyMonsterPointer@CBaseEntity@@UAEPAVCBaseMonster@@XZ ENDP ; CBaseEntity::MyMonsterPointer
_TEXT	ENDS
; Function compile flags: /Odtp
; File c:\users\user\downloads\xashxt_v0.81_rev.1_with_sources\xashxt_v0.81_rev.1_src\server\cbase.h
;	COMDAT ?IsTriggered@CBaseEntity@@UAEHPAV1@@Z
_TEXT	SEGMENT
_this$ = -4						; size = 4
_pActivator$ = 8					; size = 4
?IsTriggered@CBaseEntity@@UAEHPAV1@@Z PROC		; CBaseEntity::IsTriggered, COMDAT
; _this$ = ecx

; 397  : 	virtual BOOL	IsTriggered( CBaseEntity *pActivator ) {return TRUE;}

	push	ebp
	mov	ebp, esp
	push	ecx
	mov	DWORD PTR _this$[ebp], ecx
	mov	eax, 1
	mov	esp, ebp
	pop	ebp
	ret	4
?IsTriggered@CBaseEntity@@UAEHPAV1@@Z ENDP		; CBaseEntity::IsTriggered
_TEXT	ENDS
; Function compile flags: /Odtp
; File c:\users\user\downloads\xashxt_v0.81_rev.1_with_sources\xashxt_v0.81_rev.1_src\server\cbase.h
;	COMDAT ?BloodColor@CBaseEntity@@UAEHXZ
_TEXT	SEGMENT
_this$ = -4						; size = 4
?BloodColor@CBaseEntity@@UAEHXZ PROC			; CBaseEntity::BloodColor, COMDAT
; _this$ = ecx

; 395  : 	virtual int	BloodColor( void ) { return DONT_BLEED; }

	push	ebp
	mov	ebp, esp
	push	ecx
	mov	DWORD PTR _this$[ebp], ecx
	or	eax, -1
	mov	esp, ebp
	pop	ebp
	ret	0
?BloodColor@CBaseEntity@@UAEHXZ ENDP			; CBaseEntity::BloodColor
_TEXT	ENDS
; Function compile flags: /Odtp
; File c:\users\user\downloads\xashxt_v0.81_rev.1_with_sources\xashxt_v0.81_rev.1_src\server\cbase.h
;	COMDAT ?GetState@CBaseEntity@@UAE?AW4STATE@@PAV1@@Z
_TEXT	SEGMENT
_this$ = -4						; size = 4
_pEnt$ = 8						; size = 4
?GetState@CBaseEntity@@UAE?AW4STATE@@PAV1@@Z PROC	; CBaseEntity::GetState, COMDAT
; _this$ = ecx

; 388  : 	virtual STATE GetState ( CBaseEntity* pEnt ) { return GetState(); };

	push	ebp
	mov	ebp, esp
	push	ecx
	mov	DWORD PTR _this$[ebp], ecx
	mov	eax, DWORD PTR _this$[ebp]
	mov	edx, DWORD PTR [eax]
	mov	ecx, DWORD PTR _this$[ebp]
	mov	eax, DWORD PTR [edx+88]
	call	eax
	mov	esp, ebp
	pop	ebp
	ret	4
?GetState@CBaseEntity@@UAE?AW4STATE@@PAV1@@Z ENDP	; CBaseEntity::GetState
_TEXT	ENDS
; Function compile flags: /Odtp
; File c:\users\user\downloads\xashxt_v0.81_rev.1_with_sources\xashxt_v0.81_rev.1_src\server\cbase.h
;	COMDAT ?GetState@CBaseEntity@@UAE?AW4STATE@@XZ
_TEXT	SEGMENT
_this$ = -4						; size = 4
?GetState@CBaseEntity@@UAE?AW4STATE@@XZ PROC		; CBaseEntity::GetState, COMDAT
; _this$ = ecx

; 385  : 	virtual STATE GetState ( void ) { return STATE_OFF; };

	push	ebp
	mov	ebp, esp
	push	ecx
	mov	DWORD PTR _this$[ebp], ecx
	xor	eax, eax
	mov	esp, ebp
	pop	ebp
	ret	0
?GetState@CBaseEntity@@UAE?AW4STATE@@XZ ENDP		; CBaseEntity::GetState
_TEXT	ENDS
; Function compile flags: /Odtp
; File c:\users\user\downloads\xashxt_v0.81_rev.1_with_sources\xashxt_v0.81_rev.1_src\server\cbase.h
;	COMDAT ?IsRigidBody@CBaseEntity@@UAEHXZ
_TEXT	SEGMENT
_this$ = -8						; size = 4
tv67 = -4						; size = 4
?IsRigidBody@CBaseEntity@@UAEHXZ PROC			; CBaseEntity::IsRigidBody, COMDAT
; _this$ = ecx

; 374  : 	virtual BOOL IsRigidBody( void ) { return (m_iActorType == ACTOR_DYNAMIC); } 

	push	ebp
	mov	ebp, esp
	sub	esp, 8
	mov	DWORD PTR _this$[ebp], ecx
	mov	eax, DWORD PTR _this$[ebp]
	movzx	ecx, BYTE PTR [eax+1604]
	cmp	ecx, 1
	jne	SHORT $LN3@IsRigidBod
	mov	DWORD PTR tv67[ebp], 1
	jmp	SHORT $LN4@IsRigidBod
$LN3@IsRigidBod:
	mov	DWORD PTR tv67[ebp], 0
$LN4@IsRigidBod:
	mov	eax, DWORD PTR tv67[ebp]
	mov	esp, ebp
	pop	ebp
	ret	0
?IsRigidBody@CBaseEntity@@UAEHXZ ENDP			; CBaseEntity::IsRigidBody
_TEXT	ENDS
; Function compile flags: /Odtp
; File c:\users\user\downloads\xashxt_v0.81_rev.1_with_sources\xashxt_v0.81_rev.1_src\server\cbase.h
;	COMDAT ?DeathNotice@CBaseEntity@@UAEXPAUentvars_s@@@Z
_TEXT	SEGMENT
_this$ = -4						; size = 4
_pevChild$ = 8						; size = 4
?DeathNotice@CBaseEntity@@UAEXPAUentvars_s@@@Z PROC	; CBaseEntity::DeathNotice, COMDAT
; _this$ = ecx

; 373  : 	virtual void DeathNotice ( entvars_t *pevChild ) { } // monster maker children use this to tell the monster maker that they have died.

	push	ebp
	mov	ebp, esp
	push	ecx
	mov	DWORD PTR _this$[ebp], ecx
	mov	esp, ebp
	pop	ebp
	ret	4
?DeathNotice@CBaseEntity@@UAEXPAUentvars_s@@@Z ENDP	; CBaseEntity::DeathNotice
_TEXT	ENDS
; Function compile flags: /Odtp
; File c:\users\user\downloads\xashxt_v0.81_rev.1_with_sources\xashxt_v0.81_rev.1_src\server\cbase.h
;	COMDAT ?Classify@CBaseEntity@@UAEHXZ
_TEXT	SEGMENT
_this$ = -4						; size = 4
?Classify@CBaseEntity@@UAEHXZ PROC			; CBaseEntity::Classify, COMDAT
; _this$ = ecx

; 372  : 	virtual int Classify ( void ) { return CLASS_NONE; };

	push	ebp
	mov	ebp, esp
	push	ecx
	mov	DWORD PTR _this$[ebp], ecx
	xor	eax, eax
	mov	esp, ebp
	pop	ebp
	ret	0
?Classify@CBaseEntity@@UAEHXZ ENDP			; CBaseEntity::Classify
_TEXT	ENDS
; Function compile flags: /Odtp
; File c:\users\user\downloads\xashxt_v0.81_rev.1_with_sources\xashxt_v0.81_rev.1_src\server\cbase.h
;	COMDAT ?OnRemove@CBaseEntity@@UAEXXZ
_TEXT	SEGMENT
_this$ = -4						; size = 4
?OnRemove@CBaseEntity@@UAEXXZ PROC			; CBaseEntity::OnRemove, COMDAT
; _this$ = ecx

; 360  : 	virtual void	OnRemove( void ) {}

	push	ebp
	mov	ebp, esp
	push	ecx
	mov	DWORD PTR _this$[ebp], ecx
	mov	esp, ebp
	pop	ebp
	ret	0
?OnRemove@CBaseEntity@@UAEXXZ ENDP			; CBaseEntity::OnRemove
_TEXT	ENDS
; Function compile flags: /Odtp
; File c:\users\user\downloads\xashxt_v0.81_rev.1_with_sources\xashxt_v0.81_rev.1_src\server\cbase.h
;	COMDAT ?OnClearParent@CBaseEntity@@UAEXXZ
_TEXT	SEGMENT
_this$ = -4						; size = 4
?OnClearParent@CBaseEntity@@UAEXXZ PROC			; CBaseEntity::OnClearParent, COMDAT
; _this$ = ecx

; 359  : 	virtual void	OnClearParent( void ) {}

	push	ebp
	mov	ebp, esp
	push	ecx
	mov	DWORD PTR _this$[ebp], ecx
	mov	esp, ebp
	pop	ebp
	ret	0
?OnClearParent@CBaseEntity@@UAEXXZ ENDP			; CBaseEntity::OnClearParent
_TEXT	ENDS
; Function compile flags: /Odtp
; File c:\users\user\downloads\xashxt_v0.81_rev.1_with_sources\xashxt_v0.81_rev.1_src\server\cbase.h
;	COMDAT ?OnChangeParent@CBaseEntity@@UAEXXZ
_TEXT	SEGMENT
_this$ = -4						; size = 4
?OnChangeParent@CBaseEntity@@UAEXXZ PROC		; CBaseEntity::OnChangeParent, COMDAT
; _this$ = ecx

; 358  : 	virtual void	OnChangeParent( void ) {}

	push	ebp
	mov	ebp, esp
	push	ecx
	mov	DWORD PTR _this$[ebp], ecx
	mov	esp, ebp
	pop	ebp
	ret	0
?OnChangeParent@CBaseEntity@@UAEXXZ ENDP		; CBaseEntity::OnChangeParent
_TEXT	ENDS
; Function compile flags: /Odtp
; File c:\users\user\downloads\xashxt_v0.81_rev.1_with_sources\xashxt_v0.81_rev.1_src\server\cbase.h
;	COMDAT ?GetPosition@CBaseEntity@@UAEMXZ
_TEXT	SEGMENT
_this$ = -4						; size = 4
?GetPosition@CBaseEntity@@UAEMXZ PROC			; CBaseEntity::GetPosition, COMDAT
; _this$ = ecx

; 357  : 	virtual float	GetPosition( void ) { return 0.0f; }

	push	ebp
	mov	ebp, esp
	push	ecx
	mov	DWORD PTR _this$[ebp], ecx
	fldz
	mov	esp, ebp
	pop	ebp
	ret	0
?GetPosition@CBaseEntity@@UAEMXZ ENDP			; CBaseEntity::GetPosition
_TEXT	ENDS
; Function compile flags: /Odtp
; File c:\users\user\downloads\xashxt_v0.81_rev.1_with_sources\xashxt_v0.81_rev.1_src\server\cbase.h
;	COMDAT ?StartMessage@CBaseEntity@@UAEXPAVCBasePlayer@@@Z
_TEXT	SEGMENT
_this$ = -4						; size = 4
_pPlayer$ = 8						; size = 4
?StartMessage@CBaseEntity@@UAEXPAVCBasePlayer@@@Z PROC	; CBaseEntity::StartMessage, COMDAT
; _this$ = ecx

; 356  :           virtual void	StartMessage( CBasePlayer *pPlayer ) {}

	push	ebp
	mov	ebp, esp
	push	ecx
	mov	DWORD PTR _this$[ebp], ecx
	mov	esp, ebp
	pop	ebp
	ret	4
?StartMessage@CBaseEntity@@UAEXPAVCBasePlayer@@@Z ENDP	; CBaseEntity::StartMessage
_TEXT	ENDS
; Function compile flags: /Odtp
; File c:\users\user\downloads\xashxt_v0.81_rev.1_with_sources\xashxt_v0.81_rev.1_src\server\cbase.h
;	COMDAT ?PortalSleep@CBaseEntity@@UAEXM@Z
_TEXT	SEGMENT
_this$ = -4						; size = 4
_seconds$ = 8						; size = 4
?PortalSleep@CBaseEntity@@UAEXM@Z PROC			; CBaseEntity::PortalSleep, COMDAT
; _this$ = ecx

; 355  : 	virtual void	PortalSleep( float seconds ) {}

	push	ebp
	mov	ebp, esp
	push	ecx
	mov	DWORD PTR _this$[ebp], ecx
	mov	esp, ebp
	pop	ebp
	ret	4
?PortalSleep@CBaseEntity@@UAEXM@Z ENDP			; CBaseEntity::PortalSleep
_TEXT	ENDS
; Function compile flags: /Odtp
; File c:\users\user\downloads\xashxt_v0.81_rev.1_with_sources\xashxt_v0.81_rev.1_src\server\cbase.h
;	COMDAT ?OnTeleport@CBaseEntity@@UAEXXZ
_TEXT	SEGMENT
_this$ = -4						; size = 4
?OnTeleport@CBaseEntity@@UAEXXZ PROC			; CBaseEntity::OnTeleport, COMDAT
; _this$ = ecx

; 354  : 	virtual void	OnTeleport( void ) {}

	push	ebp
	mov	ebp, esp
	push	ecx
	mov	DWORD PTR _this$[ebp], ecx
	mov	esp, ebp
	pop	ebp
	ret	0
?OnTeleport@CBaseEntity@@UAEXXZ ENDP			; CBaseEntity::OnTeleport
_TEXT	ENDS
; Function compile flags: /Odtp
; File c:\users\user\downloads\xashxt_v0.81_rev.1_with_sources\xashxt_v0.81_rev.1_src\server\cbase.h
;	COMDAT ?OnChangeLevel@CBaseEntity@@UAEXXZ
_TEXT	SEGMENT
_this$ = -4						; size = 4
?OnChangeLevel@CBaseEntity@@UAEXXZ PROC			; CBaseEntity::OnChangeLevel, COMDAT
; _this$ = ecx

; 353  : 	virtual void	OnChangeLevel( void ) {}

	push	ebp
	mov	ebp, esp
	push	ecx
	mov	DWORD PTR _this$[ebp], ecx
	mov	esp, ebp
	pop	ebp
	ret	0
?OnChangeLevel@CBaseEntity@@UAEXXZ ENDP			; CBaseEntity::OnChangeLevel
_TEXT	ENDS
; Function compile flags: /Odtp
; File c:\users\user\downloads\xashxt_v0.81_rev.1_with_sources\xashxt_v0.81_rev.1_src\server\cbase.h
;	COMDAT ?Activate@CBaseEntity@@UAEXXZ
_TEXT	SEGMENT
_this$ = -4						; size = 4
?Activate@CBaseEntity@@UAEXXZ PROC			; CBaseEntity::Activate, COMDAT
; _this$ = ecx

; 352  : 	virtual void	Activate( void ) {}

	push	ebp
	mov	ebp, esp
	push	ecx
	mov	DWORD PTR _this$[ebp], ecx
	mov	esp, ebp
	pop	ebp
	ret	0
?Activate@CBaseEntity@@UAEXXZ ENDP			; CBaseEntity::Activate
_TEXT	ENDS
; Function compile flags: /Odtp
; File c:\users\user\downloads\xashxt_v0.81_rev.1_with_sources\xashxt_v0.81_rev.1_src\server\cbase.h
;	COMDAT ?ObjectCaps@CBaseEntity@@UAEHXZ
_TEXT	SEGMENT
_this$ = -4						; size = 4
?ObjectCaps@CBaseEntity@@UAEHXZ PROC			; CBaseEntity::ObjectCaps, COMDAT
; _this$ = ecx

; 351  : 	virtual int	ObjectCaps( void ) { return FCAP_ACROSS_TRANSITION; }

	push	ebp
	mov	ebp, esp
	push	ecx
	mov	DWORD PTR _this$[ebp], ecx
	mov	eax, 2
	mov	esp, ebp
	pop	ebp
	ret	0
?ObjectCaps@CBaseEntity@@UAEHXZ ENDP			; CBaseEntity::ObjectCaps
_TEXT	ENDS
; Function compile flags: /Odtp
; File c:\users\user\downloads\xashxt_v0.81_rev.1_with_sources\xashxt_v0.81_rev.1_src\server\cbase.h
;	COMDAT ?KeyValue@CBaseEntity@@UAEXPAUKeyValueData_s@@@Z
_TEXT	SEGMENT
tv139 = -8						; size = 4
_this$ = -4						; size = 4
_pkvd$ = 8						; size = 4
?KeyValue@CBaseEntity@@UAEXPAUKeyValueData_s@@@Z PROC	; CBaseEntity::KeyValue, COMDAT
; _this$ = ecx

; 315  : 	{

	push	ebp
	mov	ebp, esp
	sub	esp, 8
	mov	DWORD PTR _this$[ebp], ecx

; 316  : 		// get support for spirit field too
; 317  : 		if( FStrEq( pkvd->szKeyName, "parent" ) || FStrEq( pkvd->szKeyName, "movewith" ))

	push	OFFSET ??_C@_06MLKDMCBD@parent@
	mov	eax, DWORD PTR _pkvd$[ebp]
	mov	ecx, DWORD PTR [eax+4]
	push	ecx
	call	?FStrEq@@YAHPBD0@Z			; FStrEq
	add	esp, 8
	test	eax, eax
	jne	SHORT $LN6@KeyValue
	push	OFFSET ??_C@_08JJJAOBDI@movewith@
	mov	edx, DWORD PTR _pkvd$[ebp]
	mov	eax, DWORD PTR [edx+4]
	push	eax
	call	?FStrEq@@YAHPBD0@Z			; FStrEq
	add	esp, 8
	test	eax, eax
	je	SHORT $LN4@KeyValue
$LN6@KeyValue:

; 318  : 		{
; 319  : 			m_iParent = ALLOC_STRING(pkvd->szValue);

	mov	ecx, DWORD PTR _pkvd$[ebp]
	mov	edx, DWORD PTR [ecx+8]
	push	edx
	call	DWORD PTR ?g_engfuncs@@3Uenginefuncs_s@@A+268
	add	esp, 4
	mov	ecx, DWORD PTR _this$[ebp]
	mov	DWORD PTR [ecx+172], eax

; 320  : 			pkvd->fHandled = TRUE;

	mov	edx, DWORD PTR _pkvd$[ebp]
	mov	DWORD PTR [edx+12], 1
	jmp	$LN1@KeyValue
$LN4@KeyValue:

; 321  : 		}
; 322  : 		else if( FStrEq( pkvd->szKeyName, "parentflags" ))

	push	OFFSET ??_C@_0M@EAELDHJO@parentflags@
	mov	eax, DWORD PTR _pkvd$[ebp]
	mov	ecx, DWORD PTR [eax+4]
	push	ecx
	call	?FStrEq@@YAHPBD0@Z			; FStrEq
	add	esp, 8
	test	eax, eax
	je	SHORT $LN7@KeyValue

; 323  : 		{
; 324  : 			m_iParentFlags = Q_atoi( pkvd->szValue );

	mov	edx, DWORD PTR _pkvd$[ebp]
	mov	eax, DWORD PTR [edx+8]
	push	eax
	call	?Q_atoi@@YAHPBD@Z			; Q_atoi
	add	esp, 4
	mov	ecx, DWORD PTR _this$[ebp]
	mov	DWORD PTR [ecx+176], eax

; 325  : 			pkvd->fHandled = TRUE;

	mov	edx, DWORD PTR _pkvd$[ebp]
	mov	DWORD PTR [edx+12], 1
	jmp	$LN1@KeyValue
$LN7@KeyValue:

; 326  : 		}
; 327  : 		else if( FStrEq( pkvd->szKeyName, "style" ))

	push	OFFSET ??_C@_05IAKJCFIM@style@
	mov	eax, DWORD PTR _pkvd$[ebp]
	mov	ecx, DWORD PTR [eax+4]
	push	ecx
	call	?FStrEq@@YAHPBD0@Z			; FStrEq
	add	esp, 8
	test	eax, eax
	je	SHORT $LN9@KeyValue

; 328  : 		{
; 329  : 			m_iStyle = Q_atoi( pkvd->szValue );

	mov	edx, DWORD PTR _pkvd$[ebp]
	mov	eax, DWORD PTR [edx+8]
	push	eax
	call	?Q_atoi@@YAHPBD@Z			; Q_atoi
	add	esp, 4
	mov	ecx, DWORD PTR _this$[ebp]
	mov	DWORD PTR [ecx+64], eax

; 330  : 			pkvd->fHandled = TRUE;

	mov	edx, DWORD PTR _pkvd$[ebp]
	mov	DWORD PTR [edx+12], 1
	jmp	$LN1@KeyValue
$LN9@KeyValue:

; 331  : 		}
; 332  : 		else if( FStrEq( pkvd->szKeyName, "reflection" ))

	push	OFFSET ??_C@_0L@IKCANML@reflection@
	mov	eax, DWORD PTR _pkvd$[ebp]
	mov	ecx, DWORD PTR [eax+4]
	push	ecx
	call	?FStrEq@@YAHPBD0@Z			; FStrEq
	add	esp, 8
	test	eax, eax
	je	SHORT $LN11@KeyValue

; 333  : 		{
; 334  : 			switch( Q_atoi( pkvd->szValue ))

	mov	edx, DWORD PTR _pkvd$[ebp]
	mov	eax, DWORD PTR [edx+8]
	push	eax
	call	?Q_atoi@@YAHPBD@Z			; Q_atoi
	add	esp, 4
	mov	DWORD PTR tv139[ebp], eax
	cmp	DWORD PTR tv139[ebp], 1
	je	SHORT $LN13@KeyValue
	cmp	DWORD PTR tv139[ebp], 2
	je	SHORT $LN14@KeyValue
	jmp	SHORT $LN2@KeyValue
$LN13@KeyValue:

; 335  : 			{
; 336  : 			case 1: pev->effects |= EF_NOREFLECT; break;

	mov	ecx, DWORD PTR _this$[ebp]
	mov	edx, DWORD PTR [ecx+4]
	mov	eax, DWORD PTR [edx+280]
	or	eax, 16777216				; 01000000H
	mov	ecx, DWORD PTR _this$[ebp]
	mov	edx, DWORD PTR [ecx+4]
	mov	DWORD PTR [edx+280], eax
	jmp	SHORT $LN2@KeyValue
$LN14@KeyValue:

; 337  : 			case 2: pev->effects |= EF_REFLECTONLY; break;

	mov	eax, DWORD PTR _this$[ebp]
	mov	ecx, DWORD PTR [eax+4]
	mov	edx, DWORD PTR [ecx+280]
	or	edx, 33554432				; 02000000H
	mov	eax, DWORD PTR _this$[ebp]
	mov	ecx, DWORD PTR [eax+4]
	mov	DWORD PTR [ecx+280], edx
$LN2@KeyValue:

; 338  : 			}
; 339  : 			pkvd->fHandled = TRUE;

	mov	edx, DWORD PTR _pkvd$[ebp]
	mov	DWORD PTR [edx+12], 1
	jmp	SHORT $LN1@KeyValue
$LN11@KeyValue:

; 340  : 		}
; 341  : 		else if( FStrEq(pkvd->szKeyName, "vlight_cache"))

	push	OFFSET ??_C@_0N@JILDNHAP@vlight_cache@
	mov	eax, DWORD PTR _pkvd$[ebp]
	mov	ecx, DWORD PTR [eax+4]
	push	ecx
	call	?FStrEq@@YAHPBD0@Z			; FStrEq
	add	esp, 8
	test	eax, eax
	je	SHORT $LN15@KeyValue

; 342  : 		{
; 343  : 			pev->iuser3 = atoi( pkvd->szValue );

	mov	edx, DWORD PTR _pkvd$[ebp]
	mov	eax, DWORD PTR [edx+8]
	push	eax
	call	_atoi
	add	esp, 4
	mov	ecx, DWORD PTR _this$[ebp]
	mov	edx, DWORD PTR [ecx+4]
	mov	DWORD PTR [edx+588], eax

; 344  : 			pkvd->fHandled = TRUE;

	mov	eax, DWORD PTR _pkvd$[ebp]
	mov	DWORD PTR [eax+12], 1
	jmp	SHORT $LN1@KeyValue
$LN15@KeyValue:

; 345  : 		}
; 346  : 		else pkvd->fHandled = FALSE;

	mov	ecx, DWORD PTR _pkvd$[ebp]
	mov	DWORD PTR [ecx+12], 0
$LN1@KeyValue:

; 347  : 	}

	mov	esp, ebp
	pop	ebp
	ret	4
?KeyValue@CBaseEntity@@UAEXPAUKeyValueData_s@@@Z ENDP	; CBaseEntity::KeyValue
_TEXT	ENDS
; Function compile flags: /Odtp
; File c:\users\user\downloads\xashxt_v0.81_rev.1_with_sources\xashxt_v0.81_rev.1_src\server\cbase.h
;	COMDAT ?Precache@CBaseEntity@@UAEXXZ
_TEXT	SEGMENT
_this$ = -4						; size = 4
?Precache@CBaseEntity@@UAEXXZ PROC			; CBaseEntity::Precache, COMDAT
; _this$ = ecx

; 313  : 	virtual void	Precache( void ) { }

	push	ebp
	mov	ebp, esp
	push	ecx
	mov	DWORD PTR _this$[ebp], ecx
	mov	esp, ebp
	pop	ebp
	ret	0
?Precache@CBaseEntity@@UAEXXZ ENDP			; CBaseEntity::Precache
_TEXT	ENDS
; Function compile flags: /Odtp
; File c:\users\user\downloads\xashxt_v0.81_rev.1_with_sources\xashxt_v0.81_rev.1_src\server\cbase.h
;	COMDAT ?Spawn@CBaseEntity@@UAEXXZ
_TEXT	SEGMENT
_this$ = -4						; size = 4
?Spawn@CBaseEntity@@UAEXXZ PROC				; CBaseEntity::Spawn, COMDAT
; _this$ = ecx

; 312  : 	virtual void	Spawn( void ) { }

	push	ebp
	mov	ebp, esp
	push	ecx
	mov	DWORD PTR _this$[ebp], ecx
	mov	esp, ebp
	pop	ebp
	ret	0
?Spawn@CBaseEntity@@UAEXXZ ENDP				; CBaseEntity::Spawn
_TEXT	ENDS
; Function compile flags: /Odtp
; File c:\users\user\downloads\xashxt_v0.81_rev.1_with_sources\xashxt_v0.81_rev.1_src\server\cbase.h
;	COMDAT ?SetClassname@CBaseEntity@@QAEXPBD@Z
_TEXT	SEGMENT
_this$ = -4						; size = 4
_pszClassName$ = 8					; size = 4
?SetClassname@CBaseEntity@@QAEXPBD@Z PROC		; CBaseEntity::SetClassname, COMDAT
; _this$ = ecx

; 294  : 	void		SetClassname( const char *pszClassName ) { pev->classname = MAKE_STRING( pszClassName ); }

	push	ebp
	mov	ebp, esp
	push	ecx
	mov	DWORD PTR _this$[ebp], ecx
	mov	eax, DWORD PTR _pszClassName$[ebp]
	push	eax
	call	DWORD PTR ?g_engfuncs@@3Uenginefuncs_s@@A+268
	add	esp, 4
	mov	ecx, DWORD PTR _this$[ebp]
	mov	edx, DWORD PTR [ecx+4]
	mov	DWORD PTR [edx], eax
	mov	esp, ebp
	pop	ebp
	ret	4
?SetClassname@CBaseEntity@@QAEXPBD@Z ENDP		; CBaseEntity::SetClassname
_TEXT	ENDS
; Function compile flags: /Odtp
; File c:\users\user\downloads\xashxt_v0.81_rev.1_with_sources\xashxt_v0.81_rev.1_src\server\ehandle.h
;	COMDAT ??CEHANDLE@@QAEPAVCBaseEntity@@XZ
_TEXT	SEGMENT
_this$ = -4						; size = 4
??CEHANDLE@@QAEPAVCBaseEntity@@XZ PROC			; EHANDLE::operator->, COMDAT
; _this$ = ecx

; 90   : {

	push	ebp
	mov	ebp, esp
	push	ecx
	mov	DWORD PTR _this$[ebp], ecx

; 91   : 	return (CBaseEntity *)GET_PRIVATE( Get( ) ); 

	mov	ecx, DWORD PTR _this$[ebp]
	call	?Get@EHANDLE@@QAEPAUedict_s@@XZ		; EHANDLE::Get
	push	eax
	call	?GET_PRIVATE@@YAPAXPAUedict_s@@@Z	; GET_PRIVATE
	add	esp, 4

; 92   : }

	mov	esp, ebp
	pop	ebp
	ret	0
??CEHANDLE@@QAEPAVCBaseEntity@@XZ ENDP			; EHANDLE::operator->
_TEXT	ENDS
; Function compile flags: /Odtp
; File c:\users\user\downloads\xashxt_v0.81_rev.1_with_sources\xashxt_v0.81_rev.1_src\server\ehandle.h
;	COMDAT ??BEHANDLE@@QAEHXZ
_TEXT	SEGMENT
_this$ = -8						; size = 4
tv67 = -4						; size = 4
??BEHANDLE@@QAEHXZ PROC					; EHANDLE::operator int, COMDAT
; _this$ = ecx

; 85   : {

	push	ebp
	mov	ebp, esp
	sub	esp, 8
	mov	DWORD PTR _this$[ebp], ecx

; 86   : 	return Get() != NULL;

	mov	ecx, DWORD PTR _this$[ebp]
	call	?Get@EHANDLE@@QAEPAUedict_s@@XZ		; EHANDLE::Get
	test	eax, eax
	je	SHORT $LN3@operator
	mov	DWORD PTR tv67[ebp], 1
	jmp	SHORT $LN4@operator
$LN3@operator:
	mov	DWORD PTR tv67[ebp], 0
$LN4@operator:
	mov	eax, DWORD PTR tv67[ebp]

; 87   : }

	mov	esp, ebp
	pop	ebp
	ret	0
??BEHANDLE@@QAEHXZ ENDP					; EHANDLE::operator int
_TEXT	ENDS
; Function compile flags: /Odtp
; File c:\users\user\downloads\xashxt_v0.81_rev.1_with_sources\xashxt_v0.81_rev.1_src\server\ehandle.h
;	COMDAT ?Get@EHANDLE@@QAEPAUedict_s@@XZ
_TEXT	SEGMENT
_this$ = -4						; size = 4
?Get@EHANDLE@@QAEPAUedict_s@@XZ PROC			; EHANDLE::Get, COMDAT
; _this$ = ecx

; 40   : { 

	push	ebp
	mov	ebp, esp
	push	ecx
	mov	DWORD PTR _this$[ebp], ecx

; 41   : 	if( m_pent )

	mov	eax, DWORD PTR _this$[ebp]
	cmp	DWORD PTR [eax], 0
	je	SHORT $LN2@Get

; 42   : 	{
; 43   : #if 0
; 44   : 		// keep client entity always in actual state
; 45   : 		if( ENTINDEX( m_pent ) == 1 )
; 46   : 			m_serialnumber = m_pent->serialnumber;
; 47   : #endif
; 48   : 		if( m_pent->serialnumber == m_serialnumber ) 

	mov	ecx, DWORD PTR _this$[ebp]
	mov	edx, DWORD PTR [ecx]
	mov	eax, DWORD PTR _this$[ebp]
	mov	ecx, DWORD PTR [edx+4]
	cmp	ecx, DWORD PTR [eax+4]
	jne	SHORT $LN2@Get

; 49   : 			return m_pent; 

	mov	edx, DWORD PTR _this$[ebp]
	mov	eax, DWORD PTR [edx]
	jmp	SHORT $LN1@Get
$LN2@Get:

; 50   : 	}
; 51   : 
; 52   : 	return NULL; 

	xor	eax, eax
$LN1@Get:

; 53   : }

	mov	esp, ebp
	pop	ebp
	ret	0
?Get@EHANDLE@@QAEPAUedict_s@@XZ ENDP			; EHANDLE::Get
_TEXT	ENDS
; Function compile flags: /Odtp
; File c:\users\user\downloads\xashxt_v0.81_rev.1_with_sources\xashxt_v0.81_rev.1_src\server\util.h
;	COMDAT ?FClassnameIs@@YAHPAUentvars_s@@PBD@Z
_TEXT	SEGMENT
_pev$ = 8						; size = 4
_szClassname$ = 12					; size = 4
?FClassnameIs@@YAHPAUentvars_s@@PBD@Z PROC		; FClassnameIs, COMDAT

; 294  : {

	push	ebp
	mov	ebp, esp

; 295  : 	if( FNullEnt( pev )) return FALSE;

	mov	eax, DWORD PTR _pev$[ebp]
	push	eax
	call	?FNullEnt@@YAHPAUentvars_s@@@Z		; FNullEnt
	add	esp, 4
	test	eax, eax
	je	SHORT $LN2@FClassname
	xor	eax, eax
	jmp	SHORT $LN1@FClassname
$LN2@FClassname:

; 296  : 	return FStrEq( STRING( pev->classname ), szClassname );

	mov	ecx, DWORD PTR _szClassname$[ebp]
	push	ecx
	mov	edx, DWORD PTR _pev$[ebp]
	mov	eax, DWORD PTR [edx]
	push	eax
	call	DWORD PTR ?g_engfuncs@@3Uenginefuncs_s@@A+264
	add	esp, 4
	push	eax
	call	?FStrEq@@YAHPBD0@Z			; FStrEq
	add	esp, 8
$LN1@FClassname:

; 297  : }

	pop	ebp
	ret	0
?FClassnameIs@@YAHPAUentvars_s@@PBD@Z ENDP		; FClassnameIs
_TEXT	ENDS
; Function compile flags: /Odtp
; File c:\users\user\downloads\xashxt_v0.81_rev.1_with_sources\xashxt_v0.81_rev.1_src\server\util.h
;	COMDAT ?FStrEq@@YAHPBD0@Z
_TEXT	SEGMENT
tv69 = -4						; size = 4
_sz1$ = 8						; size = 4
_sz2$ = 12						; size = 4
?FStrEq@@YAHPBD0@Z PROC					; FStrEq, COMDAT

; 286  : 	{ return (Q_strcmp( sz1, sz2 ) == 0); }

	push	ebp
	mov	ebp, esp
	push	ecx
	push	99999					; 0001869fH
	mov	eax, DWORD PTR _sz2$[ebp]
	push	eax
	mov	ecx, DWORD PTR _sz1$[ebp]
	push	ecx
	call	?Q_strncmp@@YAHPBD0H@Z			; Q_strncmp
	add	esp, 12					; 0000000cH
	test	eax, eax
	jne	SHORT $LN3@FStrEq
	mov	DWORD PTR tv69[ebp], 1
	jmp	SHORT $LN4@FStrEq
$LN3@FStrEq:
	mov	DWORD PTR tv69[ebp], 0
$LN4@FStrEq:
	mov	eax, DWORD PTR tv69[ebp]
	mov	esp, ebp
	pop	ebp
	ret	0
?FStrEq@@YAHPBD0@Z ENDP					; FStrEq
_TEXT	ENDS
; Function compile flags: /Odtp
; File c:\users\user\downloads\xashxt_v0.81_rev.1_with_sources\xashxt_v0.81_rev.1_src\server\util.h
;	COMDAT ?FNullEnt@@YAHPAUentvars_s@@@Z
_TEXT	SEGMENT
tv70 = -4						; size = 4
_pev$ = 8						; size = 4
?FNullEnt@@YAHPAUentvars_s@@@Z PROC			; FNullEnt, COMDAT

; 196  : inline BOOL FNullEnt(entvars_t* pev)				{ return pev == NULL || FNullEnt(OFFSET(pev)); }

	push	ebp
	mov	ebp, esp
	push	ecx
	cmp	DWORD PTR _pev$[ebp], 0
	je	SHORT $LN3@FNullEnt
	mov	eax, DWORD PTR _pev$[ebp]
	push	eax
	call	?OFFSET@@YAHPAUentvars_s@@@Z		; OFFSET
	add	esp, 4
	push	eax
	call	?FNullEnt@@YAHH@Z			; FNullEnt
	add	esp, 4
	test	eax, eax
	jne	SHORT $LN3@FNullEnt
	mov	DWORD PTR tv70[ebp], 0
	jmp	SHORT $LN4@FNullEnt
$LN3@FNullEnt:
	mov	DWORD PTR tv70[ebp], 1
$LN4@FNullEnt:
	mov	eax, DWORD PTR tv70[ebp]
	mov	esp, ebp
	pop	ebp
	ret	0
?FNullEnt@@YAHPAUentvars_s@@@Z ENDP			; FNullEnt
_TEXT	ENDS
; Function compile flags: /Odtp
; File c:\users\user\downloads\xashxt_v0.81_rev.1_with_sources\xashxt_v0.81_rev.1_src\server\util.h
;	COMDAT ?FNullEnt@@YAHH@Z
_TEXT	SEGMENT
tv65 = -4						; size = 4
_eoffset$ = 8						; size = 4
?FNullEnt@@YAHH@Z PROC					; FNullEnt, COMDAT

; 194  : inline BOOL FNullEnt(EOFFSET eoffset)			{ return eoffset == 0; }

	push	ebp
	mov	ebp, esp
	push	ecx
	cmp	DWORD PTR _eoffset$[ebp], 0
	jne	SHORT $LN3@FNullEnt
	mov	DWORD PTR tv65[ebp], 1
	jmp	SHORT $LN4@FNullEnt
$LN3@FNullEnt:
	mov	DWORD PTR tv65[ebp], 0
$LN4@FNullEnt:
	mov	eax, DWORD PTR tv65[ebp]
	mov	esp, ebp
	pop	ebp
	ret	0
?FNullEnt@@YAHH@Z ENDP					; FNullEnt
_TEXT	ENDS
; Function compile flags: /Odtp
; File c:\users\user\downloads\xashxt_v0.81_rev.1_with_sources\xashxt_v0.81_rev.1_src\server\util.h
;	COMDAT ?VARS@@YAPAUentvars_s@@PAUedict_s@@@Z
_TEXT	SEGMENT
_pent$ = 8						; size = 4
?VARS@@YAPAUentvars_s@@PAUedict_s@@@Z PROC		; VARS, COMDAT

; 178  : { 

	push	ebp
	mov	ebp, esp

; 179  : 	if ( !pent )

	cmp	DWORD PTR _pent$[ebp], 0
	jne	SHORT $LN2@VARS

; 180  : 		return NULL;

	xor	eax, eax
	jmp	SHORT $LN1@VARS
$LN2@VARS:

; 181  : 
; 182  : 	return &pent->v; 

	mov	eax, DWORD PTR _pent$[ebp]
	add	eax, 128				; 00000080H
$LN1@VARS:

; 183  : }

	pop	ebp
	ret	0
?VARS@@YAPAUentvars_s@@PAUedict_s@@@Z ENDP		; VARS
_TEXT	ENDS
; Function compile flags: /Odtp
; File c:\users\user\downloads\xashxt_v0.81_rev.1_with_sources\xashxt_v0.81_rev.1_src\server\util.h
;	COMDAT ?OFFSET@@YAHPAUentvars_s@@@Z
_TEXT	SEGMENT
_pev$ = 8						; size = 4
?OFFSET@@YAHPAUentvars_s@@@Z PROC			; OFFSET, COMDAT

; 168  : { 

	push	ebp
	mov	ebp, esp

; 169  : #if _DEBUG
; 170  : 	if ( !pev )

	cmp	DWORD PTR _pev$[ebp], 0
	jne	SHORT $LN2@OFFSET

; 171  : 		ALERT( at_error, "Bad pev in OFFSET()\n" );

	push	OFFSET ??_C@_0BF@DOONGEFO@Bad?5pev?5in?5OFFSET?$CI?$CJ?6@
	push	4
	call	DWORD PTR ?g_engfuncs@@3Uenginefuncs_s@@A+244
	add	esp, 8
$LN2@OFFSET:

; 172  : #endif
; 173  : 	return OFFSET(ENT(pev)); 

	mov	eax, DWORD PTR _pev$[ebp]
	push	eax
	call	?ENT@@YAPAUedict_s@@PBUentvars_s@@@Z	; ENT
	add	esp, 4
	push	eax
	call	?OFFSET@@YAHPBUedict_s@@@Z		; OFFSET
	add	esp, 4

; 174  : }

	pop	ebp
	ret	0
?OFFSET@@YAHPAUentvars_s@@@Z ENDP			; OFFSET
_TEXT	ENDS
; Function compile flags: /Odtp
; File c:\users\user\downloads\xashxt_v0.81_rev.1_with_sources\xashxt_v0.81_rev.1_src\server\util.h
;	COMDAT ?OFFSET@@YAHPBUedict_s@@@Z
_TEXT	SEGMENT
_pent$ = 8						; size = 4
?OFFSET@@YAHPBUedict_s@@@Z PROC				; OFFSET, COMDAT

; 160  : { 

	push	ebp
	mov	ebp, esp

; 161  : #if _DEBUG
; 162  : 	if ( !pent )

	cmp	DWORD PTR _pent$[ebp], 0
	jne	SHORT $LN2@OFFSET

; 163  : 		ALERT( at_error, "Bad ent in OFFSET()\n" );

	push	OFFSET ??_C@_0BF@CPEPILID@Bad?5ent?5in?5OFFSET?$CI?$CJ?6@
	push	4
	call	DWORD PTR ?g_engfuncs@@3Uenginefuncs_s@@A+244
	add	esp, 8
$LN2@OFFSET:

; 164  : #endif
; 165  : 	return (*g_engfuncs.pfnEntOffsetOfPEntity)(pent); 

	mov	eax, DWORD PTR _pent$[ebp]
	push	eax
	call	DWORD PTR ?g_engfuncs@@3Uenginefuncs_s@@A+280
	add	esp, 4

; 166  : }

	pop	ebp
	ret	0
?OFFSET@@YAHPBUedict_s@@@Z ENDP				; OFFSET
_TEXT	ENDS
; Function compile flags: /Odtp
; File c:\users\user\downloads\xashxt_v0.81_rev.1_with_sources\xashxt_v0.81_rev.1_src\server\util.h
;	COMDAT ?ENT@@YAPAUedict_s@@PBUentvars_s@@@Z
_TEXT	SEGMENT
_pev$ = 8						; size = 4
?ENT@@YAPAUedict_s@@PBUentvars_s@@@Z PROC		; ENT, COMDAT

; 151  : 	inline edict_t *ENT(const entvars_t *pev)	{ return DBG_EntOfVars(pev); }

	push	ebp
	mov	ebp, esp
	mov	eax, DWORD PTR _pev$[ebp]
	push	eax
	call	?DBG_EntOfVars@@YAPAUedict_s@@PBUentvars_s@@@Z ; DBG_EntOfVars
	add	esp, 4
	pop	ebp
	ret	0
?ENT@@YAPAUedict_s@@PBUentvars_s@@@Z ENDP		; ENT
_TEXT	ENDS
; Function compile flags: /Odtp
;	COMDAT ??0IEntityFactory@@QAE@XZ
_TEXT	SEGMENT
_this$ = -4						; size = 4
??0IEntityFactory@@QAE@XZ PROC				; IEntityFactory::IEntityFactory, COMDAT
; _this$ = ecx
	push	ebp
	mov	ebp, esp
	push	ecx
	mov	DWORD PTR _this$[ebp], ecx
	mov	eax, DWORD PTR _this$[ebp]
	mov	DWORD PTR [eax], OFFSET ??_7IEntityFactory@@6B@
	mov	eax, DWORD PTR _this$[ebp]
	mov	esp, ebp
	pop	ebp
	ret	0
??0IEntityFactory@@QAE@XZ ENDP				; IEntityFactory::IEntityFactory
_TEXT	ENDS
; Function compile flags: /Odtp
; File c:\users\user\downloads\xashxt_v0.81_rev.1_with_sources\xashxt_v0.81_rev.1_src\game_shared\utlarray.h
;	COMDAT ?ResetDbgInfo@?$CUtlArray@PADV?$CUtlMemory@PADH@@@@IAEXXZ
_TEXT	SEGMENT
_this$ = -4						; size = 4
?ResetDbgInfo@?$CUtlArray@PADV?$CUtlMemory@PADH@@@@IAEXXZ PROC ; CUtlArray<char *,CUtlMemory<char *,int> >::ResetDbgInfo, COMDAT
; _this$ = ecx

; 160  : 	{

	push	ebp
	mov	ebp, esp
	push	ecx
	mov	DWORD PTR _this$[ebp], ecx

; 161  : 		m_pElements = Base();

	mov	ecx, DWORD PTR _this$[ebp]
	call	?Base@?$CUtlArray@PADV?$CUtlMemory@PADH@@@@QAEPAPADXZ ; CUtlArray<char *,CUtlMemory<char *,int> >::Base
	mov	ecx, DWORD PTR _this$[ebp]
	mov	DWORD PTR [ecx+16], eax

; 162  : 	}

	mov	esp, ebp
	pop	ebp
	ret	0
?ResetDbgInfo@?$CUtlArray@PADV?$CUtlMemory@PADH@@@@IAEXXZ ENDP ; CUtlArray<char *,CUtlMemory<char *,int> >::ResetDbgInfo
_TEXT	ENDS
; Function compile flags: /Odtp
; File c:\users\user\downloads\xashxt_v0.81_rev.1_with_sources\xashxt_v0.81_rev.1_src\game_shared\utlmemory.h
;	COMDAT ?ValidateGrowSize@?$CUtlMemory@PADH@@IAEXXZ
_TEXT	SEGMENT
_this$ = -4						; size = 4
?ValidateGrowSize@?$CUtlMemory@PADH@@IAEXXZ PROC	; CUtlMemory<char *,int>::ValidateGrowSize, COMDAT
; _this$ = ecx

; 148  : 	{

	push	ebp
	mov	ebp, esp
	push	ecx
	mov	DWORD PTR _this$[ebp], ecx

; 149  : #ifdef _X360
; 150  : 		if ( m_nGrowSize && m_nGrowSize != EXTERNAL_BUFFER_MARKER )
; 151  : 		{
; 152  : 			// Max grow size at 128 bytes on XBOX
; 153  : 			const int MAX_GROW = 128;
; 154  : 			if ( m_nGrowSize * sizeof(T) > MAX_GROW )
; 155  : 			{
; 156  : 				m_nGrowSize = max( 1, MAX_GROW / sizeof(T) );
; 157  : 			}
; 158  : 		}
; 159  : #endif
; 160  : 	}

	mov	esp, ebp
	pop	ebp
	ret	0
?ValidateGrowSize@?$CUtlMemory@PADH@@IAEXXZ ENDP	; CUtlMemory<char *,int>::ValidateGrowSize
_TEXT	ENDS
; Function compile flags: /Odtp
; File c:\users\user\downloads\xashxt_v0.81_rev.1_with_sources\xashxt_v0.81_rev.1_src\game_shared\utlmemory.h
;	COMDAT ?IsReadOnly@?$CUtlMemory@PADH@@QBE_NXZ
_TEXT	SEGMENT
_this$ = -8						; size = 4
tv66 = -4						; size = 4
?IsReadOnly@?$CUtlMemory@PADH@@QBE_NXZ PROC		; CUtlMemory<char *,int>::IsReadOnly, COMDAT
; _this$ = ecx

; 467  : {

	push	ebp
	mov	ebp, esp
	sub	esp, 8
	mov	DWORD PTR _this$[ebp], ecx

; 468  : 	return (m_nGrowSize == EXTERNAL_CONST_BUFFER_MARKER);

	mov	eax, DWORD PTR _this$[ebp]
	cmp	DWORD PTR [eax+8], -2			; fffffffeH
	jne	SHORT $LN3@IsReadOnly
	mov	DWORD PTR tv66[ebp], 1
	jmp	SHORT $LN4@IsReadOnly
$LN3@IsReadOnly:
	mov	DWORD PTR tv66[ebp], 0
$LN4@IsReadOnly:
	mov	al, BYTE PTR tv66[ebp]

; 469  : }

	mov	esp, ebp
	pop	ebp
	ret	0
?IsReadOnly@?$CUtlMemory@PADH@@QBE_NXZ ENDP		; CUtlMemory<char *,int>::IsReadOnly
_TEXT	ENDS
; Function compile flags: /Odtp
; File c:\users\user\downloads\xashxt_v0.81_rev.1_with_sources\xashxt_v0.81_rev.1_src\game_shared\utlmemory.h
;	COMDAT ?IsExternallyAllocated@?$CUtlMemory@PADH@@QBE_NXZ
_TEXT	SEGMENT
_this$ = -8						; size = 4
tv66 = -4						; size = 4
?IsExternallyAllocated@?$CUtlMemory@PADH@@QBE_NXZ PROC	; CUtlMemory<char *,int>::IsExternallyAllocated, COMDAT
; _this$ = ecx

; 457  : {

	push	ebp
	mov	ebp, esp
	sub	esp, 8
	mov	DWORD PTR _this$[ebp], ecx

; 458  : 	return (m_nGrowSize < 0);

	mov	eax, DWORD PTR _this$[ebp]
	cmp	DWORD PTR [eax+8], 0
	jge	SHORT $LN3@IsExternal
	mov	DWORD PTR tv66[ebp], 1
	jmp	SHORT $LN4@IsExternal
$LN3@IsExternal:
	mov	DWORD PTR tv66[ebp], 0
$LN4@IsExternal:
	mov	al, BYTE PTR tv66[ebp]

; 459  : }

	mov	esp, ebp
	pop	ebp
	ret	0
?IsExternallyAllocated@?$CUtlMemory@PADH@@QBE_NXZ ENDP	; CUtlMemory<char *,int>::IsExternallyAllocated
_TEXT	ENDS
; Function compile flags: /Odtp
; File c:\users\user\downloads\xashxt_v0.81_rev.1_with_sources\xashxt_v0.81_rev.1_src\game_shared\utlmemory.h
;	COMDAT ?Purge@?$CUtlMemory@PADH@@QAEXXZ
_TEXT	SEGMENT
_this$ = -4						; size = 4
?Purge@?$CUtlMemory@PADH@@QAEXXZ PROC			; CUtlMemory<char *,int>::Purge, COMDAT
; _this$ = ecx

; 645  : {

	push	ebp
	mov	ebp, esp
	push	ecx
	mov	DWORD PTR _this$[ebp], ecx

; 646  : 	if ( !IsExternallyAllocated() )

	mov	ecx, DWORD PTR _this$[ebp]
	call	?IsExternallyAllocated@?$CUtlMemory@PADH@@QBE_NXZ ; CUtlMemory<char *,int>::IsExternallyAllocated
	movzx	eax, al
	test	eax, eax
	jne	SHORT $LN1@Purge

; 647  : 	{
; 648  : 		if (m_pMemory)

	mov	ecx, DWORD PTR _this$[ebp]
	cmp	DWORD PTR [ecx], 0
	je	SHORT $LN3@Purge

; 649  : 		{
; 650  : 			free( (void*)m_pMemory );

	mov	edx, DWORD PTR _this$[ebp]
	mov	eax, DWORD PTR [edx]
	push	eax
	call	_free
	add	esp, 4

; 651  : 			m_pMemory = 0;

	mov	ecx, DWORD PTR _this$[ebp]
	mov	DWORD PTR [ecx], 0
$LN3@Purge:

; 652  : 		}
; 653  : 		m_nAllocationCount = 0;

	mov	edx, DWORD PTR _this$[ebp]
	mov	DWORD PTR [edx+4], 0
$LN1@Purge:

; 654  : 	}
; 655  : }

	mov	esp, ebp
	pop	ebp
	ret	0
?Purge@?$CUtlMemory@PADH@@QAEXXZ ENDP			; CUtlMemory<char *,int>::Purge
_TEXT	ENDS
; Function compile flags: /Odtp
; File c:\users\user\downloads\xashxt_v0.81_rev.1_with_sources\xashxt_v0.81_rev.1_src\game_shared\utlmemory.h
;	COMDAT ?Base@?$CUtlMemory@PADH@@QAEPAPADXZ
_TEXT	SEGMENT
_this$ = -4						; size = 4
?Base@?$CUtlMemory@PADH@@QAEPAPADXZ PROC		; CUtlMemory<char *,int>::Base, COMDAT
; _this$ = ecx

; 487  : {

	push	ebp
	mov	ebp, esp
	push	ecx
	mov	DWORD PTR _this$[ebp], ecx

; 488  : 	assert( !IsReadOnly() );

	mov	ecx, DWORD PTR _this$[ebp]
	call	?IsReadOnly@?$CUtlMemory@PADH@@QBE_NXZ	; CUtlMemory<char *,int>::IsReadOnly
	movzx	eax, al
	test	eax, eax
	je	SHORT $LN3@Base
	push	488					; 000001e8H
	push	OFFSET ??_C@_1MO@LCPOAHHB@?$AAc?$AA?3?$AA?2?$AAu?$AAs?$AAe?$AAr?$AAs?$AA?2?$AAu?$AAs?$AAe?$AAr?$AA?2?$AAd@
	push	OFFSET ??_C@_1BM@PFNFCCHH@?$AA?$CB?$AAI?$AAs?$AAR?$AAe?$AAa?$AAd?$AAO?$AAn?$AAl?$AAy?$AA?$CI?$AA?$CJ@
	call	__wassert
	add	esp, 12					; 0000000cH
$LN3@Base:

; 489  : 	return m_pMemory;

	mov	edx, DWORD PTR _this$[ebp]
	mov	eax, DWORD PTR [edx]

; 490  : }

	mov	esp, ebp
	pop	ebp
	ret	0
?Base@?$CUtlMemory@PADH@@QAEPAPADXZ ENDP		; CUtlMemory<char *,int>::Base
_TEXT	ENDS
; Function compile flags: /Odtp
; File c:\users\user\downloads\xashxt_v0.81_rev.1_with_sources\xashxt_v0.81_rev.1_src\game_shared\utlmemory.h
;	COMDAT ?IsIdxValid@?$CUtlMemory@PADH@@QBE_NH@Z
_TEXT	SEGMENT
_this$ = -8						; size = 4
tv67 = -4						; size = 4
_i$ = 8							; size = 4
?IsIdxValid@?$CUtlMemory@PADH@@QBE_NH@Z PROC		; CUtlMemory<char *,int>::IsIdxValid, COMDAT
; _this$ = ecx

; 520  : {

	push	ebp
	mov	ebp, esp
	sub	esp, 8
	mov	DWORD PTR _this$[ebp], ecx

; 521  : 	return ( ((int) i) >= 0 ) && ( ((int) i) < m_nAllocationCount );

	cmp	DWORD PTR _i$[ebp], 0
	jl	SHORT $LN3@IsIdxValid
	mov	eax, DWORD PTR _this$[ebp]
	mov	ecx, DWORD PTR _i$[ebp]
	cmp	ecx, DWORD PTR [eax+4]
	jge	SHORT $LN3@IsIdxValid
	mov	DWORD PTR tv67[ebp], 1
	jmp	SHORT $LN4@IsIdxValid
$LN3@IsIdxValid:
	mov	DWORD PTR tv67[ebp], 0
$LN4@IsIdxValid:
	mov	al, BYTE PTR tv67[ebp]

; 522  : }

	mov	esp, ebp
	pop	ebp
	ret	4
?IsIdxValid@?$CUtlMemory@PADH@@QBE_NH@Z ENDP		; CUtlMemory<char *,int>::IsIdxValid
_TEXT	ENDS
; Function compile flags: /Odtp
; File c:\users\user\downloads\xashxt_v0.81_rev.1_with_sources\xashxt_v0.81_rev.1_src\game_shared\utlmemory.h
;	COMDAT ??A?$CUtlMemory@PADH@@QAEAAPADH@Z
_TEXT	SEGMENT
_this$ = -4						; size = 4
_i$ = 8							; size = 4
??A?$CUtlMemory@PADH@@QAEAAPADH@Z PROC			; CUtlMemory<char *,int>::operator[], COMDAT
; _this$ = ecx

; 423  : {

	push	ebp
	mov	ebp, esp
	push	ecx
	mov	DWORD PTR _this$[ebp], ecx

; 424  : 	assert( !IsReadOnly() );

	mov	ecx, DWORD PTR _this$[ebp]
	call	?IsReadOnly@?$CUtlMemory@PADH@@QBE_NXZ	; CUtlMemory<char *,int>::IsReadOnly
	movzx	eax, al
	test	eax, eax
	je	SHORT $LN3@operator
	push	424					; 000001a8H
	push	OFFSET ??_C@_1MO@LCPOAHHB@?$AAc?$AA?3?$AA?2?$AAu?$AAs?$AAe?$AAr?$AAs?$AA?2?$AAu?$AAs?$AAe?$AAr?$AA?2?$AAd@
	push	OFFSET ??_C@_1BM@PFNFCCHH@?$AA?$CB?$AAI?$AAs?$AAR?$AAe?$AAa?$AAd?$AAO?$AAn?$AAl?$AAy?$AA?$CI?$AA?$CJ@
	call	__wassert
	add	esp, 12					; 0000000cH
$LN3@operator:

; 425  : 	assert( IsIdxValid(i) );

	mov	edx, DWORD PTR _i$[ebp]
	push	edx
	mov	ecx, DWORD PTR _this$[ebp]
	call	?IsIdxValid@?$CUtlMemory@PADH@@QBE_NH@Z	; CUtlMemory<char *,int>::IsIdxValid
	movzx	eax, al
	test	eax, eax
	jne	SHORT $LN4@operator
	push	425					; 000001a9H
	push	OFFSET ??_C@_1MO@LCPOAHHB@?$AAc?$AA?3?$AA?2?$AAu?$AAs?$AAe?$AAr?$AAs?$AA?2?$AAu?$AAs?$AAe?$AAr?$AA?2?$AAd@
	push	OFFSET ??_C@_1BM@CKILBAKK@?$AAI?$AAs?$AAI?$AAd?$AAx?$AAV?$AAa?$AAl?$AAi?$AAd?$AA?$CI?$AAi?$AA?$CJ@
	call	__wassert
	add	esp, 12					; 0000000cH
$LN4@operator:

; 426  : 	return m_pMemory[i];

	mov	edx, DWORD PTR _this$[ebp]
	mov	eax, DWORD PTR [edx]
	mov	ecx, DWORD PTR _i$[ebp]
	lea	eax, DWORD PTR [eax+ecx*4]

; 427  : }

	mov	esp, ebp
	pop	ebp
	ret	4
??A?$CUtlMemory@PADH@@QAEAAPADH@Z ENDP			; CUtlMemory<char *,int>::operator[]
_TEXT	ENDS
; Function compile flags: /Odtp
; File c:\users\user\downloads\xashxt_v0.81_rev.1_with_sources\xashxt_v0.81_rev.1_src\game_shared\utlmemory.h
;	COMDAT ??1?$CUtlMemory@PADH@@QAE@XZ
_TEXT	SEGMENT
_this$ = -16						; size = 4
__$EHRec$ = -12						; size = 12
??1?$CUtlMemory@PADH@@QAE@XZ PROC			; CUtlMemory<char *,int>::~CUtlMemory<char *,int>, COMDAT
; _this$ = ecx

; 322  : {

	push	ebp
	mov	ebp, esp
	push	-1
	push	__ehhandler$??1?$CUtlMemory@PADH@@QAE@XZ
	mov	eax, DWORD PTR fs:0
	push	eax
	push	ecx
	mov	eax, DWORD PTR ___security_cookie
	xor	eax, ebp
	push	eax
	lea	eax, DWORD PTR __$EHRec$[ebp]
	mov	DWORD PTR fs:0, eax
	mov	DWORD PTR _this$[ebp], ecx

; 323  : 	Purge();

	mov	ecx, DWORD PTR _this$[ebp]
	call	?Purge@?$CUtlMemory@PADH@@QAEXXZ	; CUtlMemory<char *,int>::Purge

; 324  : }

	mov	ecx, DWORD PTR __$EHRec$[ebp]
	mov	DWORD PTR fs:0, ecx
	pop	ecx
	mov	esp, ebp
	pop	ebp
	ret	0
_TEXT	ENDS
;	COMDAT text$x
text$x	SEGMENT
__ehhandler$??1?$CUtlMemory@PADH@@QAE@XZ:
	mov	edx, DWORD PTR [esp+8]
	lea	eax, DWORD PTR [edx+12]
	mov	ecx, DWORD PTR [edx-8]
	xor	ecx, eax
	call	@__security_check_cookie@4
	mov	eax, OFFSET __ehfuncinfo$??1?$CUtlMemory@PADH@@QAE@XZ
	jmp	___CxxFrameHandler3
text$x	ENDS
??1?$CUtlMemory@PADH@@QAE@XZ ENDP			; CUtlMemory<char *,int>::~CUtlMemory<char *,int>
; Function compile flags: /Odtp
; File c:\users\user\downloads\xashxt_v0.81_rev.1_with_sources\xashxt_v0.81_rev.1_src\game_shared\utlmemory.h
;	COMDAT ??0?$CUtlMemory@PADH@@QAE@HH@Z
_TEXT	SEGMENT
_this$ = -4						; size = 4
_nGrowSize$ = 8						; size = 4
_nInitAllocationCount$ = 12				; size = 4
??0?$CUtlMemory@PADH@@QAE@HH@Z PROC			; CUtlMemory<char *,int>::CUtlMemory<char *,int>, COMDAT
; _this$ = ecx

; 295  : {

	push	ebp
	mov	ebp, esp
	push	ecx
	mov	DWORD PTR _this$[ebp], ecx

; 293  : CUtlMemory<T,I>::CUtlMemory( int nGrowSize, int nInitAllocationCount ) : m_pMemory(0), 

	mov	eax, DWORD PTR _this$[ebp]
	mov	DWORD PTR [eax], 0

; 294  : 	m_nAllocationCount( nInitAllocationCount ), m_nGrowSize( nGrowSize )

	mov	ecx, DWORD PTR _this$[ebp]
	mov	edx, DWORD PTR _nInitAllocationCount$[ebp]
	mov	DWORD PTR [ecx+4], edx
	mov	eax, DWORD PTR _this$[ebp]
	mov	ecx, DWORD PTR _nGrowSize$[ebp]
	mov	DWORD PTR [eax+8], ecx

; 296  : 	ValidateGrowSize();

	mov	ecx, DWORD PTR _this$[ebp]
	call	?ValidateGrowSize@?$CUtlMemory@PADH@@IAEXXZ ; CUtlMemory<char *,int>::ValidateGrowSize

; 297  : 	assert( nGrowSize >= 0 );

	cmp	DWORD PTR _nGrowSize$[ebp], 0
	jge	SHORT $LN4@CUtlMemory
	push	297					; 00000129H
	push	OFFSET $SG77038
	push	OFFSET $SG77039
	call	__wassert
	add	esp, 12					; 0000000cH
$LN4@CUtlMemory:

; 298  : 	if (m_nAllocationCount)

	mov	eax, DWORD PTR _this$[ebp]
	cmp	DWORD PTR [eax+4], 0
	je	SHORT $LN1@CUtlMemory

; 299  : 	{
; 300  : 		m_pMemory = (T*)malloc( m_nAllocationCount * sizeof(T) );

	mov	ecx, DWORD PTR _this$[ebp]
	mov	edx, DWORD PTR [ecx+4]
	shl	edx, 2
	push	edx
	call	_malloc
	add	esp, 4
	mov	ecx, DWORD PTR _this$[ebp]
	mov	DWORD PTR [ecx], eax
$LN1@CUtlMemory:

; 301  : 	}
; 302  : }

	mov	eax, DWORD PTR _this$[ebp]
	mov	esp, ebp
	pop	ebp
	ret	8
??0?$CUtlMemory@PADH@@QAE@HH@Z ENDP			; CUtlMemory<char *,int>::CUtlMemory<char *,int>
_TEXT	ENDS
; Function compile flags: /Odtp
; File c:\users\user\downloads\xashxt_v0.81_rev.1_with_sources\xashxt_v0.81_rev.1_src\game_shared\utlarray.h
;	COMDAT ?Purge@?$CUtlArray@PADV?$CUtlMemory@PADH@@@@QAEXXZ
_TEXT	SEGMENT
_this$ = -4						; size = 4
?Purge@?$CUtlArray@PADV?$CUtlMemory@PADH@@@@QAEXXZ PROC	; CUtlArray<char *,CUtlMemory<char *,int> >::Purge, COMDAT
; _this$ = ecx

; 742  : {

	push	ebp
	mov	ebp, esp
	push	ecx
	mov	DWORD PTR _this$[ebp], ecx

; 743  : 	RemoveAll();

	mov	ecx, DWORD PTR _this$[ebp]
	call	?RemoveAll@?$CUtlArray@PADV?$CUtlMemory@PADH@@@@QAEXXZ ; CUtlArray<char *,CUtlMemory<char *,int> >::RemoveAll

; 744  : 	m_Memory.Purge();

	mov	ecx, DWORD PTR _this$[ebp]
	call	?Purge@?$CUtlMemory@PADH@@QAEXXZ	; CUtlMemory<char *,int>::Purge

; 745  : 	ResetDbgInfo();

	mov	ecx, DWORD PTR _this$[ebp]
	call	?ResetDbgInfo@?$CUtlArray@PADV?$CUtlMemory@PADH@@@@IAEXXZ ; CUtlArray<char *,CUtlMemory<char *,int> >::ResetDbgInfo

; 746  : }

	mov	esp, ebp
	pop	ebp
	ret	0
?Purge@?$CUtlArray@PADV?$CUtlMemory@PADH@@@@QAEXXZ ENDP	; CUtlArray<char *,CUtlMemory<char *,int> >::Purge
_TEXT	ENDS
; Function compile flags: /Odtp
; File c:\users\user\downloads\xashxt_v0.81_rev.1_with_sources\xashxt_v0.81_rev.1_src\game_shared\utlarray.h
;	COMDAT ?RemoveAll@?$CUtlArray@PADV?$CUtlMemory@PADH@@@@QAEXXZ
_TEXT	SEGMENT
_this$ = -8						; size = 4
_i$1 = -4						; size = 4
?RemoveAll@?$CUtlArray@PADV?$CUtlMemory@PADH@@@@QAEXXZ PROC ; CUtlArray<char *,CUtlMemory<char *,int> >::RemoveAll, COMDAT
; _this$ = ecx

; 726  : {

	push	ebp
	mov	ebp, esp
	sub	esp, 8
	mov	DWORD PTR _this$[ebp], ecx

; 727  : 	for (int i = m_Size; --i >= 0; )

	mov	eax, DWORD PTR _this$[ebp]
	mov	ecx, DWORD PTR [eax+12]
	mov	DWORD PTR _i$1[ebp], ecx
$LN4@RemoveAll:
	mov	edx, DWORD PTR _i$1[ebp]
	sub	edx, 1
	mov	DWORD PTR _i$1[ebp], edx
	js	SHORT $LN3@RemoveAll

; 728  : 	{
; 729  : 		Destruct(&Element(i));

	mov	eax, DWORD PTR _i$1[ebp]
	push	eax
	mov	ecx, DWORD PTR _this$[ebp]
	call	?Element@?$CUtlArray@PADV?$CUtlMemory@PADH@@@@QAEAAPADH@Z ; CUtlArray<char *,CUtlMemory<char *,int> >::Element
	push	eax
	call	??$Destruct@PAD@@YAXPAPAD@Z		; Destruct<char *>
	add	esp, 4

; 730  : 	}

	jmp	SHORT $LN4@RemoveAll
$LN3@RemoveAll:

; 731  : 
; 732  : 	m_Size = 0;

	mov	ecx, DWORD PTR _this$[ebp]
	mov	DWORD PTR [ecx+12], 0

; 733  : }

	mov	esp, ebp
	pop	ebp
	ret	0
?RemoveAll@?$CUtlArray@PADV?$CUtlMemory@PADH@@@@QAEXXZ ENDP ; CUtlArray<char *,CUtlMemory<char *,int> >::RemoveAll
_TEXT	ENDS
; Function compile flags: /Odtp
; File c:\users\user\downloads\xashxt_v0.81_rev.1_with_sources\xashxt_v0.81_rev.1_src\game_shared\utlarray.h
;	COMDAT ?Count@?$CUtlArray@PADV?$CUtlMemory@PADH@@@@QBEHXZ
_TEXT	SEGMENT
_this$ = -4						; size = 4
?Count@?$CUtlArray@PADV?$CUtlMemory@PADH@@@@QBEHXZ PROC	; CUtlArray<char *,CUtlMemory<char *,int> >::Count, COMDAT
; _this$ = ecx

; 344  : {

	push	ebp
	mov	ebp, esp
	push	ecx
	mov	DWORD PTR _this$[ebp], ecx

; 345  : 	return m_Size;

	mov	eax, DWORD PTR _this$[ebp]
	mov	eax, DWORD PTR [eax+12]

; 346  : }

	mov	esp, ebp
	pop	ebp
	ret	0
?Count@?$CUtlArray@PADV?$CUtlMemory@PADH@@@@QBEHXZ ENDP	; CUtlArray<char *,CUtlMemory<char *,int> >::Count
_TEXT	ENDS
; Function compile flags: /Odtp
; File c:\users\user\downloads\xashxt_v0.81_rev.1_with_sources\xashxt_v0.81_rev.1_src\game_shared\utlarray.h
;	COMDAT ?Base@?$CUtlArray@PADV?$CUtlMemory@PADH@@@@QAEPAPADXZ
_TEXT	SEGMENT
_this$ = -4						; size = 4
?Base@?$CUtlArray@PADV?$CUtlMemory@PADH@@@@QAEPAPADXZ PROC ; CUtlArray<char *,CUtlMemory<char *,int> >::Base, COMDAT
; _this$ = ecx

; 60   : 	T* Base()								{ return m_Memory.Base(); }

	push	ebp
	mov	ebp, esp
	push	ecx
	mov	DWORD PTR _this$[ebp], ecx
	mov	ecx, DWORD PTR _this$[ebp]
	call	?Base@?$CUtlMemory@PADH@@QAEPAPADXZ	; CUtlMemory<char *,int>::Base
	mov	esp, ebp
	pop	ebp
	ret	0
?Base@?$CUtlArray@PADV?$CUtlMemory@PADH@@@@QAEPAPADXZ ENDP ; CUtlArray<char *,CUtlMemory<char *,int> >::Base
_TEXT	ENDS
; Function compile flags: /Odtp
; File c:\users\user\downloads\xashxt_v0.81_rev.1_with_sources\xashxt_v0.81_rev.1_src\game_shared\utlarray.h
;	COMDAT ?Element@?$CUtlArray@PADV?$CUtlMemory@PADH@@@@QAEAAPADH@Z
_TEXT	SEGMENT
_this$ = -4						; size = 4
_i$ = 8							; size = 4
?Element@?$CUtlArray@PADV?$CUtlMemory@PADH@@@@QAEAAPADH@Z PROC ; CUtlArray<char *,CUtlMemory<char *,int> >::Element, COMDAT
; _this$ = ecx

; 294  : {

	push	ebp
	mov	ebp, esp
	push	ecx
	mov	DWORD PTR _this$[ebp], ecx

; 295  : 	return m_Memory[ i ];

	mov	eax, DWORD PTR _i$[ebp]
	push	eax
	mov	ecx, DWORD PTR _this$[ebp]
	call	??A?$CUtlMemory@PADH@@QAEAAPADH@Z	; CUtlMemory<char *,int>::operator[]

; 296  : }

	mov	esp, ebp
	pop	ebp
	ret	4
?Element@?$CUtlArray@PADV?$CUtlMemory@PADH@@@@QAEAAPADH@Z ENDP ; CUtlArray<char *,CUtlMemory<char *,int> >::Element
_TEXT	ENDS
; Function compile flags: /Odtp
; File c:\users\user\downloads\xashxt_v0.81_rev.1_with_sources\xashxt_v0.81_rev.1_src\game_shared\utlarray.h
;	COMDAT ??A?$CUtlArray@PADV?$CUtlMemory@PADH@@@@QAEAAPADH@Z
_TEXT	SEGMENT
_this$ = -4						; size = 4
_i$ = 8							; size = 4
??A?$CUtlArray@PADV?$CUtlMemory@PADH@@@@QAEAAPADH@Z PROC ; CUtlArray<char *,CUtlMemory<char *,int> >::operator[], COMDAT
; _this$ = ecx

; 282  : {

	push	ebp
	mov	ebp, esp
	push	ecx
	mov	DWORD PTR _this$[ebp], ecx

; 283  : 	return m_Memory[ i ];

	mov	eax, DWORD PTR _i$[ebp]
	push	eax
	mov	ecx, DWORD PTR _this$[ebp]
	call	??A?$CUtlMemory@PADH@@QAEAAPADH@Z	; CUtlMemory<char *,int>::operator[]

; 284  : }

	mov	esp, ebp
	pop	ebp
	ret	4
??A?$CUtlArray@PADV?$CUtlMemory@PADH@@@@QAEAAPADH@Z ENDP ; CUtlArray<char *,CUtlMemory<char *,int> >::operator[]
_TEXT	ENDS
; Function compile flags: /Odtp
; File c:\users\user\downloads\xashxt_v0.81_rev.1_with_sources\xashxt_v0.81_rev.1_src\game_shared\utlarray.h
;	COMDAT ??1?$CUtlArray@PADV?$CUtlMemory@PADH@@@@QAE@XZ
_TEXT	SEGMENT
_this$ = -16						; size = 4
__$EHRec$ = -12						; size = 12
??1?$CUtlArray@PADV?$CUtlMemory@PADH@@@@QAE@XZ PROC	; CUtlArray<char *,CUtlMemory<char *,int> >::~CUtlArray<char *,CUtlMemory<char *,int> >, COMDAT
; _this$ = ecx

; 260  : {

	push	ebp
	mov	ebp, esp
	push	-1
	push	__ehhandler$??1?$CUtlArray@PADV?$CUtlMemory@PADH@@@@QAE@XZ
	mov	eax, DWORD PTR fs:0
	push	eax
	push	ecx
	mov	eax, DWORD PTR ___security_cookie
	xor	eax, ebp
	push	eax
	lea	eax, DWORD PTR __$EHRec$[ebp]
	mov	DWORD PTR fs:0, eax
	mov	DWORD PTR _this$[ebp], ecx

; 261  : 	Purge();

	mov	ecx, DWORD PTR _this$[ebp]
	call	?Purge@?$CUtlArray@PADV?$CUtlMemory@PADH@@@@QAEXXZ ; CUtlArray<char *,CUtlMemory<char *,int> >::Purge

; 262  : }

	mov	ecx, DWORD PTR _this$[ebp]
	call	??1?$CUtlMemory@PADH@@QAE@XZ		; CUtlMemory<char *,int>::~CUtlMemory<char *,int>
	mov	ecx, DWORD PTR __$EHRec$[ebp]
	mov	DWORD PTR fs:0, ecx
	pop	ecx
	mov	esp, ebp
	pop	ebp
	ret	0
_TEXT	ENDS
;	COMDAT text$x
text$x	SEGMENT
__ehhandler$??1?$CUtlArray@PADV?$CUtlMemory@PADH@@@@QAE@XZ:
	mov	edx, DWORD PTR [esp+8]
	lea	eax, DWORD PTR [edx+12]
	mov	ecx, DWORD PTR [edx-8]
	xor	ecx, eax
	call	@__security_check_cookie@4
	mov	eax, OFFSET __ehfuncinfo$??1?$CUtlArray@PADV?$CUtlMemory@PADH@@@@QAE@XZ
	jmp	___CxxFrameHandler3
text$x	ENDS
??1?$CUtlArray@PADV?$CUtlMemory@PADH@@@@QAE@XZ ENDP	; CUtlArray<char *,CUtlMemory<char *,int> >::~CUtlArray<char *,CUtlMemory<char *,int> >
; Function compile flags: /Odtp
; File c:\users\user\downloads\xashxt_v0.81_rev.1_with_sources\xashxt_v0.81_rev.1_src\game_shared\utlarray.h
;	COMDAT ??0?$CUtlArray@PADV?$CUtlMemory@PADH@@@@QAE@HH@Z
_TEXT	SEGMENT
_this$ = -16						; size = 4
__$EHRec$ = -12						; size = 12
_growSize$ = 8						; size = 4
_initSize$ = 12						; size = 4
??0?$CUtlArray@PADV?$CUtlMemory@PADH@@@@QAE@HH@Z PROC	; CUtlArray<char *,CUtlMemory<char *,int> >::CUtlArray<char *,CUtlMemory<char *,int> >, COMDAT
; _this$ = ecx

; 247  : {

	push	ebp
	mov	ebp, esp
	push	-1
	push	__ehhandler$??0?$CUtlArray@PADV?$CUtlMemory@PADH@@@@QAE@HH@Z
	mov	eax, DWORD PTR fs:0
	push	eax
	push	ecx
	mov	eax, DWORD PTR ___security_cookie
	xor	eax, ebp
	push	eax
	lea	eax, DWORD PTR __$EHRec$[ebp]
	mov	DWORD PTR fs:0, eax
	mov	DWORD PTR _this$[ebp], ecx

; 246  : 	m_Memory(growSize, initSize), m_Size(0)

	mov	eax, DWORD PTR _initSize$[ebp]
	push	eax
	mov	ecx, DWORD PTR _growSize$[ebp]
	push	ecx
	mov	ecx, DWORD PTR _this$[ebp]
	call	??0?$CUtlMemory@PADH@@QAE@HH@Z		; CUtlMemory<char *,int>::CUtlMemory<char *,int>
	mov	DWORD PTR __$EHRec$[ebp+8], 0
	mov	edx, DWORD PTR _this$[ebp]
	mov	DWORD PTR [edx+12], 0

; 248  : 	ResetDbgInfo();

	mov	ecx, DWORD PTR _this$[ebp]
	call	?ResetDbgInfo@?$CUtlArray@PADV?$CUtlMemory@PADH@@@@IAEXXZ ; CUtlArray<char *,CUtlMemory<char *,int> >::ResetDbgInfo

; 249  : }

	mov	DWORD PTR __$EHRec$[ebp+8], -1
	mov	eax, DWORD PTR _this$[ebp]
	mov	ecx, DWORD PTR __$EHRec$[ebp]
	mov	DWORD PTR fs:0, ecx
	pop	ecx
	mov	esp, ebp
	pop	ebp
	ret	8
_TEXT	ENDS
;	COMDAT text$x
text$x	SEGMENT
__unwindfunclet$??0?$CUtlArray@PADV?$CUtlMemory@PADH@@@@QAE@HH@Z$0:
	mov	ecx, DWORD PTR _this$[ebp]
	jmp	??1?$CUtlMemory@PADH@@QAE@XZ		; CUtlMemory<char *,int>::~CUtlMemory<char *,int>
__ehhandler$??0?$CUtlArray@PADV?$CUtlMemory@PADH@@@@QAE@HH@Z:
	mov	edx, DWORD PTR [esp+8]
	lea	eax, DWORD PTR [edx+12]
	mov	ecx, DWORD PTR [edx-8]
	xor	ecx, eax
	call	@__security_check_cookie@4
	mov	eax, OFFSET __ehfuncinfo$??0?$CUtlArray@PADV?$CUtlMemory@PADH@@@@QAE@HH@Z
	jmp	___CxxFrameHandler3
text$x	ENDS
??0?$CUtlArray@PADV?$CUtlMemory@PADH@@@@QAE@HH@Z ENDP	; CUtlArray<char *,CUtlMemory<char *,int> >::CUtlArray<char *,CUtlMemory<char *,int> >
; Function compile flags: /Odtp
; File c:\users\user\downloads\xashxt_v0.81_rev.1_with_sources\xashxt_v0.81_rev.1_src\common\datamap.h
;	COMDAT ??1CDatadescGeneratedNameHolder@@QAE@XZ
_TEXT	SEGMENT
$T2 = -24						; size = 4
_this$ = -20						; size = 4
_i$3 = -16						; size = 4
__$EHRec$ = -12						; size = 12
??1CDatadescGeneratedNameHolder@@QAE@XZ PROC		; CDatadescGeneratedNameHolder::~CDatadescGeneratedNameHolder, COMDAT
; _this$ = ecx

; 197  : 	{

	push	ebp
	mov	ebp, esp
	push	-1
	push	__ehhandler$??1CDatadescGeneratedNameHolder@@QAE@XZ
	mov	eax, DWORD PTR fs:0
	push	eax
	sub	esp, 12					; 0000000cH
	mov	eax, DWORD PTR ___security_cookie
	xor	eax, ebp
	push	eax
	lea	eax, DWORD PTR __$EHRec$[ebp]
	mov	DWORD PTR fs:0, eax
	mov	DWORD PTR _this$[ebp], ecx

; 198  : 		for( int i = 0; i < m_Names.Count(); i++ )

	mov	DWORD PTR _i$3[ebp], 0
	jmp	SHORT $LN4@CDatadescG
$LN2@CDatadescG:
	mov	eax, DWORD PTR _i$3[ebp]
	add	eax, 1
	mov	DWORD PTR _i$3[ebp], eax
$LN4@CDatadescG:
	mov	ecx, DWORD PTR _this$[ebp]
	add	ecx, 8
	call	?Count@?$CUtlArray@PADV?$CUtlMemory@PADH@@@@QBEHXZ ; CUtlArray<char *,CUtlMemory<char *,int> >::Count
	cmp	DWORD PTR _i$3[ebp], eax
	jge	SHORT $LN1@CDatadescG

; 199  : 		{
; 200  : 			delete m_Names[i];

	mov	ecx, DWORD PTR _i$3[ebp]
	push	ecx
	mov	ecx, DWORD PTR _this$[ebp]
	add	ecx, 8
	call	??A?$CUtlArray@PADV?$CUtlMemory@PADH@@@@QAEAAPADH@Z ; CUtlArray<char *,CUtlMemory<char *,int> >::operator[]
	mov	edx, DWORD PTR [eax]
	mov	DWORD PTR $T2[ebp], edx
	push	1
	mov	eax, DWORD PTR $T2[ebp]
	push	eax
	call	??3@YAXPAXI@Z				; operator delete
	add	esp, 8

; 201  : 		}

	jmp	SHORT $LN2@CDatadescG
$LN1@CDatadescG:

; 202  : 	}

	mov	ecx, DWORD PTR _this$[ebp]
	add	ecx, 8
	call	??1?$CUtlArray@PADV?$CUtlMemory@PADH@@@@QAE@XZ ; CUtlArray<char *,CUtlMemory<char *,int> >::~CUtlArray<char *,CUtlMemory<char *,int> >
	mov	ecx, DWORD PTR __$EHRec$[ebp]
	mov	DWORD PTR fs:0, ecx
	pop	ecx
	mov	esp, ebp
	pop	ebp
	ret	0
_TEXT	ENDS
;	COMDAT text$x
text$x	SEGMENT
__ehhandler$??1CDatadescGeneratedNameHolder@@QAE@XZ:
	mov	edx, DWORD PTR [esp+8]
	lea	eax, DWORD PTR [edx+12]
	mov	ecx, DWORD PTR [edx-16]
	xor	ecx, eax
	call	@__security_check_cookie@4
	mov	eax, OFFSET __ehfuncinfo$??1CDatadescGeneratedNameHolder@@QAE@XZ
	jmp	___CxxFrameHandler3
text$x	ENDS
??1CDatadescGeneratedNameHolder@@QAE@XZ ENDP		; CDatadescGeneratedNameHolder::~CDatadescGeneratedNameHolder
; Function compile flags: /Odtp
; File c:\users\user\downloads\xashxt_v0.81_rev.1_with_sources\xashxt_v0.81_rev.1_src\common\datamap.h
;	COMDAT ??0CDatadescGeneratedNameHolder@@QAE@PBD@Z
_TEXT	SEGMENT
_this$ = -4						; size = 4
_pszBase$ = 8						; size = 4
??0CDatadescGeneratedNameHolder@@QAE@PBD@Z PROC		; CDatadescGeneratedNameHolder::CDatadescGeneratedNameHolder, COMDAT
; _this$ = ecx

; 192  : 	{

	push	ebp
	mov	ebp, esp
	push	ecx
	mov	DWORD PTR _this$[ebp], ecx

; 191  : 	CDatadescGeneratedNameHolder( const char *pszBase ) : m_pszBase(pszBase)

	mov	eax, DWORD PTR _this$[ebp]
	mov	ecx, DWORD PTR _pszBase$[ebp]
	mov	DWORD PTR [eax], ecx

; 192  : 	{

	push	0
	push	0
	mov	ecx, DWORD PTR _this$[ebp]
	add	ecx, 8
	call	??0?$CUtlArray@PADV?$CUtlMemory@PADH@@@@QAE@HH@Z ; CUtlArray<char *,CUtlMemory<char *,int> >::CUtlArray<char *,CUtlMemory<char *,int> >

; 193  : 		m_nLenBase = strlen( m_pszBase ) + 2;

	mov	edx, DWORD PTR _this$[ebp]
	mov	eax, DWORD PTR [edx]
	push	eax
	call	_strlen
	add	esp, 4
	add	eax, 2
	mov	ecx, DWORD PTR _this$[ebp]
	mov	DWORD PTR [ecx+4], eax

; 194  : 	}

	mov	eax, DWORD PTR _this$[ebp]
	mov	esp, ebp
	pop	ebp
	ret	4
??0CDatadescGeneratedNameHolder@@QAE@PBD@Z ENDP		; CDatadescGeneratedNameHolder::CDatadescGeneratedNameHolder
_TEXT	ENDS
; Function compile flags: /Odtp
; File c:\users\user\downloads\xashxt_v0.81_rev.1_with_sources\xashxt_v0.81_rev.1_src\server\enginecallback.h
;	COMDAT ?GET_PRIVATE@@YAPAXPAUedict_s@@@Z
_TEXT	SEGMENT
_pent$ = 8						; size = 4
?GET_PRIVATE@@YAPAXPAUedict_s@@@Z PROC			; GET_PRIVATE, COMDAT

; 101  : {

	push	ebp
	mov	ebp, esp

; 102  : 	if ( pent )

	cmp	DWORD PTR _pent$[ebp], 0
	je	SHORT $LN2@GET_PRIVAT

; 103  : 		return pent->pvPrivateData;

	mov	eax, DWORD PTR _pent$[ebp]
	mov	eax, DWORD PTR [eax+124]
	jmp	SHORT $LN1@GET_PRIVAT
$LN2@GET_PRIVAT:

; 104  : 	return NULL;

	xor	eax, eax
$LN1@GET_PRIVAT:

; 105  : }

	pop	ebp
	ret	0
?GET_PRIVATE@@YAPAXPAUedict_s@@@Z ENDP			; GET_PRIVATE
_TEXT	ENDS
; Function compile flags: /Odtp
;	COMDAT ??0gametrace_s@@QAE@XZ
_TEXT	SEGMENT
_this$ = -4						; size = 4
??0gametrace_s@@QAE@XZ PROC				; gametrace_s::gametrace_s, COMDAT
; _this$ = ecx
	push	ebp
	mov	ebp, esp
	push	ecx
	mov	DWORD PTR _this$[ebp], ecx
	mov	ecx, DWORD PTR _this$[ebp]
	add	ecx, 20					; 00000014H
	call	??0Vector@@QAE@XZ			; Vector::Vector
	mov	ecx, DWORD PTR _this$[ebp]
	add	ecx, 36					; 00000024H
	call	??0Vector@@QAE@XZ			; Vector::Vector
	mov	eax, DWORD PTR _this$[ebp]
	mov	esp, ebp
	pop	ebp
	ret	0
??0gametrace_s@@QAE@XZ ENDP				; gametrace_s::gametrace_s
_TEXT	ENDS
; Function compile flags: /Odtp
; File c:\users\user\downloads\xashxt_v0.81_rev.1_with_sources\xashxt_v0.81_rev.1_src\game_shared\vector.h
;	COMDAT ??DVector@@QBE?AV0@M@Z
_TEXT	SEGMENT
_this$ = -4						; size = 4
___$ReturnUdt$ = 8					; size = 4
_fl$ = 12						; size = 4
??DVector@@QBE?AV0@M@Z PROC				; Vector::operator*, COMDAT
; _this$ = ecx

; 150  : 	inline Vector operator*(float fl) const		{ return Vector(x*fl, y*fl, z*fl);	   }

	push	ebp
	mov	ebp, esp
	push	ecx
	mov	DWORD PTR _this$[ebp], ecx
	mov	eax, DWORD PTR _this$[ebp]
	movss	xmm0, DWORD PTR [eax+8]
	mulss	xmm0, DWORD PTR _fl$[ebp]
	push	ecx
	movss	DWORD PTR [esp], xmm0
	mov	ecx, DWORD PTR _this$[ebp]
	movss	xmm0, DWORD PTR [ecx+4]
	mulss	xmm0, DWORD PTR _fl$[ebp]
	push	ecx
	movss	DWORD PTR [esp], xmm0
	mov	edx, DWORD PTR _this$[ebp]
	movss	xmm0, DWORD PTR [edx]
	mulss	xmm0, DWORD PTR _fl$[ebp]
	push	ecx
	movss	DWORD PTR [esp], xmm0
	mov	ecx, DWORD PTR ___$ReturnUdt$[ebp]
	call	??0Vector@@QAE@MMM@Z			; Vector::Vector
	mov	eax, DWORD PTR ___$ReturnUdt$[ebp]
	mov	esp, ebp
	pop	ebp
	ret	8
??DVector@@QBE?AV0@M@Z ENDP				; Vector::operator*
_TEXT	ENDS
; Function compile flags: /Odtp
; File c:\users\user\downloads\xashxt_v0.81_rev.1_with_sources\xashxt_v0.81_rev.1_src\game_shared\vector.h
;	COMDAT ??HVector@@QBE?AV0@ABV0@@Z
_TEXT	SEGMENT
_this$ = -4						; size = 4
___$ReturnUdt$ = 8					; size = 4
_v$ = 12						; size = 4
??HVector@@QBE?AV0@ABV0@@Z PROC				; Vector::operator+, COMDAT
; _this$ = ecx

; 146  : 	inline Vector operator+(const Vector& v) const	{ return Vector(x+v.x, y+v.y, z+v.z);	   }

	push	ebp
	mov	ebp, esp
	push	ecx
	mov	DWORD PTR _this$[ebp], ecx
	mov	eax, DWORD PTR _this$[ebp]
	mov	ecx, DWORD PTR _v$[ebp]
	movss	xmm0, DWORD PTR [eax+8]
	addss	xmm0, DWORD PTR [ecx+8]
	push	ecx
	movss	DWORD PTR [esp], xmm0
	mov	edx, DWORD PTR _this$[ebp]
	mov	eax, DWORD PTR _v$[ebp]
	movss	xmm0, DWORD PTR [edx+4]
	addss	xmm0, DWORD PTR [eax+4]
	push	ecx
	movss	DWORD PTR [esp], xmm0
	mov	ecx, DWORD PTR _this$[ebp]
	mov	edx, DWORD PTR _v$[ebp]
	movss	xmm0, DWORD PTR [ecx]
	addss	xmm0, DWORD PTR [edx]
	push	ecx
	movss	DWORD PTR [esp], xmm0
	mov	ecx, DWORD PTR ___$ReturnUdt$[ebp]
	call	??0Vector@@QAE@MMM@Z			; Vector::Vector
	mov	eax, DWORD PTR ___$ReturnUdt$[ebp]
	mov	esp, ebp
	pop	ebp
	ret	8
??HVector@@QBE?AV0@ABV0@@Z ENDP				; Vector::operator+
_TEXT	ENDS
; Function compile flags: /Odtp
; File c:\users\user\downloads\xashxt_v0.81_rev.1_with_sources\xashxt_v0.81_rev.1_src\game_shared\vector.h
;	COMDAT ??9Vector@@QBEHABV0@@Z
_TEXT	SEGMENT
_this$ = -8						; size = 4
tv68 = -4						; size = 4
_v$ = 8							; size = 4
??9Vector@@QBEHABV0@@Z PROC				; Vector::operator!=, COMDAT
; _this$ = ecx

; 145  : 	inline int operator!=(const Vector& v) const	{ return !(*this==v);		   }

	push	ebp
	mov	ebp, esp
	sub	esp, 8
	mov	DWORD PTR _this$[ebp], ecx
	mov	eax, DWORD PTR _v$[ebp]
	push	eax
	mov	ecx, DWORD PTR _this$[ebp]
	call	??8Vector@@QBEHABV0@@Z			; Vector::operator==
	test	eax, eax
	jne	SHORT $LN3@operator
	mov	DWORD PTR tv68[ebp], 1
	jmp	SHORT $LN4@operator
$LN3@operator:
	mov	DWORD PTR tv68[ebp], 0
$LN4@operator:
	mov	eax, DWORD PTR tv68[ebp]
	mov	esp, ebp
	pop	ebp
	ret	4
??9Vector@@QBEHABV0@@Z ENDP				; Vector::operator!=
_TEXT	ENDS
; Function compile flags: /Odtp
; File c:\users\user\downloads\xashxt_v0.81_rev.1_with_sources\xashxt_v0.81_rev.1_src\game_shared\vector.h
;	COMDAT ??8Vector@@QBEHABV0@@Z
_TEXT	SEGMENT
tv73 = -8						; size = 4
_this$ = -4						; size = 4
_v$ = 8							; size = 4
??8Vector@@QBEHABV0@@Z PROC				; Vector::operator==, COMDAT
; _this$ = ecx

; 144  : 	inline int operator==(const Vector& v) const	{ return x==v.x && y==v.y && z==v.z;	   }

	push	ebp
	mov	ebp, esp
	sub	esp, 8
	mov	DWORD PTR _this$[ebp], ecx
	mov	eax, DWORD PTR _this$[ebp]
	mov	ecx, DWORD PTR _v$[ebp]
	movss	xmm0, DWORD PTR [eax]
	ucomiss	xmm0, DWORD PTR [ecx]
	lahf
	test	ah, 68					; 00000044H
	jp	SHORT $LN3@operator
	mov	edx, DWORD PTR _this$[ebp]
	mov	eax, DWORD PTR _v$[ebp]
	movss	xmm0, DWORD PTR [edx+4]
	ucomiss	xmm0, DWORD PTR [eax+4]
	lahf
	test	ah, 68					; 00000044H
	jp	SHORT $LN3@operator
	mov	ecx, DWORD PTR _this$[ebp]
	mov	edx, DWORD PTR _v$[ebp]
	movss	xmm0, DWORD PTR [ecx+8]
	ucomiss	xmm0, DWORD PTR [edx+8]
	lahf
	test	ah, 68					; 00000044H
	jp	SHORT $LN3@operator
	mov	DWORD PTR tv73[ebp], 1
	jmp	SHORT $LN4@operator
$LN3@operator:
	mov	DWORD PTR tv73[ebp], 0
$LN4@operator:
	mov	eax, DWORD PTR tv73[ebp]
	mov	esp, ebp
	pop	ebp
	ret	4
??8Vector@@QBEHABV0@@Z ENDP				; Vector::operator==
_TEXT	ENDS
; Function compile flags: /Odtp
; File c:\users\user\downloads\xashxt_v0.81_rev.1_with_sources\xashxt_v0.81_rev.1_src\game_shared\vector.h
;	COMDAT ??0Vector@@QAE@MMM@Z
_TEXT	SEGMENT
_this$ = -4						; size = 4
_X$ = 8							; size = 4
_Y$ = 12						; size = 4
_Z$ = 16						; size = 4
??0Vector@@QAE@MMM@Z PROC				; Vector::Vector, COMDAT
; _this$ = ecx

; 132  : 	inline Vector(float X, float Y, float Z)	{ x = X; y = Y; z = Z;                     }

	push	ebp
	mov	ebp, esp
	push	ecx
	mov	DWORD PTR _this$[ebp], ecx
	mov	eax, DWORD PTR _this$[ebp]
	movss	xmm0, DWORD PTR _X$[ebp]
	movss	DWORD PTR [eax], xmm0
	mov	ecx, DWORD PTR _this$[ebp]
	movss	xmm0, DWORD PTR _Y$[ebp]
	movss	DWORD PTR [ecx+4], xmm0
	mov	edx, DWORD PTR _this$[ebp]
	movss	xmm0, DWORD PTR _Z$[ebp]
	movss	DWORD PTR [edx+8], xmm0
	mov	eax, DWORD PTR _this$[ebp]
	mov	esp, ebp
	pop	ebp
	ret	12					; 0000000cH
??0Vector@@QAE@MMM@Z ENDP				; Vector::Vector
_TEXT	ENDS
; Function compile flags: /Odtp
; File c:\users\user\downloads\xashxt_v0.81_rev.1_with_sources\xashxt_v0.81_rev.1_src\game_shared\vector.h
;	COMDAT ??0Vector@@QAE@XZ
_TEXT	SEGMENT
_this$ = -4						; size = 4
??0Vector@@QAE@XZ PROC					; Vector::Vector, COMDAT
; _this$ = ecx

; 131  : 	inline Vector(void)				{ }

	push	ebp
	mov	ebp, esp
	push	ecx
	mov	DWORD PTR _this$[ebp], ecx
	mov	eax, DWORD PTR _this$[ebp]
	mov	esp, ebp
	pop	ebp
	ret	0
??0Vector@@QAE@XZ ENDP					; Vector::Vector
_TEXT	ENDS
; Function compile flags: /Odtp
;	COMDAT ??__G@YGXPAX0IIP6EPAX00@Z@Z
_TEXT	SEGMENT
tv66 = -4						; size = 4
___t$ = 8						; size = 4
___u$ = 12						; size = 4
___s$ = 16						; size = 4
___n$ = 20						; size = 4
___f$ = 24						; size = 4
??__G@YGXPAX0IIP6EPAX00@Z@Z PROC			; `vector copy constructor iterator', COMDAT
	push	ebp
	mov	ebp, esp
	push	ecx
$LN2@vector:
	mov	eax, DWORD PTR ___n$[ebp]
	mov	DWORD PTR tv66[ebp], eax
	mov	ecx, DWORD PTR ___n$[ebp]
	sub	ecx, 1
	mov	DWORD PTR ___n$[ebp], ecx
	cmp	DWORD PTR tv66[ebp], 0
	jbe	SHORT $LN1@vector
	mov	edx, DWORD PTR ___u$[ebp]
	push	edx
	mov	ecx, DWORD PTR ___t$[ebp]
	call	DWORD PTR ___f$[ebp]
	mov	eax, DWORD PTR ___t$[ebp]
	add	eax, DWORD PTR ___s$[ebp]
	mov	DWORD PTR ___t$[ebp], eax
	mov	ecx, DWORD PTR ___u$[ebp]
	add	ecx, DWORD PTR ___s$[ebp]
	mov	DWORD PTR ___u$[ebp], ecx
	jmp	SHORT $LN2@vector
$LN1@vector:
	mov	esp, ebp
	pop	ebp
	ret	20					; 00000014H
??__G@YGXPAX0IIP6EPAX00@Z@Z ENDP			; `vector copy constructor iterator'
_TEXT	ENDS
; Function compile flags: /Odtp
;	COMDAT ??_H@YGXPAXIIP6EPAX0@Z@Z
_TEXT	SEGMENT
tv66 = -4						; size = 4
___t$ = 8						; size = 4
___s$ = 12						; size = 4
___n$ = 16						; size = 4
___f$ = 20						; size = 4
??_H@YGXPAXIIP6EPAX0@Z@Z PROC				; `vector constructor iterator', COMDAT
	push	ebp
	mov	ebp, esp
	push	ecx
$LN2@vector:
	mov	eax, DWORD PTR ___n$[ebp]
	mov	DWORD PTR tv66[ebp], eax
	mov	ecx, DWORD PTR ___n$[ebp]
	sub	ecx, 1
	mov	DWORD PTR ___n$[ebp], ecx
	cmp	DWORD PTR tv66[ebp], 0
	jbe	SHORT $LN1@vector
	mov	ecx, DWORD PTR ___t$[ebp]
	call	DWORD PTR ___f$[ebp]
	mov	edx, DWORD PTR ___t$[ebp]
	add	edx, DWORD PTR ___s$[ebp]
	mov	DWORD PTR ___t$[ebp], edx
	jmp	SHORT $LN2@vector
$LN1@vector:
	mov	esp, ebp
	pop	ebp
	ret	16					; 00000010H
??_H@YGXPAXIIP6EPAX0@Z@Z ENDP				; `vector constructor iterator'
_TEXT	ENDS
END
