; Listing generated by Microsoft (R) Optimizing Compiler Version 19.16.27045.0 

	TITLE	C:\Users\USER\Downloads\XashXT_v0.81_rev.1_with_sources\XashXT_v0.81_rev.1_src\server\maprules.cpp
	.686P
	.XMM
	include listing.inc
	.model	flat

INCLUDELIB LIBCMT
INCLUDELIB OLDNAMES

PUBLIC	?m_DataMap@CRuleEntity@@2Udatamap_s@@A		; CRuleEntity::m_DataMap
PUBLIC	?m_DataMap@CGameText@@2Udatamap_s@@A		; CGameText::m_DataMap
PUBLIC	?m_DataMap@CGamePlayerZone@@2Udatamap_s@@A	; CGamePlayerZone::m_DataMap
CONST	SEGMENT
$SG75353 DB	'CRuleEntity', 00H
$SG75418 DB	'm_iszMaster', 00H
$SG75419 DB	'master', 00H
$SG75930 DB	00H
$SG75420 DB	'CRuleEntity', 00H
$SG75434 DB	'master', 00H
	ORG $+1
$SG75563 DB	'game_score', 00H
	ORG $+1
$SG75575 DB	'points', 00H
	ORG $+1
$SG75636 DB	'game_end', 00H
	ORG $+3
$SG75726 DB	'game_text', 00H
	ORG $+2
$SG75728 DB	'CGameText', 00H
	ORG $+2
$SG75769 DB	'm_textParms', 00H
$SG75770 DB	'CGameText', 00H
	ORG $+2
$SG75782 DB	'channel', 00H
$SG75785 DB	'x', 00H
	ORG $+2
$SG75788 DB	'y', 00H
	ORG $+2
$SG75791 DB	'effect', 00H
	ORG $+1
$SG75794 DB	'color', 00H
	ORG $+2
$SG75797 DB	'color2', 00H
	ORG $+1
$SG75800 DB	'fadein', 00H
	ORG $+1
$SG75803 DB	'fadeout', 00H
$SG75806 DB	'holdtime', 00H
	ORG $+3
$SG75809 DB	'fxtime', 00H
	ORG $+1
$SG75890 DB	'game_team_master', 00H
	ORG $+3
$SG75901 DB	'teamindex', 00H
	ORG $+2
$SG75904 DB	'triggerstate', 00H
	ORG $+3
$SG75996 DB	'game_team_set', 00H
	ORG $+2
$SG76082 DB	'game_zone_player', 00H
	ORG $+3
$SG76084 DB	'CGamePlayerZone', 00H
$SG76127 DB	'm_iszInTarget', 00H
	ORG $+2
$SG76128 DB	'intarget', 00H
	ORG $+3
$SG76129 DB	'm_iszOutTarget', 00H
	ORG $+1
$SG76130 DB	'outtarget', 00H
	ORG $+2
$SG76131 DB	'm_iszInCount', 00H
	ORG $+3
$SG76132 DB	'incount', 00H
$SG76133 DB	'm_iszOutCount', 00H
	ORG $+2
$SG76134 DB	'outcount', 00H
	ORG $+3
$SG76135 DB	'CGamePlayerZone', 00H
$SG76145 DB	'intarget', 00H
	ORG $+3
$SG76148 DB	'outtarget', 00H
	ORG $+2
$SG76151 DB	'incount', 00H
$SG76154 DB	'outcount', 00H
	ORG $+3
$SG76236 DB	'game_player_hurt', 00H
	ORG $+3
$SG76343 DB	'game_counter', 00H
	ORG $+3
$SG76420 DB	'game_counter_set', 00H
	ORG $+3
$SG76494 DB	'game_player_equip', 00H
	ORG $+2
$SG76603 DB	'game_player_team', 00H
	ORG $+3
$SG76613 DB	'game_team_master', 00H
	ORG $+3
$SG77038 DB	'c', 00H, ':', 00H, '\', 00H, 'u', 00H, 's', 00H, 'e', 00H
	DB	'r', 00H, 's', 00H, '\', 00H, 'u', 00H, 's', 00H, 'e', 00H, 'r'
	DB	00H, '\', 00H, 'd', 00H, 'o', 00H, 'w', 00H, 'n', 00H, 'l', 00H
	DB	'o', 00H, 'a', 00H, 'd', 00H, 's', 00H, '\', 00H, 'x', 00H, 'a'
	DB	00H, 's', 00H, 'h', 00H, 'x', 00H, 't', 00H, '_', 00H, 'v', 00H
	DB	'0', 00H, '.', 00H, '8', 00H, '1', 00H, '_', 00H, 'r', 00H, 'e'
	DB	00H, 'v', 00H, '.', 00H, '1', 00H, '_', 00H, 'w', 00H, 'i', 00H
	DB	't', 00H, 'h', 00H, '_', 00H, 's', 00H, 'o', 00H, 'u', 00H, 'r'
	DB	00H, 'c', 00H, 'e', 00H, 's', 00H, '\', 00H, 'x', 00H, 'a', 00H
	DB	's', 00H, 'h', 00H, 'x', 00H, 't', 00H, '_', 00H, 'v', 00H, '0'
	DB	00H, '.', 00H, '8', 00H, '1', 00H, '_', 00H, 'r', 00H, 'e', 00H
	DB	'v', 00H, '.', 00H, '1', 00H, '_', 00H, 's', 00H, 'r', 00H, 'c'
	DB	00H, '\', 00H, 'g', 00H, 'a', 00H, 'm', 00H, 'e', 00H, '_', 00H
	DB	's', 00H, 'h', 00H, 'a', 00H, 'r', 00H, 'e', 00H, 'd', 00H, '\'
	DB	00H, 'u', 00H, 't', 00H, 'l', 00H, 'm', 00H, 'e', 00H, 'm', 00H
	DB	'o', 00H, 'r', 00H, 'y', 00H, '.', 00H, 'h', 00H, 00H, 00H
	ORG $+2
$SG77039 DB	'n', 00H, 'G', 00H, 'r', 00H, 'o', 00H, 'w', 00H, 'S', 00H
	DB	'i', 00H, 'z', 00H, 'e', 00H, ' ', 00H, '>', 00H, '=', 00H, ' '
	DB	00H, '0', 00H, 00H, 00H
	ORG $+2
$SG77082 DB	'c', 00H, ':', 00H, '\', 00H, 'u', 00H, 's', 00H, 'e', 00H
	DB	'r', 00H, 's', 00H, '\', 00H, 'u', 00H, 's', 00H, 'e', 00H, 'r'
	DB	00H, '\', 00H, 'd', 00H, 'o', 00H, 'w', 00H, 'n', 00H, 'l', 00H
	DB	'o', 00H, 'a', 00H, 'd', 00H, 's', 00H, '\', 00H, 'x', 00H, 'a'
	DB	00H, 's', 00H, 'h', 00H, 'x', 00H, 't', 00H, '_', 00H, 'v', 00H
	DB	'0', 00H, '.', 00H, '8', 00H, '1', 00H, '_', 00H, 'r', 00H, 'e'
	DB	00H, 'v', 00H, '.', 00H, '1', 00H, '_', 00H, 'w', 00H, 'i', 00H
	DB	't', 00H, 'h', 00H, '_', 00H, 's', 00H, 'o', 00H, 'u', 00H, 'r'
	DB	00H, 'c', 00H, 'e', 00H, 's', 00H, '\', 00H, 'x', 00H, 'a', 00H
	DB	's', 00H, 'h', 00H, 'x', 00H, 't', 00H, '_', 00H, 'v', 00H, '0'
	DB	00H, '.', 00H, '8', 00H, '1', 00H, '_', 00H, 'r', 00H, 'e', 00H
	DB	'v', 00H, '.', 00H, '1', 00H, '_', 00H, 's', 00H, 'r', 00H, 'c'
	DB	00H, '\', 00H, 'g', 00H, 'a', 00H, 'm', 00H, 'e', 00H, '_', 00H
	DB	's', 00H, 'h', 00H, 'a', 00H, 'r', 00H, 'e', 00H, 'd', 00H, '\'
	DB	00H, 'u', 00H, 't', 00H, 'l', 00H, 'a', 00H, 'r', 00H, 'r', 00H
	DB	'a', 00H, 'y', 00H, '.', 00H, 'h', 00H, 00H, 00H
$SG77208 DB	'0', 00H, 00H, 00H
$SG77083 DB	'(', 00H, 'B', 00H, 'a', 00H, 's', 00H, 'e', 00H, '(', 00H
	DB	')', 00H, ' ', 00H, '=', 00H, '=', 00H, ' ', 00H, 'N', 00H, 'U'
	DB	00H, 'L', 00H, 'L', 00H, ')', 00H, ' ', 00H, '|', 00H, '|', 00H
	DB	' ', 00H, '(', 00H, '&', 00H, 's', 00H, 'r', 00H, 'c', 00H, ' '
	DB	00H, '<', 00H, ' ', 00H, 'B', 00H, 'a', 00H, 's', 00H, 'e', 00H
	DB	'(', 00H, ')', 00H, ')', 00H, ' ', 00H, '|', 00H, '|', 00H, ' '
	DB	00H, '(', 00H, '&', 00H, 's', 00H, 'r', 00H, 'c', 00H, ' ', 00H
	DB	'>', 00H, '=', 00H, ' ', 00H, '(', 00H, 'B', 00H, 'a', 00H, 's'
	DB	00H, 'e', 00H, '(', 00H, ')', 00H, ' ', 00H, '+', 00H, ' ', 00H
	DB	'C', 00H, 'o', 00H, 'u', 00H, 'n', 00H, 't', 00H, '(', 00H, ')'
	DB	00H, ')', 00H, ' ', 00H, ')', 00H, 00H, 00H
	ORG $+2
$SG77205 DB	'n', 00H, 'u', 00H, 'm', 00H, ' ', 00H, '>', 00H, ' ', 00H
	DB	'0', 00H, 00H, 00H
$SG77214 DB	'0', 00H, 00H, 00H
$SG77084 DB	'c', 00H, ':', 00H, '\', 00H, 'u', 00H, 's', 00H, 'e', 00H
	DB	'r', 00H, 's', 00H, '\', 00H, 'u', 00H, 's', 00H, 'e', 00H, 'r'
	DB	00H, '\', 00H, 'd', 00H, 'o', 00H, 'w', 00H, 'n', 00H, 'l', 00H
	DB	'o', 00H, 'a', 00H, 'd', 00H, 's', 00H, '\', 00H, 'x', 00H, 'a'
	DB	00H, 's', 00H, 'h', 00H, 'x', 00H, 't', 00H, '_', 00H, 'v', 00H
	DB	'0', 00H, '.', 00H, '8', 00H, '1', 00H, '_', 00H, 'r', 00H, 'e'
	DB	00H, 'v', 00H, '.', 00H, '1', 00H, '_', 00H, 'w', 00H, 'i', 00H
	DB	't', 00H, 'h', 00H, '_', 00H, 's', 00H, 'o', 00H, 'u', 00H, 'r'
	DB	00H, 'c', 00H, 'e', 00H, 's', 00H, '\', 00H, 'x', 00H, 'a', 00H
	DB	's', 00H, 'h', 00H, 'x', 00H, 't', 00H, '_', 00H, 'v', 00H, '0'
	DB	00H, '.', 00H, '8', 00H, '1', 00H, '_', 00H, 'r', 00H, 'e', 00H
	DB	'v', 00H, '.', 00H, '1', 00H, '_', 00H, 's', 00H, 'r', 00H, 'c'
	DB	00H, '\', 00H, 'g', 00H, 'a', 00H, 'm', 00H, 'e', 00H, '_', 00H
	DB	's', 00H, 'h', 00H, 'a', 00H, 'r', 00H, 'e', 00H, 'd', 00H, '\'
	DB	00H, 'u', 00H, 't', 00H, 'l', 00H, 'a', 00H, 'r', 00H, 'r', 00H
	DB	'a', 00H, 'y', 00H, '.', 00H, 'h', 00H, 00H, 00H
$SG77218 DB	'm', 00H, '_', 00H, 'p', 00H, 'M', 00H, 'e', 00H, 'm', 00H
	DB	'o', 00H, 'r', 00H, 'y', 00H, 00H, 00H
$SG77085 DB	'(', 00H, 'e', 00H, 'l', 00H, 'e', 00H, 'm', 00H, ' ', 00H
	DB	'=', 00H, '=', 00H, ' ', 00H, 'C', 00H, 'o', 00H, 'u', 00H, 'n'
	DB	00H, 't', 00H, '(', 00H, ')', 00H, ')', 00H, ' ', 00H, '|', 00H
	DB	'|', 00H, ' ', 00H, 'I', 00H, 's', 00H, 'V', 00H, 'a', 00H, 'l'
	DB	00H, 'i', 00H, 'd', 00H, 'I', 00H, 'n', 00H, 'd', 00H, 'e', 00H
	DB	'x', 00H, '(', 00H, 'e', 00H, 'l', 00H, 'e', 00H, 'm', 00H, ')'
	DB	00H, 00H, 00H
$SG77157 DB	'c', 00H, ':', 00H, '\', 00H, 'u', 00H, 's', 00H, 'e', 00H
	DB	'r', 00H, 's', 00H, '\', 00H, 'u', 00H, 's', 00H, 'e', 00H, 'r'
	DB	00H, '\', 00H, 'd', 00H, 'o', 00H, 'w', 00H, 'n', 00H, 'l', 00H
	DB	'o', 00H, 'a', 00H, 'd', 00H, 's', 00H, '\', 00H, 'x', 00H, 'a'
	DB	00H, 's', 00H, 'h', 00H, 'x', 00H, 't', 00H, '_', 00H, 'v', 00H
	DB	'0', 00H, '.', 00H, '8', 00H, '1', 00H, '_', 00H, 'r', 00H, 'e'
	DB	00H, 'v', 00H, '.', 00H, '1', 00H, '_', 00H, 'w', 00H, 'i', 00H
	DB	't', 00H, 'h', 00H, '_', 00H, 's', 00H, 'o', 00H, 'u', 00H, 'r'
	DB	00H, 'c', 00H, 'e', 00H, 's', 00H, '\', 00H, 'x', 00H, 'a', 00H
	DB	's', 00H, 'h', 00H, 'x', 00H, 't', 00H, '_', 00H, 'v', 00H, '0'
	DB	00H, '.', 00H, '8', 00H, '1', 00H, '_', 00H, 'r', 00H, 'e', 00H
	DB	'v', 00H, '.', 00H, '1', 00H, '_', 00H, 's', 00H, 'r', 00H, 'c'
	DB	00H, '\', 00H, 'g', 00H, 'a', 00H, 'm', 00H, 'e', 00H, '_', 00H
	DB	's', 00H, 'h', 00H, 'a', 00H, 'r', 00H, 'e', 00H, 'd', 00H, '\'
	DB	00H, 'u', 00H, 't', 00H, 'l', 00H, 'a', 00H, 'r', 00H, 'r', 00H
	DB	'a', 00H, 'y', 00H, '.', 00H, 'h', 00H, 00H, 00H
$SG77220 DB	'm', 00H, '_', 00H, 'p', 00H, 'M', 00H, 'e', 00H, 'm', 00H
	DB	'o', 00H, 'r', 00H, 'y', 00H, 00H, 00H
$SG77158 DB	'I', 00H, 's', 00H, 'V', 00H, 'a', 00H, 'l', 00H, 'i', 00H
	DB	'd', 00H, 'I', 00H, 'n', 00H, 'd', 00H, 'e', 00H, 'x', 00H, '('
	DB	00H, 'e', 00H, 'l', 00H, 'e', 00H, 'm', 00H, ')', 00H, ' ', 00H
	DB	'|', 00H, '|', 00H, ' ', 00H, '(', 00H, ' ', 00H, 'm', 00H, '_'
	DB	00H, 'S', 00H, 'i', 00H, 'z', 00H, 'e', 00H, ' ', 00H, '=', 00H
	DB	'=', 00H, ' ', 00H, '0', 00H, ' ', 00H, ')', 00H, ' ', 00H, '|'
	DB	00H, '|', 00H, ' ', 00H, '(', 00H, ' ', 00H, 'n', 00H, 'u', 00H
	DB	'm', 00H, ' ', 00H, '=', 00H, '=', 00H, ' ', 00H, '0', 00H, ' '
	DB	00H, ')', 00H, 00H, 00H
	ORG $+4
$SG77204 DB	'c', 00H, ':', 00H, '\', 00H, 'u', 00H, 's', 00H, 'e', 00H
	DB	'r', 00H, 's', 00H, '\', 00H, 'u', 00H, 's', 00H, 'e', 00H, 'r'
	DB	00H, '\', 00H, 'd', 00H, 'o', 00H, 'w', 00H, 'n', 00H, 'l', 00H
	DB	'o', 00H, 'a', 00H, 'd', 00H, 's', 00H, '\', 00H, 'x', 00H, 'a'
	DB	00H, 's', 00H, 'h', 00H, 'x', 00H, 't', 00H, '_', 00H, 'v', 00H
	DB	'0', 00H, '.', 00H, '8', 00H, '1', 00H, '_', 00H, 'r', 00H, 'e'
	DB	00H, 'v', 00H, '.', 00H, '1', 00H, '_', 00H, 'w', 00H, 'i', 00H
	DB	't', 00H, 'h', 00H, '_', 00H, 's', 00H, 'o', 00H, 'u', 00H, 'r'
	DB	00H, 'c', 00H, 'e', 00H, 's', 00H, '\', 00H, 'x', 00H, 'a', 00H
	DB	's', 00H, 'h', 00H, 'x', 00H, 't', 00H, '_', 00H, 'v', 00H, '0'
	DB	00H, '.', 00H, '8', 00H, '1', 00H, '_', 00H, 'r', 00H, 'e', 00H
	DB	'v', 00H, '.', 00H, '1', 00H, '_', 00H, 's', 00H, 'r', 00H, 'c'
	DB	00H, '\', 00H, 'g', 00H, 'a', 00H, 'm', 00H, 'e', 00H, '_', 00H
	DB	's', 00H, 'h', 00H, 'a', 00H, 'r', 00H, 'e', 00H, 'd', 00H, '\'
	DB	00H, 'u', 00H, 't', 00H, 'l', 00H, 'm', 00H, 'e', 00H, 'm', 00H
	DB	'o', 00H, 'r', 00H, 'y', 00H, '.', 00H, 'h', 00H, 00H, 00H
	ORG $+2
$SG77207 DB	'c', 00H, ':', 00H, '\', 00H, 'u', 00H, 's', 00H, 'e', 00H
	DB	'r', 00H, 's', 00H, '\', 00H, 'u', 00H, 's', 00H, 'e', 00H, 'r'
	DB	00H, '\', 00H, 'd', 00H, 'o', 00H, 'w', 00H, 'n', 00H, 'l', 00H
	DB	'o', 00H, 'a', 00H, 'd', 00H, 's', 00H, '\', 00H, 'x', 00H, 'a'
	DB	00H, 's', 00H, 'h', 00H, 'x', 00H, 't', 00H, '_', 00H, 'v', 00H
	DB	'0', 00H, '.', 00H, '8', 00H, '1', 00H, '_', 00H, 'r', 00H, 'e'
	DB	00H, 'v', 00H, '.', 00H, '1', 00H, '_', 00H, 'w', 00H, 'i', 00H
	DB	't', 00H, 'h', 00H, '_', 00H, 's', 00H, 'o', 00H, 'u', 00H, 'r'
	DB	00H, 'c', 00H, 'e', 00H, 's', 00H, '\', 00H, 'x', 00H, 'a', 00H
	DB	's', 00H, 'h', 00H, 'x', 00H, 't', 00H, '_', 00H, 'v', 00H, '0'
	DB	00H, '.', 00H, '8', 00H, '1', 00H, '_', 00H, 'r', 00H, 'e', 00H
	DB	'v', 00H, '.', 00H, '1', 00H, '_', 00H, 's', 00H, 'r', 00H, 'c'
	DB	00H, '\', 00H, 'g', 00H, 'a', 00H, 'm', 00H, 'e', 00H, '_', 00H
	DB	's', 00H, 'h', 00H, 'a', 00H, 'r', 00H, 'e', 00H, 'd', 00H, '\'
	DB	00H, 'u', 00H, 't', 00H, 'l', 00H, 'm', 00H, 'e', 00H, 'm', 00H
	DB	'o', 00H, 'r', 00H, 'y', 00H, '.', 00H, 'h', 00H, 00H, 00H
	ORG $+2
$SG77213 DB	'c', 00H, ':', 00H, '\', 00H, 'u', 00H, 's', 00H, 'e', 00H
	DB	'r', 00H, 's', 00H, '\', 00H, 'u', 00H, 's', 00H, 'e', 00H, 'r'
	DB	00H, '\', 00H, 'd', 00H, 'o', 00H, 'w', 00H, 'n', 00H, 'l', 00H
	DB	'o', 00H, 'a', 00H, 'd', 00H, 's', 00H, '\', 00H, 'x', 00H, 'a'
	DB	00H, 's', 00H, 'h', 00H, 'x', 00H, 't', 00H, '_', 00H, 'v', 00H
	DB	'0', 00H, '.', 00H, '8', 00H, '1', 00H, '_', 00H, 'r', 00H, 'e'
	DB	00H, 'v', 00H, '.', 00H, '1', 00H, '_', 00H, 'w', 00H, 'i', 00H
	DB	't', 00H, 'h', 00H, '_', 00H, 's', 00H, 'o', 00H, 'u', 00H, 'r'
	DB	00H, 'c', 00H, 'e', 00H, 's', 00H, '\', 00H, 'x', 00H, 'a', 00H
	DB	's', 00H, 'h', 00H, 'x', 00H, 't', 00H, '_', 00H, 'v', 00H, '0'
	DB	00H, '.', 00H, '8', 00H, '1', 00H, '_', 00H, 'r', 00H, 'e', 00H
	DB	'v', 00H, '.', 00H, '1', 00H, '_', 00H, 's', 00H, 'r', 00H, 'c'
	DB	00H, '\', 00H, 'g', 00H, 'a', 00H, 'm', 00H, 'e', 00H, '_', 00H
	DB	's', 00H, 'h', 00H, 'a', 00H, 'r', 00H, 'e', 00H, 'd', 00H, '\'
	DB	00H, 'u', 00H, 't', 00H, 'l', 00H, 'm', 00H, 'e', 00H, 'm', 00H
	DB	'o', 00H, 'r', 00H, 'y', 00H, '.', 00H, 'h', 00H, 00H, 00H
	ORG $+2
$SG77217 DB	'c', 00H, ':', 00H, '\', 00H, 'u', 00H, 's', 00H, 'e', 00H
	DB	'r', 00H, 's', 00H, '\', 00H, 'u', 00H, 's', 00H, 'e', 00H, 'r'
	DB	00H, '\', 00H, 'd', 00H, 'o', 00H, 'w', 00H, 'n', 00H, 'l', 00H
	DB	'o', 00H, 'a', 00H, 'd', 00H, 's', 00H, '\', 00H, 'x', 00H, 'a'
	DB	00H, 's', 00H, 'h', 00H, 'x', 00H, 't', 00H, '_', 00H, 'v', 00H
	DB	'0', 00H, '.', 00H, '8', 00H, '1', 00H, '_', 00H, 'r', 00H, 'e'
	DB	00H, 'v', 00H, '.', 00H, '1', 00H, '_', 00H, 'w', 00H, 'i', 00H
	DB	't', 00H, 'h', 00H, '_', 00H, 's', 00H, 'o', 00H, 'u', 00H, 'r'
	DB	00H, 'c', 00H, 'e', 00H, 's', 00H, '\', 00H, 'x', 00H, 'a', 00H
	DB	's', 00H, 'h', 00H, 'x', 00H, 't', 00H, '_', 00H, 'v', 00H, '0'
	DB	00H, '.', 00H, '8', 00H, '1', 00H, '_', 00H, 'r', 00H, 'e', 00H
	DB	'v', 00H, '.', 00H, '1', 00H, '_', 00H, 's', 00H, 'r', 00H, 'c'
	DB	00H, '\', 00H, 'g', 00H, 'a', 00H, 'm', 00H, 'e', 00H, '_', 00H
	DB	's', 00H, 'h', 00H, 'a', 00H, 'r', 00H, 'e', 00H, 'd', 00H, '\'
	DB	00H, 'u', 00H, 't', 00H, 'l', 00H, 'm', 00H, 'e', 00H, 'm', 00H
	DB	'o', 00H, 'r', 00H, 'y', 00H, '.', 00H, 'h', 00H, 00H, 00H
	ORG $+2
$SG77219 DB	'c', 00H, ':', 00H, '\', 00H, 'u', 00H, 's', 00H, 'e', 00H
	DB	'r', 00H, 's', 00H, '\', 00H, 'u', 00H, 's', 00H, 'e', 00H, 'r'
	DB	00H, '\', 00H, 'd', 00H, 'o', 00H, 'w', 00H, 'n', 00H, 'l', 00H
	DB	'o', 00H, 'a', 00H, 'd', 00H, 's', 00H, '\', 00H, 'x', 00H, 'a'
	DB	00H, 's', 00H, 'h', 00H, 'x', 00H, 't', 00H, '_', 00H, 'v', 00H
	DB	'0', 00H, '.', 00H, '8', 00H, '1', 00H, '_', 00H, 'r', 00H, 'e'
	DB	00H, 'v', 00H, '.', 00H, '1', 00H, '_', 00H, 'w', 00H, 'i', 00H
	DB	't', 00H, 'h', 00H, '_', 00H, 's', 00H, 'o', 00H, 'u', 00H, 'r'
	DB	00H, 'c', 00H, 'e', 00H, 's', 00H, '\', 00H, 'x', 00H, 'a', 00H
	DB	's', 00H, 'h', 00H, 'x', 00H, 't', 00H, '_', 00H, 'v', 00H, '0'
	DB	00H, '.', 00H, '8', 00H, '1', 00H, '_', 00H, 'r', 00H, 'e', 00H
	DB	'v', 00H, '.', 00H, '1', 00H, '_', 00H, 's', 00H, 'r', 00H, 'c'
	DB	00H, '\', 00H, 'g', 00H, 'a', 00H, 'm', 00H, 'e', 00H, '_', 00H
	DB	's', 00H, 'h', 00H, 'a', 00H, 'r', 00H, 'e', 00H, 'd', 00H, '\'
	DB	00H, 'u', 00H, 't', 00H, 'l', 00H, 'm', 00H, 'e', 00H, 'm', 00H
	DB	'o', 00H, 'r', 00H, 'y', 00H, '.', 00H, 'h', 00H, 00H, 00H
CONST	ENDS
_DATA	SEGMENT
?m_DataMap@CRuleEntity@@2Udatamap_s@@A DD 00H		; CRuleEntity::m_DataMap
	DD	00H
	DD	FLAT:$SG75353
	DD	00H
?m_DataMap@CGameText@@2Udatamap_s@@A DD 00H		; CGameText::m_DataMap
	DD	00H
	DD	FLAT:$SG75728
	DD	00H
?m_DataMap@CGamePlayerZone@@2Udatamap_s@@A DD 00H	; CGamePlayerZone::m_DataMap
	DD	00H
	DD	FLAT:$SG76084
	DD	00H
_DATA	ENDS
PUBLIC	??_H@YGXPAXIIP6EPAX0@Z@Z			; `vector constructor iterator'
PUBLIC	??__G@YGXPAX0IIP6EPAX00@Z@Z			; `vector copy constructor iterator'
PUBLIC	??0Vector@@QAE@XZ				; Vector::Vector
PUBLIC	??0Vector@@QAE@MMM@Z				; Vector::Vector
PUBLIC	??8Vector@@QBEHABV0@@Z				; Vector::operator==
PUBLIC	??9Vector@@QBEHABV0@@Z				; Vector::operator!=
PUBLIC	??HVector@@QBE?AV0@ABV0@@Z			; Vector::operator+
PUBLIC	??DVector@@QBE?AV0@M@Z				; Vector::operator*
PUBLIC	??0gametrace_s@@QAE@XZ				; gametrace_s::gametrace_s
PUBLIC	?GET_PRIVATE@@YAPAXPAUedict_s@@@Z		; GET_PRIVATE
PUBLIC	??0CDatadescGeneratedNameHolder@@QAE@PBD@Z	; CDatadescGeneratedNameHolder::CDatadescGeneratedNameHolder
PUBLIC	??1CDatadescGeneratedNameHolder@@QAE@XZ		; CDatadescGeneratedNameHolder::~CDatadescGeneratedNameHolder
PUBLIC	??0?$CUtlArray@PADV?$CUtlMemory@PADH@@@@QAE@HH@Z ; CUtlArray<char *,CUtlMemory<char *,int> >::CUtlArray<char *,CUtlMemory<char *,int> >
PUBLIC	??1?$CUtlArray@PADV?$CUtlMemory@PADH@@@@QAE@XZ	; CUtlArray<char *,CUtlMemory<char *,int> >::~CUtlArray<char *,CUtlMemory<char *,int> >
PUBLIC	??A?$CUtlArray@PADV?$CUtlMemory@PADH@@@@QAEAAPADH@Z ; CUtlArray<char *,CUtlMemory<char *,int> >::operator[]
PUBLIC	?Element@?$CUtlArray@PADV?$CUtlMemory@PADH@@@@QAEAAPADH@Z ; CUtlArray<char *,CUtlMemory<char *,int> >::Element
PUBLIC	?Base@?$CUtlArray@PADV?$CUtlMemory@PADH@@@@QAEPAPADXZ ; CUtlArray<char *,CUtlMemory<char *,int> >::Base
PUBLIC	?Count@?$CUtlArray@PADV?$CUtlMemory@PADH@@@@QBEHXZ ; CUtlArray<char *,CUtlMemory<char *,int> >::Count
PUBLIC	?RemoveAll@?$CUtlArray@PADV?$CUtlMemory@PADH@@@@QAEXXZ ; CUtlArray<char *,CUtlMemory<char *,int> >::RemoveAll
PUBLIC	?Purge@?$CUtlArray@PADV?$CUtlMemory@PADH@@@@QAEXXZ ; CUtlArray<char *,CUtlMemory<char *,int> >::Purge
PUBLIC	??0?$CUtlMemory@PADH@@QAE@HH@Z			; CUtlMemory<char *,int>::CUtlMemory<char *,int>
PUBLIC	??1?$CUtlMemory@PADH@@QAE@XZ			; CUtlMemory<char *,int>::~CUtlMemory<char *,int>
PUBLIC	??A?$CUtlMemory@PADH@@QAEAAPADH@Z		; CUtlMemory<char *,int>::operator[]
PUBLIC	?IsIdxValid@?$CUtlMemory@PADH@@QBE_NH@Z		; CUtlMemory<char *,int>::IsIdxValid
PUBLIC	?Base@?$CUtlMemory@PADH@@QAEPAPADXZ		; CUtlMemory<char *,int>::Base
PUBLIC	?Purge@?$CUtlMemory@PADH@@QAEXXZ		; CUtlMemory<char *,int>::Purge
PUBLIC	?IsExternallyAllocated@?$CUtlMemory@PADH@@QBE_NXZ ; CUtlMemory<char *,int>::IsExternallyAllocated
PUBLIC	?IsReadOnly@?$CUtlMemory@PADH@@QBE_NXZ		; CUtlMemory<char *,int>::IsReadOnly
PUBLIC	?ValidateGrowSize@?$CUtlMemory@PADH@@IAEXXZ	; CUtlMemory<char *,int>::ValidateGrowSize
PUBLIC	?ResetDbgInfo@?$CUtlArray@PADV?$CUtlMemory@PADH@@@@IAEXXZ ; CUtlArray<char *,CUtlMemory<char *,int> >::ResetDbgInfo
PUBLIC	??0IEntityFactory@@QAE@XZ			; IEntityFactory::IEntityFactory
PUBLIC	?ENT@@YAPAUedict_s@@PBUentvars_s@@@Z		; ENT
PUBLIC	?OFFSET@@YAHPBUedict_s@@@Z			; OFFSET
PUBLIC	?OFFSET@@YAHPAUentvars_s@@@Z			; OFFSET
PUBLIC	?VARS@@YAPAUentvars_s@@PAUedict_s@@@Z		; VARS
PUBLIC	?FNullEnt@@YAHH@Z				; FNullEnt
PUBLIC	?FNullEnt@@YAHPAUentvars_s@@@Z			; FNullEnt
PUBLIC	?FStrEq@@YAHPBD0@Z				; FStrEq
PUBLIC	?FClassnameIs@@YAHPAUentvars_s@@PBD@Z		; FClassnameIs
PUBLIC	?Get@EHANDLE@@QAEPAUedict_s@@XZ			; EHANDLE::Get
PUBLIC	??BEHANDLE@@QAEHXZ				; EHANDLE::operator int
PUBLIC	??CEHANDLE@@QAEPAVCBaseEntity@@XZ		; EHANDLE::operator->
PUBLIC	?SetClassname@CBaseEntity@@QAEXPBD@Z		; CBaseEntity::SetClassname
PUBLIC	?Spawn@CBaseEntity@@UAEXXZ			; CBaseEntity::Spawn
PUBLIC	?Precache@CBaseEntity@@UAEXXZ			; CBaseEntity::Precache
PUBLIC	?KeyValue@CBaseEntity@@UAEXPAUKeyValueData_s@@@Z ; CBaseEntity::KeyValue
PUBLIC	?ObjectCaps@CBaseEntity@@UAEHXZ			; CBaseEntity::ObjectCaps
PUBLIC	?Activate@CBaseEntity@@UAEXXZ			; CBaseEntity::Activate
PUBLIC	?OnChangeLevel@CBaseEntity@@UAEXXZ		; CBaseEntity::OnChangeLevel
PUBLIC	?OnTeleport@CBaseEntity@@UAEXXZ			; CBaseEntity::OnTeleport
PUBLIC	?PortalSleep@CBaseEntity@@UAEXM@Z		; CBaseEntity::PortalSleep
PUBLIC	?StartMessage@CBaseEntity@@UAEXPAVCBasePlayer@@@Z ; CBaseEntity::StartMessage
PUBLIC	?GetPosition@CBaseEntity@@UAEMXZ		; CBaseEntity::GetPosition
PUBLIC	?OnChangeParent@CBaseEntity@@UAEXXZ		; CBaseEntity::OnChangeParent
PUBLIC	?OnClearParent@CBaseEntity@@UAEXXZ		; CBaseEntity::OnClearParent
PUBLIC	?OnRemove@CBaseEntity@@UAEXXZ			; CBaseEntity::OnRemove
PUBLIC	?Classify@CBaseEntity@@UAEHXZ			; CBaseEntity::Classify
PUBLIC	?DeathNotice@CBaseEntity@@UAEXPAUentvars_s@@@Z	; CBaseEntity::DeathNotice
PUBLIC	?IsRigidBody@CBaseEntity@@UAEHXZ		; CBaseEntity::IsRigidBody
PUBLIC	?GetState@CBaseEntity@@UAE?AW4STATE@@XZ		; CBaseEntity::GetState
PUBLIC	?GetState@CBaseEntity@@UAE?AW4STATE@@PAV1@@Z	; CBaseEntity::GetState
PUBLIC	?BloodColor@CBaseEntity@@UAEHXZ			; CBaseEntity::BloodColor
PUBLIC	?IsTriggered@CBaseEntity@@UAEHPAV1@@Z		; CBaseEntity::IsTriggered
PUBLIC	?MyMonsterPointer@CBaseEntity@@UAEPAVCBaseMonster@@XZ ; CBaseEntity::MyMonsterPointer
PUBLIC	?MySquadMonsterPointer@CBaseEntity@@UAEPAVCSquadMonster@@XZ ; CBaseEntity::MySquadMonsterPointer
PUBLIC	?GetToggleState@CBaseEntity@@UAEHXZ		; CBaseEntity::GetToggleState
PUBLIC	?AddPoints@CBaseEntity@@UAEXHH@Z		; CBaseEntity::AddPoints
PUBLIC	?AddPointsToTeam@CBaseEntity@@UAEXHH@Z		; CBaseEntity::AddPointsToTeam
PUBLIC	?AddPlayerItem@CBaseEntity@@UAEHPAVCBasePlayerItem@@@Z ; CBaseEntity::AddPlayerItem
PUBLIC	?RemovePlayerItem@CBaseEntity@@UAEHPAVCBasePlayerItem@@@Z ; CBaseEntity::RemovePlayerItem
PUBLIC	?GiveAmmo@CBaseEntity@@UAEHHPADH@Z		; CBaseEntity::GiveAmmo
PUBLIC	?GetDelay@CBaseEntity@@UAEMXZ			; CBaseEntity::GetDelay
PUBLIC	?IsMoving@CBaseEntity@@UAEHXZ			; CBaseEntity::IsMoving
PUBLIC	?OverrideReset@CBaseEntity@@UAEXXZ		; CBaseEntity::OverrideReset
PUBLIC	?TransferReset@CBaseEntity@@UAEXXZ		; CBaseEntity::TransferReset
PUBLIC	?SetToggleState@CBaseEntity@@UAEXH@Z		; CBaseEntity::SetToggleState
PUBLIC	?StartSneaking@CBaseEntity@@UAEXXZ		; CBaseEntity::StartSneaking
PUBLIC	?StopSneaking@CBaseEntity@@UAEXXZ		; CBaseEntity::StopSneaking
PUBLIC	?OnControls@CBaseEntity@@UAEHPAV1@@Z		; CBaseEntity::OnControls
PUBLIC	?IsSneaking@CBaseEntity@@UAEHXZ			; CBaseEntity::IsSneaking
PUBLIC	?IsAlive@CBaseEntity@@UAEHXZ			; CBaseEntity::IsAlive
PUBLIC	?IsBSPModel@CBaseEntity@@UAEHXZ			; CBaseEntity::IsBSPModel
PUBLIC	?IsCustomModel@CBaseEntity@@UAEHXZ		; CBaseEntity::IsCustomModel
PUBLIC	?ReflectGauss@CBaseEntity@@UAEHXZ		; CBaseEntity::ReflectGauss
PUBLIC	?HasTarget@CBaseEntity@@UAEHH@Z			; CBaseEntity::HasTarget
PUBLIC	?IsPlayer@CBaseEntity@@UAEHXZ			; CBaseEntity::IsPlayer
PUBLIC	?IsNetClient@CBaseEntity@@UAEHXZ		; CBaseEntity::IsNetClient
PUBLIC	?IsMonster@CBaseEntity@@UAEHXZ			; CBaseEntity::IsMonster
PUBLIC	?IsPushable@CBaseEntity@@UAEHXZ			; CBaseEntity::IsPushable
PUBLIC	?IsProjectile@CBaseEntity@@UAEHXZ		; CBaseEntity::IsProjectile
PUBLIC	?IsFuncScreen@CBaseEntity@@UAEHXZ		; CBaseEntity::IsFuncScreen
PUBLIC	?IsPortal@CBaseEntity@@UAEHXZ			; CBaseEntity::IsPortal
PUBLIC	?IsTank@CBaseEntity@@UAEHXZ			; CBaseEntity::IsTank
PUBLIC	?IsMover@CBaseEntity@@UAEHXZ			; CBaseEntity::IsMover
PUBLIC	?IsBreakable@CBaseEntity@@UAEHXZ		; CBaseEntity::IsBreakable
PUBLIC	?TeamID@CBaseEntity@@UAEPBDXZ			; CBaseEntity::TeamID
PUBLIC	?Think@CBaseEntity@@UAEXXZ			; CBaseEntity::Think
PUBLIC	?Use@CBaseEntity@@UAEXPAV1@0W4USE_TYPE@@M@Z	; CBaseEntity::Use
PUBLIC	?Touch@CBaseEntity@@UAEXPAV1@@Z			; CBaseEntity::Touch
PUBLIC	?Blocked@CBaseEntity@@UAEXPAV1@@Z		; CBaseEntity::Blocked
PUBLIC	?MoveDone@CBaseEntity@@UAEXXZ			; CBaseEntity::MoveDone
PUBLIC	??2CBaseEntity@@SAPAXIPAUentvars_s@@@Z		; CBaseEntity::operator new
PUBLIC	??3CBaseEntity@@SAXPAXPAUentvars_s@@@Z		; CBaseEntity::operator delete
PUBLIC	?Respawn@CBaseEntity@@UAEPAV1@XZ		; CBaseEntity::Respawn
PUBLIC	?UpdateOwner@CBaseEntity@@UAEXXZ		; CBaseEntity::UpdateOwner
PUBLIC	?FBecomeProne@CBaseEntity@@UAEHXZ		; CBaseEntity::FBecomeProne
PUBLIC	?edict@CBaseEntity@@QAEPAUedict_s@@XZ		; CBaseEntity::edict
PUBLIC	?Center@CBaseEntity@@UAE?AVVector@@XZ		; CBaseEntity::Center
PUBLIC	?EyePosition@CBaseEntity@@UAE?AVVector@@XZ	; CBaseEntity::EyePosition
PUBLIC	?EarPosition@CBaseEntity@@UAE?AVVector@@XZ	; CBaseEntity::EarPosition
PUBLIC	?BodyTarget@CBaseEntity@@UAE?AVVector@@ABV2@@Z	; CBaseEntity::BodyTarget
PUBLIC	?IsPointSized@CBaseEntity@@UBEHXZ		; CBaseEntity::IsPointSized
PUBLIC	?Illumination@CBaseEntity@@UAEHXZ		; CBaseEntity::Illumination
PUBLIC	??0CBaseEntity@@QAE@XZ				; CBaseEntity::CBaseEntity
PUBLIC	?Spawn@CRuleEntity@@UAEXXZ			; CRuleEntity::Spawn
PUBLIC	?KeyValue@CRuleEntity@@UAEXPAUKeyValueData_s@@@Z ; CRuleEntity::KeyValue
PUBLIC	?GetBaseMap@CRuleEntity@@SAPAUdatamap_s@@XZ	; CRuleEntity::GetBaseMap
PUBLIC	?GetDataDescMap@CRuleEntity@@UAEPAUdatamap_s@@XZ ; CRuleEntity::GetDataDescMap
PUBLIC	?SetMaster@CRuleEntity@@QAEXH@Z			; CRuleEntity::SetMaster
PUBLIC	?CanFireForActivator@CRuleEntity@@IAEHPAVCBaseEntity@@@Z ; CRuleEntity::CanFireForActivator
PUBLIC	??0CRuleEntity@@QAE@XZ				; CRuleEntity::CRuleEntity
PUBLIC	??$DataMapAccess@VCBaseEntity@@@@YAXPAVCBaseEntity@@PAPAUdatamap_s@@@Z ; DataMapAccess<CBaseEntity>
PUBLIC	??$DataMapInit@VCRuleEntity@@@@YAPAUdatamap_s@@PAVCRuleEntity@@@Z ; DataMapInit<CRuleEntity>
PUBLIC	?Spawn@CRulePointEntity@@UAEXXZ			; CRulePointEntity::Spawn
PUBLIC	??0CRulePointEntity@@QAE@XZ			; CRulePointEntity::CRulePointEntity
PUBLIC	?Spawn@CRuleBrushEntity@@UAEXXZ			; CRuleBrushEntity::Spawn
PUBLIC	??0CRuleBrushEntity@@QAE@XZ			; CRuleBrushEntity::CRuleBrushEntity
PUBLIC	?Spawn@CGameScore@@UAEXXZ			; CGameScore::Spawn
PUBLIC	?Use@CGameScore@@UAEXPAVCBaseEntity@@0W4USE_TYPE@@M@Z ; CGameScore::Use
PUBLIC	?KeyValue@CGameScore@@UAEXPAUKeyValueData_s@@@Z	; CGameScore::KeyValue
PUBLIC	?Points@CGameScore@@QAEHXZ			; CGameScore::Points
PUBLIC	?AllowNegativeScore@CGameScore@@QAEHXZ		; CGameScore::AllowNegativeScore
PUBLIC	?AwardToTeam@CGameScore@@QAEHXZ			; CGameScore::AwardToTeam
PUBLIC	?SetPoints@CGameScore@@QAEXH@Z			; CGameScore::SetPoints
PUBLIC	??0CGameScore@@QAE@XZ				; CGameScore::CGameScore
PUBLIC	??0?$CEntityFactory@VCGameScore@@@@QAE@PBD@Z	; CEntityFactory<CGameScore>::CEntityFactory<CGameScore>
PUBLIC	?Create@?$CEntityFactory@VCGameScore@@@@UAEPAVCBaseEntity@@PBDPAUentvars_s@@@Z ; CEntityFactory<CGameScore>::Create
PUBLIC	?Destroy@?$CEntityFactory@VCGameScore@@@@UAEXPAVCBaseEntity@@@Z ; CEntityFactory<CGameScore>::Destroy
PUBLIC	?GetEntitySize@?$CEntityFactory@VCGameScore@@@@UAEIXZ ; CEntityFactory<CGameScore>::GetEntitySize
PUBLIC	?Use@CGameEnd@@UAEXPAVCBaseEntity@@0W4USE_TYPE@@M@Z ; CGameEnd::Use
PUBLIC	??0CGameEnd@@QAE@XZ				; CGameEnd::CGameEnd
PUBLIC	??0?$CEntityFactory@VCGameEnd@@@@QAE@PBD@Z	; CEntityFactory<CGameEnd>::CEntityFactory<CGameEnd>
PUBLIC	?Create@?$CEntityFactory@VCGameEnd@@@@UAEPAVCBaseEntity@@PBDPAUentvars_s@@@Z ; CEntityFactory<CGameEnd>::Create
PUBLIC	?Destroy@?$CEntityFactory@VCGameEnd@@@@UAEXPAVCBaseEntity@@@Z ; CEntityFactory<CGameEnd>::Destroy
PUBLIC	?GetEntitySize@?$CEntityFactory@VCGameEnd@@@@UAEIXZ ; CEntityFactory<CGameEnd>::GetEntitySize
PUBLIC	?Use@CGameText@@UAEXPAVCBaseEntity@@0W4USE_TYPE@@M@Z ; CGameText::Use
PUBLIC	?KeyValue@CGameText@@UAEXPAUKeyValueData_s@@@Z	; CGameText::KeyValue
PUBLIC	?GetBaseMap@CGameText@@SAPAUdatamap_s@@XZ	; CGameText::GetBaseMap
PUBLIC	?GetDataDescMap@CGameText@@UAEPAUdatamap_s@@XZ	; CGameText::GetDataDescMap
PUBLIC	?MessageToAll@CGameText@@QAEHXZ			; CGameText::MessageToAll
PUBLIC	?MessageGet@CGameText@@QAEPBDXZ			; CGameText::MessageGet
PUBLIC	??0CGameText@@QAE@XZ				; CGameText::CGameText
PUBLIC	??0?$CEntityFactory@VCGameText@@@@QAE@PBD@Z	; CEntityFactory<CGameText>::CEntityFactory<CGameText>
PUBLIC	?Create@?$CEntityFactory@VCGameText@@@@UAEPAVCBaseEntity@@PBDPAUentvars_s@@@Z ; CEntityFactory<CGameText>::Create
PUBLIC	?Destroy@?$CEntityFactory@VCGameText@@@@UAEXPAVCBaseEntity@@@Z ; CEntityFactory<CGameText>::Destroy
PUBLIC	?GetEntitySize@?$CEntityFactory@VCGameText@@@@UAEIXZ ; CEntityFactory<CGameText>::GetEntitySize
PUBLIC	??$DataMapAccess@VCRulePointEntity@@@@YAXPAVCRulePointEntity@@PAPAUdatamap_s@@@Z ; DataMapAccess<CRulePointEntity>
PUBLIC	??$DataMapInit@VCGameText@@@@YAPAUdatamap_s@@PAVCGameText@@@Z ; DataMapInit<CGameText>
PUBLIC	?KeyValue@CGameTeamMaster@@UAEXPAUKeyValueData_s@@@Z ; CGameTeamMaster::KeyValue
PUBLIC	?Use@CGameTeamMaster@@UAEXPAVCBaseEntity@@0W4USE_TYPE@@M@Z ; CGameTeamMaster::Use
PUBLIC	?IsTriggered@CGameTeamMaster@@UAEHPAVCBaseEntity@@@Z ; CGameTeamMaster::IsTriggered
PUBLIC	?TeamID@CGameTeamMaster@@UAEPBDXZ		; CGameTeamMaster::TeamID
PUBLIC	?RemoveOnFire@CGameTeamMaster@@QAEHXZ		; CGameTeamMaster::RemoveOnFire
PUBLIC	?AnyTeam@CGameTeamMaster@@QAEHXZ		; CGameTeamMaster::AnyTeam
PUBLIC	?TeamMatch@CGameTeamMaster@@AAEHPAVCBaseEntity@@@Z ; CGameTeamMaster::TeamMatch
PUBLIC	??0CGameTeamMaster@@QAE@XZ			; CGameTeamMaster::CGameTeamMaster
PUBLIC	??0?$CEntityFactory@VCGameTeamMaster@@@@QAE@PBD@Z ; CEntityFactory<CGameTeamMaster>::CEntityFactory<CGameTeamMaster>
PUBLIC	?Create@?$CEntityFactory@VCGameTeamMaster@@@@UAEPAVCBaseEntity@@PBDPAUentvars_s@@@Z ; CEntityFactory<CGameTeamMaster>::Create
PUBLIC	?Destroy@?$CEntityFactory@VCGameTeamMaster@@@@UAEXPAVCBaseEntity@@@Z ; CEntityFactory<CGameTeamMaster>::Destroy
PUBLIC	?GetEntitySize@?$CEntityFactory@VCGameTeamMaster@@@@UAEIXZ ; CEntityFactory<CGameTeamMaster>::GetEntitySize
PUBLIC	?Use@CGameTeamSet@@UAEXPAVCBaseEntity@@0W4USE_TYPE@@M@Z ; CGameTeamSet::Use
PUBLIC	?RemoveOnFire@CGameTeamSet@@QAEHXZ		; CGameTeamSet::RemoveOnFire
PUBLIC	?ShouldClearTeam@CGameTeamSet@@QAEHXZ		; CGameTeamSet::ShouldClearTeam
PUBLIC	??0CGameTeamSet@@QAE@XZ				; CGameTeamSet::CGameTeamSet
PUBLIC	??0?$CEntityFactory@VCGameTeamSet@@@@QAE@PBD@Z	; CEntityFactory<CGameTeamSet>::CEntityFactory<CGameTeamSet>
PUBLIC	?Create@?$CEntityFactory@VCGameTeamSet@@@@UAEPAVCBaseEntity@@PBDPAUentvars_s@@@Z ; CEntityFactory<CGameTeamSet>::Create
PUBLIC	?Destroy@?$CEntityFactory@VCGameTeamSet@@@@UAEXPAVCBaseEntity@@@Z ; CEntityFactory<CGameTeamSet>::Destroy
PUBLIC	?GetEntitySize@?$CEntityFactory@VCGameTeamSet@@@@UAEIXZ ; CEntityFactory<CGameTeamSet>::GetEntitySize
PUBLIC	?KeyValue@CGamePlayerZone@@UAEXPAUKeyValueData_s@@@Z ; CGamePlayerZone::KeyValue
PUBLIC	?Use@CGamePlayerZone@@UAEXPAVCBaseEntity@@0W4USE_TYPE@@M@Z ; CGamePlayerZone::Use
PUBLIC	?GetBaseMap@CGamePlayerZone@@SAPAUdatamap_s@@XZ	; CGamePlayerZone::GetBaseMap
PUBLIC	?GetDataDescMap@CGamePlayerZone@@UAEPAUdatamap_s@@XZ ; CGamePlayerZone::GetDataDescMap
PUBLIC	??0CGamePlayerZone@@QAE@XZ			; CGamePlayerZone::CGamePlayerZone
PUBLIC	??0?$CEntityFactory@VCGamePlayerZone@@@@QAE@PBD@Z ; CEntityFactory<CGamePlayerZone>::CEntityFactory<CGamePlayerZone>
PUBLIC	?Create@?$CEntityFactory@VCGamePlayerZone@@@@UAEPAVCBaseEntity@@PBDPAUentvars_s@@@Z ; CEntityFactory<CGamePlayerZone>::Create
PUBLIC	?Destroy@?$CEntityFactory@VCGamePlayerZone@@@@UAEXPAVCBaseEntity@@@Z ; CEntityFactory<CGamePlayerZone>::Destroy
PUBLIC	?GetEntitySize@?$CEntityFactory@VCGamePlayerZone@@@@UAEIXZ ; CEntityFactory<CGamePlayerZone>::GetEntitySize
PUBLIC	??$DataMapAccess@VCRuleBrushEntity@@@@YAXPAVCRuleBrushEntity@@PAPAUdatamap_s@@@Z ; DataMapAccess<CRuleBrushEntity>
PUBLIC	??$DataMapInit@VCGamePlayerZone@@@@YAPAUdatamap_s@@PAVCGamePlayerZone@@@Z ; DataMapInit<CGamePlayerZone>
PUBLIC	?Use@CGamePlayerHurt@@UAEXPAVCBaseEntity@@0W4USE_TYPE@@M@Z ; CGamePlayerHurt::Use
PUBLIC	?RemoveOnFire@CGamePlayerHurt@@QAEHXZ		; CGamePlayerHurt::RemoveOnFire
PUBLIC	??0CGamePlayerHurt@@QAE@XZ			; CGamePlayerHurt::CGamePlayerHurt
PUBLIC	??0?$CEntityFactory@VCGamePlayerHurt@@@@QAE@PBD@Z ; CEntityFactory<CGamePlayerHurt>::CEntityFactory<CGamePlayerHurt>
PUBLIC	?Create@?$CEntityFactory@VCGamePlayerHurt@@@@UAEPAVCBaseEntity@@PBDPAUentvars_s@@@Z ; CEntityFactory<CGamePlayerHurt>::Create
PUBLIC	?Destroy@?$CEntityFactory@VCGamePlayerHurt@@@@UAEXPAVCBaseEntity@@@Z ; CEntityFactory<CGamePlayerHurt>::Destroy
PUBLIC	?GetEntitySize@?$CEntityFactory@VCGamePlayerHurt@@@@UAEIXZ ; CEntityFactory<CGamePlayerHurt>::GetEntitySize
PUBLIC	?Spawn@CGameCounter@@UAEXXZ			; CGameCounter::Spawn
PUBLIC	?Use@CGameCounter@@UAEXPAVCBaseEntity@@0W4USE_TYPE@@M@Z ; CGameCounter::Use
PUBLIC	?RemoveOnFire@CGameCounter@@QAEHXZ		; CGameCounter::RemoveOnFire
PUBLIC	?ResetOnFire@CGameCounter@@QAEHXZ		; CGameCounter::ResetOnFire
PUBLIC	?CountUp@CGameCounter@@QAEXXZ			; CGameCounter::CountUp
PUBLIC	?CountDown@CGameCounter@@QAEXXZ			; CGameCounter::CountDown
PUBLIC	?ResetCount@CGameCounter@@QAEXXZ		; CGameCounter::ResetCount
PUBLIC	?CountValue@CGameCounter@@QAEHXZ		; CGameCounter::CountValue
PUBLIC	?LimitValue@CGameCounter@@QAEHXZ		; CGameCounter::LimitValue
PUBLIC	?HitLimit@CGameCounter@@QAEHXZ			; CGameCounter::HitLimit
PUBLIC	?SetCountValue@CGameCounter@@AAEXH@Z		; CGameCounter::SetCountValue
PUBLIC	?SetInitialValue@CGameCounter@@AAEXH@Z		; CGameCounter::SetInitialValue
PUBLIC	??0CGameCounter@@QAE@XZ				; CGameCounter::CGameCounter
PUBLIC	??0?$CEntityFactory@VCGameCounter@@@@QAE@PBD@Z	; CEntityFactory<CGameCounter>::CEntityFactory<CGameCounter>
PUBLIC	?Create@?$CEntityFactory@VCGameCounter@@@@UAEPAVCBaseEntity@@PBDPAUentvars_s@@@Z ; CEntityFactory<CGameCounter>::Create
PUBLIC	?Destroy@?$CEntityFactory@VCGameCounter@@@@UAEXPAVCBaseEntity@@@Z ; CEntityFactory<CGameCounter>::Destroy
PUBLIC	?GetEntitySize@?$CEntityFactory@VCGameCounter@@@@UAEIXZ ; CEntityFactory<CGameCounter>::GetEntitySize
PUBLIC	?Use@CGameCounterSet@@UAEXPAVCBaseEntity@@0W4USE_TYPE@@M@Z ; CGameCounterSet::Use
PUBLIC	?RemoveOnFire@CGameCounterSet@@QAEHXZ		; CGameCounterSet::RemoveOnFire
PUBLIC	??0CGameCounterSet@@QAE@XZ			; CGameCounterSet::CGameCounterSet
PUBLIC	??0?$CEntityFactory@VCGameCounterSet@@@@QAE@PBD@Z ; CEntityFactory<CGameCounterSet>::CEntityFactory<CGameCounterSet>
PUBLIC	?Create@?$CEntityFactory@VCGameCounterSet@@@@UAEPAVCBaseEntity@@PBDPAUentvars_s@@@Z ; CEntityFactory<CGameCounterSet>::Create
PUBLIC	?Destroy@?$CEntityFactory@VCGameCounterSet@@@@UAEXPAVCBaseEntity@@@Z ; CEntityFactory<CGameCounterSet>::Destroy
PUBLIC	?GetEntitySize@?$CEntityFactory@VCGameCounterSet@@@@UAEIXZ ; CEntityFactory<CGameCounterSet>::GetEntitySize
PUBLIC	?KeyValue@CGamePlayerEquip@@UAEXPAUKeyValueData_s@@@Z ; CGamePlayerEquip::KeyValue
PUBLIC	?Touch@CGamePlayerEquip@@UAEXPAVCBaseEntity@@@Z	; CGamePlayerEquip::Touch
PUBLIC	?Use@CGamePlayerEquip@@UAEXPAVCBaseEntity@@0W4USE_TYPE@@M@Z ; CGamePlayerEquip::Use
PUBLIC	?UseOnly@CGamePlayerEquip@@QAEHXZ		; CGamePlayerEquip::UseOnly
PUBLIC	?EquipPlayer@CGamePlayerEquip@@AAEXPAVCBaseEntity@@@Z ; CGamePlayerEquip::EquipPlayer
PUBLIC	??0CGamePlayerEquip@@QAE@XZ			; CGamePlayerEquip::CGamePlayerEquip
PUBLIC	??0?$CEntityFactory@VCGamePlayerEquip@@@@QAE@PBD@Z ; CEntityFactory<CGamePlayerEquip>::CEntityFactory<CGamePlayerEquip>
PUBLIC	?Create@?$CEntityFactory@VCGamePlayerEquip@@@@UAEPAVCBaseEntity@@PBDPAUentvars_s@@@Z ; CEntityFactory<CGamePlayerEquip>::Create
PUBLIC	?Destroy@?$CEntityFactory@VCGamePlayerEquip@@@@UAEXPAVCBaseEntity@@@Z ; CEntityFactory<CGamePlayerEquip>::Destroy
PUBLIC	?GetEntitySize@?$CEntityFactory@VCGamePlayerEquip@@@@UAEIXZ ; CEntityFactory<CGamePlayerEquip>::GetEntitySize
PUBLIC	?Use@CGamePlayerTeam@@UAEXPAVCBaseEntity@@0W4USE_TYPE@@M@Z ; CGamePlayerTeam::Use
PUBLIC	?RemoveOnFire@CGamePlayerTeam@@AAEHXZ		; CGamePlayerTeam::RemoveOnFire
PUBLIC	?ShouldKillPlayer@CGamePlayerTeam@@AAEHXZ	; CGamePlayerTeam::ShouldKillPlayer
PUBLIC	?ShouldGibPlayer@CGamePlayerTeam@@AAEHXZ	; CGamePlayerTeam::ShouldGibPlayer
PUBLIC	?TargetTeamName@CGamePlayerTeam@@AAEPBDPBD@Z	; CGamePlayerTeam::TargetTeamName
PUBLIC	??0CGamePlayerTeam@@QAE@XZ			; CGamePlayerTeam::CGamePlayerTeam
PUBLIC	??0?$CEntityFactory@VCGamePlayerTeam@@@@QAE@PBD@Z ; CEntityFactory<CGamePlayerTeam>::CEntityFactory<CGamePlayerTeam>
PUBLIC	?Create@?$CEntityFactory@VCGamePlayerTeam@@@@UAEPAVCBaseEntity@@PBDPAUentvars_s@@@Z ; CEntityFactory<CGamePlayerTeam>::Create
PUBLIC	?Destroy@?$CEntityFactory@VCGamePlayerTeam@@@@UAEXPAVCBaseEntity@@@Z ; CEntityFactory<CGamePlayerTeam>::Destroy
PUBLIC	?GetEntitySize@?$CEntityFactory@VCGamePlayerTeam@@@@UAEIXZ ; CEntityFactory<CGamePlayerTeam>::GetEntitySize
PUBLIC	??$GetClassPtr@VCGamePlayerTeam@@@@YAPAVCGamePlayerTeam@@PAV0@PBD@Z ; GetClassPtr<CGamePlayerTeam>
PUBLIC	??$GetClassPtr@VCGamePlayerEquip@@@@YAPAVCGamePlayerEquip@@PAV0@PBD@Z ; GetClassPtr<CGamePlayerEquip>
PUBLIC	??$GetClassPtr@VCGameCounterSet@@@@YAPAVCGameCounterSet@@PAV0@PBD@Z ; GetClassPtr<CGameCounterSet>
PUBLIC	??$GetClassPtr@VCGameCounter@@@@YAPAVCGameCounter@@PAV0@PBD@Z ; GetClassPtr<CGameCounter>
PUBLIC	??$GetClassPtr@VCGamePlayerHurt@@@@YAPAVCGamePlayerHurt@@PAV0@PBD@Z ; GetClassPtr<CGamePlayerHurt>
PUBLIC	??$GetClassPtr@VCGamePlayerZone@@@@YAPAVCGamePlayerZone@@PAV0@PBD@Z ; GetClassPtr<CGamePlayerZone>
PUBLIC	??$GetClassPtr@VCGameTeamSet@@@@YAPAVCGameTeamSet@@PAV0@PBD@Z ; GetClassPtr<CGameTeamSet>
PUBLIC	??$GetClassPtr@VCGameTeamMaster@@@@YAPAVCGameTeamMaster@@PAV0@PBD@Z ; GetClassPtr<CGameTeamMaster>
PUBLIC	??$GetClassPtr@VCGameText@@@@YAPAVCGameText@@PAV0@PBD@Z ; GetClassPtr<CGameText>
PUBLIC	??$GetClassPtr@VCGameEnd@@@@YAPAVCGameEnd@@PAV0@PBD@Z ; GetClassPtr<CGameEnd>
PUBLIC	??$GetClassPtr@VCGameScore@@@@YAPAVCGameScore@@PAV0@PBD@Z ; GetClassPtr<CGameScore>
PUBLIC	??$Destruct@PAD@@YAXPAPAD@Z			; Destruct<char *>
PUBLIC	??_7IEntityFactory@@6B@				; IEntityFactory::`vftable'
PUBLIC	??_C@_0BF@CPEPILID@Bad?5ent?5in?5OFFSET?$CI?$CJ?6@ ; `string'
PUBLIC	??_C@_0BF@DOONGEFO@Bad?5pev?5in?5OFFSET?$CI?$CJ?6@ ; `string'
PUBLIC	??_C@_00CNPNBAHC@@				; `string'
PUBLIC	??_7CBaseEntity@@6B@				; CBaseEntity::`vftable'
PUBLIC	??_C@_06MLKDMCBD@parent@			; `string'
PUBLIC	??_C@_08JJJAOBDI@movewith@			; `string'
PUBLIC	??_C@_0M@EAELDHJO@parentflags@			; `string'
PUBLIC	??_C@_05IAKJCFIM@style@				; `string'
PUBLIC	??_C@_0L@IKCANML@reflection@			; `string'
PUBLIC	??_C@_0N@JILDNHAP@vlight_cache@			; `string'
PUBLIC	??_7CRuleEntity@@6B@				; CRuleEntity::`vftable'
PUBLIC	?g_DataMapHolder@CRuleEntity_DataDescInit@@3PAUdatamap_s@@A ; CRuleEntity_DataDescInit::g_DataMapHolder
PUBLIC	??_7CRulePointEntity@@6B@			; CRulePointEntity::`vftable'
PUBLIC	??_7CRuleBrushEntity@@6B@			; CRuleBrushEntity::`vftable'
PUBLIC	??_7CGameScore@@6B@				; CGameScore::`vftable'
PUBLIC	??_7?$CEntityFactory@VCGameScore@@@@6B@		; CEntityFactory<CGameScore>::`vftable'
PUBLIC	??_7CGameEnd@@6B@				; CGameEnd::`vftable'
PUBLIC	??_7?$CEntityFactory@VCGameEnd@@@@6B@		; CEntityFactory<CGameEnd>::`vftable'
PUBLIC	??_7CGameText@@6B@				; CGameText::`vftable'
PUBLIC	??_7?$CEntityFactory@VCGameText@@@@6B@		; CEntityFactory<CGameText>::`vftable'
PUBLIC	?g_DataMapHolder@CGameText_DataDescInit@@3PAUdatamap_s@@A ; CGameText_DataDescInit::g_DataMapHolder
PUBLIC	??_7CGameTeamMaster@@6B@			; CGameTeamMaster::`vftable'
PUBLIC	??_7?$CEntityFactory@VCGameTeamMaster@@@@6B@	; CEntityFactory<CGameTeamMaster>::`vftable'
PUBLIC	??_7CGameTeamSet@@6B@				; CGameTeamSet::`vftable'
PUBLIC	??_7?$CEntityFactory@VCGameTeamSet@@@@6B@	; CEntityFactory<CGameTeamSet>::`vftable'
PUBLIC	??_7CGamePlayerZone@@6B@			; CGamePlayerZone::`vftable'
PUBLIC	??_7?$CEntityFactory@VCGamePlayerZone@@@@6B@	; CEntityFactory<CGamePlayerZone>::`vftable'
PUBLIC	?g_DataMapHolder@CGamePlayerZone_DataDescInit@@3PAUdatamap_s@@A ; CGamePlayerZone_DataDescInit::g_DataMapHolder
PUBLIC	??_7CGamePlayerHurt@@6B@			; CGamePlayerHurt::`vftable'
PUBLIC	??_7?$CEntityFactory@VCGamePlayerHurt@@@@6B@	; CEntityFactory<CGamePlayerHurt>::`vftable'
PUBLIC	??_7CGameCounter@@6B@				; CGameCounter::`vftable'
PUBLIC	??_7?$CEntityFactory@VCGameCounter@@@@6B@	; CEntityFactory<CGameCounter>::`vftable'
PUBLIC	??_7CGameCounterSet@@6B@			; CGameCounterSet::`vftable'
PUBLIC	??_7?$CEntityFactory@VCGameCounterSet@@@@6B@	; CEntityFactory<CGameCounterSet>::`vftable'
PUBLIC	??_7CGamePlayerEquip@@6B@			; CGamePlayerEquip::`vftable'
PUBLIC	??_7?$CEntityFactory@VCGamePlayerEquip@@@@6B@	; CEntityFactory<CGamePlayerEquip>::`vftable'
PUBLIC	??_7CGamePlayerTeam@@6B@			; CGamePlayerTeam::`vftable'
PUBLIC	??_7?$CEntityFactory@VCGamePlayerTeam@@@@6B@	; CEntityFactory<CGamePlayerTeam>::`vftable'
PUBLIC	??_C@_1MO@LCPOAHHB@?$AAc?$AA?3?$AA?2?$AAu?$AAs?$AAe?$AAr?$AAs?$AA?2?$AAu?$AAs?$AAe?$AAr?$AA?2?$AAd@ ; `string'
PUBLIC	??_C@_1BM@PFNFCCHH@?$AA?$CB?$AAI?$AAs?$AAR?$AAe?$AAa?$AAd?$AAO?$AAn?$AAl?$AAy?$AA?$CI?$AA?$CJ@ ; `string'
PUBLIC	??_C@_1BM@CKILBAKK@?$AAI?$AAs?$AAI?$AAd?$AAx?$AAV?$AAa?$AAl?$AAi?$AAd?$AA?$CI?$AAi?$AA?$CJ@ ; `string'
PUBLIC	??_R4CBaseEntity@@6B@				; CBaseEntity::`RTTI Complete Object Locator'
PUBLIC	??_R0?AVCBaseEntity@@@8				; CBaseEntity `RTTI Type Descriptor'
PUBLIC	??_R3CBaseEntity@@8				; CBaseEntity::`RTTI Class Hierarchy Descriptor'
PUBLIC	??_R2CBaseEntity@@8				; CBaseEntity::`RTTI Base Class Array'
PUBLIC	??_R1A@?0A@EA@CBaseEntity@@8			; CBaseEntity::`RTTI Base Class Descriptor at (0,-1,0,64)'
PUBLIC	??_R4IEntityFactory@@6B@			; IEntityFactory::`RTTI Complete Object Locator'
PUBLIC	??_R0?AVIEntityFactory@@@8			; IEntityFactory `RTTI Type Descriptor'
PUBLIC	??_R3IEntityFactory@@8				; IEntityFactory::`RTTI Class Hierarchy Descriptor'
PUBLIC	??_R2IEntityFactory@@8				; IEntityFactory::`RTTI Base Class Array'
PUBLIC	??_R1A@?0A@EA@IEntityFactory@@8			; IEntityFactory::`RTTI Base Class Descriptor at (0,-1,0,64)'
PUBLIC	??_R4CRuleEntity@@6B@				; CRuleEntity::`RTTI Complete Object Locator'
PUBLIC	??_R0?AVCRuleEntity@@@8				; CRuleEntity `RTTI Type Descriptor'
PUBLIC	??_R3CRuleEntity@@8				; CRuleEntity::`RTTI Class Hierarchy Descriptor'
PUBLIC	??_R2CRuleEntity@@8				; CRuleEntity::`RTTI Base Class Array'
PUBLIC	??_R1A@?0A@EA@CRuleEntity@@8			; CRuleEntity::`RTTI Base Class Descriptor at (0,-1,0,64)'
PUBLIC	??_R4CRulePointEntity@@6B@			; CRulePointEntity::`RTTI Complete Object Locator'
PUBLIC	??_R0?AVCRulePointEntity@@@8			; CRulePointEntity `RTTI Type Descriptor'
PUBLIC	??_R3CRulePointEntity@@8			; CRulePointEntity::`RTTI Class Hierarchy Descriptor'
PUBLIC	??_R2CRulePointEntity@@8			; CRulePointEntity::`RTTI Base Class Array'
PUBLIC	??_R1A@?0A@EA@CRulePointEntity@@8		; CRulePointEntity::`RTTI Base Class Descriptor at (0,-1,0,64)'
PUBLIC	??_R4CRuleBrushEntity@@6B@			; CRuleBrushEntity::`RTTI Complete Object Locator'
PUBLIC	??_R0?AVCRuleBrushEntity@@@8			; CRuleBrushEntity `RTTI Type Descriptor'
PUBLIC	??_R3CRuleBrushEntity@@8			; CRuleBrushEntity::`RTTI Class Hierarchy Descriptor'
PUBLIC	??_R2CRuleBrushEntity@@8			; CRuleBrushEntity::`RTTI Base Class Array'
PUBLIC	??_R1A@?0A@EA@CRuleBrushEntity@@8		; CRuleBrushEntity::`RTTI Base Class Descriptor at (0,-1,0,64)'
PUBLIC	??_R4CGameScore@@6B@				; CGameScore::`RTTI Complete Object Locator'
PUBLIC	??_R0?AVCGameScore@@@8				; CGameScore `RTTI Type Descriptor'
PUBLIC	??_R3CGameScore@@8				; CGameScore::`RTTI Class Hierarchy Descriptor'
PUBLIC	??_R2CGameScore@@8				; CGameScore::`RTTI Base Class Array'
PUBLIC	??_R1A@?0A@EA@CGameScore@@8			; CGameScore::`RTTI Base Class Descriptor at (0,-1,0,64)'
PUBLIC	??_R4?$CEntityFactory@VCGameScore@@@@6B@	; CEntityFactory<CGameScore>::`RTTI Complete Object Locator'
PUBLIC	??_R0?AV?$CEntityFactory@VCGameScore@@@@@8	; CEntityFactory<CGameScore> `RTTI Type Descriptor'
PUBLIC	??_R3?$CEntityFactory@VCGameScore@@@@8		; CEntityFactory<CGameScore>::`RTTI Class Hierarchy Descriptor'
PUBLIC	??_R2?$CEntityFactory@VCGameScore@@@@8		; CEntityFactory<CGameScore>::`RTTI Base Class Array'
PUBLIC	??_R1A@?0A@EA@?$CEntityFactory@VCGameScore@@@@8	; CEntityFactory<CGameScore>::`RTTI Base Class Descriptor at (0,-1,0,64)'
PUBLIC	??_R4CGameEnd@@6B@				; CGameEnd::`RTTI Complete Object Locator'
PUBLIC	??_R0?AVCGameEnd@@@8				; CGameEnd `RTTI Type Descriptor'
PUBLIC	??_R3CGameEnd@@8				; CGameEnd::`RTTI Class Hierarchy Descriptor'
PUBLIC	??_R2CGameEnd@@8				; CGameEnd::`RTTI Base Class Array'
PUBLIC	??_R1A@?0A@EA@CGameEnd@@8			; CGameEnd::`RTTI Base Class Descriptor at (0,-1,0,64)'
PUBLIC	??_R4?$CEntityFactory@VCGameEnd@@@@6B@		; CEntityFactory<CGameEnd>::`RTTI Complete Object Locator'
PUBLIC	??_R0?AV?$CEntityFactory@VCGameEnd@@@@@8	; CEntityFactory<CGameEnd> `RTTI Type Descriptor'
PUBLIC	??_R3?$CEntityFactory@VCGameEnd@@@@8		; CEntityFactory<CGameEnd>::`RTTI Class Hierarchy Descriptor'
PUBLIC	??_R2?$CEntityFactory@VCGameEnd@@@@8		; CEntityFactory<CGameEnd>::`RTTI Base Class Array'
PUBLIC	??_R1A@?0A@EA@?$CEntityFactory@VCGameEnd@@@@8	; CEntityFactory<CGameEnd>::`RTTI Base Class Descriptor at (0,-1,0,64)'
PUBLIC	??_R4CGameText@@6B@				; CGameText::`RTTI Complete Object Locator'
PUBLIC	??_R0?AVCGameText@@@8				; CGameText `RTTI Type Descriptor'
PUBLIC	??_R3CGameText@@8				; CGameText::`RTTI Class Hierarchy Descriptor'
PUBLIC	??_R2CGameText@@8				; CGameText::`RTTI Base Class Array'
PUBLIC	??_R1A@?0A@EA@CGameText@@8			; CGameText::`RTTI Base Class Descriptor at (0,-1,0,64)'
PUBLIC	??_R4?$CEntityFactory@VCGameText@@@@6B@		; CEntityFactory<CGameText>::`RTTI Complete Object Locator'
PUBLIC	??_R0?AV?$CEntityFactory@VCGameText@@@@@8	; CEntityFactory<CGameText> `RTTI Type Descriptor'
PUBLIC	??_R3?$CEntityFactory@VCGameText@@@@8		; CEntityFactory<CGameText>::`RTTI Class Hierarchy Descriptor'
PUBLIC	??_R2?$CEntityFactory@VCGameText@@@@8		; CEntityFactory<CGameText>::`RTTI Base Class Array'
PUBLIC	??_R1A@?0A@EA@?$CEntityFactory@VCGameText@@@@8	; CEntityFactory<CGameText>::`RTTI Base Class Descriptor at (0,-1,0,64)'
PUBLIC	??_R4CGameTeamMaster@@6B@			; CGameTeamMaster::`RTTI Complete Object Locator'
PUBLIC	??_R0?AVCGameTeamMaster@@@8			; CGameTeamMaster `RTTI Type Descriptor'
PUBLIC	??_R3CGameTeamMaster@@8				; CGameTeamMaster::`RTTI Class Hierarchy Descriptor'
PUBLIC	??_R2CGameTeamMaster@@8				; CGameTeamMaster::`RTTI Base Class Array'
PUBLIC	??_R1A@?0A@EA@CGameTeamMaster@@8		; CGameTeamMaster::`RTTI Base Class Descriptor at (0,-1,0,64)'
PUBLIC	??_R4?$CEntityFactory@VCGameTeamMaster@@@@6B@	; CEntityFactory<CGameTeamMaster>::`RTTI Complete Object Locator'
PUBLIC	??_R0?AV?$CEntityFactory@VCGameTeamMaster@@@@@8	; CEntityFactory<CGameTeamMaster> `RTTI Type Descriptor'
PUBLIC	??_R3?$CEntityFactory@VCGameTeamMaster@@@@8	; CEntityFactory<CGameTeamMaster>::`RTTI Class Hierarchy Descriptor'
PUBLIC	??_R2?$CEntityFactory@VCGameTeamMaster@@@@8	; CEntityFactory<CGameTeamMaster>::`RTTI Base Class Array'
PUBLIC	??_R1A@?0A@EA@?$CEntityFactory@VCGameTeamMaster@@@@8 ; CEntityFactory<CGameTeamMaster>::`RTTI Base Class Descriptor at (0,-1,0,64)'
PUBLIC	??_R4CGameTeamSet@@6B@				; CGameTeamSet::`RTTI Complete Object Locator'
PUBLIC	??_R0?AVCGameTeamSet@@@8			; CGameTeamSet `RTTI Type Descriptor'
PUBLIC	??_R3CGameTeamSet@@8				; CGameTeamSet::`RTTI Class Hierarchy Descriptor'
PUBLIC	??_R2CGameTeamSet@@8				; CGameTeamSet::`RTTI Base Class Array'
PUBLIC	??_R1A@?0A@EA@CGameTeamSet@@8			; CGameTeamSet::`RTTI Base Class Descriptor at (0,-1,0,64)'
PUBLIC	??_R4?$CEntityFactory@VCGameTeamSet@@@@6B@	; CEntityFactory<CGameTeamSet>::`RTTI Complete Object Locator'
PUBLIC	??_R0?AV?$CEntityFactory@VCGameTeamSet@@@@@8	; CEntityFactory<CGameTeamSet> `RTTI Type Descriptor'
PUBLIC	??_R3?$CEntityFactory@VCGameTeamSet@@@@8	; CEntityFactory<CGameTeamSet>::`RTTI Class Hierarchy Descriptor'
PUBLIC	??_R2?$CEntityFactory@VCGameTeamSet@@@@8	; CEntityFactory<CGameTeamSet>::`RTTI Base Class Array'
PUBLIC	??_R1A@?0A@EA@?$CEntityFactory@VCGameTeamSet@@@@8 ; CEntityFactory<CGameTeamSet>::`RTTI Base Class Descriptor at (0,-1,0,64)'
PUBLIC	??_R4CGamePlayerZone@@6B@			; CGamePlayerZone::`RTTI Complete Object Locator'
PUBLIC	??_R0?AVCGamePlayerZone@@@8			; CGamePlayerZone `RTTI Type Descriptor'
PUBLIC	??_R3CGamePlayerZone@@8				; CGamePlayerZone::`RTTI Class Hierarchy Descriptor'
PUBLIC	??_R2CGamePlayerZone@@8				; CGamePlayerZone::`RTTI Base Class Array'
PUBLIC	??_R1A@?0A@EA@CGamePlayerZone@@8		; CGamePlayerZone::`RTTI Base Class Descriptor at (0,-1,0,64)'
PUBLIC	??_R4?$CEntityFactory@VCGamePlayerZone@@@@6B@	; CEntityFactory<CGamePlayerZone>::`RTTI Complete Object Locator'
PUBLIC	??_R0?AV?$CEntityFactory@VCGamePlayerZone@@@@@8	; CEntityFactory<CGamePlayerZone> `RTTI Type Descriptor'
PUBLIC	??_R3?$CEntityFactory@VCGamePlayerZone@@@@8	; CEntityFactory<CGamePlayerZone>::`RTTI Class Hierarchy Descriptor'
PUBLIC	??_R2?$CEntityFactory@VCGamePlayerZone@@@@8	; CEntityFactory<CGamePlayerZone>::`RTTI Base Class Array'
PUBLIC	??_R1A@?0A@EA@?$CEntityFactory@VCGamePlayerZone@@@@8 ; CEntityFactory<CGamePlayerZone>::`RTTI Base Class Descriptor at (0,-1,0,64)'
PUBLIC	??_R4CGamePlayerHurt@@6B@			; CGamePlayerHurt::`RTTI Complete Object Locator'
PUBLIC	??_R0?AVCGamePlayerHurt@@@8			; CGamePlayerHurt `RTTI Type Descriptor'
PUBLIC	??_R3CGamePlayerHurt@@8				; CGamePlayerHurt::`RTTI Class Hierarchy Descriptor'
PUBLIC	??_R2CGamePlayerHurt@@8				; CGamePlayerHurt::`RTTI Base Class Array'
PUBLIC	??_R1A@?0A@EA@CGamePlayerHurt@@8		; CGamePlayerHurt::`RTTI Base Class Descriptor at (0,-1,0,64)'
PUBLIC	??_R4?$CEntityFactory@VCGamePlayerHurt@@@@6B@	; CEntityFactory<CGamePlayerHurt>::`RTTI Complete Object Locator'
PUBLIC	??_R0?AV?$CEntityFactory@VCGamePlayerHurt@@@@@8	; CEntityFactory<CGamePlayerHurt> `RTTI Type Descriptor'
PUBLIC	??_R3?$CEntityFactory@VCGamePlayerHurt@@@@8	; CEntityFactory<CGamePlayerHurt>::`RTTI Class Hierarchy Descriptor'
PUBLIC	??_R2?$CEntityFactory@VCGamePlayerHurt@@@@8	; CEntityFactory<CGamePlayerHurt>::`RTTI Base Class Array'
PUBLIC	??_R1A@?0A@EA@?$CEntityFactory@VCGamePlayerHurt@@@@8 ; CEntityFactory<CGamePlayerHurt>::`RTTI Base Class Descriptor at (0,-1,0,64)'
PUBLIC	??_R4CGameCounter@@6B@				; CGameCounter::`RTTI Complete Object Locator'
PUBLIC	??_R0?AVCGameCounter@@@8			; CGameCounter `RTTI Type Descriptor'
PUBLIC	??_R3CGameCounter@@8				; CGameCounter::`RTTI Class Hierarchy Descriptor'
PUBLIC	??_R2CGameCounter@@8				; CGameCounter::`RTTI Base Class Array'
PUBLIC	??_R1A@?0A@EA@CGameCounter@@8			; CGameCounter::`RTTI Base Class Descriptor at (0,-1,0,64)'
PUBLIC	??_R4?$CEntityFactory@VCGameCounter@@@@6B@	; CEntityFactory<CGameCounter>::`RTTI Complete Object Locator'
PUBLIC	??_R0?AV?$CEntityFactory@VCGameCounter@@@@@8	; CEntityFactory<CGameCounter> `RTTI Type Descriptor'
PUBLIC	??_R3?$CEntityFactory@VCGameCounter@@@@8	; CEntityFactory<CGameCounter>::`RTTI Class Hierarchy Descriptor'
PUBLIC	??_R2?$CEntityFactory@VCGameCounter@@@@8	; CEntityFactory<CGameCounter>::`RTTI Base Class Array'
PUBLIC	??_R1A@?0A@EA@?$CEntityFactory@VCGameCounter@@@@8 ; CEntityFactory<CGameCounter>::`RTTI Base Class Descriptor at (0,-1,0,64)'
PUBLIC	??_R4CGameCounterSet@@6B@			; CGameCounterSet::`RTTI Complete Object Locator'
PUBLIC	??_R0?AVCGameCounterSet@@@8			; CGameCounterSet `RTTI Type Descriptor'
PUBLIC	??_R3CGameCounterSet@@8				; CGameCounterSet::`RTTI Class Hierarchy Descriptor'
PUBLIC	??_R2CGameCounterSet@@8				; CGameCounterSet::`RTTI Base Class Array'
PUBLIC	??_R1A@?0A@EA@CGameCounterSet@@8		; CGameCounterSet::`RTTI Base Class Descriptor at (0,-1,0,64)'
PUBLIC	??_R4?$CEntityFactory@VCGameCounterSet@@@@6B@	; CEntityFactory<CGameCounterSet>::`RTTI Complete Object Locator'
PUBLIC	??_R0?AV?$CEntityFactory@VCGameCounterSet@@@@@8	; CEntityFactory<CGameCounterSet> `RTTI Type Descriptor'
PUBLIC	??_R3?$CEntityFactory@VCGameCounterSet@@@@8	; CEntityFactory<CGameCounterSet>::`RTTI Class Hierarchy Descriptor'
PUBLIC	??_R2?$CEntityFactory@VCGameCounterSet@@@@8	; CEntityFactory<CGameCounterSet>::`RTTI Base Class Array'
PUBLIC	??_R1A@?0A@EA@?$CEntityFactory@VCGameCounterSet@@@@8 ; CEntityFactory<CGameCounterSet>::`RTTI Base Class Descriptor at (0,-1,0,64)'
PUBLIC	??_R4CGamePlayerEquip@@6B@			; CGamePlayerEquip::`RTTI Complete Object Locator'
PUBLIC	??_R0?AVCGamePlayerEquip@@@8			; CGamePlayerEquip `RTTI Type Descriptor'
PUBLIC	??_R3CGamePlayerEquip@@8			; CGamePlayerEquip::`RTTI Class Hierarchy Descriptor'
PUBLIC	??_R2CGamePlayerEquip@@8			; CGamePlayerEquip::`RTTI Base Class Array'
PUBLIC	??_R1A@?0A@EA@CGamePlayerEquip@@8		; CGamePlayerEquip::`RTTI Base Class Descriptor at (0,-1,0,64)'
PUBLIC	??_R4?$CEntityFactory@VCGamePlayerEquip@@@@6B@	; CEntityFactory<CGamePlayerEquip>::`RTTI Complete Object Locator'
PUBLIC	??_R0?AV?$CEntityFactory@VCGamePlayerEquip@@@@@8 ; CEntityFactory<CGamePlayerEquip> `RTTI Type Descriptor'
PUBLIC	??_R3?$CEntityFactory@VCGamePlayerEquip@@@@8	; CEntityFactory<CGamePlayerEquip>::`RTTI Class Hierarchy Descriptor'
PUBLIC	??_R2?$CEntityFactory@VCGamePlayerEquip@@@@8	; CEntityFactory<CGamePlayerEquip>::`RTTI Base Class Array'
PUBLIC	??_R1A@?0A@EA@?$CEntityFactory@VCGamePlayerEquip@@@@8 ; CEntityFactory<CGamePlayerEquip>::`RTTI Base Class Descriptor at (0,-1,0,64)'
PUBLIC	??_R4CGamePlayerTeam@@6B@			; CGamePlayerTeam::`RTTI Complete Object Locator'
PUBLIC	??_R0?AVCGamePlayerTeam@@@8			; CGamePlayerTeam `RTTI Type Descriptor'
PUBLIC	??_R3CGamePlayerTeam@@8				; CGamePlayerTeam::`RTTI Class Hierarchy Descriptor'
PUBLIC	??_R2CGamePlayerTeam@@8				; CGamePlayerTeam::`RTTI Base Class Array'
PUBLIC	??_R1A@?0A@EA@CGamePlayerTeam@@8		; CGamePlayerTeam::`RTTI Base Class Descriptor at (0,-1,0,64)'
PUBLIC	??_R4?$CEntityFactory@VCGamePlayerTeam@@@@6B@	; CEntityFactory<CGamePlayerTeam>::`RTTI Complete Object Locator'
PUBLIC	??_R0?AV?$CEntityFactory@VCGamePlayerTeam@@@@@8	; CEntityFactory<CGamePlayerTeam> `RTTI Type Descriptor'
PUBLIC	??_R3?$CEntityFactory@VCGamePlayerTeam@@@@8	; CEntityFactory<CGamePlayerTeam>::`RTTI Class Hierarchy Descriptor'
PUBLIC	??_R2?$CEntityFactory@VCGamePlayerTeam@@@@8	; CEntityFactory<CGamePlayerTeam>::`RTTI Base Class Array'
PUBLIC	??_R1A@?0A@EA@?$CEntityFactory@VCGamePlayerTeam@@@@8 ; CEntityFactory<CGamePlayerTeam>::`RTTI Base Class Descriptor at (0,-1,0,64)'
PUBLIC	__real@00000000
PUBLIC	__real@3f000000
PUBLIC	__real@3f800000
PUBLIC	__real@bf800000
PUBLIC	__xmm@80000000800000008000000080000000
EXTRN	__purecall:PROC
EXTRN	??3@YAXPAXI@Z:PROC				; operator delete
EXTRN	_atexit:PROC
EXTRN	__Init_thread_header:PROC
EXTRN	__Init_thread_abort:PROC
EXTRN	__Init_thread_footer:PROC
EXTRN	_memset:PROC
EXTRN	_strlen:PROC
EXTRN	_free:PROC
EXTRN	_malloc:PROC
EXTRN	_atof:PROC
EXTRN	_atoi:PROC
EXTRN	??0matrix4x4@@QAE@XZ:PROC			; matrix4x4::matrix4x4
EXTRN	?Q_atoi@@YAHPBD@Z:PROC				; Q_atoi
EXTRN	?Q_strncmp@@YAHPBD0H@Z:PROC			; Q_strncmp
EXTRN	__wassert:PROC
EXTRN	?UTIL_Remove@@YAXPAVCBaseEntity@@@Z:PROC	; UTIL_Remove
EXTRN	?EntityFactoryDictionary@@YAPAVIEntityFactoryDictionary@@XZ:PROC ; EntityFactoryDictionary
EXTRN	?DBG_EntOfVars@@YAPAUedict_s@@PBUentvars_s@@@Z:PROC ; DBG_EntOfVars
EXTRN	?UTIL_FindEntityByTargetname@@YAPAVCBaseEntity@@PAV1@PBD@Z:PROC ; UTIL_FindEntityByTargetname
EXTRN	?UTIL_PlayerByIndex@@YAPAVCBaseEntity@@H@Z:PROC	; UTIL_PlayerByIndex
EXTRN	?UTIL_FireTargets@@YAXPBDPAVCBaseEntity@@1W4USE_TYPE@@M@Z:PROC ; UTIL_FireTargets
EXTRN	?UTIL_TraceModel@@YAXABVVector@@0HPAUedict_s@@PAUgametrace_s@@@Z:PROC ; UTIL_TraceModel
EXTRN	?UTIL_IsMasterTriggered@@YAHHPAVCBaseEntity@@@Z:PROC ; UTIL_IsMasterTriggered
EXTRN	?UTIL_StringToIntArray@@YAXPAHHPBD@Z:PROC	; UTIL_StringToIntArray
EXTRN	?UTIL_TeamsMatch@@YAHPBD0@Z:PROC		; UTIL_TeamsMatch
EXTRN	?UTIL_HudMessageAll@@YAXABUhudtextparms_s@@PBD@Z:PROC ; UTIL_HudMessageAll
EXTRN	?UTIL_HudMessage@@YAXPAVCBaseEntity@@ABUhudtextparms_s@@PBD@Z:PROC ; UTIL_HudMessage
EXTRN	?UTIL_StripToken@@YAXPBDPAD@Z:PROC		; UTIL_StripToken
EXTRN	?UTIL_GetModelType@@YA?AW4modtype_t@@H@Z:PROC	; UTIL_GetModelType
EXTRN	??0CMeshDesc@@QAE@XZ:PROC			; CMeshDesc::CMeshDesc
EXTRN	?GetDataDescMap@CBaseEntity@@UAEPAUdatamap_s@@XZ:PROC ; CBaseEntity::GetDataDescMap
EXTRN	?GetAbsOrigin@CBaseEntity@@QBEABVVector@@XZ:PROC ; CBaseEntity::GetAbsOrigin
EXTRN	?GetAbsVelocity@CBaseEntity@@QBEABVVector@@XZ:PROC ; CBaseEntity::GetAbsVelocity
EXTRN	?Save@CBaseEntity@@UAEHAAVCSave@@@Z:PROC	; CBaseEntity::Save
EXTRN	?Restore@CBaseEntity@@UAEHAAVCRestore@@@Z:PROC	; CBaseEntity::Restore
EXTRN	?SetObjectCollisionBox@CBaseEntity@@UAEXXZ:PROC	; CBaseEntity::SetObjectCollisionBox
EXTRN	?SetNextThink@CBaseEntity@@UAEXM@Z:PROC		; CBaseEntity::SetNextThink
EXTRN	?TraceAttack@CBaseEntity@@UAEXPAUentvars_s@@MVVector@@PAUgametrace_s@@H@Z:PROC ; CBaseEntity::TraceAttack
EXTRN	?TakeDamage@CBaseEntity@@UAEHPAUentvars_s@@0MH@Z:PROC ; CBaseEntity::TakeDamage
EXTRN	?TakeHealth@CBaseEntity@@UAEHMH@Z:PROC		; CBaseEntity::TakeHealth
EXTRN	?TakeArmor@CBaseEntity@@UAEHMH@Z:PROC		; CBaseEntity::TakeArmor
EXTRN	?Killed@CBaseEntity@@UAEXPAUentvars_s@@H@Z:PROC	; CBaseEntity::Killed
EXTRN	?TraceBleed@CBaseEntity@@UAEXMVVector@@PAUgametrace_s@@H@Z:PROC ; CBaseEntity::TraceBleed
EXTRN	?DamageDecal@CBaseEntity@@UAEHH@Z:PROC		; CBaseEntity::DamageDecal
EXTRN	?IsInWorld@CBaseEntity@@UAEHH@Z:PROC		; CBaseEntity::IsInWorld
EXTRN	?GetNextTarget@CBaseEntity@@UAEPAV1@XZ:PROC	; CBaseEntity::GetNextTarget
EXTRN	?SUB_UseTargets@CBaseEntity@@QAEXPAV1@W4USE_TYPE@@MH@Z:PROC ; CBaseEntity::SUB_UseTargets
EXTRN	?FVisible@CBaseEntity@@UAEHPAV1@@Z:PROC		; CBaseEntity::FVisible
EXTRN	?FVisible@CBaseEntity@@UAEHABVVector@@@Z:PROC	; CBaseEntity::FVisible
EXTRN	?ShouldCollide@CBaseEntity@@UAEHPAV1@@Z:PROC	; CBaseEntity::ShouldCollide
EXTRN	?GiveNamedItem@CBasePlayer@@QAEXPBD@Z:PROC	; CBasePlayer::GiveNamedItem
EXTRN	@__security_check_cookie@4:PROC
EXTRN	___CxxFrameHandler3:PROC
EXTRN	__Init_thread_epoch:DWORD
EXTRN	?g_vecZero@@3VVector@@B:BYTE			; g_vecZero
EXTRN	?g_engfuncs@@3Uenginefuncs_s@@A:BYTE		; g_engfuncs
EXTRN	?gpGlobals@@3PAUglobalvars_t@@A:DWORD		; gpGlobals
EXTRN	?g_pGameRules@@3PAVCGameRules@@A:DWORD		; g_pGameRules
EXTRN	?m_DataMap@CBaseEntity@@2Udatamap_s@@A:BYTE	; CBaseEntity::m_DataMap
EXTRN	??_7type_info@@6B@:QWORD			; type_info::`vftable'
EXTRN	___security_cookie:DWORD
EXTRN	__fltused:DWORD
EXTRN	__tls_array:DWORD
EXTRN	__tls_index:DWORD
_BSS	SEGMENT
?g_DataMapHolder@CRuleEntity_DataDescInit@@3PAUdatamap_s@@A DD 01H DUP (?) ; CRuleEntity_DataDescInit::g_DataMapHolder
_BSS	ENDS
;	COMDAT ?nameHolder@?1???$DataMapInit@VCRuleEntity@@@@YAPAUdatamap_s@@PAVCRuleEntity@@@Z@4VCDatadescGeneratedNameHolder@@A
_BSS	SEGMENT
?nameHolder@?1???$DataMapInit@VCRuleEntity@@@@YAPAUdatamap_s@@PAVCRuleEntity@@@Z@4VCDatadescGeneratedNameHolder@@A DB 01cH DUP (?) ; `DataMapInit<CRuleEntity>'::`2'::nameHolder
_BSS	ENDS
;	COMDAT ?$TSS0@?1???$DataMapInit@VCRuleEntity@@@@YAPAUdatamap_s@@PAVCRuleEntity@@@Z@4HA
_BSS	SEGMENT
?$TSS0@?1???$DataMapInit@VCRuleEntity@@@@YAPAUdatamap_s@@PAVCRuleEntity@@@Z@4HA DD 01H DUP (?) ; TSS0<`template-parameter-2',VCRuleEntity::taMapInit>
_BSS	ENDS
_BSS	SEGMENT
?game_score@@3V?$CEntityFactory@VCGameScore@@@@A DD 01H DUP (?) ; game_score
?game_end@@3V?$CEntityFactory@VCGameEnd@@@@A DD 01H DUP (?) ; game_end
?game_text@@3V?$CEntityFactory@VCGameText@@@@A DD 01H DUP (?) ; game_text
?g_DataMapHolder@CGameText_DataDescInit@@3PAUdatamap_s@@A DD 01H DUP (?) ; CGameText_DataDescInit::g_DataMapHolder
_BSS	ENDS
;	COMDAT ?nameHolder@?1???$DataMapInit@VCGameText@@@@YAPAUdatamap_s@@PAVCGameText@@@Z@4VCDatadescGeneratedNameHolder@@A
_BSS	SEGMENT
?nameHolder@?1???$DataMapInit@VCGameText@@@@YAPAUdatamap_s@@PAVCGameText@@@Z@4VCDatadescGeneratedNameHolder@@A DB 01cH DUP (?) ; `DataMapInit<CGameText>'::`2'::nameHolder
_BSS	ENDS
;	COMDAT ?$TSS0@?1???$DataMapInit@VCGameText@@@@YAPAUdatamap_s@@PAVCGameText@@@Z@4HA
_BSS	SEGMENT
?$TSS0@?1???$DataMapInit@VCGameText@@@@YAPAUdatamap_s@@PAVCGameText@@@Z@4HA DD 01H DUP (?) ; TSS0<`template-parameter-2',VCGameText::taMapInit>
_BSS	ENDS
_BSS	SEGMENT
?game_team_master@@3V?$CEntityFactory@VCGameTeamMaster@@@@A DD 01H DUP (?) ; game_team_master
?game_team_set@@3V?$CEntityFactory@VCGameTeamSet@@@@A DD 01H DUP (?) ; game_team_set
?game_zone_player@@3V?$CEntityFactory@VCGamePlayerZone@@@@A DD 01H DUP (?) ; game_zone_player
?g_DataMapHolder@CGamePlayerZone_DataDescInit@@3PAUdatamap_s@@A DD 01H DUP (?) ; CGamePlayerZone_DataDescInit::g_DataMapHolder
_BSS	ENDS
;	COMDAT ?nameHolder@?1???$DataMapInit@VCGamePlayerZone@@@@YAPAUdatamap_s@@PAVCGamePlayerZone@@@Z@4VCDatadescGeneratedNameHolder@@A
_BSS	SEGMENT
?nameHolder@?1???$DataMapInit@VCGamePlayerZone@@@@YAPAUdatamap_s@@PAVCGamePlayerZone@@@Z@4VCDatadescGeneratedNameHolder@@A DB 01cH DUP (?) ; `DataMapInit<CGamePlayerZone>'::`2'::nameHolder
_BSS	ENDS
;	COMDAT ?$TSS0@?1???$DataMapInit@VCGamePlayerZone@@@@YAPAUdatamap_s@@PAVCGamePlayerZone@@@Z@4HA
_BSS	SEGMENT
?$TSS0@?1???$DataMapInit@VCGamePlayerZone@@@@YAPAUdatamap_s@@PAVCGamePlayerZone@@@Z@4HA DD 01H DUP (?) ; TSS0<`template-parameter-2',VCGamePlayerZone::taMapInit>
_BSS	ENDS
_BSS	SEGMENT
?game_player_hurt@@3V?$CEntityFactory@VCGamePlayerHurt@@@@A DD 01H DUP (?) ; game_player_hurt
?game_counter@@3V?$CEntityFactory@VCGameCounter@@@@A DD 01H DUP (?) ; game_counter
?game_counter_set@@3V?$CEntityFactory@VCGameCounterSet@@@@A DD 01H DUP (?) ; game_counter_set
?game_player_equip@@3V?$CEntityFactory@VCGamePlayerEquip@@@@A DD 01H DUP (?) ; game_player_equip
?game_player_team@@3V?$CEntityFactory@VCGamePlayerTeam@@@@A DD 01H DUP (?) ; game_player_team
_BSS	ENDS
CRT$XCU	SEGMENT
?g_DataMapHolder$initializer$@CRuleEntity_DataDescInit@@3P6AXXZA DD FLAT:??__Eg_DataMapHolder@CRuleEntity_DataDescInit@@YAXXZ ; CRuleEntity_DataDescInit::g_DataMapHolder$initializer$
CRT$XCU	ENDS
;	COMDAT __xmm@80000000800000008000000080000000
CONST	SEGMENT
__xmm@80000000800000008000000080000000 DB 00H, 00H, 00H, 080H, 00H, 00H, 00H
	DB	080H, 00H, 00H, 00H, 080H, 00H, 00H, 00H, 080H
CONST	ENDS
;	COMDAT __real@bf800000
CONST	SEGMENT
__real@bf800000 DD 0bf800000r			; -1
CONST	ENDS
;	COMDAT __real@3f800000
CONST	SEGMENT
__real@3f800000 DD 03f800000r			; 1
CONST	ENDS
;	COMDAT __real@3f000000
CONST	SEGMENT
__real@3f000000 DD 03f000000r			; 0.5
CONST	ENDS
;	COMDAT __real@00000000
CONST	SEGMENT
__real@00000000 DD 000000000r			; 0
CONST	ENDS
;	COMDAT ??_R1A@?0A@EA@?$CEntityFactory@VCGamePlayerTeam@@@@8
rdata$r	SEGMENT
??_R1A@?0A@EA@?$CEntityFactory@VCGamePlayerTeam@@@@8 DD FLAT:??_R0?AV?$CEntityFactory@VCGamePlayerTeam@@@@@8 ; CEntityFactory<CGamePlayerTeam>::`RTTI Base Class Descriptor at (0,-1,0,64)'
	DD	01H
	DD	00H
	DD	0ffffffffH
	DD	00H
	DD	040H
	DD	FLAT:??_R3?$CEntityFactory@VCGamePlayerTeam@@@@8
rdata$r	ENDS
;	COMDAT ??_R2?$CEntityFactory@VCGamePlayerTeam@@@@8
rdata$r	SEGMENT
??_R2?$CEntityFactory@VCGamePlayerTeam@@@@8 DD FLAT:??_R1A@?0A@EA@?$CEntityFactory@VCGamePlayerTeam@@@@8 ; CEntityFactory<CGamePlayerTeam>::`RTTI Base Class Array'
	DD	FLAT:??_R1A@?0A@EA@IEntityFactory@@8
rdata$r	ENDS
;	COMDAT ??_R3?$CEntityFactory@VCGamePlayerTeam@@@@8
rdata$r	SEGMENT
??_R3?$CEntityFactory@VCGamePlayerTeam@@@@8 DD 00H	; CEntityFactory<CGamePlayerTeam>::`RTTI Class Hierarchy Descriptor'
	DD	00H
	DD	02H
	DD	FLAT:??_R2?$CEntityFactory@VCGamePlayerTeam@@@@8
rdata$r	ENDS
;	COMDAT ??_R0?AV?$CEntityFactory@VCGamePlayerTeam@@@@@8
data$r	SEGMENT
??_R0?AV?$CEntityFactory@VCGamePlayerTeam@@@@@8 DD FLAT:??_7type_info@@6B@ ; CEntityFactory<CGamePlayerTeam> `RTTI Type Descriptor'
	DD	00H
	DB	'.?AV?$CEntityFactory@VCGamePlayerTeam@@@@', 00H
data$r	ENDS
;	COMDAT ??_R4?$CEntityFactory@VCGamePlayerTeam@@@@6B@
rdata$r	SEGMENT
??_R4?$CEntityFactory@VCGamePlayerTeam@@@@6B@ DD 00H	; CEntityFactory<CGamePlayerTeam>::`RTTI Complete Object Locator'
	DD	00H
	DD	00H
	DD	FLAT:??_R0?AV?$CEntityFactory@VCGamePlayerTeam@@@@@8
	DD	FLAT:??_R3?$CEntityFactory@VCGamePlayerTeam@@@@8
rdata$r	ENDS
;	COMDAT ??_R1A@?0A@EA@CGamePlayerTeam@@8
rdata$r	SEGMENT
??_R1A@?0A@EA@CGamePlayerTeam@@8 DD FLAT:??_R0?AVCGamePlayerTeam@@@8 ; CGamePlayerTeam::`RTTI Base Class Descriptor at (0,-1,0,64)'
	DD	03H
	DD	00H
	DD	0ffffffffH
	DD	00H
	DD	040H
	DD	FLAT:??_R3CGamePlayerTeam@@8
rdata$r	ENDS
;	COMDAT ??_R2CGamePlayerTeam@@8
rdata$r	SEGMENT
??_R2CGamePlayerTeam@@8 DD FLAT:??_R1A@?0A@EA@CGamePlayerTeam@@8 ; CGamePlayerTeam::`RTTI Base Class Array'
	DD	FLAT:??_R1A@?0A@EA@CRulePointEntity@@8
	DD	FLAT:??_R1A@?0A@EA@CRuleEntity@@8
	DD	FLAT:??_R1A@?0A@EA@CBaseEntity@@8
rdata$r	ENDS
;	COMDAT ??_R3CGamePlayerTeam@@8
rdata$r	SEGMENT
??_R3CGamePlayerTeam@@8 DD 00H				; CGamePlayerTeam::`RTTI Class Hierarchy Descriptor'
	DD	00H
	DD	04H
	DD	FLAT:??_R2CGamePlayerTeam@@8
rdata$r	ENDS
;	COMDAT ??_R0?AVCGamePlayerTeam@@@8
data$r	SEGMENT
??_R0?AVCGamePlayerTeam@@@8 DD FLAT:??_7type_info@@6B@	; CGamePlayerTeam `RTTI Type Descriptor'
	DD	00H
	DB	'.?AVCGamePlayerTeam@@', 00H
data$r	ENDS
;	COMDAT ??_R4CGamePlayerTeam@@6B@
rdata$r	SEGMENT
??_R4CGamePlayerTeam@@6B@ DD 00H			; CGamePlayerTeam::`RTTI Complete Object Locator'
	DD	00H
	DD	00H
	DD	FLAT:??_R0?AVCGamePlayerTeam@@@8
	DD	FLAT:??_R3CGamePlayerTeam@@8
rdata$r	ENDS
;	COMDAT ??_R1A@?0A@EA@?$CEntityFactory@VCGamePlayerEquip@@@@8
rdata$r	SEGMENT
??_R1A@?0A@EA@?$CEntityFactory@VCGamePlayerEquip@@@@8 DD FLAT:??_R0?AV?$CEntityFactory@VCGamePlayerEquip@@@@@8 ; CEntityFactory<CGamePlayerEquip>::`RTTI Base Class Descriptor at (0,-1,0,64)'
	DD	01H
	DD	00H
	DD	0ffffffffH
	DD	00H
	DD	040H
	DD	FLAT:??_R3?$CEntityFactory@VCGamePlayerEquip@@@@8
rdata$r	ENDS
;	COMDAT ??_R2?$CEntityFactory@VCGamePlayerEquip@@@@8
rdata$r	SEGMENT
??_R2?$CEntityFactory@VCGamePlayerEquip@@@@8 DD FLAT:??_R1A@?0A@EA@?$CEntityFactory@VCGamePlayerEquip@@@@8 ; CEntityFactory<CGamePlayerEquip>::`RTTI Base Class Array'
	DD	FLAT:??_R1A@?0A@EA@IEntityFactory@@8
rdata$r	ENDS
;	COMDAT ??_R3?$CEntityFactory@VCGamePlayerEquip@@@@8
rdata$r	SEGMENT
??_R3?$CEntityFactory@VCGamePlayerEquip@@@@8 DD 00H	; CEntityFactory<CGamePlayerEquip>::`RTTI Class Hierarchy Descriptor'
	DD	00H
	DD	02H
	DD	FLAT:??_R2?$CEntityFactory@VCGamePlayerEquip@@@@8
rdata$r	ENDS
;	COMDAT ??_R0?AV?$CEntityFactory@VCGamePlayerEquip@@@@@8
data$r	SEGMENT
??_R0?AV?$CEntityFactory@VCGamePlayerEquip@@@@@8 DD FLAT:??_7type_info@@6B@ ; CEntityFactory<CGamePlayerEquip> `RTTI Type Descriptor'
	DD	00H
	DB	'.?AV?$CEntityFactory@VCGamePlayerEquip@@@@', 00H
data$r	ENDS
;	COMDAT ??_R4?$CEntityFactory@VCGamePlayerEquip@@@@6B@
rdata$r	SEGMENT
??_R4?$CEntityFactory@VCGamePlayerEquip@@@@6B@ DD 00H	; CEntityFactory<CGamePlayerEquip>::`RTTI Complete Object Locator'
	DD	00H
	DD	00H
	DD	FLAT:??_R0?AV?$CEntityFactory@VCGamePlayerEquip@@@@@8
	DD	FLAT:??_R3?$CEntityFactory@VCGamePlayerEquip@@@@8
rdata$r	ENDS
;	COMDAT ??_R1A@?0A@EA@CGamePlayerEquip@@8
rdata$r	SEGMENT
??_R1A@?0A@EA@CGamePlayerEquip@@8 DD FLAT:??_R0?AVCGamePlayerEquip@@@8 ; CGamePlayerEquip::`RTTI Base Class Descriptor at (0,-1,0,64)'
	DD	03H
	DD	00H
	DD	0ffffffffH
	DD	00H
	DD	040H
	DD	FLAT:??_R3CGamePlayerEquip@@8
rdata$r	ENDS
;	COMDAT ??_R2CGamePlayerEquip@@8
rdata$r	SEGMENT
??_R2CGamePlayerEquip@@8 DD FLAT:??_R1A@?0A@EA@CGamePlayerEquip@@8 ; CGamePlayerEquip::`RTTI Base Class Array'
	DD	FLAT:??_R1A@?0A@EA@CRulePointEntity@@8
	DD	FLAT:??_R1A@?0A@EA@CRuleEntity@@8
	DD	FLAT:??_R1A@?0A@EA@CBaseEntity@@8
rdata$r	ENDS
;	COMDAT ??_R3CGamePlayerEquip@@8
rdata$r	SEGMENT
??_R3CGamePlayerEquip@@8 DD 00H				; CGamePlayerEquip::`RTTI Class Hierarchy Descriptor'
	DD	00H
	DD	04H
	DD	FLAT:??_R2CGamePlayerEquip@@8
rdata$r	ENDS
;	COMDAT ??_R0?AVCGamePlayerEquip@@@8
data$r	SEGMENT
??_R0?AVCGamePlayerEquip@@@8 DD FLAT:??_7type_info@@6B@	; CGamePlayerEquip `RTTI Type Descriptor'
	DD	00H
	DB	'.?AVCGamePlayerEquip@@', 00H
data$r	ENDS
;	COMDAT ??_R4CGamePlayerEquip@@6B@
rdata$r	SEGMENT
??_R4CGamePlayerEquip@@6B@ DD 00H			; CGamePlayerEquip::`RTTI Complete Object Locator'
	DD	00H
	DD	00H
	DD	FLAT:??_R0?AVCGamePlayerEquip@@@8
	DD	FLAT:??_R3CGamePlayerEquip@@8
rdata$r	ENDS
;	COMDAT ??_R1A@?0A@EA@?$CEntityFactory@VCGameCounterSet@@@@8
rdata$r	SEGMENT
??_R1A@?0A@EA@?$CEntityFactory@VCGameCounterSet@@@@8 DD FLAT:??_R0?AV?$CEntityFactory@VCGameCounterSet@@@@@8 ; CEntityFactory<CGameCounterSet>::`RTTI Base Class Descriptor at (0,-1,0,64)'
	DD	01H
	DD	00H
	DD	0ffffffffH
	DD	00H
	DD	040H
	DD	FLAT:??_R3?$CEntityFactory@VCGameCounterSet@@@@8
rdata$r	ENDS
;	COMDAT ??_R2?$CEntityFactory@VCGameCounterSet@@@@8
rdata$r	SEGMENT
??_R2?$CEntityFactory@VCGameCounterSet@@@@8 DD FLAT:??_R1A@?0A@EA@?$CEntityFactory@VCGameCounterSet@@@@8 ; CEntityFactory<CGameCounterSet>::`RTTI Base Class Array'
	DD	FLAT:??_R1A@?0A@EA@IEntityFactory@@8
rdata$r	ENDS
;	COMDAT ??_R3?$CEntityFactory@VCGameCounterSet@@@@8
rdata$r	SEGMENT
??_R3?$CEntityFactory@VCGameCounterSet@@@@8 DD 00H	; CEntityFactory<CGameCounterSet>::`RTTI Class Hierarchy Descriptor'
	DD	00H
	DD	02H
	DD	FLAT:??_R2?$CEntityFactory@VCGameCounterSet@@@@8
rdata$r	ENDS
;	COMDAT ??_R0?AV?$CEntityFactory@VCGameCounterSet@@@@@8
data$r	SEGMENT
??_R0?AV?$CEntityFactory@VCGameCounterSet@@@@@8 DD FLAT:??_7type_info@@6B@ ; CEntityFactory<CGameCounterSet> `RTTI Type Descriptor'
	DD	00H
	DB	'.?AV?$CEntityFactory@VCGameCounterSet@@@@', 00H
data$r	ENDS
;	COMDAT ??_R4?$CEntityFactory@VCGameCounterSet@@@@6B@
rdata$r	SEGMENT
??_R4?$CEntityFactory@VCGameCounterSet@@@@6B@ DD 00H	; CEntityFactory<CGameCounterSet>::`RTTI Complete Object Locator'
	DD	00H
	DD	00H
	DD	FLAT:??_R0?AV?$CEntityFactory@VCGameCounterSet@@@@@8
	DD	FLAT:??_R3?$CEntityFactory@VCGameCounterSet@@@@8
rdata$r	ENDS
;	COMDAT ??_R1A@?0A@EA@CGameCounterSet@@8
rdata$r	SEGMENT
??_R1A@?0A@EA@CGameCounterSet@@8 DD FLAT:??_R0?AVCGameCounterSet@@@8 ; CGameCounterSet::`RTTI Base Class Descriptor at (0,-1,0,64)'
	DD	03H
	DD	00H
	DD	0ffffffffH
	DD	00H
	DD	040H
	DD	FLAT:??_R3CGameCounterSet@@8
rdata$r	ENDS
;	COMDAT ??_R2CGameCounterSet@@8
rdata$r	SEGMENT
??_R2CGameCounterSet@@8 DD FLAT:??_R1A@?0A@EA@CGameCounterSet@@8 ; CGameCounterSet::`RTTI Base Class Array'
	DD	FLAT:??_R1A@?0A@EA@CRulePointEntity@@8
	DD	FLAT:??_R1A@?0A@EA@CRuleEntity@@8
	DD	FLAT:??_R1A@?0A@EA@CBaseEntity@@8
rdata$r	ENDS
;	COMDAT ??_R3CGameCounterSet@@8
rdata$r	SEGMENT
??_R3CGameCounterSet@@8 DD 00H				; CGameCounterSet::`RTTI Class Hierarchy Descriptor'
	DD	00H
	DD	04H
	DD	FLAT:??_R2CGameCounterSet@@8
rdata$r	ENDS
;	COMDAT ??_R0?AVCGameCounterSet@@@8
data$r	SEGMENT
??_R0?AVCGameCounterSet@@@8 DD FLAT:??_7type_info@@6B@	; CGameCounterSet `RTTI Type Descriptor'
	DD	00H
	DB	'.?AVCGameCounterSet@@', 00H
data$r	ENDS
;	COMDAT ??_R4CGameCounterSet@@6B@
rdata$r	SEGMENT
??_R4CGameCounterSet@@6B@ DD 00H			; CGameCounterSet::`RTTI Complete Object Locator'
	DD	00H
	DD	00H
	DD	FLAT:??_R0?AVCGameCounterSet@@@8
	DD	FLAT:??_R3CGameCounterSet@@8
rdata$r	ENDS
;	COMDAT ??_R1A@?0A@EA@?$CEntityFactory@VCGameCounter@@@@8
rdata$r	SEGMENT
??_R1A@?0A@EA@?$CEntityFactory@VCGameCounter@@@@8 DD FLAT:??_R0?AV?$CEntityFactory@VCGameCounter@@@@@8 ; CEntityFactory<CGameCounter>::`RTTI Base Class Descriptor at (0,-1,0,64)'
	DD	01H
	DD	00H
	DD	0ffffffffH
	DD	00H
	DD	040H
	DD	FLAT:??_R3?$CEntityFactory@VCGameCounter@@@@8
rdata$r	ENDS
;	COMDAT ??_R2?$CEntityFactory@VCGameCounter@@@@8
rdata$r	SEGMENT
??_R2?$CEntityFactory@VCGameCounter@@@@8 DD FLAT:??_R1A@?0A@EA@?$CEntityFactory@VCGameCounter@@@@8 ; CEntityFactory<CGameCounter>::`RTTI Base Class Array'
	DD	FLAT:??_R1A@?0A@EA@IEntityFactory@@8
rdata$r	ENDS
;	COMDAT ??_R3?$CEntityFactory@VCGameCounter@@@@8
rdata$r	SEGMENT
??_R3?$CEntityFactory@VCGameCounter@@@@8 DD 00H		; CEntityFactory<CGameCounter>::`RTTI Class Hierarchy Descriptor'
	DD	00H
	DD	02H
	DD	FLAT:??_R2?$CEntityFactory@VCGameCounter@@@@8
rdata$r	ENDS
;	COMDAT ??_R0?AV?$CEntityFactory@VCGameCounter@@@@@8
data$r	SEGMENT
??_R0?AV?$CEntityFactory@VCGameCounter@@@@@8 DD FLAT:??_7type_info@@6B@ ; CEntityFactory<CGameCounter> `RTTI Type Descriptor'
	DD	00H
	DB	'.?AV?$CEntityFactory@VCGameCounter@@@@', 00H
data$r	ENDS
;	COMDAT ??_R4?$CEntityFactory@VCGameCounter@@@@6B@
rdata$r	SEGMENT
??_R4?$CEntityFactory@VCGameCounter@@@@6B@ DD 00H	; CEntityFactory<CGameCounter>::`RTTI Complete Object Locator'
	DD	00H
	DD	00H
	DD	FLAT:??_R0?AV?$CEntityFactory@VCGameCounter@@@@@8
	DD	FLAT:??_R3?$CEntityFactory@VCGameCounter@@@@8
rdata$r	ENDS
;	COMDAT ??_R1A@?0A@EA@CGameCounter@@8
rdata$r	SEGMENT
??_R1A@?0A@EA@CGameCounter@@8 DD FLAT:??_R0?AVCGameCounter@@@8 ; CGameCounter::`RTTI Base Class Descriptor at (0,-1,0,64)'
	DD	03H
	DD	00H
	DD	0ffffffffH
	DD	00H
	DD	040H
	DD	FLAT:??_R3CGameCounter@@8
rdata$r	ENDS
;	COMDAT ??_R2CGameCounter@@8
rdata$r	SEGMENT
??_R2CGameCounter@@8 DD FLAT:??_R1A@?0A@EA@CGameCounter@@8 ; CGameCounter::`RTTI Base Class Array'
	DD	FLAT:??_R1A@?0A@EA@CRulePointEntity@@8
	DD	FLAT:??_R1A@?0A@EA@CRuleEntity@@8
	DD	FLAT:??_R1A@?0A@EA@CBaseEntity@@8
rdata$r	ENDS
;	COMDAT ??_R3CGameCounter@@8
rdata$r	SEGMENT
??_R3CGameCounter@@8 DD 00H				; CGameCounter::`RTTI Class Hierarchy Descriptor'
	DD	00H
	DD	04H
	DD	FLAT:??_R2CGameCounter@@8
rdata$r	ENDS
;	COMDAT ??_R0?AVCGameCounter@@@8
data$r	SEGMENT
??_R0?AVCGameCounter@@@8 DD FLAT:??_7type_info@@6B@	; CGameCounter `RTTI Type Descriptor'
	DD	00H
	DB	'.?AVCGameCounter@@', 00H
data$r	ENDS
;	COMDAT ??_R4CGameCounter@@6B@
rdata$r	SEGMENT
??_R4CGameCounter@@6B@ DD 00H				; CGameCounter::`RTTI Complete Object Locator'
	DD	00H
	DD	00H
	DD	FLAT:??_R0?AVCGameCounter@@@8
	DD	FLAT:??_R3CGameCounter@@8
rdata$r	ENDS
;	COMDAT ??_R1A@?0A@EA@?$CEntityFactory@VCGamePlayerHurt@@@@8
rdata$r	SEGMENT
??_R1A@?0A@EA@?$CEntityFactory@VCGamePlayerHurt@@@@8 DD FLAT:??_R0?AV?$CEntityFactory@VCGamePlayerHurt@@@@@8 ; CEntityFactory<CGamePlayerHurt>::`RTTI Base Class Descriptor at (0,-1,0,64)'
	DD	01H
	DD	00H
	DD	0ffffffffH
	DD	00H
	DD	040H
	DD	FLAT:??_R3?$CEntityFactory@VCGamePlayerHurt@@@@8
rdata$r	ENDS
;	COMDAT ??_R2?$CEntityFactory@VCGamePlayerHurt@@@@8
rdata$r	SEGMENT
??_R2?$CEntityFactory@VCGamePlayerHurt@@@@8 DD FLAT:??_R1A@?0A@EA@?$CEntityFactory@VCGamePlayerHurt@@@@8 ; CEntityFactory<CGamePlayerHurt>::`RTTI Base Class Array'
	DD	FLAT:??_R1A@?0A@EA@IEntityFactory@@8
rdata$r	ENDS
;	COMDAT ??_R3?$CEntityFactory@VCGamePlayerHurt@@@@8
rdata$r	SEGMENT
??_R3?$CEntityFactory@VCGamePlayerHurt@@@@8 DD 00H	; CEntityFactory<CGamePlayerHurt>::`RTTI Class Hierarchy Descriptor'
	DD	00H
	DD	02H
	DD	FLAT:??_R2?$CEntityFactory@VCGamePlayerHurt@@@@8
rdata$r	ENDS
;	COMDAT ??_R0?AV?$CEntityFactory@VCGamePlayerHurt@@@@@8
data$r	SEGMENT
??_R0?AV?$CEntityFactory@VCGamePlayerHurt@@@@@8 DD FLAT:??_7type_info@@6B@ ; CEntityFactory<CGamePlayerHurt> `RTTI Type Descriptor'
	DD	00H
	DB	'.?AV?$CEntityFactory@VCGamePlayerHurt@@@@', 00H
data$r	ENDS
;	COMDAT ??_R4?$CEntityFactory@VCGamePlayerHurt@@@@6B@
rdata$r	SEGMENT
??_R4?$CEntityFactory@VCGamePlayerHurt@@@@6B@ DD 00H	; CEntityFactory<CGamePlayerHurt>::`RTTI Complete Object Locator'
	DD	00H
	DD	00H
	DD	FLAT:??_R0?AV?$CEntityFactory@VCGamePlayerHurt@@@@@8
	DD	FLAT:??_R3?$CEntityFactory@VCGamePlayerHurt@@@@8
rdata$r	ENDS
;	COMDAT ??_R1A@?0A@EA@CGamePlayerHurt@@8
rdata$r	SEGMENT
??_R1A@?0A@EA@CGamePlayerHurt@@8 DD FLAT:??_R0?AVCGamePlayerHurt@@@8 ; CGamePlayerHurt::`RTTI Base Class Descriptor at (0,-1,0,64)'
	DD	03H
	DD	00H
	DD	0ffffffffH
	DD	00H
	DD	040H
	DD	FLAT:??_R3CGamePlayerHurt@@8
rdata$r	ENDS
;	COMDAT ??_R2CGamePlayerHurt@@8
rdata$r	SEGMENT
??_R2CGamePlayerHurt@@8 DD FLAT:??_R1A@?0A@EA@CGamePlayerHurt@@8 ; CGamePlayerHurt::`RTTI Base Class Array'
	DD	FLAT:??_R1A@?0A@EA@CRulePointEntity@@8
	DD	FLAT:??_R1A@?0A@EA@CRuleEntity@@8
	DD	FLAT:??_R1A@?0A@EA@CBaseEntity@@8
rdata$r	ENDS
;	COMDAT ??_R3CGamePlayerHurt@@8
rdata$r	SEGMENT
??_R3CGamePlayerHurt@@8 DD 00H				; CGamePlayerHurt::`RTTI Class Hierarchy Descriptor'
	DD	00H
	DD	04H
	DD	FLAT:??_R2CGamePlayerHurt@@8
rdata$r	ENDS
;	COMDAT ??_R0?AVCGamePlayerHurt@@@8
data$r	SEGMENT
??_R0?AVCGamePlayerHurt@@@8 DD FLAT:??_7type_info@@6B@	; CGamePlayerHurt `RTTI Type Descriptor'
	DD	00H
	DB	'.?AVCGamePlayerHurt@@', 00H
data$r	ENDS
;	COMDAT ??_R4CGamePlayerHurt@@6B@
rdata$r	SEGMENT
??_R4CGamePlayerHurt@@6B@ DD 00H			; CGamePlayerHurt::`RTTI Complete Object Locator'
	DD	00H
	DD	00H
	DD	FLAT:??_R0?AVCGamePlayerHurt@@@8
	DD	FLAT:??_R3CGamePlayerHurt@@8
rdata$r	ENDS
;	COMDAT ??_R1A@?0A@EA@?$CEntityFactory@VCGamePlayerZone@@@@8
rdata$r	SEGMENT
??_R1A@?0A@EA@?$CEntityFactory@VCGamePlayerZone@@@@8 DD FLAT:??_R0?AV?$CEntityFactory@VCGamePlayerZone@@@@@8 ; CEntityFactory<CGamePlayerZone>::`RTTI Base Class Descriptor at (0,-1,0,64)'
	DD	01H
	DD	00H
	DD	0ffffffffH
	DD	00H
	DD	040H
	DD	FLAT:??_R3?$CEntityFactory@VCGamePlayerZone@@@@8
rdata$r	ENDS
;	COMDAT ??_R2?$CEntityFactory@VCGamePlayerZone@@@@8
rdata$r	SEGMENT
??_R2?$CEntityFactory@VCGamePlayerZone@@@@8 DD FLAT:??_R1A@?0A@EA@?$CEntityFactory@VCGamePlayerZone@@@@8 ; CEntityFactory<CGamePlayerZone>::`RTTI Base Class Array'
	DD	FLAT:??_R1A@?0A@EA@IEntityFactory@@8
rdata$r	ENDS
;	COMDAT ??_R3?$CEntityFactory@VCGamePlayerZone@@@@8
rdata$r	SEGMENT
??_R3?$CEntityFactory@VCGamePlayerZone@@@@8 DD 00H	; CEntityFactory<CGamePlayerZone>::`RTTI Class Hierarchy Descriptor'
	DD	00H
	DD	02H
	DD	FLAT:??_R2?$CEntityFactory@VCGamePlayerZone@@@@8
rdata$r	ENDS
;	COMDAT ??_R0?AV?$CEntityFactory@VCGamePlayerZone@@@@@8
data$r	SEGMENT
??_R0?AV?$CEntityFactory@VCGamePlayerZone@@@@@8 DD FLAT:??_7type_info@@6B@ ; CEntityFactory<CGamePlayerZone> `RTTI Type Descriptor'
	DD	00H
	DB	'.?AV?$CEntityFactory@VCGamePlayerZone@@@@', 00H
data$r	ENDS
;	COMDAT ??_R4?$CEntityFactory@VCGamePlayerZone@@@@6B@
rdata$r	SEGMENT
??_R4?$CEntityFactory@VCGamePlayerZone@@@@6B@ DD 00H	; CEntityFactory<CGamePlayerZone>::`RTTI Complete Object Locator'
	DD	00H
	DD	00H
	DD	FLAT:??_R0?AV?$CEntityFactory@VCGamePlayerZone@@@@@8
	DD	FLAT:??_R3?$CEntityFactory@VCGamePlayerZone@@@@8
rdata$r	ENDS
;	COMDAT ??_R1A@?0A@EA@CGamePlayerZone@@8
rdata$r	SEGMENT
??_R1A@?0A@EA@CGamePlayerZone@@8 DD FLAT:??_R0?AVCGamePlayerZone@@@8 ; CGamePlayerZone::`RTTI Base Class Descriptor at (0,-1,0,64)'
	DD	03H
	DD	00H
	DD	0ffffffffH
	DD	00H
	DD	040H
	DD	FLAT:??_R3CGamePlayerZone@@8
rdata$r	ENDS
;	COMDAT ??_R2CGamePlayerZone@@8
rdata$r	SEGMENT
??_R2CGamePlayerZone@@8 DD FLAT:??_R1A@?0A@EA@CGamePlayerZone@@8 ; CGamePlayerZone::`RTTI Base Class Array'
	DD	FLAT:??_R1A@?0A@EA@CRuleBrushEntity@@8
	DD	FLAT:??_R1A@?0A@EA@CRuleEntity@@8
	DD	FLAT:??_R1A@?0A@EA@CBaseEntity@@8
rdata$r	ENDS
;	COMDAT ??_R3CGamePlayerZone@@8
rdata$r	SEGMENT
??_R3CGamePlayerZone@@8 DD 00H				; CGamePlayerZone::`RTTI Class Hierarchy Descriptor'
	DD	00H
	DD	04H
	DD	FLAT:??_R2CGamePlayerZone@@8
rdata$r	ENDS
;	COMDAT ??_R0?AVCGamePlayerZone@@@8
data$r	SEGMENT
??_R0?AVCGamePlayerZone@@@8 DD FLAT:??_7type_info@@6B@	; CGamePlayerZone `RTTI Type Descriptor'
	DD	00H
	DB	'.?AVCGamePlayerZone@@', 00H
data$r	ENDS
;	COMDAT ??_R4CGamePlayerZone@@6B@
rdata$r	SEGMENT
??_R4CGamePlayerZone@@6B@ DD 00H			; CGamePlayerZone::`RTTI Complete Object Locator'
	DD	00H
	DD	00H
	DD	FLAT:??_R0?AVCGamePlayerZone@@@8
	DD	FLAT:??_R3CGamePlayerZone@@8
rdata$r	ENDS
;	COMDAT ??_R1A@?0A@EA@?$CEntityFactory@VCGameTeamSet@@@@8
rdata$r	SEGMENT
??_R1A@?0A@EA@?$CEntityFactory@VCGameTeamSet@@@@8 DD FLAT:??_R0?AV?$CEntityFactory@VCGameTeamSet@@@@@8 ; CEntityFactory<CGameTeamSet>::`RTTI Base Class Descriptor at (0,-1,0,64)'
	DD	01H
	DD	00H
	DD	0ffffffffH
	DD	00H
	DD	040H
	DD	FLAT:??_R3?$CEntityFactory@VCGameTeamSet@@@@8
rdata$r	ENDS
;	COMDAT ??_R2?$CEntityFactory@VCGameTeamSet@@@@8
rdata$r	SEGMENT
??_R2?$CEntityFactory@VCGameTeamSet@@@@8 DD FLAT:??_R1A@?0A@EA@?$CEntityFactory@VCGameTeamSet@@@@8 ; CEntityFactory<CGameTeamSet>::`RTTI Base Class Array'
	DD	FLAT:??_R1A@?0A@EA@IEntityFactory@@8
rdata$r	ENDS
;	COMDAT ??_R3?$CEntityFactory@VCGameTeamSet@@@@8
rdata$r	SEGMENT
??_R3?$CEntityFactory@VCGameTeamSet@@@@8 DD 00H		; CEntityFactory<CGameTeamSet>::`RTTI Class Hierarchy Descriptor'
	DD	00H
	DD	02H
	DD	FLAT:??_R2?$CEntityFactory@VCGameTeamSet@@@@8
rdata$r	ENDS
;	COMDAT ??_R0?AV?$CEntityFactory@VCGameTeamSet@@@@@8
data$r	SEGMENT
??_R0?AV?$CEntityFactory@VCGameTeamSet@@@@@8 DD FLAT:??_7type_info@@6B@ ; CEntityFactory<CGameTeamSet> `RTTI Type Descriptor'
	DD	00H
	DB	'.?AV?$CEntityFactory@VCGameTeamSet@@@@', 00H
data$r	ENDS
;	COMDAT ??_R4?$CEntityFactory@VCGameTeamSet@@@@6B@
rdata$r	SEGMENT
??_R4?$CEntityFactory@VCGameTeamSet@@@@6B@ DD 00H	; CEntityFactory<CGameTeamSet>::`RTTI Complete Object Locator'
	DD	00H
	DD	00H
	DD	FLAT:??_R0?AV?$CEntityFactory@VCGameTeamSet@@@@@8
	DD	FLAT:??_R3?$CEntityFactory@VCGameTeamSet@@@@8
rdata$r	ENDS
;	COMDAT ??_R1A@?0A@EA@CGameTeamSet@@8
rdata$r	SEGMENT
??_R1A@?0A@EA@CGameTeamSet@@8 DD FLAT:??_R0?AVCGameTeamSet@@@8 ; CGameTeamSet::`RTTI Base Class Descriptor at (0,-1,0,64)'
	DD	03H
	DD	00H
	DD	0ffffffffH
	DD	00H
	DD	040H
	DD	FLAT:??_R3CGameTeamSet@@8
rdata$r	ENDS
;	COMDAT ??_R2CGameTeamSet@@8
rdata$r	SEGMENT
??_R2CGameTeamSet@@8 DD FLAT:??_R1A@?0A@EA@CGameTeamSet@@8 ; CGameTeamSet::`RTTI Base Class Array'
	DD	FLAT:??_R1A@?0A@EA@CRulePointEntity@@8
	DD	FLAT:??_R1A@?0A@EA@CRuleEntity@@8
	DD	FLAT:??_R1A@?0A@EA@CBaseEntity@@8
rdata$r	ENDS
;	COMDAT ??_R3CGameTeamSet@@8
rdata$r	SEGMENT
??_R3CGameTeamSet@@8 DD 00H				; CGameTeamSet::`RTTI Class Hierarchy Descriptor'
	DD	00H
	DD	04H
	DD	FLAT:??_R2CGameTeamSet@@8
rdata$r	ENDS
;	COMDAT ??_R0?AVCGameTeamSet@@@8
data$r	SEGMENT
??_R0?AVCGameTeamSet@@@8 DD FLAT:??_7type_info@@6B@	; CGameTeamSet `RTTI Type Descriptor'
	DD	00H
	DB	'.?AVCGameTeamSet@@', 00H
data$r	ENDS
;	COMDAT ??_R4CGameTeamSet@@6B@
rdata$r	SEGMENT
??_R4CGameTeamSet@@6B@ DD 00H				; CGameTeamSet::`RTTI Complete Object Locator'
	DD	00H
	DD	00H
	DD	FLAT:??_R0?AVCGameTeamSet@@@8
	DD	FLAT:??_R3CGameTeamSet@@8
rdata$r	ENDS
;	COMDAT ??_R1A@?0A@EA@?$CEntityFactory@VCGameTeamMaster@@@@8
rdata$r	SEGMENT
??_R1A@?0A@EA@?$CEntityFactory@VCGameTeamMaster@@@@8 DD FLAT:??_R0?AV?$CEntityFactory@VCGameTeamMaster@@@@@8 ; CEntityFactory<CGameTeamMaster>::`RTTI Base Class Descriptor at (0,-1,0,64)'
	DD	01H
	DD	00H
	DD	0ffffffffH
	DD	00H
	DD	040H
	DD	FLAT:??_R3?$CEntityFactory@VCGameTeamMaster@@@@8
rdata$r	ENDS
;	COMDAT ??_R2?$CEntityFactory@VCGameTeamMaster@@@@8
rdata$r	SEGMENT
??_R2?$CEntityFactory@VCGameTeamMaster@@@@8 DD FLAT:??_R1A@?0A@EA@?$CEntityFactory@VCGameTeamMaster@@@@8 ; CEntityFactory<CGameTeamMaster>::`RTTI Base Class Array'
	DD	FLAT:??_R1A@?0A@EA@IEntityFactory@@8
rdata$r	ENDS
;	COMDAT ??_R3?$CEntityFactory@VCGameTeamMaster@@@@8
rdata$r	SEGMENT
??_R3?$CEntityFactory@VCGameTeamMaster@@@@8 DD 00H	; CEntityFactory<CGameTeamMaster>::`RTTI Class Hierarchy Descriptor'
	DD	00H
	DD	02H
	DD	FLAT:??_R2?$CEntityFactory@VCGameTeamMaster@@@@8
rdata$r	ENDS
;	COMDAT ??_R0?AV?$CEntityFactory@VCGameTeamMaster@@@@@8
data$r	SEGMENT
??_R0?AV?$CEntityFactory@VCGameTeamMaster@@@@@8 DD FLAT:??_7type_info@@6B@ ; CEntityFactory<CGameTeamMaster> `RTTI Type Descriptor'
	DD	00H
	DB	'.?AV?$CEntityFactory@VCGameTeamMaster@@@@', 00H
data$r	ENDS
;	COMDAT ??_R4?$CEntityFactory@VCGameTeamMaster@@@@6B@
rdata$r	SEGMENT
??_R4?$CEntityFactory@VCGameTeamMaster@@@@6B@ DD 00H	; CEntityFactory<CGameTeamMaster>::`RTTI Complete Object Locator'
	DD	00H
	DD	00H
	DD	FLAT:??_R0?AV?$CEntityFactory@VCGameTeamMaster@@@@@8
	DD	FLAT:??_R3?$CEntityFactory@VCGameTeamMaster@@@@8
rdata$r	ENDS
;	COMDAT ??_R1A@?0A@EA@CGameTeamMaster@@8
rdata$r	SEGMENT
??_R1A@?0A@EA@CGameTeamMaster@@8 DD FLAT:??_R0?AVCGameTeamMaster@@@8 ; CGameTeamMaster::`RTTI Base Class Descriptor at (0,-1,0,64)'
	DD	03H
	DD	00H
	DD	0ffffffffH
	DD	00H
	DD	040H
	DD	FLAT:??_R3CGameTeamMaster@@8
rdata$r	ENDS
;	COMDAT ??_R2CGameTeamMaster@@8
rdata$r	SEGMENT
??_R2CGameTeamMaster@@8 DD FLAT:??_R1A@?0A@EA@CGameTeamMaster@@8 ; CGameTeamMaster::`RTTI Base Class Array'
	DD	FLAT:??_R1A@?0A@EA@CRulePointEntity@@8
	DD	FLAT:??_R1A@?0A@EA@CRuleEntity@@8
	DD	FLAT:??_R1A@?0A@EA@CBaseEntity@@8
rdata$r	ENDS
;	COMDAT ??_R3CGameTeamMaster@@8
rdata$r	SEGMENT
??_R3CGameTeamMaster@@8 DD 00H				; CGameTeamMaster::`RTTI Class Hierarchy Descriptor'
	DD	00H
	DD	04H
	DD	FLAT:??_R2CGameTeamMaster@@8
rdata$r	ENDS
;	COMDAT ??_R0?AVCGameTeamMaster@@@8
data$r	SEGMENT
??_R0?AVCGameTeamMaster@@@8 DD FLAT:??_7type_info@@6B@	; CGameTeamMaster `RTTI Type Descriptor'
	DD	00H
	DB	'.?AVCGameTeamMaster@@', 00H
data$r	ENDS
;	COMDAT ??_R4CGameTeamMaster@@6B@
rdata$r	SEGMENT
??_R4CGameTeamMaster@@6B@ DD 00H			; CGameTeamMaster::`RTTI Complete Object Locator'
	DD	00H
	DD	00H
	DD	FLAT:??_R0?AVCGameTeamMaster@@@8
	DD	FLAT:??_R3CGameTeamMaster@@8
rdata$r	ENDS
;	COMDAT ??_R1A@?0A@EA@?$CEntityFactory@VCGameText@@@@8
rdata$r	SEGMENT
??_R1A@?0A@EA@?$CEntityFactory@VCGameText@@@@8 DD FLAT:??_R0?AV?$CEntityFactory@VCGameText@@@@@8 ; CEntityFactory<CGameText>::`RTTI Base Class Descriptor at (0,-1,0,64)'
	DD	01H
	DD	00H
	DD	0ffffffffH
	DD	00H
	DD	040H
	DD	FLAT:??_R3?$CEntityFactory@VCGameText@@@@8
rdata$r	ENDS
;	COMDAT ??_R2?$CEntityFactory@VCGameText@@@@8
rdata$r	SEGMENT
??_R2?$CEntityFactory@VCGameText@@@@8 DD FLAT:??_R1A@?0A@EA@?$CEntityFactory@VCGameText@@@@8 ; CEntityFactory<CGameText>::`RTTI Base Class Array'
	DD	FLAT:??_R1A@?0A@EA@IEntityFactory@@8
rdata$r	ENDS
;	COMDAT ??_R3?$CEntityFactory@VCGameText@@@@8
rdata$r	SEGMENT
??_R3?$CEntityFactory@VCGameText@@@@8 DD 00H		; CEntityFactory<CGameText>::`RTTI Class Hierarchy Descriptor'
	DD	00H
	DD	02H
	DD	FLAT:??_R2?$CEntityFactory@VCGameText@@@@8
rdata$r	ENDS
;	COMDAT ??_R0?AV?$CEntityFactory@VCGameText@@@@@8
data$r	SEGMENT
??_R0?AV?$CEntityFactory@VCGameText@@@@@8 DD FLAT:??_7type_info@@6B@ ; CEntityFactory<CGameText> `RTTI Type Descriptor'
	DD	00H
	DB	'.?AV?$CEntityFactory@VCGameText@@@@', 00H
data$r	ENDS
;	COMDAT ??_R4?$CEntityFactory@VCGameText@@@@6B@
rdata$r	SEGMENT
??_R4?$CEntityFactory@VCGameText@@@@6B@ DD 00H		; CEntityFactory<CGameText>::`RTTI Complete Object Locator'
	DD	00H
	DD	00H
	DD	FLAT:??_R0?AV?$CEntityFactory@VCGameText@@@@@8
	DD	FLAT:??_R3?$CEntityFactory@VCGameText@@@@8
rdata$r	ENDS
;	COMDAT ??_R1A@?0A@EA@CGameText@@8
rdata$r	SEGMENT
??_R1A@?0A@EA@CGameText@@8 DD FLAT:??_R0?AVCGameText@@@8 ; CGameText::`RTTI Base Class Descriptor at (0,-1,0,64)'
	DD	03H
	DD	00H
	DD	0ffffffffH
	DD	00H
	DD	040H
	DD	FLAT:??_R3CGameText@@8
rdata$r	ENDS
;	COMDAT ??_R2CGameText@@8
rdata$r	SEGMENT
??_R2CGameText@@8 DD FLAT:??_R1A@?0A@EA@CGameText@@8	; CGameText::`RTTI Base Class Array'
	DD	FLAT:??_R1A@?0A@EA@CRulePointEntity@@8
	DD	FLAT:??_R1A@?0A@EA@CRuleEntity@@8
	DD	FLAT:??_R1A@?0A@EA@CBaseEntity@@8
rdata$r	ENDS
;	COMDAT ??_R3CGameText@@8
rdata$r	SEGMENT
??_R3CGameText@@8 DD 00H				; CGameText::`RTTI Class Hierarchy Descriptor'
	DD	00H
	DD	04H
	DD	FLAT:??_R2CGameText@@8
rdata$r	ENDS
;	COMDAT ??_R0?AVCGameText@@@8
data$r	SEGMENT
??_R0?AVCGameText@@@8 DD FLAT:??_7type_info@@6B@	; CGameText `RTTI Type Descriptor'
	DD	00H
	DB	'.?AVCGameText@@', 00H
data$r	ENDS
;	COMDAT ??_R4CGameText@@6B@
rdata$r	SEGMENT
??_R4CGameText@@6B@ DD 00H				; CGameText::`RTTI Complete Object Locator'
	DD	00H
	DD	00H
	DD	FLAT:??_R0?AVCGameText@@@8
	DD	FLAT:??_R3CGameText@@8
rdata$r	ENDS
;	COMDAT ??_R1A@?0A@EA@?$CEntityFactory@VCGameEnd@@@@8
rdata$r	SEGMENT
??_R1A@?0A@EA@?$CEntityFactory@VCGameEnd@@@@8 DD FLAT:??_R0?AV?$CEntityFactory@VCGameEnd@@@@@8 ; CEntityFactory<CGameEnd>::`RTTI Base Class Descriptor at (0,-1,0,64)'
	DD	01H
	DD	00H
	DD	0ffffffffH
	DD	00H
	DD	040H
	DD	FLAT:??_R3?$CEntityFactory@VCGameEnd@@@@8
rdata$r	ENDS
;	COMDAT ??_R2?$CEntityFactory@VCGameEnd@@@@8
rdata$r	SEGMENT
??_R2?$CEntityFactory@VCGameEnd@@@@8 DD FLAT:??_R1A@?0A@EA@?$CEntityFactory@VCGameEnd@@@@8 ; CEntityFactory<CGameEnd>::`RTTI Base Class Array'
	DD	FLAT:??_R1A@?0A@EA@IEntityFactory@@8
rdata$r	ENDS
;	COMDAT ??_R3?$CEntityFactory@VCGameEnd@@@@8
rdata$r	SEGMENT
??_R3?$CEntityFactory@VCGameEnd@@@@8 DD 00H		; CEntityFactory<CGameEnd>::`RTTI Class Hierarchy Descriptor'
	DD	00H
	DD	02H
	DD	FLAT:??_R2?$CEntityFactory@VCGameEnd@@@@8
rdata$r	ENDS
;	COMDAT ??_R0?AV?$CEntityFactory@VCGameEnd@@@@@8
data$r	SEGMENT
??_R0?AV?$CEntityFactory@VCGameEnd@@@@@8 DD FLAT:??_7type_info@@6B@ ; CEntityFactory<CGameEnd> `RTTI Type Descriptor'
	DD	00H
	DB	'.?AV?$CEntityFactory@VCGameEnd@@@@', 00H
data$r	ENDS
;	COMDAT ??_R4?$CEntityFactory@VCGameEnd@@@@6B@
rdata$r	SEGMENT
??_R4?$CEntityFactory@VCGameEnd@@@@6B@ DD 00H		; CEntityFactory<CGameEnd>::`RTTI Complete Object Locator'
	DD	00H
	DD	00H
	DD	FLAT:??_R0?AV?$CEntityFactory@VCGameEnd@@@@@8
	DD	FLAT:??_R3?$CEntityFactory@VCGameEnd@@@@8
rdata$r	ENDS
;	COMDAT ??_R1A@?0A@EA@CGameEnd@@8
rdata$r	SEGMENT
??_R1A@?0A@EA@CGameEnd@@8 DD FLAT:??_R0?AVCGameEnd@@@8	; CGameEnd::`RTTI Base Class Descriptor at (0,-1,0,64)'
	DD	03H
	DD	00H
	DD	0ffffffffH
	DD	00H
	DD	040H
	DD	FLAT:??_R3CGameEnd@@8
rdata$r	ENDS
;	COMDAT ??_R2CGameEnd@@8
rdata$r	SEGMENT
??_R2CGameEnd@@8 DD FLAT:??_R1A@?0A@EA@CGameEnd@@8	; CGameEnd::`RTTI Base Class Array'
	DD	FLAT:??_R1A@?0A@EA@CRulePointEntity@@8
	DD	FLAT:??_R1A@?0A@EA@CRuleEntity@@8
	DD	FLAT:??_R1A@?0A@EA@CBaseEntity@@8
rdata$r	ENDS
;	COMDAT ??_R3CGameEnd@@8
rdata$r	SEGMENT
??_R3CGameEnd@@8 DD 00H					; CGameEnd::`RTTI Class Hierarchy Descriptor'
	DD	00H
	DD	04H
	DD	FLAT:??_R2CGameEnd@@8
rdata$r	ENDS
;	COMDAT ??_R0?AVCGameEnd@@@8
data$r	SEGMENT
??_R0?AVCGameEnd@@@8 DD FLAT:??_7type_info@@6B@		; CGameEnd `RTTI Type Descriptor'
	DD	00H
	DB	'.?AVCGameEnd@@', 00H
data$r	ENDS
;	COMDAT ??_R4CGameEnd@@6B@
rdata$r	SEGMENT
??_R4CGameEnd@@6B@ DD 00H				; CGameEnd::`RTTI Complete Object Locator'
	DD	00H
	DD	00H
	DD	FLAT:??_R0?AVCGameEnd@@@8
	DD	FLAT:??_R3CGameEnd@@8
rdata$r	ENDS
;	COMDAT ??_R1A@?0A@EA@?$CEntityFactory@VCGameScore@@@@8
rdata$r	SEGMENT
??_R1A@?0A@EA@?$CEntityFactory@VCGameScore@@@@8 DD FLAT:??_R0?AV?$CEntityFactory@VCGameScore@@@@@8 ; CEntityFactory<CGameScore>::`RTTI Base Class Descriptor at (0,-1,0,64)'
	DD	01H
	DD	00H
	DD	0ffffffffH
	DD	00H
	DD	040H
	DD	FLAT:??_R3?$CEntityFactory@VCGameScore@@@@8
rdata$r	ENDS
;	COMDAT ??_R2?$CEntityFactory@VCGameScore@@@@8
rdata$r	SEGMENT
??_R2?$CEntityFactory@VCGameScore@@@@8 DD FLAT:??_R1A@?0A@EA@?$CEntityFactory@VCGameScore@@@@8 ; CEntityFactory<CGameScore>::`RTTI Base Class Array'
	DD	FLAT:??_R1A@?0A@EA@IEntityFactory@@8
rdata$r	ENDS
;	COMDAT ??_R3?$CEntityFactory@VCGameScore@@@@8
rdata$r	SEGMENT
??_R3?$CEntityFactory@VCGameScore@@@@8 DD 00H		; CEntityFactory<CGameScore>::`RTTI Class Hierarchy Descriptor'
	DD	00H
	DD	02H
	DD	FLAT:??_R2?$CEntityFactory@VCGameScore@@@@8
rdata$r	ENDS
;	COMDAT ??_R0?AV?$CEntityFactory@VCGameScore@@@@@8
data$r	SEGMENT
??_R0?AV?$CEntityFactory@VCGameScore@@@@@8 DD FLAT:??_7type_info@@6B@ ; CEntityFactory<CGameScore> `RTTI Type Descriptor'
	DD	00H
	DB	'.?AV?$CEntityFactory@VCGameScore@@@@', 00H
data$r	ENDS
;	COMDAT ??_R4?$CEntityFactory@VCGameScore@@@@6B@
rdata$r	SEGMENT
??_R4?$CEntityFactory@VCGameScore@@@@6B@ DD 00H		; CEntityFactory<CGameScore>::`RTTI Complete Object Locator'
	DD	00H
	DD	00H
	DD	FLAT:??_R0?AV?$CEntityFactory@VCGameScore@@@@@8
	DD	FLAT:??_R3?$CEntityFactory@VCGameScore@@@@8
rdata$r	ENDS
;	COMDAT ??_R1A@?0A@EA@CGameScore@@8
rdata$r	SEGMENT
??_R1A@?0A@EA@CGameScore@@8 DD FLAT:??_R0?AVCGameScore@@@8 ; CGameScore::`RTTI Base Class Descriptor at (0,-1,0,64)'
	DD	03H
	DD	00H
	DD	0ffffffffH
	DD	00H
	DD	040H
	DD	FLAT:??_R3CGameScore@@8
rdata$r	ENDS
;	COMDAT ??_R2CGameScore@@8
rdata$r	SEGMENT
??_R2CGameScore@@8 DD FLAT:??_R1A@?0A@EA@CGameScore@@8	; CGameScore::`RTTI Base Class Array'
	DD	FLAT:??_R1A@?0A@EA@CRulePointEntity@@8
	DD	FLAT:??_R1A@?0A@EA@CRuleEntity@@8
	DD	FLAT:??_R1A@?0A@EA@CBaseEntity@@8
rdata$r	ENDS
;	COMDAT ??_R3CGameScore@@8
rdata$r	SEGMENT
??_R3CGameScore@@8 DD 00H				; CGameScore::`RTTI Class Hierarchy Descriptor'
	DD	00H
	DD	04H
	DD	FLAT:??_R2CGameScore@@8
rdata$r	ENDS
;	COMDAT ??_R0?AVCGameScore@@@8
data$r	SEGMENT
??_R0?AVCGameScore@@@8 DD FLAT:??_7type_info@@6B@	; CGameScore `RTTI Type Descriptor'
	DD	00H
	DB	'.?AVCGameScore@@', 00H
data$r	ENDS
;	COMDAT ??_R4CGameScore@@6B@
rdata$r	SEGMENT
??_R4CGameScore@@6B@ DD 00H				; CGameScore::`RTTI Complete Object Locator'
	DD	00H
	DD	00H
	DD	FLAT:??_R0?AVCGameScore@@@8
	DD	FLAT:??_R3CGameScore@@8
rdata$r	ENDS
;	COMDAT ??_R1A@?0A@EA@CRuleBrushEntity@@8
rdata$r	SEGMENT
??_R1A@?0A@EA@CRuleBrushEntity@@8 DD FLAT:??_R0?AVCRuleBrushEntity@@@8 ; CRuleBrushEntity::`RTTI Base Class Descriptor at (0,-1,0,64)'
	DD	02H
	DD	00H
	DD	0ffffffffH
	DD	00H
	DD	040H
	DD	FLAT:??_R3CRuleBrushEntity@@8
rdata$r	ENDS
;	COMDAT ??_R2CRuleBrushEntity@@8
rdata$r	SEGMENT
??_R2CRuleBrushEntity@@8 DD FLAT:??_R1A@?0A@EA@CRuleBrushEntity@@8 ; CRuleBrushEntity::`RTTI Base Class Array'
	DD	FLAT:??_R1A@?0A@EA@CRuleEntity@@8
	DD	FLAT:??_R1A@?0A@EA@CBaseEntity@@8
rdata$r	ENDS
;	COMDAT ??_R3CRuleBrushEntity@@8
rdata$r	SEGMENT
??_R3CRuleBrushEntity@@8 DD 00H				; CRuleBrushEntity::`RTTI Class Hierarchy Descriptor'
	DD	00H
	DD	03H
	DD	FLAT:??_R2CRuleBrushEntity@@8
rdata$r	ENDS
;	COMDAT ??_R0?AVCRuleBrushEntity@@@8
data$r	SEGMENT
??_R0?AVCRuleBrushEntity@@@8 DD FLAT:??_7type_info@@6B@	; CRuleBrushEntity `RTTI Type Descriptor'
	DD	00H
	DB	'.?AVCRuleBrushEntity@@', 00H
data$r	ENDS
;	COMDAT ??_R4CRuleBrushEntity@@6B@
rdata$r	SEGMENT
??_R4CRuleBrushEntity@@6B@ DD 00H			; CRuleBrushEntity::`RTTI Complete Object Locator'
	DD	00H
	DD	00H
	DD	FLAT:??_R0?AVCRuleBrushEntity@@@8
	DD	FLAT:??_R3CRuleBrushEntity@@8
rdata$r	ENDS
;	COMDAT ??_R1A@?0A@EA@CRulePointEntity@@8
rdata$r	SEGMENT
??_R1A@?0A@EA@CRulePointEntity@@8 DD FLAT:??_R0?AVCRulePointEntity@@@8 ; CRulePointEntity::`RTTI Base Class Descriptor at (0,-1,0,64)'
	DD	02H
	DD	00H
	DD	0ffffffffH
	DD	00H
	DD	040H
	DD	FLAT:??_R3CRulePointEntity@@8
rdata$r	ENDS
;	COMDAT ??_R2CRulePointEntity@@8
rdata$r	SEGMENT
??_R2CRulePointEntity@@8 DD FLAT:??_R1A@?0A@EA@CRulePointEntity@@8 ; CRulePointEntity::`RTTI Base Class Array'
	DD	FLAT:??_R1A@?0A@EA@CRuleEntity@@8
	DD	FLAT:??_R1A@?0A@EA@CBaseEntity@@8
rdata$r	ENDS
;	COMDAT ??_R3CRulePointEntity@@8
rdata$r	SEGMENT
??_R3CRulePointEntity@@8 DD 00H				; CRulePointEntity::`RTTI Class Hierarchy Descriptor'
	DD	00H
	DD	03H
	DD	FLAT:??_R2CRulePointEntity@@8
rdata$r	ENDS
;	COMDAT ??_R0?AVCRulePointEntity@@@8
data$r	SEGMENT
??_R0?AVCRulePointEntity@@@8 DD FLAT:??_7type_info@@6B@	; CRulePointEntity `RTTI Type Descriptor'
	DD	00H
	DB	'.?AVCRulePointEntity@@', 00H
data$r	ENDS
;	COMDAT ??_R4CRulePointEntity@@6B@
rdata$r	SEGMENT
??_R4CRulePointEntity@@6B@ DD 00H			; CRulePointEntity::`RTTI Complete Object Locator'
	DD	00H
	DD	00H
	DD	FLAT:??_R0?AVCRulePointEntity@@@8
	DD	FLAT:??_R3CRulePointEntity@@8
rdata$r	ENDS
;	COMDAT ??_R1A@?0A@EA@CRuleEntity@@8
rdata$r	SEGMENT
??_R1A@?0A@EA@CRuleEntity@@8 DD FLAT:??_R0?AVCRuleEntity@@@8 ; CRuleEntity::`RTTI Base Class Descriptor at (0,-1,0,64)'
	DD	01H
	DD	00H
	DD	0ffffffffH
	DD	00H
	DD	040H
	DD	FLAT:??_R3CRuleEntity@@8
rdata$r	ENDS
;	COMDAT ??_R2CRuleEntity@@8
rdata$r	SEGMENT
??_R2CRuleEntity@@8 DD FLAT:??_R1A@?0A@EA@CRuleEntity@@8 ; CRuleEntity::`RTTI Base Class Array'
	DD	FLAT:??_R1A@?0A@EA@CBaseEntity@@8
rdata$r	ENDS
;	COMDAT ??_R3CRuleEntity@@8
rdata$r	SEGMENT
??_R3CRuleEntity@@8 DD 00H				; CRuleEntity::`RTTI Class Hierarchy Descriptor'
	DD	00H
	DD	02H
	DD	FLAT:??_R2CRuleEntity@@8
rdata$r	ENDS
;	COMDAT ??_R0?AVCRuleEntity@@@8
data$r	SEGMENT
??_R0?AVCRuleEntity@@@8 DD FLAT:??_7type_info@@6B@	; CRuleEntity `RTTI Type Descriptor'
	DD	00H
	DB	'.?AVCRuleEntity@@', 00H
data$r	ENDS
;	COMDAT ??_R4CRuleEntity@@6B@
rdata$r	SEGMENT
??_R4CRuleEntity@@6B@ DD 00H				; CRuleEntity::`RTTI Complete Object Locator'
	DD	00H
	DD	00H
	DD	FLAT:??_R0?AVCRuleEntity@@@8
	DD	FLAT:??_R3CRuleEntity@@8
rdata$r	ENDS
;	COMDAT ??_R1A@?0A@EA@IEntityFactory@@8
rdata$r	SEGMENT
??_R1A@?0A@EA@IEntityFactory@@8 DD FLAT:??_R0?AVIEntityFactory@@@8 ; IEntityFactory::`RTTI Base Class Descriptor at (0,-1,0,64)'
	DD	00H
	DD	00H
	DD	0ffffffffH
	DD	00H
	DD	040H
	DD	FLAT:??_R3IEntityFactory@@8
rdata$r	ENDS
;	COMDAT ??_R2IEntityFactory@@8
rdata$r	SEGMENT
??_R2IEntityFactory@@8 DD FLAT:??_R1A@?0A@EA@IEntityFactory@@8 ; IEntityFactory::`RTTI Base Class Array'
rdata$r	ENDS
;	COMDAT ??_R3IEntityFactory@@8
rdata$r	SEGMENT
??_R3IEntityFactory@@8 DD 00H				; IEntityFactory::`RTTI Class Hierarchy Descriptor'
	DD	00H
	DD	01H
	DD	FLAT:??_R2IEntityFactory@@8
rdata$r	ENDS
;	COMDAT ??_R0?AVIEntityFactory@@@8
data$r	SEGMENT
??_R0?AVIEntityFactory@@@8 DD FLAT:??_7type_info@@6B@	; IEntityFactory `RTTI Type Descriptor'
	DD	00H
	DB	'.?AVIEntityFactory@@', 00H
data$r	ENDS
;	COMDAT ??_R4IEntityFactory@@6B@
rdata$r	SEGMENT
??_R4IEntityFactory@@6B@ DD 00H				; IEntityFactory::`RTTI Complete Object Locator'
	DD	00H
	DD	00H
	DD	FLAT:??_R0?AVIEntityFactory@@@8
	DD	FLAT:??_R3IEntityFactory@@8
rdata$r	ENDS
;	COMDAT ??_R1A@?0A@EA@CBaseEntity@@8
rdata$r	SEGMENT
??_R1A@?0A@EA@CBaseEntity@@8 DD FLAT:??_R0?AVCBaseEntity@@@8 ; CBaseEntity::`RTTI Base Class Descriptor at (0,-1,0,64)'
	DD	00H
	DD	00H
	DD	0ffffffffH
	DD	00H
	DD	040H
	DD	FLAT:??_R3CBaseEntity@@8
rdata$r	ENDS
;	COMDAT ??_R2CBaseEntity@@8
rdata$r	SEGMENT
??_R2CBaseEntity@@8 DD FLAT:??_R1A@?0A@EA@CBaseEntity@@8 ; CBaseEntity::`RTTI Base Class Array'
rdata$r	ENDS
;	COMDAT ??_R3CBaseEntity@@8
rdata$r	SEGMENT
??_R3CBaseEntity@@8 DD 00H				; CBaseEntity::`RTTI Class Hierarchy Descriptor'
	DD	00H
	DD	01H
	DD	FLAT:??_R2CBaseEntity@@8
rdata$r	ENDS
;	COMDAT ??_R0?AVCBaseEntity@@@8
data$r	SEGMENT
??_R0?AVCBaseEntity@@@8 DD FLAT:??_7type_info@@6B@	; CBaseEntity `RTTI Type Descriptor'
	DD	00H
	DB	'.?AVCBaseEntity@@', 00H
data$r	ENDS
;	COMDAT ??_R4CBaseEntity@@6B@
rdata$r	SEGMENT
??_R4CBaseEntity@@6B@ DD 00H				; CBaseEntity::`RTTI Complete Object Locator'
	DD	00H
	DD	00H
	DD	FLAT:??_R0?AVCBaseEntity@@@8
	DD	FLAT:??_R3CBaseEntity@@8
rdata$r	ENDS
;	COMDAT ??_C@_1BM@CKILBAKK@?$AAI?$AAs?$AAI?$AAd?$AAx?$AAV?$AAa?$AAl?$AAi?$AAd?$AA?$CI?$AAi?$AA?$CJ@
CONST	SEGMENT
??_C@_1BM@CKILBAKK@?$AAI?$AAs?$AAI?$AAd?$AAx?$AAV?$AAa?$AAl?$AAi?$AAd?$AA?$CI?$AAi?$AA?$CJ@ DB 'I'
	DB	00H, 's', 00H, 'I', 00H, 'd', 00H, 'x', 00H, 'V', 00H, 'a', 00H
	DB	'l', 00H, 'i', 00H, 'd', 00H, '(', 00H, 'i', 00H, ')', 00H, 00H
	DB	00H						; `string'
CONST	ENDS
;	COMDAT ??_C@_1BM@PFNFCCHH@?$AA?$CB?$AAI?$AAs?$AAR?$AAe?$AAa?$AAd?$AAO?$AAn?$AAl?$AAy?$AA?$CI?$AA?$CJ@
CONST	SEGMENT
??_C@_1BM@PFNFCCHH@?$AA?$CB?$AAI?$AAs?$AAR?$AAe?$AAa?$AAd?$AAO?$AAn?$AAl?$AAy?$AA?$CI?$AA?$CJ@ DB '!'
	DB	00H, 'I', 00H, 's', 00H, 'R', 00H, 'e', 00H, 'a', 00H, 'd', 00H
	DB	'O', 00H, 'n', 00H, 'l', 00H, 'y', 00H, '(', 00H, ')', 00H, 00H
	DB	00H						; `string'
CONST	ENDS
;	COMDAT ??_C@_1MO@LCPOAHHB@?$AAc?$AA?3?$AA?2?$AAu?$AAs?$AAe?$AAr?$AAs?$AA?2?$AAu?$AAs?$AAe?$AAr?$AA?2?$AAd@
CONST	SEGMENT
??_C@_1MO@LCPOAHHB@?$AAc?$AA?3?$AA?2?$AAu?$AAs?$AAe?$AAr?$AAs?$AA?2?$AAu?$AAs?$AAe?$AAr?$AA?2?$AAd@ DB 'c'
	DB	00H, ':', 00H, '\', 00H, 'u', 00H, 's', 00H, 'e', 00H, 'r', 00H
	DB	's', 00H, '\', 00H, 'u', 00H, 's', 00H, 'e', 00H, 'r', 00H, '\'
	DB	00H, 'd', 00H, 'o', 00H, 'w', 00H, 'n', 00H, 'l', 00H, 'o', 00H
	DB	'a', 00H, 'd', 00H, 's', 00H, '\', 00H, 'x', 00H, 'a', 00H, 's'
	DB	00H, 'h', 00H, 'x', 00H, 't', 00H, '_', 00H, 'v', 00H, '0', 00H
	DB	'.', 00H, '8', 00H, '1', 00H, '_', 00H, 'r', 00H, 'e', 00H, 'v'
	DB	00H, '.', 00H, '1', 00H, '_', 00H, 'w', 00H, 'i', 00H, 't', 00H
	DB	'h', 00H, '_', 00H, 's', 00H, 'o', 00H, 'u', 00H, 'r', 00H, 'c'
	DB	00H, 'e', 00H, 's', 00H, '\', 00H, 'x', 00H, 'a', 00H, 's', 00H
	DB	'h', 00H, 'x', 00H, 't', 00H, '_', 00H, 'v', 00H, '0', 00H, '.'
	DB	00H, '8', 00H, '1', 00H, '_', 00H, 'r', 00H, 'e', 00H, 'v', 00H
	DB	'.', 00H, '1', 00H, '_', 00H, 's', 00H, 'r', 00H, 'c', 00H, '\'
	DB	00H, 'g', 00H, 'a', 00H, 'm', 00H, 'e', 00H, '_', 00H, 's', 00H
	DB	'h', 00H, 'a', 00H, 'r', 00H, 'e', 00H, 'd', 00H, '\', 00H, 'u'
	DB	00H, 't', 00H, 'l', 00H, 'm', 00H, 'e', 00H, 'm', 00H, 'o', 00H
	DB	'r', 00H, 'y', 00H, '.', 00H, 'h', 00H, 00H, 00H ; `string'
CONST	ENDS
;	COMDAT ??_7?$CEntityFactory@VCGamePlayerTeam@@@@6B@
CONST	SEGMENT
??_7?$CEntityFactory@VCGamePlayerTeam@@@@6B@ DD FLAT:??_R4?$CEntityFactory@VCGamePlayerTeam@@@@6B@ ; CEntityFactory<CGamePlayerTeam>::`vftable'
	DD	FLAT:?Create@?$CEntityFactory@VCGamePlayerTeam@@@@UAEPAVCBaseEntity@@PBDPAUentvars_s@@@Z
	DD	FLAT:?Destroy@?$CEntityFactory@VCGamePlayerTeam@@@@UAEXPAVCBaseEntity@@@Z
	DD	FLAT:?GetEntitySize@?$CEntityFactory@VCGamePlayerTeam@@@@UAEIXZ
CONST	ENDS
;	COMDAT ??_7CGamePlayerTeam@@6B@
CONST	SEGMENT
??_7CGamePlayerTeam@@6B@ DD FLAT:??_R4CGamePlayerTeam@@6B@ ; CGamePlayerTeam::`vftable'
	DD	FLAT:?GetDataDescMap@CRuleEntity@@UAEPAUdatamap_s@@XZ
	DD	FLAT:?Spawn@CRulePointEntity@@UAEXXZ
	DD	FLAT:?Precache@CBaseEntity@@UAEXXZ
	DD	FLAT:?KeyValue@CRuleEntity@@UAEXPAUKeyValueData_s@@@Z
	DD	FLAT:?Save@CBaseEntity@@UAEHAAVCSave@@@Z
	DD	FLAT:?Restore@CBaseEntity@@UAEHAAVCRestore@@@Z
	DD	FLAT:?ObjectCaps@CBaseEntity@@UAEHXZ
	DD	FLAT:?Activate@CBaseEntity@@UAEXXZ
	DD	FLAT:?OnChangeLevel@CBaseEntity@@UAEXXZ
	DD	FLAT:?OnTeleport@CBaseEntity@@UAEXXZ
	DD	FLAT:?PortalSleep@CBaseEntity@@UAEXM@Z
	DD	FLAT:?StartMessage@CBaseEntity@@UAEXPAVCBasePlayer@@@Z
	DD	FLAT:?GetPosition@CBaseEntity@@UAEMXZ
	DD	FLAT:?OnChangeParent@CBaseEntity@@UAEXXZ
	DD	FLAT:?OnClearParent@CBaseEntity@@UAEXXZ
	DD	FLAT:?OnRemove@CBaseEntity@@UAEXXZ
	DD	FLAT:?SetObjectCollisionBox@CBaseEntity@@UAEXXZ
	DD	FLAT:?Classify@CBaseEntity@@UAEHXZ
	DD	FLAT:?DeathNotice@CBaseEntity@@UAEXPAUentvars_s@@@Z
	DD	FLAT:?IsRigidBody@CBaseEntity@@UAEHXZ
	DD	FLAT:?SetNextThink@CBaseEntity@@UAEXM@Z
	DD	FLAT:?GetState@CBaseEntity@@UAE?AW4STATE@@PAV1@@Z
	DD	FLAT:?GetState@CBaseEntity@@UAE?AW4STATE@@XZ
	DD	FLAT:?TraceAttack@CBaseEntity@@UAEXPAUentvars_s@@MVVector@@PAUgametrace_s@@H@Z
	DD	FLAT:?TakeDamage@CBaseEntity@@UAEHPAUentvars_s@@0MH@Z
	DD	FLAT:?TakeHealth@CBaseEntity@@UAEHMH@Z
	DD	FLAT:?TakeArmor@CBaseEntity@@UAEHMH@Z
	DD	FLAT:?Killed@CBaseEntity@@UAEXPAUentvars_s@@H@Z
	DD	FLAT:?BloodColor@CBaseEntity@@UAEHXZ
	DD	FLAT:?TraceBleed@CBaseEntity@@UAEXMVVector@@PAUgametrace_s@@H@Z
	DD	FLAT:?IsTriggered@CBaseEntity@@UAEHPAV1@@Z
	DD	FLAT:?MyMonsterPointer@CBaseEntity@@UAEPAVCBaseMonster@@XZ
	DD	FLAT:?MySquadMonsterPointer@CBaseEntity@@UAEPAVCSquadMonster@@XZ
	DD	FLAT:?GetToggleState@CBaseEntity@@UAEHXZ
	DD	FLAT:?AddPoints@CBaseEntity@@UAEXHH@Z
	DD	FLAT:?AddPointsToTeam@CBaseEntity@@UAEXHH@Z
	DD	FLAT:?AddPlayerItem@CBaseEntity@@UAEHPAVCBasePlayerItem@@@Z
	DD	FLAT:?RemovePlayerItem@CBaseEntity@@UAEHPAVCBasePlayerItem@@@Z
	DD	FLAT:?GiveAmmo@CBaseEntity@@UAEHHPADH@Z
	DD	FLAT:?GetDelay@CBaseEntity@@UAEMXZ
	DD	FLAT:?IsMoving@CBaseEntity@@UAEHXZ
	DD	FLAT:?OverrideReset@CBaseEntity@@UAEXXZ
	DD	FLAT:?TransferReset@CBaseEntity@@UAEXXZ
	DD	FLAT:?DamageDecal@CBaseEntity@@UAEHH@Z
	DD	FLAT:?SetToggleState@CBaseEntity@@UAEXH@Z
	DD	FLAT:?StartSneaking@CBaseEntity@@UAEXXZ
	DD	FLAT:?StopSneaking@CBaseEntity@@UAEXXZ
	DD	FLAT:?OnControls@CBaseEntity@@UAEHPAV1@@Z
	DD	FLAT:?IsSneaking@CBaseEntity@@UAEHXZ
	DD	FLAT:?IsAlive@CBaseEntity@@UAEHXZ
	DD	FLAT:?IsBSPModel@CBaseEntity@@UAEHXZ
	DD	FLAT:?IsCustomModel@CBaseEntity@@UAEHXZ
	DD	FLAT:?ReflectGauss@CBaseEntity@@UAEHXZ
	DD	FLAT:?HasTarget@CBaseEntity@@UAEHH@Z
	DD	FLAT:?IsInWorld@CBaseEntity@@UAEHH@Z
	DD	FLAT:?IsPlayer@CBaseEntity@@UAEHXZ
	DD	FLAT:?IsNetClient@CBaseEntity@@UAEHXZ
	DD	FLAT:?IsMonster@CBaseEntity@@UAEHXZ
	DD	FLAT:?IsPushable@CBaseEntity@@UAEHXZ
	DD	FLAT:?IsProjectile@CBaseEntity@@UAEHXZ
	DD	FLAT:?IsFuncScreen@CBaseEntity@@UAEHXZ
	DD	FLAT:?IsPortal@CBaseEntity@@UAEHXZ
	DD	FLAT:?IsTank@CBaseEntity@@UAEHXZ
	DD	FLAT:?IsMover@CBaseEntity@@UAEHXZ
	DD	FLAT:?IsBreakable@CBaseEntity@@UAEHXZ
	DD	FLAT:?TeamID@CBaseEntity@@UAEPBDXZ
	DD	FLAT:?GetNextTarget@CBaseEntity@@UAEPAV1@XZ
	DD	FLAT:?Think@CBaseEntity@@UAEXXZ
	DD	FLAT:?Use@CGamePlayerTeam@@UAEXPAVCBaseEntity@@0W4USE_TYPE@@M@Z
	DD	FLAT:?Touch@CBaseEntity@@UAEXPAV1@@Z
	DD	FLAT:?Blocked@CBaseEntity@@UAEXPAV1@@Z
	DD	FLAT:?MoveDone@CBaseEntity@@UAEXXZ
	DD	FLAT:?Respawn@CBaseEntity@@UAEPAV1@XZ
	DD	FLAT:?UpdateOwner@CBaseEntity@@UAEXXZ
	DD	FLAT:?FBecomeProne@CBaseEntity@@UAEHXZ
	DD	FLAT:?Center@CBaseEntity@@UAE?AVVector@@XZ
	DD	FLAT:?EyePosition@CBaseEntity@@UAE?AVVector@@XZ
	DD	FLAT:?EarPosition@CBaseEntity@@UAE?AVVector@@XZ
	DD	FLAT:?BodyTarget@CBaseEntity@@UAE?AVVector@@ABV2@@Z
	DD	FLAT:?IsPointSized@CBaseEntity@@UBEHXZ
	DD	FLAT:?Illumination@CBaseEntity@@UAEHXZ
	DD	FLAT:?FVisible@CBaseEntity@@UAEHABVVector@@@Z
	DD	FLAT:?FVisible@CBaseEntity@@UAEHPAV1@@Z
	DD	FLAT:?ShouldCollide@CBaseEntity@@UAEHPAV1@@Z
CONST	ENDS
;	COMDAT ??_7?$CEntityFactory@VCGamePlayerEquip@@@@6B@
CONST	SEGMENT
??_7?$CEntityFactory@VCGamePlayerEquip@@@@6B@ DD FLAT:??_R4?$CEntityFactory@VCGamePlayerEquip@@@@6B@ ; CEntityFactory<CGamePlayerEquip>::`vftable'
	DD	FLAT:?Create@?$CEntityFactory@VCGamePlayerEquip@@@@UAEPAVCBaseEntity@@PBDPAUentvars_s@@@Z
	DD	FLAT:?Destroy@?$CEntityFactory@VCGamePlayerEquip@@@@UAEXPAVCBaseEntity@@@Z
	DD	FLAT:?GetEntitySize@?$CEntityFactory@VCGamePlayerEquip@@@@UAEIXZ
CONST	ENDS
;	COMDAT ??_7CGamePlayerEquip@@6B@
CONST	SEGMENT
??_7CGamePlayerEquip@@6B@ DD FLAT:??_R4CGamePlayerEquip@@6B@ ; CGamePlayerEquip::`vftable'
	DD	FLAT:?GetDataDescMap@CRuleEntity@@UAEPAUdatamap_s@@XZ
	DD	FLAT:?Spawn@CRulePointEntity@@UAEXXZ
	DD	FLAT:?Precache@CBaseEntity@@UAEXXZ
	DD	FLAT:?KeyValue@CGamePlayerEquip@@UAEXPAUKeyValueData_s@@@Z
	DD	FLAT:?Save@CBaseEntity@@UAEHAAVCSave@@@Z
	DD	FLAT:?Restore@CBaseEntity@@UAEHAAVCRestore@@@Z
	DD	FLAT:?ObjectCaps@CBaseEntity@@UAEHXZ
	DD	FLAT:?Activate@CBaseEntity@@UAEXXZ
	DD	FLAT:?OnChangeLevel@CBaseEntity@@UAEXXZ
	DD	FLAT:?OnTeleport@CBaseEntity@@UAEXXZ
	DD	FLAT:?PortalSleep@CBaseEntity@@UAEXM@Z
	DD	FLAT:?StartMessage@CBaseEntity@@UAEXPAVCBasePlayer@@@Z
	DD	FLAT:?GetPosition@CBaseEntity@@UAEMXZ
	DD	FLAT:?OnChangeParent@CBaseEntity@@UAEXXZ
	DD	FLAT:?OnClearParent@CBaseEntity@@UAEXXZ
	DD	FLAT:?OnRemove@CBaseEntity@@UAEXXZ
	DD	FLAT:?SetObjectCollisionBox@CBaseEntity@@UAEXXZ
	DD	FLAT:?Classify@CBaseEntity@@UAEHXZ
	DD	FLAT:?DeathNotice@CBaseEntity@@UAEXPAUentvars_s@@@Z
	DD	FLAT:?IsRigidBody@CBaseEntity@@UAEHXZ
	DD	FLAT:?SetNextThink@CBaseEntity@@UAEXM@Z
	DD	FLAT:?GetState@CBaseEntity@@UAE?AW4STATE@@PAV1@@Z
	DD	FLAT:?GetState@CBaseEntity@@UAE?AW4STATE@@XZ
	DD	FLAT:?TraceAttack@CBaseEntity@@UAEXPAUentvars_s@@MVVector@@PAUgametrace_s@@H@Z
	DD	FLAT:?TakeDamage@CBaseEntity@@UAEHPAUentvars_s@@0MH@Z
	DD	FLAT:?TakeHealth@CBaseEntity@@UAEHMH@Z
	DD	FLAT:?TakeArmor@CBaseEntity@@UAEHMH@Z
	DD	FLAT:?Killed@CBaseEntity@@UAEXPAUentvars_s@@H@Z
	DD	FLAT:?BloodColor@CBaseEntity@@UAEHXZ
	DD	FLAT:?TraceBleed@CBaseEntity@@UAEXMVVector@@PAUgametrace_s@@H@Z
	DD	FLAT:?IsTriggered@CBaseEntity@@UAEHPAV1@@Z
	DD	FLAT:?MyMonsterPointer@CBaseEntity@@UAEPAVCBaseMonster@@XZ
	DD	FLAT:?MySquadMonsterPointer@CBaseEntity@@UAEPAVCSquadMonster@@XZ
	DD	FLAT:?GetToggleState@CBaseEntity@@UAEHXZ
	DD	FLAT:?AddPoints@CBaseEntity@@UAEXHH@Z
	DD	FLAT:?AddPointsToTeam@CBaseEntity@@UAEXHH@Z
	DD	FLAT:?AddPlayerItem@CBaseEntity@@UAEHPAVCBasePlayerItem@@@Z
	DD	FLAT:?RemovePlayerItem@CBaseEntity@@UAEHPAVCBasePlayerItem@@@Z
	DD	FLAT:?GiveAmmo@CBaseEntity@@UAEHHPADH@Z
	DD	FLAT:?GetDelay@CBaseEntity@@UAEMXZ
	DD	FLAT:?IsMoving@CBaseEntity@@UAEHXZ
	DD	FLAT:?OverrideReset@CBaseEntity@@UAEXXZ
	DD	FLAT:?TransferReset@CBaseEntity@@UAEXXZ
	DD	FLAT:?DamageDecal@CBaseEntity@@UAEHH@Z
	DD	FLAT:?SetToggleState@CBaseEntity@@UAEXH@Z
	DD	FLAT:?StartSneaking@CBaseEntity@@UAEXXZ
	DD	FLAT:?StopSneaking@CBaseEntity@@UAEXXZ
	DD	FLAT:?OnControls@CBaseEntity@@UAEHPAV1@@Z
	DD	FLAT:?IsSneaking@CBaseEntity@@UAEHXZ
	DD	FLAT:?IsAlive@CBaseEntity@@UAEHXZ
	DD	FLAT:?IsBSPModel@CBaseEntity@@UAEHXZ
	DD	FLAT:?IsCustomModel@CBaseEntity@@UAEHXZ
	DD	FLAT:?ReflectGauss@CBaseEntity@@UAEHXZ
	DD	FLAT:?HasTarget@CBaseEntity@@UAEHH@Z
	DD	FLAT:?IsInWorld@CBaseEntity@@UAEHH@Z
	DD	FLAT:?IsPlayer@CBaseEntity@@UAEHXZ
	DD	FLAT:?IsNetClient@CBaseEntity@@UAEHXZ
	DD	FLAT:?IsMonster@CBaseEntity@@UAEHXZ
	DD	FLAT:?IsPushable@CBaseEntity@@UAEHXZ
	DD	FLAT:?IsProjectile@CBaseEntity@@UAEHXZ
	DD	FLAT:?IsFuncScreen@CBaseEntity@@UAEHXZ
	DD	FLAT:?IsPortal@CBaseEntity@@UAEHXZ
	DD	FLAT:?IsTank@CBaseEntity@@UAEHXZ
	DD	FLAT:?IsMover@CBaseEntity@@UAEHXZ
	DD	FLAT:?IsBreakable@CBaseEntity@@UAEHXZ
	DD	FLAT:?TeamID@CBaseEntity@@UAEPBDXZ
	DD	FLAT:?GetNextTarget@CBaseEntity@@UAEPAV1@XZ
	DD	FLAT:?Think@CBaseEntity@@UAEXXZ
	DD	FLAT:?Use@CGamePlayerEquip@@UAEXPAVCBaseEntity@@0W4USE_TYPE@@M@Z
	DD	FLAT:?Touch@CGamePlayerEquip@@UAEXPAVCBaseEntity@@@Z
	DD	FLAT:?Blocked@CBaseEntity@@UAEXPAV1@@Z
	DD	FLAT:?MoveDone@CBaseEntity@@UAEXXZ
	DD	FLAT:?Respawn@CBaseEntity@@UAEPAV1@XZ
	DD	FLAT:?UpdateOwner@CBaseEntity@@UAEXXZ
	DD	FLAT:?FBecomeProne@CBaseEntity@@UAEHXZ
	DD	FLAT:?Center@CBaseEntity@@UAE?AVVector@@XZ
	DD	FLAT:?EyePosition@CBaseEntity@@UAE?AVVector@@XZ
	DD	FLAT:?EarPosition@CBaseEntity@@UAE?AVVector@@XZ
	DD	FLAT:?BodyTarget@CBaseEntity@@UAE?AVVector@@ABV2@@Z
	DD	FLAT:?IsPointSized@CBaseEntity@@UBEHXZ
	DD	FLAT:?Illumination@CBaseEntity@@UAEHXZ
	DD	FLAT:?FVisible@CBaseEntity@@UAEHABVVector@@@Z
	DD	FLAT:?FVisible@CBaseEntity@@UAEHPAV1@@Z
	DD	FLAT:?ShouldCollide@CBaseEntity@@UAEHPAV1@@Z
CONST	ENDS
;	COMDAT ??_7?$CEntityFactory@VCGameCounterSet@@@@6B@
CONST	SEGMENT
??_7?$CEntityFactory@VCGameCounterSet@@@@6B@ DD FLAT:??_R4?$CEntityFactory@VCGameCounterSet@@@@6B@ ; CEntityFactory<CGameCounterSet>::`vftable'
	DD	FLAT:?Create@?$CEntityFactory@VCGameCounterSet@@@@UAEPAVCBaseEntity@@PBDPAUentvars_s@@@Z
	DD	FLAT:?Destroy@?$CEntityFactory@VCGameCounterSet@@@@UAEXPAVCBaseEntity@@@Z
	DD	FLAT:?GetEntitySize@?$CEntityFactory@VCGameCounterSet@@@@UAEIXZ
CONST	ENDS
;	COMDAT ??_7CGameCounterSet@@6B@
CONST	SEGMENT
??_7CGameCounterSet@@6B@ DD FLAT:??_R4CGameCounterSet@@6B@ ; CGameCounterSet::`vftable'
	DD	FLAT:?GetDataDescMap@CRuleEntity@@UAEPAUdatamap_s@@XZ
	DD	FLAT:?Spawn@CRulePointEntity@@UAEXXZ
	DD	FLAT:?Precache@CBaseEntity@@UAEXXZ
	DD	FLAT:?KeyValue@CRuleEntity@@UAEXPAUKeyValueData_s@@@Z
	DD	FLAT:?Save@CBaseEntity@@UAEHAAVCSave@@@Z
	DD	FLAT:?Restore@CBaseEntity@@UAEHAAVCRestore@@@Z
	DD	FLAT:?ObjectCaps@CBaseEntity@@UAEHXZ
	DD	FLAT:?Activate@CBaseEntity@@UAEXXZ
	DD	FLAT:?OnChangeLevel@CBaseEntity@@UAEXXZ
	DD	FLAT:?OnTeleport@CBaseEntity@@UAEXXZ
	DD	FLAT:?PortalSleep@CBaseEntity@@UAEXM@Z
	DD	FLAT:?StartMessage@CBaseEntity@@UAEXPAVCBasePlayer@@@Z
	DD	FLAT:?GetPosition@CBaseEntity@@UAEMXZ
	DD	FLAT:?OnChangeParent@CBaseEntity@@UAEXXZ
	DD	FLAT:?OnClearParent@CBaseEntity@@UAEXXZ
	DD	FLAT:?OnRemove@CBaseEntity@@UAEXXZ
	DD	FLAT:?SetObjectCollisionBox@CBaseEntity@@UAEXXZ
	DD	FLAT:?Classify@CBaseEntity@@UAEHXZ
	DD	FLAT:?DeathNotice@CBaseEntity@@UAEXPAUentvars_s@@@Z
	DD	FLAT:?IsRigidBody@CBaseEntity@@UAEHXZ
	DD	FLAT:?SetNextThink@CBaseEntity@@UAEXM@Z
	DD	FLAT:?GetState@CBaseEntity@@UAE?AW4STATE@@PAV1@@Z
	DD	FLAT:?GetState@CBaseEntity@@UAE?AW4STATE@@XZ
	DD	FLAT:?TraceAttack@CBaseEntity@@UAEXPAUentvars_s@@MVVector@@PAUgametrace_s@@H@Z
	DD	FLAT:?TakeDamage@CBaseEntity@@UAEHPAUentvars_s@@0MH@Z
	DD	FLAT:?TakeHealth@CBaseEntity@@UAEHMH@Z
	DD	FLAT:?TakeArmor@CBaseEntity@@UAEHMH@Z
	DD	FLAT:?Killed@CBaseEntity@@UAEXPAUentvars_s@@H@Z
	DD	FLAT:?BloodColor@CBaseEntity@@UAEHXZ
	DD	FLAT:?TraceBleed@CBaseEntity@@UAEXMVVector@@PAUgametrace_s@@H@Z
	DD	FLAT:?IsTriggered@CBaseEntity@@UAEHPAV1@@Z
	DD	FLAT:?MyMonsterPointer@CBaseEntity@@UAEPAVCBaseMonster@@XZ
	DD	FLAT:?MySquadMonsterPointer@CBaseEntity@@UAEPAVCSquadMonster@@XZ
	DD	FLAT:?GetToggleState@CBaseEntity@@UAEHXZ
	DD	FLAT:?AddPoints@CBaseEntity@@UAEXHH@Z
	DD	FLAT:?AddPointsToTeam@CBaseEntity@@UAEXHH@Z
	DD	FLAT:?AddPlayerItem@CBaseEntity@@UAEHPAVCBasePlayerItem@@@Z
	DD	FLAT:?RemovePlayerItem@CBaseEntity@@UAEHPAVCBasePlayerItem@@@Z
	DD	FLAT:?GiveAmmo@CBaseEntity@@UAEHHPADH@Z
	DD	FLAT:?GetDelay@CBaseEntity@@UAEMXZ
	DD	FLAT:?IsMoving@CBaseEntity@@UAEHXZ
	DD	FLAT:?OverrideReset@CBaseEntity@@UAEXXZ
	DD	FLAT:?TransferReset@CBaseEntity@@UAEXXZ
	DD	FLAT:?DamageDecal@CBaseEntity@@UAEHH@Z
	DD	FLAT:?SetToggleState@CBaseEntity@@UAEXH@Z
	DD	FLAT:?StartSneaking@CBaseEntity@@UAEXXZ
	DD	FLAT:?StopSneaking@CBaseEntity@@UAEXXZ
	DD	FLAT:?OnControls@CBaseEntity@@UAEHPAV1@@Z
	DD	FLAT:?IsSneaking@CBaseEntity@@UAEHXZ
	DD	FLAT:?IsAlive@CBaseEntity@@UAEHXZ
	DD	FLAT:?IsBSPModel@CBaseEntity@@UAEHXZ
	DD	FLAT:?IsCustomModel@CBaseEntity@@UAEHXZ
	DD	FLAT:?ReflectGauss@CBaseEntity@@UAEHXZ
	DD	FLAT:?HasTarget@CBaseEntity@@UAEHH@Z
	DD	FLAT:?IsInWorld@CBaseEntity@@UAEHH@Z
	DD	FLAT:?IsPlayer@CBaseEntity@@UAEHXZ
	DD	FLAT:?IsNetClient@CBaseEntity@@UAEHXZ
	DD	FLAT:?IsMonster@CBaseEntity@@UAEHXZ
	DD	FLAT:?IsPushable@CBaseEntity@@UAEHXZ
	DD	FLAT:?IsProjectile@CBaseEntity@@UAEHXZ
	DD	FLAT:?IsFuncScreen@CBaseEntity@@UAEHXZ
	DD	FLAT:?IsPortal@CBaseEntity@@UAEHXZ
	DD	FLAT:?IsTank@CBaseEntity@@UAEHXZ
	DD	FLAT:?IsMover@CBaseEntity@@UAEHXZ
	DD	FLAT:?IsBreakable@CBaseEntity@@UAEHXZ
	DD	FLAT:?TeamID@CBaseEntity@@UAEPBDXZ
	DD	FLAT:?GetNextTarget@CBaseEntity@@UAEPAV1@XZ
	DD	FLAT:?Think@CBaseEntity@@UAEXXZ
	DD	FLAT:?Use@CGameCounterSet@@UAEXPAVCBaseEntity@@0W4USE_TYPE@@M@Z
	DD	FLAT:?Touch@CBaseEntity@@UAEXPAV1@@Z
	DD	FLAT:?Blocked@CBaseEntity@@UAEXPAV1@@Z
	DD	FLAT:?MoveDone@CBaseEntity@@UAEXXZ
	DD	FLAT:?Respawn@CBaseEntity@@UAEPAV1@XZ
	DD	FLAT:?UpdateOwner@CBaseEntity@@UAEXXZ
	DD	FLAT:?FBecomeProne@CBaseEntity@@UAEHXZ
	DD	FLAT:?Center@CBaseEntity@@UAE?AVVector@@XZ
	DD	FLAT:?EyePosition@CBaseEntity@@UAE?AVVector@@XZ
	DD	FLAT:?EarPosition@CBaseEntity@@UAE?AVVector@@XZ
	DD	FLAT:?BodyTarget@CBaseEntity@@UAE?AVVector@@ABV2@@Z
	DD	FLAT:?IsPointSized@CBaseEntity@@UBEHXZ
	DD	FLAT:?Illumination@CBaseEntity@@UAEHXZ
	DD	FLAT:?FVisible@CBaseEntity@@UAEHABVVector@@@Z
	DD	FLAT:?FVisible@CBaseEntity@@UAEHPAV1@@Z
	DD	FLAT:?ShouldCollide@CBaseEntity@@UAEHPAV1@@Z
CONST	ENDS
;	COMDAT ??_7?$CEntityFactory@VCGameCounter@@@@6B@
CONST	SEGMENT
??_7?$CEntityFactory@VCGameCounter@@@@6B@ DD FLAT:??_R4?$CEntityFactory@VCGameCounter@@@@6B@ ; CEntityFactory<CGameCounter>::`vftable'
	DD	FLAT:?Create@?$CEntityFactory@VCGameCounter@@@@UAEPAVCBaseEntity@@PBDPAUentvars_s@@@Z
	DD	FLAT:?Destroy@?$CEntityFactory@VCGameCounter@@@@UAEXPAVCBaseEntity@@@Z
	DD	FLAT:?GetEntitySize@?$CEntityFactory@VCGameCounter@@@@UAEIXZ
CONST	ENDS
;	COMDAT ??_7CGameCounter@@6B@
CONST	SEGMENT
??_7CGameCounter@@6B@ DD FLAT:??_R4CGameCounter@@6B@	; CGameCounter::`vftable'
	DD	FLAT:?GetDataDescMap@CRuleEntity@@UAEPAUdatamap_s@@XZ
	DD	FLAT:?Spawn@CGameCounter@@UAEXXZ
	DD	FLAT:?Precache@CBaseEntity@@UAEXXZ
	DD	FLAT:?KeyValue@CRuleEntity@@UAEXPAUKeyValueData_s@@@Z
	DD	FLAT:?Save@CBaseEntity@@UAEHAAVCSave@@@Z
	DD	FLAT:?Restore@CBaseEntity@@UAEHAAVCRestore@@@Z
	DD	FLAT:?ObjectCaps@CBaseEntity@@UAEHXZ
	DD	FLAT:?Activate@CBaseEntity@@UAEXXZ
	DD	FLAT:?OnChangeLevel@CBaseEntity@@UAEXXZ
	DD	FLAT:?OnTeleport@CBaseEntity@@UAEXXZ
	DD	FLAT:?PortalSleep@CBaseEntity@@UAEXM@Z
	DD	FLAT:?StartMessage@CBaseEntity@@UAEXPAVCBasePlayer@@@Z
	DD	FLAT:?GetPosition@CBaseEntity@@UAEMXZ
	DD	FLAT:?OnChangeParent@CBaseEntity@@UAEXXZ
	DD	FLAT:?OnClearParent@CBaseEntity@@UAEXXZ
	DD	FLAT:?OnRemove@CBaseEntity@@UAEXXZ
	DD	FLAT:?SetObjectCollisionBox@CBaseEntity@@UAEXXZ
	DD	FLAT:?Classify@CBaseEntity@@UAEHXZ
	DD	FLAT:?DeathNotice@CBaseEntity@@UAEXPAUentvars_s@@@Z
	DD	FLAT:?IsRigidBody@CBaseEntity@@UAEHXZ
	DD	FLAT:?SetNextThink@CBaseEntity@@UAEXM@Z
	DD	FLAT:?GetState@CBaseEntity@@UAE?AW4STATE@@PAV1@@Z
	DD	FLAT:?GetState@CBaseEntity@@UAE?AW4STATE@@XZ
	DD	FLAT:?TraceAttack@CBaseEntity@@UAEXPAUentvars_s@@MVVector@@PAUgametrace_s@@H@Z
	DD	FLAT:?TakeDamage@CBaseEntity@@UAEHPAUentvars_s@@0MH@Z
	DD	FLAT:?TakeHealth@CBaseEntity@@UAEHMH@Z
	DD	FLAT:?TakeArmor@CBaseEntity@@UAEHMH@Z
	DD	FLAT:?Killed@CBaseEntity@@UAEXPAUentvars_s@@H@Z
	DD	FLAT:?BloodColor@CBaseEntity@@UAEHXZ
	DD	FLAT:?TraceBleed@CBaseEntity@@UAEXMVVector@@PAUgametrace_s@@H@Z
	DD	FLAT:?IsTriggered@CBaseEntity@@UAEHPAV1@@Z
	DD	FLAT:?MyMonsterPointer@CBaseEntity@@UAEPAVCBaseMonster@@XZ
	DD	FLAT:?MySquadMonsterPointer@CBaseEntity@@UAEPAVCSquadMonster@@XZ
	DD	FLAT:?GetToggleState@CBaseEntity@@UAEHXZ
	DD	FLAT:?AddPoints@CBaseEntity@@UAEXHH@Z
	DD	FLAT:?AddPointsToTeam@CBaseEntity@@UAEXHH@Z
	DD	FLAT:?AddPlayerItem@CBaseEntity@@UAEHPAVCBasePlayerItem@@@Z
	DD	FLAT:?RemovePlayerItem@CBaseEntity@@UAEHPAVCBasePlayerItem@@@Z
	DD	FLAT:?GiveAmmo@CBaseEntity@@UAEHHPADH@Z
	DD	FLAT:?GetDelay@CBaseEntity@@UAEMXZ
	DD	FLAT:?IsMoving@CBaseEntity@@UAEHXZ
	DD	FLAT:?OverrideReset@CBaseEntity@@UAEXXZ
	DD	FLAT:?TransferReset@CBaseEntity@@UAEXXZ
	DD	FLAT:?DamageDecal@CBaseEntity@@UAEHH@Z
	DD	FLAT:?SetToggleState@CBaseEntity@@UAEXH@Z
	DD	FLAT:?StartSneaking@CBaseEntity@@UAEXXZ
	DD	FLAT:?StopSneaking@CBaseEntity@@UAEXXZ
	DD	FLAT:?OnControls@CBaseEntity@@UAEHPAV1@@Z
	DD	FLAT:?IsSneaking@CBaseEntity@@UAEHXZ
	DD	FLAT:?IsAlive@CBaseEntity@@UAEHXZ
	DD	FLAT:?IsBSPModel@CBaseEntity@@UAEHXZ
	DD	FLAT:?IsCustomModel@CBaseEntity@@UAEHXZ
	DD	FLAT:?ReflectGauss@CBaseEntity@@UAEHXZ
	DD	FLAT:?HasTarget@CBaseEntity@@UAEHH@Z
	DD	FLAT:?IsInWorld@CBaseEntity@@UAEHH@Z
	DD	FLAT:?IsPlayer@CBaseEntity@@UAEHXZ
	DD	FLAT:?IsNetClient@CBaseEntity@@UAEHXZ
	DD	FLAT:?IsMonster@CBaseEntity@@UAEHXZ
	DD	FLAT:?IsPushable@CBaseEntity@@UAEHXZ
	DD	FLAT:?IsProjectile@CBaseEntity@@UAEHXZ
	DD	FLAT:?IsFuncScreen@CBaseEntity@@UAEHXZ
	DD	FLAT:?IsPortal@CBaseEntity@@UAEHXZ
	DD	FLAT:?IsTank@CBaseEntity@@UAEHXZ
	DD	FLAT:?IsMover@CBaseEntity@@UAEHXZ
	DD	FLAT:?IsBreakable@CBaseEntity@@UAEHXZ
	DD	FLAT:?TeamID@CBaseEntity@@UAEPBDXZ
	DD	FLAT:?GetNextTarget@CBaseEntity@@UAEPAV1@XZ
	DD	FLAT:?Think@CBaseEntity@@UAEXXZ
	DD	FLAT:?Use@CGameCounter@@UAEXPAVCBaseEntity@@0W4USE_TYPE@@M@Z
	DD	FLAT:?Touch@CBaseEntity@@UAEXPAV1@@Z
	DD	FLAT:?Blocked@CBaseEntity@@UAEXPAV1@@Z
	DD	FLAT:?MoveDone@CBaseEntity@@UAEXXZ
	DD	FLAT:?Respawn@CBaseEntity@@UAEPAV1@XZ
	DD	FLAT:?UpdateOwner@CBaseEntity@@UAEXXZ
	DD	FLAT:?FBecomeProne@CBaseEntity@@UAEHXZ
	DD	FLAT:?Center@CBaseEntity@@UAE?AVVector@@XZ
	DD	FLAT:?EyePosition@CBaseEntity@@UAE?AVVector@@XZ
	DD	FLAT:?EarPosition@CBaseEntity@@UAE?AVVector@@XZ
	DD	FLAT:?BodyTarget@CBaseEntity@@UAE?AVVector@@ABV2@@Z
	DD	FLAT:?IsPointSized@CBaseEntity@@UBEHXZ
	DD	FLAT:?Illumination@CBaseEntity@@UAEHXZ
	DD	FLAT:?FVisible@CBaseEntity@@UAEHABVVector@@@Z
	DD	FLAT:?FVisible@CBaseEntity@@UAEHPAV1@@Z
	DD	FLAT:?ShouldCollide@CBaseEntity@@UAEHPAV1@@Z
CONST	ENDS
;	COMDAT ??_7?$CEntityFactory@VCGamePlayerHurt@@@@6B@
CONST	SEGMENT
??_7?$CEntityFactory@VCGamePlayerHurt@@@@6B@ DD FLAT:??_R4?$CEntityFactory@VCGamePlayerHurt@@@@6B@ ; CEntityFactory<CGamePlayerHurt>::`vftable'
	DD	FLAT:?Create@?$CEntityFactory@VCGamePlayerHurt@@@@UAEPAVCBaseEntity@@PBDPAUentvars_s@@@Z
	DD	FLAT:?Destroy@?$CEntityFactory@VCGamePlayerHurt@@@@UAEXPAVCBaseEntity@@@Z
	DD	FLAT:?GetEntitySize@?$CEntityFactory@VCGamePlayerHurt@@@@UAEIXZ
CONST	ENDS
;	COMDAT ??_7CGamePlayerHurt@@6B@
CONST	SEGMENT
??_7CGamePlayerHurt@@6B@ DD FLAT:??_R4CGamePlayerHurt@@6B@ ; CGamePlayerHurt::`vftable'
	DD	FLAT:?GetDataDescMap@CRuleEntity@@UAEPAUdatamap_s@@XZ
	DD	FLAT:?Spawn@CRulePointEntity@@UAEXXZ
	DD	FLAT:?Precache@CBaseEntity@@UAEXXZ
	DD	FLAT:?KeyValue@CRuleEntity@@UAEXPAUKeyValueData_s@@@Z
	DD	FLAT:?Save@CBaseEntity@@UAEHAAVCSave@@@Z
	DD	FLAT:?Restore@CBaseEntity@@UAEHAAVCRestore@@@Z
	DD	FLAT:?ObjectCaps@CBaseEntity@@UAEHXZ
	DD	FLAT:?Activate@CBaseEntity@@UAEXXZ
	DD	FLAT:?OnChangeLevel@CBaseEntity@@UAEXXZ
	DD	FLAT:?OnTeleport@CBaseEntity@@UAEXXZ
	DD	FLAT:?PortalSleep@CBaseEntity@@UAEXM@Z
	DD	FLAT:?StartMessage@CBaseEntity@@UAEXPAVCBasePlayer@@@Z
	DD	FLAT:?GetPosition@CBaseEntity@@UAEMXZ
	DD	FLAT:?OnChangeParent@CBaseEntity@@UAEXXZ
	DD	FLAT:?OnClearParent@CBaseEntity@@UAEXXZ
	DD	FLAT:?OnRemove@CBaseEntity@@UAEXXZ
	DD	FLAT:?SetObjectCollisionBox@CBaseEntity@@UAEXXZ
	DD	FLAT:?Classify@CBaseEntity@@UAEHXZ
	DD	FLAT:?DeathNotice@CBaseEntity@@UAEXPAUentvars_s@@@Z
	DD	FLAT:?IsRigidBody@CBaseEntity@@UAEHXZ
	DD	FLAT:?SetNextThink@CBaseEntity@@UAEXM@Z
	DD	FLAT:?GetState@CBaseEntity@@UAE?AW4STATE@@PAV1@@Z
	DD	FLAT:?GetState@CBaseEntity@@UAE?AW4STATE@@XZ
	DD	FLAT:?TraceAttack@CBaseEntity@@UAEXPAUentvars_s@@MVVector@@PAUgametrace_s@@H@Z
	DD	FLAT:?TakeDamage@CBaseEntity@@UAEHPAUentvars_s@@0MH@Z
	DD	FLAT:?TakeHealth@CBaseEntity@@UAEHMH@Z
	DD	FLAT:?TakeArmor@CBaseEntity@@UAEHMH@Z
	DD	FLAT:?Killed@CBaseEntity@@UAEXPAUentvars_s@@H@Z
	DD	FLAT:?BloodColor@CBaseEntity@@UAEHXZ
	DD	FLAT:?TraceBleed@CBaseEntity@@UAEXMVVector@@PAUgametrace_s@@H@Z
	DD	FLAT:?IsTriggered@CBaseEntity@@UAEHPAV1@@Z
	DD	FLAT:?MyMonsterPointer@CBaseEntity@@UAEPAVCBaseMonster@@XZ
	DD	FLAT:?MySquadMonsterPointer@CBaseEntity@@UAEPAVCSquadMonster@@XZ
	DD	FLAT:?GetToggleState@CBaseEntity@@UAEHXZ
	DD	FLAT:?AddPoints@CBaseEntity@@UAEXHH@Z
	DD	FLAT:?AddPointsToTeam@CBaseEntity@@UAEXHH@Z
	DD	FLAT:?AddPlayerItem@CBaseEntity@@UAEHPAVCBasePlayerItem@@@Z
	DD	FLAT:?RemovePlayerItem@CBaseEntity@@UAEHPAVCBasePlayerItem@@@Z
	DD	FLAT:?GiveAmmo@CBaseEntity@@UAEHHPADH@Z
	DD	FLAT:?GetDelay@CBaseEntity@@UAEMXZ
	DD	FLAT:?IsMoving@CBaseEntity@@UAEHXZ
	DD	FLAT:?OverrideReset@CBaseEntity@@UAEXXZ
	DD	FLAT:?TransferReset@CBaseEntity@@UAEXXZ
	DD	FLAT:?DamageDecal@CBaseEntity@@UAEHH@Z
	DD	FLAT:?SetToggleState@CBaseEntity@@UAEXH@Z
	DD	FLAT:?StartSneaking@CBaseEntity@@UAEXXZ
	DD	FLAT:?StopSneaking@CBaseEntity@@UAEXXZ
	DD	FLAT:?OnControls@CBaseEntity@@UAEHPAV1@@Z
	DD	FLAT:?IsSneaking@CBaseEntity@@UAEHXZ
	DD	FLAT:?IsAlive@CBaseEntity@@UAEHXZ
	DD	FLAT:?IsBSPModel@CBaseEntity@@UAEHXZ
	DD	FLAT:?IsCustomModel@CBaseEntity@@UAEHXZ
	DD	FLAT:?ReflectGauss@CBaseEntity@@UAEHXZ
	DD	FLAT:?HasTarget@CBaseEntity@@UAEHH@Z
	DD	FLAT:?IsInWorld@CBaseEntity@@UAEHH@Z
	DD	FLAT:?IsPlayer@CBaseEntity@@UAEHXZ
	DD	FLAT:?IsNetClient@CBaseEntity@@UAEHXZ
	DD	FLAT:?IsMonster@CBaseEntity@@UAEHXZ
	DD	FLAT:?IsPushable@CBaseEntity@@UAEHXZ
	DD	FLAT:?IsProjectile@CBaseEntity@@UAEHXZ
	DD	FLAT:?IsFuncScreen@CBaseEntity@@UAEHXZ
	DD	FLAT:?IsPortal@CBaseEntity@@UAEHXZ
	DD	FLAT:?IsTank@CBaseEntity@@UAEHXZ
	DD	FLAT:?IsMover@CBaseEntity@@UAEHXZ
	DD	FLAT:?IsBreakable@CBaseEntity@@UAEHXZ
	DD	FLAT:?TeamID@CBaseEntity@@UAEPBDXZ
	DD	FLAT:?GetNextTarget@CBaseEntity@@UAEPAV1@XZ
	DD	FLAT:?Think@CBaseEntity@@UAEXXZ
	DD	FLAT:?Use@CGamePlayerHurt@@UAEXPAVCBaseEntity@@0W4USE_TYPE@@M@Z
	DD	FLAT:?Touch@CBaseEntity@@UAEXPAV1@@Z
	DD	FLAT:?Blocked@CBaseEntity@@UAEXPAV1@@Z
	DD	FLAT:?MoveDone@CBaseEntity@@UAEXXZ
	DD	FLAT:?Respawn@CBaseEntity@@UAEPAV1@XZ
	DD	FLAT:?UpdateOwner@CBaseEntity@@UAEXXZ
	DD	FLAT:?FBecomeProne@CBaseEntity@@UAEHXZ
	DD	FLAT:?Center@CBaseEntity@@UAE?AVVector@@XZ
	DD	FLAT:?EyePosition@CBaseEntity@@UAE?AVVector@@XZ
	DD	FLAT:?EarPosition@CBaseEntity@@UAE?AVVector@@XZ
	DD	FLAT:?BodyTarget@CBaseEntity@@UAE?AVVector@@ABV2@@Z
	DD	FLAT:?IsPointSized@CBaseEntity@@UBEHXZ
	DD	FLAT:?Illumination@CBaseEntity@@UAEHXZ
	DD	FLAT:?FVisible@CBaseEntity@@UAEHABVVector@@@Z
	DD	FLAT:?FVisible@CBaseEntity@@UAEHPAV1@@Z
	DD	FLAT:?ShouldCollide@CBaseEntity@@UAEHPAV1@@Z
CONST	ENDS
;	COMDAT ?dataDesc@?1???$DataMapInit@VCGamePlayerZone@@@@YAPAUdatamap_s@@PAVCGamePlayerZone@@@Z@4PAUtypedescription_s@@A
_DATA	SEGMENT
?dataDesc@?1???$DataMapInit@VCGamePlayerZone@@@@YAPAUdatamap_s@@PAVCGamePlayerZone@@@Z@4PAUtypedescription_s@@A DD 012H ; `DataMapInit<CGamePlayerZone>'::`2'::dataDesc
	DD	00H
	DD	00H
	DW	00H
	DW	00H
	DD	00H
	DD	00H
	DD	01H
	DD	FLAT:$SG76127
	DD	0678H
	DW	01H
	DW	06H
	DD	FLAT:$SG76128
	DD	00H
	DD	01H
	DD	FLAT:$SG76129
	DD	067cH
	DW	01H
	DW	06H
	DD	FLAT:$SG76130
	DD	00H
	DD	01H
	DD	FLAT:$SG76131
	DD	0680H
	DW	01H
	DW	06H
	DD	FLAT:$SG76132
	DD	00H
	DD	01H
	DD	FLAT:$SG76133
	DD	0684H
	DW	01H
	DW	06H
	DD	FLAT:$SG76134
	DD	00H
_DATA	ENDS
;	COMDAT ??_7?$CEntityFactory@VCGamePlayerZone@@@@6B@
CONST	SEGMENT
??_7?$CEntityFactory@VCGamePlayerZone@@@@6B@ DD FLAT:??_R4?$CEntityFactory@VCGamePlayerZone@@@@6B@ ; CEntityFactory<CGamePlayerZone>::`vftable'
	DD	FLAT:?Create@?$CEntityFactory@VCGamePlayerZone@@@@UAEPAVCBaseEntity@@PBDPAUentvars_s@@@Z
	DD	FLAT:?Destroy@?$CEntityFactory@VCGamePlayerZone@@@@UAEXPAVCBaseEntity@@@Z
	DD	FLAT:?GetEntitySize@?$CEntityFactory@VCGamePlayerZone@@@@UAEIXZ
CONST	ENDS
;	COMDAT ??_7CGamePlayerZone@@6B@
CONST	SEGMENT
??_7CGamePlayerZone@@6B@ DD FLAT:??_R4CGamePlayerZone@@6B@ ; CGamePlayerZone::`vftable'
	DD	FLAT:?GetDataDescMap@CGamePlayerZone@@UAEPAUdatamap_s@@XZ
	DD	FLAT:?Spawn@CRuleBrushEntity@@UAEXXZ
	DD	FLAT:?Precache@CBaseEntity@@UAEXXZ
	DD	FLAT:?KeyValue@CGamePlayerZone@@UAEXPAUKeyValueData_s@@@Z
	DD	FLAT:?Save@CBaseEntity@@UAEHAAVCSave@@@Z
	DD	FLAT:?Restore@CBaseEntity@@UAEHAAVCRestore@@@Z
	DD	FLAT:?ObjectCaps@CBaseEntity@@UAEHXZ
	DD	FLAT:?Activate@CBaseEntity@@UAEXXZ
	DD	FLAT:?OnChangeLevel@CBaseEntity@@UAEXXZ
	DD	FLAT:?OnTeleport@CBaseEntity@@UAEXXZ
	DD	FLAT:?PortalSleep@CBaseEntity@@UAEXM@Z
	DD	FLAT:?StartMessage@CBaseEntity@@UAEXPAVCBasePlayer@@@Z
	DD	FLAT:?GetPosition@CBaseEntity@@UAEMXZ
	DD	FLAT:?OnChangeParent@CBaseEntity@@UAEXXZ
	DD	FLAT:?OnClearParent@CBaseEntity@@UAEXXZ
	DD	FLAT:?OnRemove@CBaseEntity@@UAEXXZ
	DD	FLAT:?SetObjectCollisionBox@CBaseEntity@@UAEXXZ
	DD	FLAT:?Classify@CBaseEntity@@UAEHXZ
	DD	FLAT:?DeathNotice@CBaseEntity@@UAEXPAUentvars_s@@@Z
	DD	FLAT:?IsRigidBody@CBaseEntity@@UAEHXZ
	DD	FLAT:?SetNextThink@CBaseEntity@@UAEXM@Z
	DD	FLAT:?GetState@CBaseEntity@@UAE?AW4STATE@@PAV1@@Z
	DD	FLAT:?GetState@CBaseEntity@@UAE?AW4STATE@@XZ
	DD	FLAT:?TraceAttack@CBaseEntity@@UAEXPAUentvars_s@@MVVector@@PAUgametrace_s@@H@Z
	DD	FLAT:?TakeDamage@CBaseEntity@@UAEHPAUentvars_s@@0MH@Z
	DD	FLAT:?TakeHealth@CBaseEntity@@UAEHMH@Z
	DD	FLAT:?TakeArmor@CBaseEntity@@UAEHMH@Z
	DD	FLAT:?Killed@CBaseEntity@@UAEXPAUentvars_s@@H@Z
	DD	FLAT:?BloodColor@CBaseEntity@@UAEHXZ
	DD	FLAT:?TraceBleed@CBaseEntity@@UAEXMVVector@@PAUgametrace_s@@H@Z
	DD	FLAT:?IsTriggered@CBaseEntity@@UAEHPAV1@@Z
	DD	FLAT:?MyMonsterPointer@CBaseEntity@@UAEPAVCBaseMonster@@XZ
	DD	FLAT:?MySquadMonsterPointer@CBaseEntity@@UAEPAVCSquadMonster@@XZ
	DD	FLAT:?GetToggleState@CBaseEntity@@UAEHXZ
	DD	FLAT:?AddPoints@CBaseEntity@@UAEXHH@Z
	DD	FLAT:?AddPointsToTeam@CBaseEntity@@UAEXHH@Z
	DD	FLAT:?AddPlayerItem@CBaseEntity@@UAEHPAVCBasePlayerItem@@@Z
	DD	FLAT:?RemovePlayerItem@CBaseEntity@@UAEHPAVCBasePlayerItem@@@Z
	DD	FLAT:?GiveAmmo@CBaseEntity@@UAEHHPADH@Z
	DD	FLAT:?GetDelay@CBaseEntity@@UAEMXZ
	DD	FLAT:?IsMoving@CBaseEntity@@UAEHXZ
	DD	FLAT:?OverrideReset@CBaseEntity@@UAEXXZ
	DD	FLAT:?TransferReset@CBaseEntity@@UAEXXZ
	DD	FLAT:?DamageDecal@CBaseEntity@@UAEHH@Z
	DD	FLAT:?SetToggleState@CBaseEntity@@UAEXH@Z
	DD	FLAT:?StartSneaking@CBaseEntity@@UAEXXZ
	DD	FLAT:?StopSneaking@CBaseEntity@@UAEXXZ
	DD	FLAT:?OnControls@CBaseEntity@@UAEHPAV1@@Z
	DD	FLAT:?IsSneaking@CBaseEntity@@UAEHXZ
	DD	FLAT:?IsAlive@CBaseEntity@@UAEHXZ
	DD	FLAT:?IsBSPModel@CBaseEntity@@UAEHXZ
	DD	FLAT:?IsCustomModel@CBaseEntity@@UAEHXZ
	DD	FLAT:?ReflectGauss@CBaseEntity@@UAEHXZ
	DD	FLAT:?HasTarget@CBaseEntity@@UAEHH@Z
	DD	FLAT:?IsInWorld@CBaseEntity@@UAEHH@Z
	DD	FLAT:?IsPlayer@CBaseEntity@@UAEHXZ
	DD	FLAT:?IsNetClient@CBaseEntity@@UAEHXZ
	DD	FLAT:?IsMonster@CBaseEntity@@UAEHXZ
	DD	FLAT:?IsPushable@CBaseEntity@@UAEHXZ
	DD	FLAT:?IsProjectile@CBaseEntity@@UAEHXZ
	DD	FLAT:?IsFuncScreen@CBaseEntity@@UAEHXZ
	DD	FLAT:?IsPortal@CBaseEntity@@UAEHXZ
	DD	FLAT:?IsTank@CBaseEntity@@UAEHXZ
	DD	FLAT:?IsMover@CBaseEntity@@UAEHXZ
	DD	FLAT:?IsBreakable@CBaseEntity@@UAEHXZ
	DD	FLAT:?TeamID@CBaseEntity@@UAEPBDXZ
	DD	FLAT:?GetNextTarget@CBaseEntity@@UAEPAV1@XZ
	DD	FLAT:?Think@CBaseEntity@@UAEXXZ
	DD	FLAT:?Use@CGamePlayerZone@@UAEXPAVCBaseEntity@@0W4USE_TYPE@@M@Z
	DD	FLAT:?Touch@CBaseEntity@@UAEXPAV1@@Z
	DD	FLAT:?Blocked@CBaseEntity@@UAEXPAV1@@Z
	DD	FLAT:?MoveDone@CBaseEntity@@UAEXXZ
	DD	FLAT:?Respawn@CBaseEntity@@UAEPAV1@XZ
	DD	FLAT:?UpdateOwner@CBaseEntity@@UAEXXZ
	DD	FLAT:?FBecomeProne@CBaseEntity@@UAEHXZ
	DD	FLAT:?Center@CBaseEntity@@UAE?AVVector@@XZ
	DD	FLAT:?EyePosition@CBaseEntity@@UAE?AVVector@@XZ
	DD	FLAT:?EarPosition@CBaseEntity@@UAE?AVVector@@XZ
	DD	FLAT:?BodyTarget@CBaseEntity@@UAE?AVVector@@ABV2@@Z
	DD	FLAT:?IsPointSized@CBaseEntity@@UBEHXZ
	DD	FLAT:?Illumination@CBaseEntity@@UAEHXZ
	DD	FLAT:?FVisible@CBaseEntity@@UAEHABVVector@@@Z
	DD	FLAT:?FVisible@CBaseEntity@@UAEHPAV1@@Z
	DD	FLAT:?ShouldCollide@CBaseEntity@@UAEHPAV1@@Z
CONST	ENDS
;	COMDAT ??_7?$CEntityFactory@VCGameTeamSet@@@@6B@
CONST	SEGMENT
??_7?$CEntityFactory@VCGameTeamSet@@@@6B@ DD FLAT:??_R4?$CEntityFactory@VCGameTeamSet@@@@6B@ ; CEntityFactory<CGameTeamSet>::`vftable'
	DD	FLAT:?Create@?$CEntityFactory@VCGameTeamSet@@@@UAEPAVCBaseEntity@@PBDPAUentvars_s@@@Z
	DD	FLAT:?Destroy@?$CEntityFactory@VCGameTeamSet@@@@UAEXPAVCBaseEntity@@@Z
	DD	FLAT:?GetEntitySize@?$CEntityFactory@VCGameTeamSet@@@@UAEIXZ
CONST	ENDS
;	COMDAT ??_7CGameTeamSet@@6B@
CONST	SEGMENT
??_7CGameTeamSet@@6B@ DD FLAT:??_R4CGameTeamSet@@6B@	; CGameTeamSet::`vftable'
	DD	FLAT:?GetDataDescMap@CRuleEntity@@UAEPAUdatamap_s@@XZ
	DD	FLAT:?Spawn@CRulePointEntity@@UAEXXZ
	DD	FLAT:?Precache@CBaseEntity@@UAEXXZ
	DD	FLAT:?KeyValue@CRuleEntity@@UAEXPAUKeyValueData_s@@@Z
	DD	FLAT:?Save@CBaseEntity@@UAEHAAVCSave@@@Z
	DD	FLAT:?Restore@CBaseEntity@@UAEHAAVCRestore@@@Z
	DD	FLAT:?ObjectCaps@CBaseEntity@@UAEHXZ
	DD	FLAT:?Activate@CBaseEntity@@UAEXXZ
	DD	FLAT:?OnChangeLevel@CBaseEntity@@UAEXXZ
	DD	FLAT:?OnTeleport@CBaseEntity@@UAEXXZ
	DD	FLAT:?PortalSleep@CBaseEntity@@UAEXM@Z
	DD	FLAT:?StartMessage@CBaseEntity@@UAEXPAVCBasePlayer@@@Z
	DD	FLAT:?GetPosition@CBaseEntity@@UAEMXZ
	DD	FLAT:?OnChangeParent@CBaseEntity@@UAEXXZ
	DD	FLAT:?OnClearParent@CBaseEntity@@UAEXXZ
	DD	FLAT:?OnRemove@CBaseEntity@@UAEXXZ
	DD	FLAT:?SetObjectCollisionBox@CBaseEntity@@UAEXXZ
	DD	FLAT:?Classify@CBaseEntity@@UAEHXZ
	DD	FLAT:?DeathNotice@CBaseEntity@@UAEXPAUentvars_s@@@Z
	DD	FLAT:?IsRigidBody@CBaseEntity@@UAEHXZ
	DD	FLAT:?SetNextThink@CBaseEntity@@UAEXM@Z
	DD	FLAT:?GetState@CBaseEntity@@UAE?AW4STATE@@PAV1@@Z
	DD	FLAT:?GetState@CBaseEntity@@UAE?AW4STATE@@XZ
	DD	FLAT:?TraceAttack@CBaseEntity@@UAEXPAUentvars_s@@MVVector@@PAUgametrace_s@@H@Z
	DD	FLAT:?TakeDamage@CBaseEntity@@UAEHPAUentvars_s@@0MH@Z
	DD	FLAT:?TakeHealth@CBaseEntity@@UAEHMH@Z
	DD	FLAT:?TakeArmor@CBaseEntity@@UAEHMH@Z
	DD	FLAT:?Killed@CBaseEntity@@UAEXPAUentvars_s@@H@Z
	DD	FLAT:?BloodColor@CBaseEntity@@UAEHXZ
	DD	FLAT:?TraceBleed@CBaseEntity@@UAEXMVVector@@PAUgametrace_s@@H@Z
	DD	FLAT:?IsTriggered@CBaseEntity@@UAEHPAV1@@Z
	DD	FLAT:?MyMonsterPointer@CBaseEntity@@UAEPAVCBaseMonster@@XZ
	DD	FLAT:?MySquadMonsterPointer@CBaseEntity@@UAEPAVCSquadMonster@@XZ
	DD	FLAT:?GetToggleState@CBaseEntity@@UAEHXZ
	DD	FLAT:?AddPoints@CBaseEntity@@UAEXHH@Z
	DD	FLAT:?AddPointsToTeam@CBaseEntity@@UAEXHH@Z
	DD	FLAT:?AddPlayerItem@CBaseEntity@@UAEHPAVCBasePlayerItem@@@Z
	DD	FLAT:?RemovePlayerItem@CBaseEntity@@UAEHPAVCBasePlayerItem@@@Z
	DD	FLAT:?GiveAmmo@CBaseEntity@@UAEHHPADH@Z
	DD	FLAT:?GetDelay@CBaseEntity@@UAEMXZ
	DD	FLAT:?IsMoving@CBaseEntity@@UAEHXZ
	DD	FLAT:?OverrideReset@CBaseEntity@@UAEXXZ
	DD	FLAT:?TransferReset@CBaseEntity@@UAEXXZ
	DD	FLAT:?DamageDecal@CBaseEntity@@UAEHH@Z
	DD	FLAT:?SetToggleState@CBaseEntity@@UAEXH@Z
	DD	FLAT:?StartSneaking@CBaseEntity@@UAEXXZ
	DD	FLAT:?StopSneaking@CBaseEntity@@UAEXXZ
	DD	FLAT:?OnControls@CBaseEntity@@UAEHPAV1@@Z
	DD	FLAT:?IsSneaking@CBaseEntity@@UAEHXZ
	DD	FLAT:?IsAlive@CBaseEntity@@UAEHXZ
	DD	FLAT:?IsBSPModel@CBaseEntity@@UAEHXZ
	DD	FLAT:?IsCustomModel@CBaseEntity@@UAEHXZ
	DD	FLAT:?ReflectGauss@CBaseEntity@@UAEHXZ
	DD	FLAT:?HasTarget@CBaseEntity@@UAEHH@Z
	DD	FLAT:?IsInWorld@CBaseEntity@@UAEHH@Z
	DD	FLAT:?IsPlayer@CBaseEntity@@UAEHXZ
	DD	FLAT:?IsNetClient@CBaseEntity@@UAEHXZ
	DD	FLAT:?IsMonster@CBaseEntity@@UAEHXZ
	DD	FLAT:?IsPushable@CBaseEntity@@UAEHXZ
	DD	FLAT:?IsProjectile@CBaseEntity@@UAEHXZ
	DD	FLAT:?IsFuncScreen@CBaseEntity@@UAEHXZ
	DD	FLAT:?IsPortal@CBaseEntity@@UAEHXZ
	DD	FLAT:?IsTank@CBaseEntity@@UAEHXZ
	DD	FLAT:?IsMover@CBaseEntity@@UAEHXZ
	DD	FLAT:?IsBreakable@CBaseEntity@@UAEHXZ
	DD	FLAT:?TeamID@CBaseEntity@@UAEPBDXZ
	DD	FLAT:?GetNextTarget@CBaseEntity@@UAEPAV1@XZ
	DD	FLAT:?Think@CBaseEntity@@UAEXXZ
	DD	FLAT:?Use@CGameTeamSet@@UAEXPAVCBaseEntity@@0W4USE_TYPE@@M@Z
	DD	FLAT:?Touch@CBaseEntity@@UAEXPAV1@@Z
	DD	FLAT:?Blocked@CBaseEntity@@UAEXPAV1@@Z
	DD	FLAT:?MoveDone@CBaseEntity@@UAEXXZ
	DD	FLAT:?Respawn@CBaseEntity@@UAEPAV1@XZ
	DD	FLAT:?UpdateOwner@CBaseEntity@@UAEXXZ
	DD	FLAT:?FBecomeProne@CBaseEntity@@UAEHXZ
	DD	FLAT:?Center@CBaseEntity@@UAE?AVVector@@XZ
	DD	FLAT:?EyePosition@CBaseEntity@@UAE?AVVector@@XZ
	DD	FLAT:?EarPosition@CBaseEntity@@UAE?AVVector@@XZ
	DD	FLAT:?BodyTarget@CBaseEntity@@UAE?AVVector@@ABV2@@Z
	DD	FLAT:?IsPointSized@CBaseEntity@@UBEHXZ
	DD	FLAT:?Illumination@CBaseEntity@@UAEHXZ
	DD	FLAT:?FVisible@CBaseEntity@@UAEHABVVector@@@Z
	DD	FLAT:?FVisible@CBaseEntity@@UAEHPAV1@@Z
	DD	FLAT:?ShouldCollide@CBaseEntity@@UAEHPAV1@@Z
CONST	ENDS
;	COMDAT ??_7?$CEntityFactory@VCGameTeamMaster@@@@6B@
CONST	SEGMENT
??_7?$CEntityFactory@VCGameTeamMaster@@@@6B@ DD FLAT:??_R4?$CEntityFactory@VCGameTeamMaster@@@@6B@ ; CEntityFactory<CGameTeamMaster>::`vftable'
	DD	FLAT:?Create@?$CEntityFactory@VCGameTeamMaster@@@@UAEPAVCBaseEntity@@PBDPAUentvars_s@@@Z
	DD	FLAT:?Destroy@?$CEntityFactory@VCGameTeamMaster@@@@UAEXPAVCBaseEntity@@@Z
	DD	FLAT:?GetEntitySize@?$CEntityFactory@VCGameTeamMaster@@@@UAEIXZ
CONST	ENDS
;	COMDAT ??_7CGameTeamMaster@@6B@
CONST	SEGMENT
??_7CGameTeamMaster@@6B@ DD FLAT:??_R4CGameTeamMaster@@6B@ ; CGameTeamMaster::`vftable'
	DD	FLAT:?GetDataDescMap@CRuleEntity@@UAEPAUdatamap_s@@XZ
	DD	FLAT:?Spawn@CRulePointEntity@@UAEXXZ
	DD	FLAT:?Precache@CBaseEntity@@UAEXXZ
	DD	FLAT:?KeyValue@CGameTeamMaster@@UAEXPAUKeyValueData_s@@@Z
	DD	FLAT:?Save@CBaseEntity@@UAEHAAVCSave@@@Z
	DD	FLAT:?Restore@CBaseEntity@@UAEHAAVCRestore@@@Z
	DD	FLAT:?ObjectCaps@CBaseEntity@@UAEHXZ
	DD	FLAT:?Activate@CBaseEntity@@UAEXXZ
	DD	FLAT:?OnChangeLevel@CBaseEntity@@UAEXXZ
	DD	FLAT:?OnTeleport@CBaseEntity@@UAEXXZ
	DD	FLAT:?PortalSleep@CBaseEntity@@UAEXM@Z
	DD	FLAT:?StartMessage@CBaseEntity@@UAEXPAVCBasePlayer@@@Z
	DD	FLAT:?GetPosition@CBaseEntity@@UAEMXZ
	DD	FLAT:?OnChangeParent@CBaseEntity@@UAEXXZ
	DD	FLAT:?OnClearParent@CBaseEntity@@UAEXXZ
	DD	FLAT:?OnRemove@CBaseEntity@@UAEXXZ
	DD	FLAT:?SetObjectCollisionBox@CBaseEntity@@UAEXXZ
	DD	FLAT:?Classify@CBaseEntity@@UAEHXZ
	DD	FLAT:?DeathNotice@CBaseEntity@@UAEXPAUentvars_s@@@Z
	DD	FLAT:?IsRigidBody@CBaseEntity@@UAEHXZ
	DD	FLAT:?SetNextThink@CBaseEntity@@UAEXM@Z
	DD	FLAT:?GetState@CBaseEntity@@UAE?AW4STATE@@PAV1@@Z
	DD	FLAT:?GetState@CBaseEntity@@UAE?AW4STATE@@XZ
	DD	FLAT:?TraceAttack@CBaseEntity@@UAEXPAUentvars_s@@MVVector@@PAUgametrace_s@@H@Z
	DD	FLAT:?TakeDamage@CBaseEntity@@UAEHPAUentvars_s@@0MH@Z
	DD	FLAT:?TakeHealth@CBaseEntity@@UAEHMH@Z
	DD	FLAT:?TakeArmor@CBaseEntity@@UAEHMH@Z
	DD	FLAT:?Killed@CBaseEntity@@UAEXPAUentvars_s@@H@Z
	DD	FLAT:?BloodColor@CBaseEntity@@UAEHXZ
	DD	FLAT:?TraceBleed@CBaseEntity@@UAEXMVVector@@PAUgametrace_s@@H@Z
	DD	FLAT:?IsTriggered@CGameTeamMaster@@UAEHPAVCBaseEntity@@@Z
	DD	FLAT:?MyMonsterPointer@CBaseEntity@@UAEPAVCBaseMonster@@XZ
	DD	FLAT:?MySquadMonsterPointer@CBaseEntity@@UAEPAVCSquadMonster@@XZ
	DD	FLAT:?GetToggleState@CBaseEntity@@UAEHXZ
	DD	FLAT:?AddPoints@CBaseEntity@@UAEXHH@Z
	DD	FLAT:?AddPointsToTeam@CBaseEntity@@UAEXHH@Z
	DD	FLAT:?AddPlayerItem@CBaseEntity@@UAEHPAVCBasePlayerItem@@@Z
	DD	FLAT:?RemovePlayerItem@CBaseEntity@@UAEHPAVCBasePlayerItem@@@Z
	DD	FLAT:?GiveAmmo@CBaseEntity@@UAEHHPADH@Z
	DD	FLAT:?GetDelay@CBaseEntity@@UAEMXZ
	DD	FLAT:?IsMoving@CBaseEntity@@UAEHXZ
	DD	FLAT:?OverrideReset@CBaseEntity@@UAEXXZ
	DD	FLAT:?TransferReset@CBaseEntity@@UAEXXZ
	DD	FLAT:?DamageDecal@CBaseEntity@@UAEHH@Z
	DD	FLAT:?SetToggleState@CBaseEntity@@UAEXH@Z
	DD	FLAT:?StartSneaking@CBaseEntity@@UAEXXZ
	DD	FLAT:?StopSneaking@CBaseEntity@@UAEXXZ
	DD	FLAT:?OnControls@CBaseEntity@@UAEHPAV1@@Z
	DD	FLAT:?IsSneaking@CBaseEntity@@UAEHXZ
	DD	FLAT:?IsAlive@CBaseEntity@@UAEHXZ
	DD	FLAT:?IsBSPModel@CBaseEntity@@UAEHXZ
	DD	FLAT:?IsCustomModel@CBaseEntity@@UAEHXZ
	DD	FLAT:?ReflectGauss@CBaseEntity@@UAEHXZ
	DD	FLAT:?HasTarget@CBaseEntity@@UAEHH@Z
	DD	FLAT:?IsInWorld@CBaseEntity@@UAEHH@Z
	DD	FLAT:?IsPlayer@CBaseEntity@@UAEHXZ
	DD	FLAT:?IsNetClient@CBaseEntity@@UAEHXZ
	DD	FLAT:?IsMonster@CBaseEntity@@UAEHXZ
	DD	FLAT:?IsPushable@CBaseEntity@@UAEHXZ
	DD	FLAT:?IsProjectile@CBaseEntity@@UAEHXZ
	DD	FLAT:?IsFuncScreen@CBaseEntity@@UAEHXZ
	DD	FLAT:?IsPortal@CBaseEntity@@UAEHXZ
	DD	FLAT:?IsTank@CBaseEntity@@UAEHXZ
	DD	FLAT:?IsMover@CBaseEntity@@UAEHXZ
	DD	FLAT:?IsBreakable@CBaseEntity@@UAEHXZ
	DD	FLAT:?TeamID@CGameTeamMaster@@UAEPBDXZ
	DD	FLAT:?GetNextTarget@CBaseEntity@@UAEPAV1@XZ
	DD	FLAT:?Think@CBaseEntity@@UAEXXZ
	DD	FLAT:?Use@CGameTeamMaster@@UAEXPAVCBaseEntity@@0W4USE_TYPE@@M@Z
	DD	FLAT:?Touch@CBaseEntity@@UAEXPAV1@@Z
	DD	FLAT:?Blocked@CBaseEntity@@UAEXPAV1@@Z
	DD	FLAT:?MoveDone@CBaseEntity@@UAEXXZ
	DD	FLAT:?Respawn@CBaseEntity@@UAEPAV1@XZ
	DD	FLAT:?UpdateOwner@CBaseEntity@@UAEXXZ
	DD	FLAT:?FBecomeProne@CBaseEntity@@UAEHXZ
	DD	FLAT:?Center@CBaseEntity@@UAE?AVVector@@XZ
	DD	FLAT:?EyePosition@CBaseEntity@@UAE?AVVector@@XZ
	DD	FLAT:?EarPosition@CBaseEntity@@UAE?AVVector@@XZ
	DD	FLAT:?BodyTarget@CBaseEntity@@UAE?AVVector@@ABV2@@Z
	DD	FLAT:?IsPointSized@CBaseEntity@@UBEHXZ
	DD	FLAT:?Illumination@CBaseEntity@@UAEHXZ
	DD	FLAT:?FVisible@CBaseEntity@@UAEHABVVector@@@Z
	DD	FLAT:?FVisible@CBaseEntity@@UAEHPAV1@@Z
	DD	FLAT:?ShouldCollide@CBaseEntity@@UAEHPAV1@@Z
CONST	ENDS
;	COMDAT ?dataDesc@?1???$DataMapInit@VCGameText@@@@YAPAUdatamap_s@@PAVCGameText@@@Z@4PAUtypedescription_s@@A
_DATA	SEGMENT
?dataDesc@?1???$DataMapInit@VCGameText@@@@YAPAUdatamap_s@@PAVCGameText@@@Z@4PAUtypedescription_s@@A DD 012H ; `DataMapInit<CGameText>'::`2'::dataDesc
	DD	00H
	DD	00H
	DW	00H
	DW	00H
	DD	00H
	DD	00H
	DD	0eH
	DD	FLAT:$SG75769
	DD	0678H
	DW	028H
	DW	02H
	DD	00H
	DD	00H
_DATA	ENDS
;	COMDAT ??_7?$CEntityFactory@VCGameText@@@@6B@
CONST	SEGMENT
??_7?$CEntityFactory@VCGameText@@@@6B@ DD FLAT:??_R4?$CEntityFactory@VCGameText@@@@6B@ ; CEntityFactory<CGameText>::`vftable'
	DD	FLAT:?Create@?$CEntityFactory@VCGameText@@@@UAEPAVCBaseEntity@@PBDPAUentvars_s@@@Z
	DD	FLAT:?Destroy@?$CEntityFactory@VCGameText@@@@UAEXPAVCBaseEntity@@@Z
	DD	FLAT:?GetEntitySize@?$CEntityFactory@VCGameText@@@@UAEIXZ
CONST	ENDS
;	COMDAT ??_7CGameText@@6B@
CONST	SEGMENT
??_7CGameText@@6B@ DD FLAT:??_R4CGameText@@6B@		; CGameText::`vftable'
	DD	FLAT:?GetDataDescMap@CGameText@@UAEPAUdatamap_s@@XZ
	DD	FLAT:?Spawn@CRulePointEntity@@UAEXXZ
	DD	FLAT:?Precache@CBaseEntity@@UAEXXZ
	DD	FLAT:?KeyValue@CGameText@@UAEXPAUKeyValueData_s@@@Z
	DD	FLAT:?Save@CBaseEntity@@UAEHAAVCSave@@@Z
	DD	FLAT:?Restore@CBaseEntity@@UAEHAAVCRestore@@@Z
	DD	FLAT:?ObjectCaps@CBaseEntity@@UAEHXZ
	DD	FLAT:?Activate@CBaseEntity@@UAEXXZ
	DD	FLAT:?OnChangeLevel@CBaseEntity@@UAEXXZ
	DD	FLAT:?OnTeleport@CBaseEntity@@UAEXXZ
	DD	FLAT:?PortalSleep@CBaseEntity@@UAEXM@Z
	DD	FLAT:?StartMessage@CBaseEntity@@UAEXPAVCBasePlayer@@@Z
	DD	FLAT:?GetPosition@CBaseEntity@@UAEMXZ
	DD	FLAT:?OnChangeParent@CBaseEntity@@UAEXXZ
	DD	FLAT:?OnClearParent@CBaseEntity@@UAEXXZ
	DD	FLAT:?OnRemove@CBaseEntity@@UAEXXZ
	DD	FLAT:?SetObjectCollisionBox@CBaseEntity@@UAEXXZ
	DD	FLAT:?Classify@CBaseEntity@@UAEHXZ
	DD	FLAT:?DeathNotice@CBaseEntity@@UAEXPAUentvars_s@@@Z
	DD	FLAT:?IsRigidBody@CBaseEntity@@UAEHXZ
	DD	FLAT:?SetNextThink@CBaseEntity@@UAEXM@Z
	DD	FLAT:?GetState@CBaseEntity@@UAE?AW4STATE@@PAV1@@Z
	DD	FLAT:?GetState@CBaseEntity@@UAE?AW4STATE@@XZ
	DD	FLAT:?TraceAttack@CBaseEntity@@UAEXPAUentvars_s@@MVVector@@PAUgametrace_s@@H@Z
	DD	FLAT:?TakeDamage@CBaseEntity@@UAEHPAUentvars_s@@0MH@Z
	DD	FLAT:?TakeHealth@CBaseEntity@@UAEHMH@Z
	DD	FLAT:?TakeArmor@CBaseEntity@@UAEHMH@Z
	DD	FLAT:?Killed@CBaseEntity@@UAEXPAUentvars_s@@H@Z
	DD	FLAT:?BloodColor@CBaseEntity@@UAEHXZ
	DD	FLAT:?TraceBleed@CBaseEntity@@UAEXMVVector@@PAUgametrace_s@@H@Z
	DD	FLAT:?IsTriggered@CBaseEntity@@UAEHPAV1@@Z
	DD	FLAT:?MyMonsterPointer@CBaseEntity@@UAEPAVCBaseMonster@@XZ
	DD	FLAT:?MySquadMonsterPointer@CBaseEntity@@UAEPAVCSquadMonster@@XZ
	DD	FLAT:?GetToggleState@CBaseEntity@@UAEHXZ
	DD	FLAT:?AddPoints@CBaseEntity@@UAEXHH@Z
	DD	FLAT:?AddPointsToTeam@CBaseEntity@@UAEXHH@Z
	DD	FLAT:?AddPlayerItem@CBaseEntity@@UAEHPAVCBasePlayerItem@@@Z
	DD	FLAT:?RemovePlayerItem@CBaseEntity@@UAEHPAVCBasePlayerItem@@@Z
	DD	FLAT:?GiveAmmo@CBaseEntity@@UAEHHPADH@Z
	DD	FLAT:?GetDelay@CBaseEntity@@UAEMXZ
	DD	FLAT:?IsMoving@CBaseEntity@@UAEHXZ
	DD	FLAT:?OverrideReset@CBaseEntity@@UAEXXZ
	DD	FLAT:?TransferReset@CBaseEntity@@UAEXXZ
	DD	FLAT:?DamageDecal@CBaseEntity@@UAEHH@Z
	DD	FLAT:?SetToggleState@CBaseEntity@@UAEXH@Z
	DD	FLAT:?StartSneaking@CBaseEntity@@UAEXXZ
	DD	FLAT:?StopSneaking@CBaseEntity@@UAEXXZ
	DD	FLAT:?OnControls@CBaseEntity@@UAEHPAV1@@Z
	DD	FLAT:?IsSneaking@CBaseEntity@@UAEHXZ
	DD	FLAT:?IsAlive@CBaseEntity@@UAEHXZ
	DD	FLAT:?IsBSPModel@CBaseEntity@@UAEHXZ
	DD	FLAT:?IsCustomModel@CBaseEntity@@UAEHXZ
	DD	FLAT:?ReflectGauss@CBaseEntity@@UAEHXZ
	DD	FLAT:?HasTarget@CBaseEntity@@UAEHH@Z
	DD	FLAT:?IsInWorld@CBaseEntity@@UAEHH@Z
	DD	FLAT:?IsPlayer@CBaseEntity@@UAEHXZ
	DD	FLAT:?IsNetClient@CBaseEntity@@UAEHXZ
	DD	FLAT:?IsMonster@CBaseEntity@@UAEHXZ
	DD	FLAT:?IsPushable@CBaseEntity@@UAEHXZ
	DD	FLAT:?IsProjectile@CBaseEntity@@UAEHXZ
	DD	FLAT:?IsFuncScreen@CBaseEntity@@UAEHXZ
	DD	FLAT:?IsPortal@CBaseEntity@@UAEHXZ
	DD	FLAT:?IsTank@CBaseEntity@@UAEHXZ
	DD	FLAT:?IsMover@CBaseEntity@@UAEHXZ
	DD	FLAT:?IsBreakable@CBaseEntity@@UAEHXZ
	DD	FLAT:?TeamID@CBaseEntity@@UAEPBDXZ
	DD	FLAT:?GetNextTarget@CBaseEntity@@UAEPAV1@XZ
	DD	FLAT:?Think@CBaseEntity@@UAEXXZ
	DD	FLAT:?Use@CGameText@@UAEXPAVCBaseEntity@@0W4USE_TYPE@@M@Z
	DD	FLAT:?Touch@CBaseEntity@@UAEXPAV1@@Z
	DD	FLAT:?Blocked@CBaseEntity@@UAEXPAV1@@Z
	DD	FLAT:?MoveDone@CBaseEntity@@UAEXXZ
	DD	FLAT:?Respawn@CBaseEntity@@UAEPAV1@XZ
	DD	FLAT:?UpdateOwner@CBaseEntity@@UAEXXZ
	DD	FLAT:?FBecomeProne@CBaseEntity@@UAEHXZ
	DD	FLAT:?Center@CBaseEntity@@UAE?AVVector@@XZ
	DD	FLAT:?EyePosition@CBaseEntity@@UAE?AVVector@@XZ
	DD	FLAT:?EarPosition@CBaseEntity@@UAE?AVVector@@XZ
	DD	FLAT:?BodyTarget@CBaseEntity@@UAE?AVVector@@ABV2@@Z
	DD	FLAT:?IsPointSized@CBaseEntity@@UBEHXZ
	DD	FLAT:?Illumination@CBaseEntity@@UAEHXZ
	DD	FLAT:?FVisible@CBaseEntity@@UAEHABVVector@@@Z
	DD	FLAT:?FVisible@CBaseEntity@@UAEHPAV1@@Z
	DD	FLAT:?ShouldCollide@CBaseEntity@@UAEHPAV1@@Z
CONST	ENDS
;	COMDAT ??_7?$CEntityFactory@VCGameEnd@@@@6B@
CONST	SEGMENT
??_7?$CEntityFactory@VCGameEnd@@@@6B@ DD FLAT:??_R4?$CEntityFactory@VCGameEnd@@@@6B@ ; CEntityFactory<CGameEnd>::`vftable'
	DD	FLAT:?Create@?$CEntityFactory@VCGameEnd@@@@UAEPAVCBaseEntity@@PBDPAUentvars_s@@@Z
	DD	FLAT:?Destroy@?$CEntityFactory@VCGameEnd@@@@UAEXPAVCBaseEntity@@@Z
	DD	FLAT:?GetEntitySize@?$CEntityFactory@VCGameEnd@@@@UAEIXZ
CONST	ENDS
;	COMDAT ??_7CGameEnd@@6B@
CONST	SEGMENT
??_7CGameEnd@@6B@ DD FLAT:??_R4CGameEnd@@6B@		; CGameEnd::`vftable'
	DD	FLAT:?GetDataDescMap@CRuleEntity@@UAEPAUdatamap_s@@XZ
	DD	FLAT:?Spawn@CRulePointEntity@@UAEXXZ
	DD	FLAT:?Precache@CBaseEntity@@UAEXXZ
	DD	FLAT:?KeyValue@CRuleEntity@@UAEXPAUKeyValueData_s@@@Z
	DD	FLAT:?Save@CBaseEntity@@UAEHAAVCSave@@@Z
	DD	FLAT:?Restore@CBaseEntity@@UAEHAAVCRestore@@@Z
	DD	FLAT:?ObjectCaps@CBaseEntity@@UAEHXZ
	DD	FLAT:?Activate@CBaseEntity@@UAEXXZ
	DD	FLAT:?OnChangeLevel@CBaseEntity@@UAEXXZ
	DD	FLAT:?OnTeleport@CBaseEntity@@UAEXXZ
	DD	FLAT:?PortalSleep@CBaseEntity@@UAEXM@Z
	DD	FLAT:?StartMessage@CBaseEntity@@UAEXPAVCBasePlayer@@@Z
	DD	FLAT:?GetPosition@CBaseEntity@@UAEMXZ
	DD	FLAT:?OnChangeParent@CBaseEntity@@UAEXXZ
	DD	FLAT:?OnClearParent@CBaseEntity@@UAEXXZ
	DD	FLAT:?OnRemove@CBaseEntity@@UAEXXZ
	DD	FLAT:?SetObjectCollisionBox@CBaseEntity@@UAEXXZ
	DD	FLAT:?Classify@CBaseEntity@@UAEHXZ
	DD	FLAT:?DeathNotice@CBaseEntity@@UAEXPAUentvars_s@@@Z
	DD	FLAT:?IsRigidBody@CBaseEntity@@UAEHXZ
	DD	FLAT:?SetNextThink@CBaseEntity@@UAEXM@Z
	DD	FLAT:?GetState@CBaseEntity@@UAE?AW4STATE@@PAV1@@Z
	DD	FLAT:?GetState@CBaseEntity@@UAE?AW4STATE@@XZ
	DD	FLAT:?TraceAttack@CBaseEntity@@UAEXPAUentvars_s@@MVVector@@PAUgametrace_s@@H@Z
	DD	FLAT:?TakeDamage@CBaseEntity@@UAEHPAUentvars_s@@0MH@Z
	DD	FLAT:?TakeHealth@CBaseEntity@@UAEHMH@Z
	DD	FLAT:?TakeArmor@CBaseEntity@@UAEHMH@Z
	DD	FLAT:?Killed@CBaseEntity@@UAEXPAUentvars_s@@H@Z
	DD	FLAT:?BloodColor@CBaseEntity@@UAEHXZ
	DD	FLAT:?TraceBleed@CBaseEntity@@UAEXMVVector@@PAUgametrace_s@@H@Z
	DD	FLAT:?IsTriggered@CBaseEntity@@UAEHPAV1@@Z
	DD	FLAT:?MyMonsterPointer@CBaseEntity@@UAEPAVCBaseMonster@@XZ
	DD	FLAT:?MySquadMonsterPointer@CBaseEntity@@UAEPAVCSquadMonster@@XZ
	DD	FLAT:?GetToggleState@CBaseEntity@@UAEHXZ
	DD	FLAT:?AddPoints@CBaseEntity@@UAEXHH@Z
	DD	FLAT:?AddPointsToTeam@CBaseEntity@@UAEXHH@Z
	DD	FLAT:?AddPlayerItem@CBaseEntity@@UAEHPAVCBasePlayerItem@@@Z
	DD	FLAT:?RemovePlayerItem@CBaseEntity@@UAEHPAVCBasePlayerItem@@@Z
	DD	FLAT:?GiveAmmo@CBaseEntity@@UAEHHPADH@Z
	DD	FLAT:?GetDelay@CBaseEntity@@UAEMXZ
	DD	FLAT:?IsMoving@CBaseEntity@@UAEHXZ
	DD	FLAT:?OverrideReset@CBaseEntity@@UAEXXZ
	DD	FLAT:?TransferReset@CBaseEntity@@UAEXXZ
	DD	FLAT:?DamageDecal@CBaseEntity@@UAEHH@Z
	DD	FLAT:?SetToggleState@CBaseEntity@@UAEXH@Z
	DD	FLAT:?StartSneaking@CBaseEntity@@UAEXXZ
	DD	FLAT:?StopSneaking@CBaseEntity@@UAEXXZ
	DD	FLAT:?OnControls@CBaseEntity@@UAEHPAV1@@Z
	DD	FLAT:?IsSneaking@CBaseEntity@@UAEHXZ
	DD	FLAT:?IsAlive@CBaseEntity@@UAEHXZ
	DD	FLAT:?IsBSPModel@CBaseEntity@@UAEHXZ
	DD	FLAT:?IsCustomModel@CBaseEntity@@UAEHXZ
	DD	FLAT:?ReflectGauss@CBaseEntity@@UAEHXZ
	DD	FLAT:?HasTarget@CBaseEntity@@UAEHH@Z
	DD	FLAT:?IsInWorld@CBaseEntity@@UAEHH@Z
	DD	FLAT:?IsPlayer@CBaseEntity@@UAEHXZ
	DD	FLAT:?IsNetClient@CBaseEntity@@UAEHXZ
	DD	FLAT:?IsMonster@CBaseEntity@@UAEHXZ
	DD	FLAT:?IsPushable@CBaseEntity@@UAEHXZ
	DD	FLAT:?IsProjectile@CBaseEntity@@UAEHXZ
	DD	FLAT:?IsFuncScreen@CBaseEntity@@UAEHXZ
	DD	FLAT:?IsPortal@CBaseEntity@@UAEHXZ
	DD	FLAT:?IsTank@CBaseEntity@@UAEHXZ
	DD	FLAT:?IsMover@CBaseEntity@@UAEHXZ
	DD	FLAT:?IsBreakable@CBaseEntity@@UAEHXZ
	DD	FLAT:?TeamID@CBaseEntity@@UAEPBDXZ
	DD	FLAT:?GetNextTarget@CBaseEntity@@UAEPAV1@XZ
	DD	FLAT:?Think@CBaseEntity@@UAEXXZ
	DD	FLAT:?Use@CGameEnd@@UAEXPAVCBaseEntity@@0W4USE_TYPE@@M@Z
	DD	FLAT:?Touch@CBaseEntity@@UAEXPAV1@@Z
	DD	FLAT:?Blocked@CBaseEntity@@UAEXPAV1@@Z
	DD	FLAT:?MoveDone@CBaseEntity@@UAEXXZ
	DD	FLAT:?Respawn@CBaseEntity@@UAEPAV1@XZ
	DD	FLAT:?UpdateOwner@CBaseEntity@@UAEXXZ
	DD	FLAT:?FBecomeProne@CBaseEntity@@UAEHXZ
	DD	FLAT:?Center@CBaseEntity@@UAE?AVVector@@XZ
	DD	FLAT:?EyePosition@CBaseEntity@@UAE?AVVector@@XZ
	DD	FLAT:?EarPosition@CBaseEntity@@UAE?AVVector@@XZ
	DD	FLAT:?BodyTarget@CBaseEntity@@UAE?AVVector@@ABV2@@Z
	DD	FLAT:?IsPointSized@CBaseEntity@@UBEHXZ
	DD	FLAT:?Illumination@CBaseEntity@@UAEHXZ
	DD	FLAT:?FVisible@CBaseEntity@@UAEHABVVector@@@Z
	DD	FLAT:?FVisible@CBaseEntity@@UAEHPAV1@@Z
	DD	FLAT:?ShouldCollide@CBaseEntity@@UAEHPAV1@@Z
CONST	ENDS
;	COMDAT ??_7?$CEntityFactory@VCGameScore@@@@6B@
CONST	SEGMENT
??_7?$CEntityFactory@VCGameScore@@@@6B@ DD FLAT:??_R4?$CEntityFactory@VCGameScore@@@@6B@ ; CEntityFactory<CGameScore>::`vftable'
	DD	FLAT:?Create@?$CEntityFactory@VCGameScore@@@@UAEPAVCBaseEntity@@PBDPAUentvars_s@@@Z
	DD	FLAT:?Destroy@?$CEntityFactory@VCGameScore@@@@UAEXPAVCBaseEntity@@@Z
	DD	FLAT:?GetEntitySize@?$CEntityFactory@VCGameScore@@@@UAEIXZ
CONST	ENDS
;	COMDAT ??_7CGameScore@@6B@
CONST	SEGMENT
??_7CGameScore@@6B@ DD FLAT:??_R4CGameScore@@6B@	; CGameScore::`vftable'
	DD	FLAT:?GetDataDescMap@CRuleEntity@@UAEPAUdatamap_s@@XZ
	DD	FLAT:?Spawn@CGameScore@@UAEXXZ
	DD	FLAT:?Precache@CBaseEntity@@UAEXXZ
	DD	FLAT:?KeyValue@CGameScore@@UAEXPAUKeyValueData_s@@@Z
	DD	FLAT:?Save@CBaseEntity@@UAEHAAVCSave@@@Z
	DD	FLAT:?Restore@CBaseEntity@@UAEHAAVCRestore@@@Z
	DD	FLAT:?ObjectCaps@CBaseEntity@@UAEHXZ
	DD	FLAT:?Activate@CBaseEntity@@UAEXXZ
	DD	FLAT:?OnChangeLevel@CBaseEntity@@UAEXXZ
	DD	FLAT:?OnTeleport@CBaseEntity@@UAEXXZ
	DD	FLAT:?PortalSleep@CBaseEntity@@UAEXM@Z
	DD	FLAT:?StartMessage@CBaseEntity@@UAEXPAVCBasePlayer@@@Z
	DD	FLAT:?GetPosition@CBaseEntity@@UAEMXZ
	DD	FLAT:?OnChangeParent@CBaseEntity@@UAEXXZ
	DD	FLAT:?OnClearParent@CBaseEntity@@UAEXXZ
	DD	FLAT:?OnRemove@CBaseEntity@@UAEXXZ
	DD	FLAT:?SetObjectCollisionBox@CBaseEntity@@UAEXXZ
	DD	FLAT:?Classify@CBaseEntity@@UAEHXZ
	DD	FLAT:?DeathNotice@CBaseEntity@@UAEXPAUentvars_s@@@Z
	DD	FLAT:?IsRigidBody@CBaseEntity@@UAEHXZ
	DD	FLAT:?SetNextThink@CBaseEntity@@UAEXM@Z
	DD	FLAT:?GetState@CBaseEntity@@UAE?AW4STATE@@PAV1@@Z
	DD	FLAT:?GetState@CBaseEntity@@UAE?AW4STATE@@XZ
	DD	FLAT:?TraceAttack@CBaseEntity@@UAEXPAUentvars_s@@MVVector@@PAUgametrace_s@@H@Z
	DD	FLAT:?TakeDamage@CBaseEntity@@UAEHPAUentvars_s@@0MH@Z
	DD	FLAT:?TakeHealth@CBaseEntity@@UAEHMH@Z
	DD	FLAT:?TakeArmor@CBaseEntity@@UAEHMH@Z
	DD	FLAT:?Killed@CBaseEntity@@UAEXPAUentvars_s@@H@Z
	DD	FLAT:?BloodColor@CBaseEntity@@UAEHXZ
	DD	FLAT:?TraceBleed@CBaseEntity@@UAEXMVVector@@PAUgametrace_s@@H@Z
	DD	FLAT:?IsTriggered@CBaseEntity@@UAEHPAV1@@Z
	DD	FLAT:?MyMonsterPointer@CBaseEntity@@UAEPAVCBaseMonster@@XZ
	DD	FLAT:?MySquadMonsterPointer@CBaseEntity@@UAEPAVCSquadMonster@@XZ
	DD	FLAT:?GetToggleState@CBaseEntity@@UAEHXZ
	DD	FLAT:?AddPoints@CBaseEntity@@UAEXHH@Z
	DD	FLAT:?AddPointsToTeam@CBaseEntity@@UAEXHH@Z
	DD	FLAT:?AddPlayerItem@CBaseEntity@@UAEHPAVCBasePlayerItem@@@Z
	DD	FLAT:?RemovePlayerItem@CBaseEntity@@UAEHPAVCBasePlayerItem@@@Z
	DD	FLAT:?GiveAmmo@CBaseEntity@@UAEHHPADH@Z
	DD	FLAT:?GetDelay@CBaseEntity@@UAEMXZ
	DD	FLAT:?IsMoving@CBaseEntity@@UAEHXZ
	DD	FLAT:?OverrideReset@CBaseEntity@@UAEXXZ
	DD	FLAT:?TransferReset@CBaseEntity@@UAEXXZ
	DD	FLAT:?DamageDecal@CBaseEntity@@UAEHH@Z
	DD	FLAT:?SetToggleState@CBaseEntity@@UAEXH@Z
	DD	FLAT:?StartSneaking@CBaseEntity@@UAEXXZ
	DD	FLAT:?StopSneaking@CBaseEntity@@UAEXXZ
	DD	FLAT:?OnControls@CBaseEntity@@UAEHPAV1@@Z
	DD	FLAT:?IsSneaking@CBaseEntity@@UAEHXZ
	DD	FLAT:?IsAlive@CBaseEntity@@UAEHXZ
	DD	FLAT:?IsBSPModel@CBaseEntity@@UAEHXZ
	DD	FLAT:?IsCustomModel@CBaseEntity@@UAEHXZ
	DD	FLAT:?ReflectGauss@CBaseEntity@@UAEHXZ
	DD	FLAT:?HasTarget@CBaseEntity@@UAEHH@Z
	DD	FLAT:?IsInWorld@CBaseEntity@@UAEHH@Z
	DD	FLAT:?IsPlayer@CBaseEntity@@UAEHXZ
	DD	FLAT:?IsNetClient@CBaseEntity@@UAEHXZ
	DD	FLAT:?IsMonster@CBaseEntity@@UAEHXZ
	DD	FLAT:?IsPushable@CBaseEntity@@UAEHXZ
	DD	FLAT:?IsProjectile@CBaseEntity@@UAEHXZ
	DD	FLAT:?IsFuncScreen@CBaseEntity@@UAEHXZ
	DD	FLAT:?IsPortal@CBaseEntity@@UAEHXZ
	DD	FLAT:?IsTank@CBaseEntity@@UAEHXZ
	DD	FLAT:?IsMover@CBaseEntity@@UAEHXZ
	DD	FLAT:?IsBreakable@CBaseEntity@@UAEHXZ
	DD	FLAT:?TeamID@CBaseEntity@@UAEPBDXZ
	DD	FLAT:?GetNextTarget@CBaseEntity@@UAEPAV1@XZ
	DD	FLAT:?Think@CBaseEntity@@UAEXXZ
	DD	FLAT:?Use@CGameScore@@UAEXPAVCBaseEntity@@0W4USE_TYPE@@M@Z
	DD	FLAT:?Touch@CBaseEntity@@UAEXPAV1@@Z
	DD	FLAT:?Blocked@CBaseEntity@@UAEXPAV1@@Z
	DD	FLAT:?MoveDone@CBaseEntity@@UAEXXZ
	DD	FLAT:?Respawn@CBaseEntity@@UAEPAV1@XZ
	DD	FLAT:?UpdateOwner@CBaseEntity@@UAEXXZ
	DD	FLAT:?FBecomeProne@CBaseEntity@@UAEHXZ
	DD	FLAT:?Center@CBaseEntity@@UAE?AVVector@@XZ
	DD	FLAT:?EyePosition@CBaseEntity@@UAE?AVVector@@XZ
	DD	FLAT:?EarPosition@CBaseEntity@@UAE?AVVector@@XZ
	DD	FLAT:?BodyTarget@CBaseEntity@@UAE?AVVector@@ABV2@@Z
	DD	FLAT:?IsPointSized@CBaseEntity@@UBEHXZ
	DD	FLAT:?Illumination@CBaseEntity@@UAEHXZ
	DD	FLAT:?FVisible@CBaseEntity@@UAEHABVVector@@@Z
	DD	FLAT:?FVisible@CBaseEntity@@UAEHPAV1@@Z
	DD	FLAT:?ShouldCollide@CBaseEntity@@UAEHPAV1@@Z
CONST	ENDS
;	COMDAT ??_7CRuleBrushEntity@@6B@
CONST	SEGMENT
??_7CRuleBrushEntity@@6B@ DD FLAT:??_R4CRuleBrushEntity@@6B@ ; CRuleBrushEntity::`vftable'
	DD	FLAT:?GetDataDescMap@CRuleEntity@@UAEPAUdatamap_s@@XZ
	DD	FLAT:?Spawn@CRuleBrushEntity@@UAEXXZ
	DD	FLAT:?Precache@CBaseEntity@@UAEXXZ
	DD	FLAT:?KeyValue@CRuleEntity@@UAEXPAUKeyValueData_s@@@Z
	DD	FLAT:?Save@CBaseEntity@@UAEHAAVCSave@@@Z
	DD	FLAT:?Restore@CBaseEntity@@UAEHAAVCRestore@@@Z
	DD	FLAT:?ObjectCaps@CBaseEntity@@UAEHXZ
	DD	FLAT:?Activate@CBaseEntity@@UAEXXZ
	DD	FLAT:?OnChangeLevel@CBaseEntity@@UAEXXZ
	DD	FLAT:?OnTeleport@CBaseEntity@@UAEXXZ
	DD	FLAT:?PortalSleep@CBaseEntity@@UAEXM@Z
	DD	FLAT:?StartMessage@CBaseEntity@@UAEXPAVCBasePlayer@@@Z
	DD	FLAT:?GetPosition@CBaseEntity@@UAEMXZ
	DD	FLAT:?OnChangeParent@CBaseEntity@@UAEXXZ
	DD	FLAT:?OnClearParent@CBaseEntity@@UAEXXZ
	DD	FLAT:?OnRemove@CBaseEntity@@UAEXXZ
	DD	FLAT:?SetObjectCollisionBox@CBaseEntity@@UAEXXZ
	DD	FLAT:?Classify@CBaseEntity@@UAEHXZ
	DD	FLAT:?DeathNotice@CBaseEntity@@UAEXPAUentvars_s@@@Z
	DD	FLAT:?IsRigidBody@CBaseEntity@@UAEHXZ
	DD	FLAT:?SetNextThink@CBaseEntity@@UAEXM@Z
	DD	FLAT:?GetState@CBaseEntity@@UAE?AW4STATE@@PAV1@@Z
	DD	FLAT:?GetState@CBaseEntity@@UAE?AW4STATE@@XZ
	DD	FLAT:?TraceAttack@CBaseEntity@@UAEXPAUentvars_s@@MVVector@@PAUgametrace_s@@H@Z
	DD	FLAT:?TakeDamage@CBaseEntity@@UAEHPAUentvars_s@@0MH@Z
	DD	FLAT:?TakeHealth@CBaseEntity@@UAEHMH@Z
	DD	FLAT:?TakeArmor@CBaseEntity@@UAEHMH@Z
	DD	FLAT:?Killed@CBaseEntity@@UAEXPAUentvars_s@@H@Z
	DD	FLAT:?BloodColor@CBaseEntity@@UAEHXZ
	DD	FLAT:?TraceBleed@CBaseEntity@@UAEXMVVector@@PAUgametrace_s@@H@Z
	DD	FLAT:?IsTriggered@CBaseEntity@@UAEHPAV1@@Z
	DD	FLAT:?MyMonsterPointer@CBaseEntity@@UAEPAVCBaseMonster@@XZ
	DD	FLAT:?MySquadMonsterPointer@CBaseEntity@@UAEPAVCSquadMonster@@XZ
	DD	FLAT:?GetToggleState@CBaseEntity@@UAEHXZ
	DD	FLAT:?AddPoints@CBaseEntity@@UAEXHH@Z
	DD	FLAT:?AddPointsToTeam@CBaseEntity@@UAEXHH@Z
	DD	FLAT:?AddPlayerItem@CBaseEntity@@UAEHPAVCBasePlayerItem@@@Z
	DD	FLAT:?RemovePlayerItem@CBaseEntity@@UAEHPAVCBasePlayerItem@@@Z
	DD	FLAT:?GiveAmmo@CBaseEntity@@UAEHHPADH@Z
	DD	FLAT:?GetDelay@CBaseEntity@@UAEMXZ
	DD	FLAT:?IsMoving@CBaseEntity@@UAEHXZ
	DD	FLAT:?OverrideReset@CBaseEntity@@UAEXXZ
	DD	FLAT:?TransferReset@CBaseEntity@@UAEXXZ
	DD	FLAT:?DamageDecal@CBaseEntity@@UAEHH@Z
	DD	FLAT:?SetToggleState@CBaseEntity@@UAEXH@Z
	DD	FLAT:?StartSneaking@CBaseEntity@@UAEXXZ
	DD	FLAT:?StopSneaking@CBaseEntity@@UAEXXZ
	DD	FLAT:?OnControls@CBaseEntity@@UAEHPAV1@@Z
	DD	FLAT:?IsSneaking@CBaseEntity@@UAEHXZ
	DD	FLAT:?IsAlive@CBaseEntity@@UAEHXZ
	DD	FLAT:?IsBSPModel@CBaseEntity@@UAEHXZ
	DD	FLAT:?IsCustomModel@CBaseEntity@@UAEHXZ
	DD	FLAT:?ReflectGauss@CBaseEntity@@UAEHXZ
	DD	FLAT:?HasTarget@CBaseEntity@@UAEHH@Z
	DD	FLAT:?IsInWorld@CBaseEntity@@UAEHH@Z
	DD	FLAT:?IsPlayer@CBaseEntity@@UAEHXZ
	DD	FLAT:?IsNetClient@CBaseEntity@@UAEHXZ
	DD	FLAT:?IsMonster@CBaseEntity@@UAEHXZ
	DD	FLAT:?IsPushable@CBaseEntity@@UAEHXZ
	DD	FLAT:?IsProjectile@CBaseEntity@@UAEHXZ
	DD	FLAT:?IsFuncScreen@CBaseEntity@@UAEHXZ
	DD	FLAT:?IsPortal@CBaseEntity@@UAEHXZ
	DD	FLAT:?IsTank@CBaseEntity@@UAEHXZ
	DD	FLAT:?IsMover@CBaseEntity@@UAEHXZ
	DD	FLAT:?IsBreakable@CBaseEntity@@UAEHXZ
	DD	FLAT:?TeamID@CBaseEntity@@UAEPBDXZ
	DD	FLAT:?GetNextTarget@CBaseEntity@@UAEPAV1@XZ
	DD	FLAT:?Think@CBaseEntity@@UAEXXZ
	DD	FLAT:?Use@CBaseEntity@@UAEXPAV1@0W4USE_TYPE@@M@Z
	DD	FLAT:?Touch@CBaseEntity@@UAEXPAV1@@Z
	DD	FLAT:?Blocked@CBaseEntity@@UAEXPAV1@@Z
	DD	FLAT:?MoveDone@CBaseEntity@@UAEXXZ
	DD	FLAT:?Respawn@CBaseEntity@@UAEPAV1@XZ
	DD	FLAT:?UpdateOwner@CBaseEntity@@UAEXXZ
	DD	FLAT:?FBecomeProne@CBaseEntity@@UAEHXZ
	DD	FLAT:?Center@CBaseEntity@@UAE?AVVector@@XZ
	DD	FLAT:?EyePosition@CBaseEntity@@UAE?AVVector@@XZ
	DD	FLAT:?EarPosition@CBaseEntity@@UAE?AVVector@@XZ
	DD	FLAT:?BodyTarget@CBaseEntity@@UAE?AVVector@@ABV2@@Z
	DD	FLAT:?IsPointSized@CBaseEntity@@UBEHXZ
	DD	FLAT:?Illumination@CBaseEntity@@UAEHXZ
	DD	FLAT:?FVisible@CBaseEntity@@UAEHABVVector@@@Z
	DD	FLAT:?FVisible@CBaseEntity@@UAEHPAV1@@Z
	DD	FLAT:?ShouldCollide@CBaseEntity@@UAEHPAV1@@Z
CONST	ENDS
;	COMDAT ??_7CRulePointEntity@@6B@
CONST	SEGMENT
??_7CRulePointEntity@@6B@ DD FLAT:??_R4CRulePointEntity@@6B@ ; CRulePointEntity::`vftable'
	DD	FLAT:?GetDataDescMap@CRuleEntity@@UAEPAUdatamap_s@@XZ
	DD	FLAT:?Spawn@CRulePointEntity@@UAEXXZ
	DD	FLAT:?Precache@CBaseEntity@@UAEXXZ
	DD	FLAT:?KeyValue@CRuleEntity@@UAEXPAUKeyValueData_s@@@Z
	DD	FLAT:?Save@CBaseEntity@@UAEHAAVCSave@@@Z
	DD	FLAT:?Restore@CBaseEntity@@UAEHAAVCRestore@@@Z
	DD	FLAT:?ObjectCaps@CBaseEntity@@UAEHXZ
	DD	FLAT:?Activate@CBaseEntity@@UAEXXZ
	DD	FLAT:?OnChangeLevel@CBaseEntity@@UAEXXZ
	DD	FLAT:?OnTeleport@CBaseEntity@@UAEXXZ
	DD	FLAT:?PortalSleep@CBaseEntity@@UAEXM@Z
	DD	FLAT:?StartMessage@CBaseEntity@@UAEXPAVCBasePlayer@@@Z
	DD	FLAT:?GetPosition@CBaseEntity@@UAEMXZ
	DD	FLAT:?OnChangeParent@CBaseEntity@@UAEXXZ
	DD	FLAT:?OnClearParent@CBaseEntity@@UAEXXZ
	DD	FLAT:?OnRemove@CBaseEntity@@UAEXXZ
	DD	FLAT:?SetObjectCollisionBox@CBaseEntity@@UAEXXZ
	DD	FLAT:?Classify@CBaseEntity@@UAEHXZ
	DD	FLAT:?DeathNotice@CBaseEntity@@UAEXPAUentvars_s@@@Z
	DD	FLAT:?IsRigidBody@CBaseEntity@@UAEHXZ
	DD	FLAT:?SetNextThink@CBaseEntity@@UAEXM@Z
	DD	FLAT:?GetState@CBaseEntity@@UAE?AW4STATE@@PAV1@@Z
	DD	FLAT:?GetState@CBaseEntity@@UAE?AW4STATE@@XZ
	DD	FLAT:?TraceAttack@CBaseEntity@@UAEXPAUentvars_s@@MVVector@@PAUgametrace_s@@H@Z
	DD	FLAT:?TakeDamage@CBaseEntity@@UAEHPAUentvars_s@@0MH@Z
	DD	FLAT:?TakeHealth@CBaseEntity@@UAEHMH@Z
	DD	FLAT:?TakeArmor@CBaseEntity@@UAEHMH@Z
	DD	FLAT:?Killed@CBaseEntity@@UAEXPAUentvars_s@@H@Z
	DD	FLAT:?BloodColor@CBaseEntity@@UAEHXZ
	DD	FLAT:?TraceBleed@CBaseEntity@@UAEXMVVector@@PAUgametrace_s@@H@Z
	DD	FLAT:?IsTriggered@CBaseEntity@@UAEHPAV1@@Z
	DD	FLAT:?MyMonsterPointer@CBaseEntity@@UAEPAVCBaseMonster@@XZ
	DD	FLAT:?MySquadMonsterPointer@CBaseEntity@@UAEPAVCSquadMonster@@XZ
	DD	FLAT:?GetToggleState@CBaseEntity@@UAEHXZ
	DD	FLAT:?AddPoints@CBaseEntity@@UAEXHH@Z
	DD	FLAT:?AddPointsToTeam@CBaseEntity@@UAEXHH@Z
	DD	FLAT:?AddPlayerItem@CBaseEntity@@UAEHPAVCBasePlayerItem@@@Z
	DD	FLAT:?RemovePlayerItem@CBaseEntity@@UAEHPAVCBasePlayerItem@@@Z
	DD	FLAT:?GiveAmmo@CBaseEntity@@UAEHHPADH@Z
	DD	FLAT:?GetDelay@CBaseEntity@@UAEMXZ
	DD	FLAT:?IsMoving@CBaseEntity@@UAEHXZ
	DD	FLAT:?OverrideReset@CBaseEntity@@UAEXXZ
	DD	FLAT:?TransferReset@CBaseEntity@@UAEXXZ
	DD	FLAT:?DamageDecal@CBaseEntity@@UAEHH@Z
	DD	FLAT:?SetToggleState@CBaseEntity@@UAEXH@Z
	DD	FLAT:?StartSneaking@CBaseEntity@@UAEXXZ
	DD	FLAT:?StopSneaking@CBaseEntity@@UAEXXZ
	DD	FLAT:?OnControls@CBaseEntity@@UAEHPAV1@@Z
	DD	FLAT:?IsSneaking@CBaseEntity@@UAEHXZ
	DD	FLAT:?IsAlive@CBaseEntity@@UAEHXZ
	DD	FLAT:?IsBSPModel@CBaseEntity@@UAEHXZ
	DD	FLAT:?IsCustomModel@CBaseEntity@@UAEHXZ
	DD	FLAT:?ReflectGauss@CBaseEntity@@UAEHXZ
	DD	FLAT:?HasTarget@CBaseEntity@@UAEHH@Z
	DD	FLAT:?IsInWorld@CBaseEntity@@UAEHH@Z
	DD	FLAT:?IsPlayer@CBaseEntity@@UAEHXZ
	DD	FLAT:?IsNetClient@CBaseEntity@@UAEHXZ
	DD	FLAT:?IsMonster@CBaseEntity@@UAEHXZ
	DD	FLAT:?IsPushable@CBaseEntity@@UAEHXZ
	DD	FLAT:?IsProjectile@CBaseEntity@@UAEHXZ
	DD	FLAT:?IsFuncScreen@CBaseEntity@@UAEHXZ
	DD	FLAT:?IsPortal@CBaseEntity@@UAEHXZ
	DD	FLAT:?IsTank@CBaseEntity@@UAEHXZ
	DD	FLAT:?IsMover@CBaseEntity@@UAEHXZ
	DD	FLAT:?IsBreakable@CBaseEntity@@UAEHXZ
	DD	FLAT:?TeamID@CBaseEntity@@UAEPBDXZ
	DD	FLAT:?GetNextTarget@CBaseEntity@@UAEPAV1@XZ
	DD	FLAT:?Think@CBaseEntity@@UAEXXZ
	DD	FLAT:?Use@CBaseEntity@@UAEXPAV1@0W4USE_TYPE@@M@Z
	DD	FLAT:?Touch@CBaseEntity@@UAEXPAV1@@Z
	DD	FLAT:?Blocked@CBaseEntity@@UAEXPAV1@@Z
	DD	FLAT:?MoveDone@CBaseEntity@@UAEXXZ
	DD	FLAT:?Respawn@CBaseEntity@@UAEPAV1@XZ
	DD	FLAT:?UpdateOwner@CBaseEntity@@UAEXXZ
	DD	FLAT:?FBecomeProne@CBaseEntity@@UAEHXZ
	DD	FLAT:?Center@CBaseEntity@@UAE?AVVector@@XZ
	DD	FLAT:?EyePosition@CBaseEntity@@UAE?AVVector@@XZ
	DD	FLAT:?EarPosition@CBaseEntity@@UAE?AVVector@@XZ
	DD	FLAT:?BodyTarget@CBaseEntity@@UAE?AVVector@@ABV2@@Z
	DD	FLAT:?IsPointSized@CBaseEntity@@UBEHXZ
	DD	FLAT:?Illumination@CBaseEntity@@UAEHXZ
	DD	FLAT:?FVisible@CBaseEntity@@UAEHABVVector@@@Z
	DD	FLAT:?FVisible@CBaseEntity@@UAEHPAV1@@Z
	DD	FLAT:?ShouldCollide@CBaseEntity@@UAEHPAV1@@Z
CONST	ENDS
;	COMDAT ?dataDesc@?1???$DataMapInit@VCRuleEntity@@@@YAPAUdatamap_s@@PAVCRuleEntity@@@Z@4PAUtypedescription_s@@A
_DATA	SEGMENT
?dataDesc@?1???$DataMapInit@VCRuleEntity@@@@YAPAUdatamap_s@@PAVCRuleEntity@@@Z@4PAUtypedescription_s@@A DD 012H ; `DataMapInit<CRuleEntity>'::`2'::dataDesc
	DD	00H
	DD	00H
	DW	00H
	DW	00H
	DD	00H
	DD	00H
	DD	01H
	DD	FLAT:$SG75418
	DD	0674H
	DW	01H
	DW	06H
	DD	FLAT:$SG75419
	DD	00H
_DATA	ENDS
;	COMDAT ??_7CRuleEntity@@6B@
CONST	SEGMENT
??_7CRuleEntity@@6B@ DD FLAT:??_R4CRuleEntity@@6B@	; CRuleEntity::`vftable'
	DD	FLAT:?GetDataDescMap@CRuleEntity@@UAEPAUdatamap_s@@XZ
	DD	FLAT:?Spawn@CRuleEntity@@UAEXXZ
	DD	FLAT:?Precache@CBaseEntity@@UAEXXZ
	DD	FLAT:?KeyValue@CRuleEntity@@UAEXPAUKeyValueData_s@@@Z
	DD	FLAT:?Save@CBaseEntity@@UAEHAAVCSave@@@Z
	DD	FLAT:?Restore@CBaseEntity@@UAEHAAVCRestore@@@Z
	DD	FLAT:?ObjectCaps@CBaseEntity@@UAEHXZ
	DD	FLAT:?Activate@CBaseEntity@@UAEXXZ
	DD	FLAT:?OnChangeLevel@CBaseEntity@@UAEXXZ
	DD	FLAT:?OnTeleport@CBaseEntity@@UAEXXZ
	DD	FLAT:?PortalSleep@CBaseEntity@@UAEXM@Z
	DD	FLAT:?StartMessage@CBaseEntity@@UAEXPAVCBasePlayer@@@Z
	DD	FLAT:?GetPosition@CBaseEntity@@UAEMXZ
	DD	FLAT:?OnChangeParent@CBaseEntity@@UAEXXZ
	DD	FLAT:?OnClearParent@CBaseEntity@@UAEXXZ
	DD	FLAT:?OnRemove@CBaseEntity@@UAEXXZ
	DD	FLAT:?SetObjectCollisionBox@CBaseEntity@@UAEXXZ
	DD	FLAT:?Classify@CBaseEntity@@UAEHXZ
	DD	FLAT:?DeathNotice@CBaseEntity@@UAEXPAUentvars_s@@@Z
	DD	FLAT:?IsRigidBody@CBaseEntity@@UAEHXZ
	DD	FLAT:?SetNextThink@CBaseEntity@@UAEXM@Z
	DD	FLAT:?GetState@CBaseEntity@@UAE?AW4STATE@@PAV1@@Z
	DD	FLAT:?GetState@CBaseEntity@@UAE?AW4STATE@@XZ
	DD	FLAT:?TraceAttack@CBaseEntity@@UAEXPAUentvars_s@@MVVector@@PAUgametrace_s@@H@Z
	DD	FLAT:?TakeDamage@CBaseEntity@@UAEHPAUentvars_s@@0MH@Z
	DD	FLAT:?TakeHealth@CBaseEntity@@UAEHMH@Z
	DD	FLAT:?TakeArmor@CBaseEntity@@UAEHMH@Z
	DD	FLAT:?Killed@CBaseEntity@@UAEXPAUentvars_s@@H@Z
	DD	FLAT:?BloodColor@CBaseEntity@@UAEHXZ
	DD	FLAT:?TraceBleed@CBaseEntity@@UAEXMVVector@@PAUgametrace_s@@H@Z
	DD	FLAT:?IsTriggered@CBaseEntity@@UAEHPAV1@@Z
	DD	FLAT:?MyMonsterPointer@CBaseEntity@@UAEPAVCBaseMonster@@XZ
	DD	FLAT:?MySquadMonsterPointer@CBaseEntity@@UAEPAVCSquadMonster@@XZ
	DD	FLAT:?GetToggleState@CBaseEntity@@UAEHXZ
	DD	FLAT:?AddPoints@CBaseEntity@@UAEXHH@Z
	DD	FLAT:?AddPointsToTeam@CBaseEntity@@UAEXHH@Z
	DD	FLAT:?AddPlayerItem@CBaseEntity@@UAEHPAVCBasePlayerItem@@@Z
	DD	FLAT:?RemovePlayerItem@CBaseEntity@@UAEHPAVCBasePlayerItem@@@Z
	DD	FLAT:?GiveAmmo@CBaseEntity@@UAEHHPADH@Z
	DD	FLAT:?GetDelay@CBaseEntity@@UAEMXZ
	DD	FLAT:?IsMoving@CBaseEntity@@UAEHXZ
	DD	FLAT:?OverrideReset@CBaseEntity@@UAEXXZ
	DD	FLAT:?TransferReset@CBaseEntity@@UAEXXZ
	DD	FLAT:?DamageDecal@CBaseEntity@@UAEHH@Z
	DD	FLAT:?SetToggleState@CBaseEntity@@UAEXH@Z
	DD	FLAT:?StartSneaking@CBaseEntity@@UAEXXZ
	DD	FLAT:?StopSneaking@CBaseEntity@@UAEXXZ
	DD	FLAT:?OnControls@CBaseEntity@@UAEHPAV1@@Z
	DD	FLAT:?IsSneaking@CBaseEntity@@UAEHXZ
	DD	FLAT:?IsAlive@CBaseEntity@@UAEHXZ
	DD	FLAT:?IsBSPModel@CBaseEntity@@UAEHXZ
	DD	FLAT:?IsCustomModel@CBaseEntity@@UAEHXZ
	DD	FLAT:?ReflectGauss@CBaseEntity@@UAEHXZ
	DD	FLAT:?HasTarget@CBaseEntity@@UAEHH@Z
	DD	FLAT:?IsInWorld@CBaseEntity@@UAEHH@Z
	DD	FLAT:?IsPlayer@CBaseEntity@@UAEHXZ
	DD	FLAT:?IsNetClient@CBaseEntity@@UAEHXZ
	DD	FLAT:?IsMonster@CBaseEntity@@UAEHXZ
	DD	FLAT:?IsPushable@CBaseEntity@@UAEHXZ
	DD	FLAT:?IsProjectile@CBaseEntity@@UAEHXZ
	DD	FLAT:?IsFuncScreen@CBaseEntity@@UAEHXZ
	DD	FLAT:?IsPortal@CBaseEntity@@UAEHXZ
	DD	FLAT:?IsTank@CBaseEntity@@UAEHXZ
	DD	FLAT:?IsMover@CBaseEntity@@UAEHXZ
	DD	FLAT:?IsBreakable@CBaseEntity@@UAEHXZ
	DD	FLAT:?TeamID@CBaseEntity@@UAEPBDXZ
	DD	FLAT:?GetNextTarget@CBaseEntity@@UAEPAV1@XZ
	DD	FLAT:?Think@CBaseEntity@@UAEXXZ
	DD	FLAT:?Use@CBaseEntity@@UAEXPAV1@0W4USE_TYPE@@M@Z
	DD	FLAT:?Touch@CBaseEntity@@UAEXPAV1@@Z
	DD	FLAT:?Blocked@CBaseEntity@@UAEXPAV1@@Z
	DD	FLAT:?MoveDone@CBaseEntity@@UAEXXZ
	DD	FLAT:?Respawn@CBaseEntity@@UAEPAV1@XZ
	DD	FLAT:?UpdateOwner@CBaseEntity@@UAEXXZ
	DD	FLAT:?FBecomeProne@CBaseEntity@@UAEHXZ
	DD	FLAT:?Center@CBaseEntity@@UAE?AVVector@@XZ
	DD	FLAT:?EyePosition@CBaseEntity@@UAE?AVVector@@XZ
	DD	FLAT:?EarPosition@CBaseEntity@@UAE?AVVector@@XZ
	DD	FLAT:?BodyTarget@CBaseEntity@@UAE?AVVector@@ABV2@@Z
	DD	FLAT:?IsPointSized@CBaseEntity@@UBEHXZ
	DD	FLAT:?Illumination@CBaseEntity@@UAEHXZ
	DD	FLAT:?FVisible@CBaseEntity@@UAEHABVVector@@@Z
	DD	FLAT:?FVisible@CBaseEntity@@UAEHPAV1@@Z
	DD	FLAT:?ShouldCollide@CBaseEntity@@UAEHPAV1@@Z
CONST	ENDS
;	COMDAT ??_C@_0N@JILDNHAP@vlight_cache@
CONST	SEGMENT
??_C@_0N@JILDNHAP@vlight_cache@ DB 'vlight_cache', 00H	; `string'
CONST	ENDS
;	COMDAT ??_C@_0L@IKCANML@reflection@
CONST	SEGMENT
??_C@_0L@IKCANML@reflection@ DB 'reflection', 00H	; `string'
CONST	ENDS
;	COMDAT ??_C@_05IAKJCFIM@style@
CONST	SEGMENT
??_C@_05IAKJCFIM@style@ DB 'style', 00H			; `string'
CONST	ENDS
;	COMDAT ??_C@_0M@EAELDHJO@parentflags@
CONST	SEGMENT
??_C@_0M@EAELDHJO@parentflags@ DB 'parentflags', 00H	; `string'
CONST	ENDS
;	COMDAT ??_C@_08JJJAOBDI@movewith@
CONST	SEGMENT
??_C@_08JJJAOBDI@movewith@ DB 'movewith', 00H		; `string'
CONST	ENDS
;	COMDAT ??_C@_06MLKDMCBD@parent@
CONST	SEGMENT
??_C@_06MLKDMCBD@parent@ DB 'parent', 00H		; `string'
CONST	ENDS
;	COMDAT ??_7CBaseEntity@@6B@
CONST	SEGMENT
??_7CBaseEntity@@6B@ DD FLAT:??_R4CBaseEntity@@6B@	; CBaseEntity::`vftable'
	DD	FLAT:?GetDataDescMap@CBaseEntity@@UAEPAUdatamap_s@@XZ
	DD	FLAT:?Spawn@CBaseEntity@@UAEXXZ
	DD	FLAT:?Precache@CBaseEntity@@UAEXXZ
	DD	FLAT:?KeyValue@CBaseEntity@@UAEXPAUKeyValueData_s@@@Z
	DD	FLAT:?Save@CBaseEntity@@UAEHAAVCSave@@@Z
	DD	FLAT:?Restore@CBaseEntity@@UAEHAAVCRestore@@@Z
	DD	FLAT:?ObjectCaps@CBaseEntity@@UAEHXZ
	DD	FLAT:?Activate@CBaseEntity@@UAEXXZ
	DD	FLAT:?OnChangeLevel@CBaseEntity@@UAEXXZ
	DD	FLAT:?OnTeleport@CBaseEntity@@UAEXXZ
	DD	FLAT:?PortalSleep@CBaseEntity@@UAEXM@Z
	DD	FLAT:?StartMessage@CBaseEntity@@UAEXPAVCBasePlayer@@@Z
	DD	FLAT:?GetPosition@CBaseEntity@@UAEMXZ
	DD	FLAT:?OnChangeParent@CBaseEntity@@UAEXXZ
	DD	FLAT:?OnClearParent@CBaseEntity@@UAEXXZ
	DD	FLAT:?OnRemove@CBaseEntity@@UAEXXZ
	DD	FLAT:?SetObjectCollisionBox@CBaseEntity@@UAEXXZ
	DD	FLAT:?Classify@CBaseEntity@@UAEHXZ
	DD	FLAT:?DeathNotice@CBaseEntity@@UAEXPAUentvars_s@@@Z
	DD	FLAT:?IsRigidBody@CBaseEntity@@UAEHXZ
	DD	FLAT:?SetNextThink@CBaseEntity@@UAEXM@Z
	DD	FLAT:?GetState@CBaseEntity@@UAE?AW4STATE@@PAV1@@Z
	DD	FLAT:?GetState@CBaseEntity@@UAE?AW4STATE@@XZ
	DD	FLAT:?TraceAttack@CBaseEntity@@UAEXPAUentvars_s@@MVVector@@PAUgametrace_s@@H@Z
	DD	FLAT:?TakeDamage@CBaseEntity@@UAEHPAUentvars_s@@0MH@Z
	DD	FLAT:?TakeHealth@CBaseEntity@@UAEHMH@Z
	DD	FLAT:?TakeArmor@CBaseEntity@@UAEHMH@Z
	DD	FLAT:?Killed@CBaseEntity@@UAEXPAUentvars_s@@H@Z
	DD	FLAT:?BloodColor@CBaseEntity@@UAEHXZ
	DD	FLAT:?TraceBleed@CBaseEntity@@UAEXMVVector@@PAUgametrace_s@@H@Z
	DD	FLAT:?IsTriggered@CBaseEntity@@UAEHPAV1@@Z
	DD	FLAT:?MyMonsterPointer@CBaseEntity@@UAEPAVCBaseMonster@@XZ
	DD	FLAT:?MySquadMonsterPointer@CBaseEntity@@UAEPAVCSquadMonster@@XZ
	DD	FLAT:?GetToggleState@CBaseEntity@@UAEHXZ
	DD	FLAT:?AddPoints@CBaseEntity@@UAEXHH@Z
	DD	FLAT:?AddPointsToTeam@CBaseEntity@@UAEXHH@Z
	DD	FLAT:?AddPlayerItem@CBaseEntity@@UAEHPAVCBasePlayerItem@@@Z
	DD	FLAT:?RemovePlayerItem@CBaseEntity@@UAEHPAVCBasePlayerItem@@@Z
	DD	FLAT:?GiveAmmo@CBaseEntity@@UAEHHPADH@Z
	DD	FLAT:?GetDelay@CBaseEntity@@UAEMXZ
	DD	FLAT:?IsMoving@CBaseEntity@@UAEHXZ
	DD	FLAT:?OverrideReset@CBaseEntity@@UAEXXZ
	DD	FLAT:?TransferReset@CBaseEntity@@UAEXXZ
	DD	FLAT:?DamageDecal@CBaseEntity@@UAEHH@Z
	DD	FLAT:?SetToggleState@CBaseEntity@@UAEXH@Z
	DD	FLAT:?StartSneaking@CBaseEntity@@UAEXXZ
	DD	FLAT:?StopSneaking@CBaseEntity@@UAEXXZ
	DD	FLAT:?OnControls@CBaseEntity@@UAEHPAV1@@Z
	DD	FLAT:?IsSneaking@CBaseEntity@@UAEHXZ
	DD	FLAT:?IsAlive@CBaseEntity@@UAEHXZ
	DD	FLAT:?IsBSPModel@CBaseEntity@@UAEHXZ
	DD	FLAT:?IsCustomModel@CBaseEntity@@UAEHXZ
	DD	FLAT:?ReflectGauss@CBaseEntity@@UAEHXZ
	DD	FLAT:?HasTarget@CBaseEntity@@UAEHH@Z
	DD	FLAT:?IsInWorld@CBaseEntity@@UAEHH@Z
	DD	FLAT:?IsPlayer@CBaseEntity@@UAEHXZ
	DD	FLAT:?IsNetClient@CBaseEntity@@UAEHXZ
	DD	FLAT:?IsMonster@CBaseEntity@@UAEHXZ
	DD	FLAT:?IsPushable@CBaseEntity@@UAEHXZ
	DD	FLAT:?IsProjectile@CBaseEntity@@UAEHXZ
	DD	FLAT:?IsFuncScreen@CBaseEntity@@UAEHXZ
	DD	FLAT:?IsPortal@CBaseEntity@@UAEHXZ
	DD	FLAT:?IsTank@CBaseEntity@@UAEHXZ
	DD	FLAT:?IsMover@CBaseEntity@@UAEHXZ
	DD	FLAT:?IsBreakable@CBaseEntity@@UAEHXZ
	DD	FLAT:?TeamID@CBaseEntity@@UAEPBDXZ
	DD	FLAT:?GetNextTarget@CBaseEntity@@UAEPAV1@XZ
	DD	FLAT:?Think@CBaseEntity@@UAEXXZ
	DD	FLAT:?Use@CBaseEntity@@UAEXPAV1@0W4USE_TYPE@@M@Z
	DD	FLAT:?Touch@CBaseEntity@@UAEXPAV1@@Z
	DD	FLAT:?Blocked@CBaseEntity@@UAEXPAV1@@Z
	DD	FLAT:?MoveDone@CBaseEntity@@UAEXXZ
	DD	FLAT:?Respawn@CBaseEntity@@UAEPAV1@XZ
	DD	FLAT:?UpdateOwner@CBaseEntity@@UAEXXZ
	DD	FLAT:?FBecomeProne@CBaseEntity@@UAEHXZ
	DD	FLAT:?Center@CBaseEntity@@UAE?AVVector@@XZ
	DD	FLAT:?EyePosition@CBaseEntity@@UAE?AVVector@@XZ
	DD	FLAT:?EarPosition@CBaseEntity@@UAE?AVVector@@XZ
	DD	FLAT:?BodyTarget@CBaseEntity@@UAE?AVVector@@ABV2@@Z
	DD	FLAT:?IsPointSized@CBaseEntity@@UBEHXZ
	DD	FLAT:?Illumination@CBaseEntity@@UAEHXZ
	DD	FLAT:?FVisible@CBaseEntity@@UAEHABVVector@@@Z
	DD	FLAT:?FVisible@CBaseEntity@@UAEHPAV1@@Z
	DD	FLAT:?ShouldCollide@CBaseEntity@@UAEHPAV1@@Z
CONST	ENDS
;	COMDAT ??_C@_00CNPNBAHC@@
CONST	SEGMENT
??_C@_00CNPNBAHC@@ DB 00H				; `string'
CONST	ENDS
;	COMDAT ??_C@_0BF@DOONGEFO@Bad?5pev?5in?5OFFSET?$CI?$CJ?6@
CONST	SEGMENT
??_C@_0BF@DOONGEFO@Bad?5pev?5in?5OFFSET?$CI?$CJ?6@ DB 'Bad pev in OFFSET('
	DB	')', 0aH, 00H				; `string'
CONST	ENDS
;	COMDAT ??_C@_0BF@CPEPILID@Bad?5ent?5in?5OFFSET?$CI?$CJ?6@
CONST	SEGMENT
??_C@_0BF@CPEPILID@Bad?5ent?5in?5OFFSET?$CI?$CJ?6@ DB 'Bad ent in OFFSET('
	DB	')', 0aH, 00H				; `string'
CONST	ENDS
;	COMDAT ??_7IEntityFactory@@6B@
CONST	SEGMENT
??_7IEntityFactory@@6B@ DD FLAT:??_R4IEntityFactory@@6B@ ; IEntityFactory::`vftable'
	DD	FLAT:__purecall
	DD	FLAT:__purecall
	DD	FLAT:__purecall
CONST	ENDS
;	COMDAT xdata$x
xdata$x	SEGMENT
__unwindtable$??$GetClassPtr@VCGameScore@@@@YAPAVCGameScore@@PAV0@PBD@Z DD 0ffffffffH
	DD	FLAT:__unwindfunclet$??$GetClassPtr@VCGameScore@@@@YAPAVCGameScore@@PAV0@PBD@Z$0
__ehfuncinfo$??$GetClassPtr@VCGameScore@@@@YAPAVCGameScore@@PAV0@PBD@Z DD 019930522H
	DD	01H
	DD	FLAT:__unwindtable$??$GetClassPtr@VCGameScore@@@@YAPAVCGameScore@@PAV0@PBD@Z
	DD	2 DUP(00H)
	DD	2 DUP(00H)
	DD	00H
	DD	01H
xdata$x	ENDS
;	COMDAT xdata$x
xdata$x	SEGMENT
__unwindtable$??$GetClassPtr@VCGameEnd@@@@YAPAVCGameEnd@@PAV0@PBD@Z DD 0ffffffffH
	DD	FLAT:__unwindfunclet$??$GetClassPtr@VCGameEnd@@@@YAPAVCGameEnd@@PAV0@PBD@Z$0
__ehfuncinfo$??$GetClassPtr@VCGameEnd@@@@YAPAVCGameEnd@@PAV0@PBD@Z DD 019930522H
	DD	01H
	DD	FLAT:__unwindtable$??$GetClassPtr@VCGameEnd@@@@YAPAVCGameEnd@@PAV0@PBD@Z
	DD	2 DUP(00H)
	DD	2 DUP(00H)
	DD	00H
	DD	01H
xdata$x	ENDS
;	COMDAT xdata$x
xdata$x	SEGMENT
__unwindtable$??$GetClassPtr@VCGameText@@@@YAPAVCGameText@@PAV0@PBD@Z DD 0ffffffffH
	DD	FLAT:__unwindfunclet$??$GetClassPtr@VCGameText@@@@YAPAVCGameText@@PAV0@PBD@Z$0
__ehfuncinfo$??$GetClassPtr@VCGameText@@@@YAPAVCGameText@@PAV0@PBD@Z DD 019930522H
	DD	01H
	DD	FLAT:__unwindtable$??$GetClassPtr@VCGameText@@@@YAPAVCGameText@@PAV0@PBD@Z
	DD	2 DUP(00H)
	DD	2 DUP(00H)
	DD	00H
	DD	01H
xdata$x	ENDS
;	COMDAT xdata$x
xdata$x	SEGMENT
__unwindtable$??$GetClassPtr@VCGameTeamMaster@@@@YAPAVCGameTeamMaster@@PAV0@PBD@Z DD 0ffffffffH
	DD	FLAT:__unwindfunclet$??$GetClassPtr@VCGameTeamMaster@@@@YAPAVCGameTeamMaster@@PAV0@PBD@Z$0
__ehfuncinfo$??$GetClassPtr@VCGameTeamMaster@@@@YAPAVCGameTeamMaster@@PAV0@PBD@Z DD 019930522H
	DD	01H
	DD	FLAT:__unwindtable$??$GetClassPtr@VCGameTeamMaster@@@@YAPAVCGameTeamMaster@@PAV0@PBD@Z
	DD	2 DUP(00H)
	DD	2 DUP(00H)
	DD	00H
	DD	01H
xdata$x	ENDS
;	COMDAT xdata$x
xdata$x	SEGMENT
__unwindtable$??$GetClassPtr@VCGameTeamSet@@@@YAPAVCGameTeamSet@@PAV0@PBD@Z DD 0ffffffffH
	DD	FLAT:__unwindfunclet$??$GetClassPtr@VCGameTeamSet@@@@YAPAVCGameTeamSet@@PAV0@PBD@Z$0
__ehfuncinfo$??$GetClassPtr@VCGameTeamSet@@@@YAPAVCGameTeamSet@@PAV0@PBD@Z DD 019930522H
	DD	01H
	DD	FLAT:__unwindtable$??$GetClassPtr@VCGameTeamSet@@@@YAPAVCGameTeamSet@@PAV0@PBD@Z
	DD	2 DUP(00H)
	DD	2 DUP(00H)
	DD	00H
	DD	01H
xdata$x	ENDS
;	COMDAT xdata$x
xdata$x	SEGMENT
__unwindtable$??$GetClassPtr@VCGamePlayerZone@@@@YAPAVCGamePlayerZone@@PAV0@PBD@Z DD 0ffffffffH
	DD	FLAT:__unwindfunclet$??$GetClassPtr@VCGamePlayerZone@@@@YAPAVCGamePlayerZone@@PAV0@PBD@Z$0
__ehfuncinfo$??$GetClassPtr@VCGamePlayerZone@@@@YAPAVCGamePlayerZone@@PAV0@PBD@Z DD 019930522H
	DD	01H
	DD	FLAT:__unwindtable$??$GetClassPtr@VCGamePlayerZone@@@@YAPAVCGamePlayerZone@@PAV0@PBD@Z
	DD	2 DUP(00H)
	DD	2 DUP(00H)
	DD	00H
	DD	01H
xdata$x	ENDS
;	COMDAT xdata$x
xdata$x	SEGMENT
__unwindtable$??$GetClassPtr@VCGamePlayerHurt@@@@YAPAVCGamePlayerHurt@@PAV0@PBD@Z DD 0ffffffffH
	DD	FLAT:__unwindfunclet$??$GetClassPtr@VCGamePlayerHurt@@@@YAPAVCGamePlayerHurt@@PAV0@PBD@Z$0
__ehfuncinfo$??$GetClassPtr@VCGamePlayerHurt@@@@YAPAVCGamePlayerHurt@@PAV0@PBD@Z DD 019930522H
	DD	01H
	DD	FLAT:__unwindtable$??$GetClassPtr@VCGamePlayerHurt@@@@YAPAVCGamePlayerHurt@@PAV0@PBD@Z
	DD	2 DUP(00H)
	DD	2 DUP(00H)
	DD	00H
	DD	01H
xdata$x	ENDS
;	COMDAT xdata$x
xdata$x	SEGMENT
__unwindtable$??$GetClassPtr@VCGameCounter@@@@YAPAVCGameCounter@@PAV0@PBD@Z DD 0ffffffffH
	DD	FLAT:__unwindfunclet$??$GetClassPtr@VCGameCounter@@@@YAPAVCGameCounter@@PAV0@PBD@Z$0
__ehfuncinfo$??$GetClassPtr@VCGameCounter@@@@YAPAVCGameCounter@@PAV0@PBD@Z DD 019930522H
	DD	01H
	DD	FLAT:__unwindtable$??$GetClassPtr@VCGameCounter@@@@YAPAVCGameCounter@@PAV0@PBD@Z
	DD	2 DUP(00H)
	DD	2 DUP(00H)
	DD	00H
	DD	01H
xdata$x	ENDS
;	COMDAT xdata$x
xdata$x	SEGMENT
__unwindtable$??$GetClassPtr@VCGameCounterSet@@@@YAPAVCGameCounterSet@@PAV0@PBD@Z DD 0ffffffffH
	DD	FLAT:__unwindfunclet$??$GetClassPtr@VCGameCounterSet@@@@YAPAVCGameCounterSet@@PAV0@PBD@Z$0
__ehfuncinfo$??$GetClassPtr@VCGameCounterSet@@@@YAPAVCGameCounterSet@@PAV0@PBD@Z DD 019930522H
	DD	01H
	DD	FLAT:__unwindtable$??$GetClassPtr@VCGameCounterSet@@@@YAPAVCGameCounterSet@@PAV0@PBD@Z
	DD	2 DUP(00H)
	DD	2 DUP(00H)
	DD	00H
	DD	01H
xdata$x	ENDS
;	COMDAT xdata$x
xdata$x	SEGMENT
__unwindtable$??$GetClassPtr@VCGamePlayerEquip@@@@YAPAVCGamePlayerEquip@@PAV0@PBD@Z DD 0ffffffffH
	DD	FLAT:__unwindfunclet$??$GetClassPtr@VCGamePlayerEquip@@@@YAPAVCGamePlayerEquip@@PAV0@PBD@Z$0
__ehfuncinfo$??$GetClassPtr@VCGamePlayerEquip@@@@YAPAVCGamePlayerEquip@@PAV0@PBD@Z DD 019930522H
	DD	01H
	DD	FLAT:__unwindtable$??$GetClassPtr@VCGamePlayerEquip@@@@YAPAVCGamePlayerEquip@@PAV0@PBD@Z
	DD	2 DUP(00H)
	DD	2 DUP(00H)
	DD	00H
	DD	01H
xdata$x	ENDS
;	COMDAT xdata$x
xdata$x	SEGMENT
__unwindtable$??$GetClassPtr@VCGamePlayerTeam@@@@YAPAVCGamePlayerTeam@@PAV0@PBD@Z DD 0ffffffffH
	DD	FLAT:__unwindfunclet$??$GetClassPtr@VCGamePlayerTeam@@@@YAPAVCGamePlayerTeam@@PAV0@PBD@Z$0
__ehfuncinfo$??$GetClassPtr@VCGamePlayerTeam@@@@YAPAVCGamePlayerTeam@@PAV0@PBD@Z DD 019930522H
	DD	01H
	DD	FLAT:__unwindtable$??$GetClassPtr@VCGamePlayerTeam@@@@YAPAVCGamePlayerTeam@@PAV0@PBD@Z
	DD	2 DUP(00H)
	DD	2 DUP(00H)
	DD	00H
	DD	01H
xdata$x	ENDS
xdata$x	SEGMENT
__unwindtable$??$DataMapInit@VCGamePlayerZone@@@@YAPAUdatamap_s@@PAVCGamePlayerZone@@@Z DD 0ffffffffH
	DD	FLAT:__unwindfunclet$??$DataMapInit@VCGamePlayerZone@@@@YAPAUdatamap_s@@PAVCGamePlayerZone@@@Z$0
__unwindtable$??$DataMapInit@VCGameText@@@@YAPAUdatamap_s@@PAVCGameText@@@Z DD 0ffffffffH
	DD	FLAT:__unwindfunclet$??$DataMapInit@VCGameText@@@@YAPAUdatamap_s@@PAVCGameText@@@Z$0
__unwindtable$??$DataMapInit@VCRuleEntity@@@@YAPAUdatamap_s@@PAVCRuleEntity@@@Z DD 0ffffffffH
	DD	FLAT:__unwindfunclet$??$DataMapInit@VCRuleEntity@@@@YAPAUdatamap_s@@PAVCRuleEntity@@@Z$0
__ehfuncinfo$??$DataMapInit@VCGamePlayerZone@@@@YAPAUdatamap_s@@PAVCGamePlayerZone@@@Z DD 019930522H
	DD	01H
	DD	FLAT:__unwindtable$??$DataMapInit@VCGamePlayerZone@@@@YAPAUdatamap_s@@PAVCGamePlayerZone@@@Z
	DD	2 DUP(00H)
	DD	2 DUP(00H)
	DD	00H
	DD	01H
__ehfuncinfo$??$DataMapInit@VCGameText@@@@YAPAUdatamap_s@@PAVCGameText@@@Z DD 019930522H
	DD	01H
	DD	FLAT:__unwindtable$??$DataMapInit@VCGameText@@@@YAPAUdatamap_s@@PAVCGameText@@@Z
	DD	2 DUP(00H)
	DD	2 DUP(00H)
	DD	00H
	DD	01H
__ehfuncinfo$??$DataMapInit@VCRuleEntity@@@@YAPAUdatamap_s@@PAVCRuleEntity@@@Z DD 019930522H
	DD	01H
	DD	FLAT:__unwindtable$??$DataMapInit@VCRuleEntity@@@@YAPAUdatamap_s@@PAVCRuleEntity@@@Z
	DD	2 DUP(00H)
	DD	2 DUP(00H)
	DD	00H
	DD	01H
xdata$x	ENDS
;	COMDAT xdata$x
xdata$x	SEGMENT
__ehfuncinfo$??1?$CUtlMemory@PADH@@QAE@XZ DD 019930522H
	DD	00H
	DD	00H
	DD	2 DUP(00H)
	DD	2 DUP(00H)
	DD	00H
	DD	05H
xdata$x	ENDS
;	COMDAT xdata$x
xdata$x	SEGMENT
__ehfuncinfo$??1?$CUtlArray@PADV?$CUtlMemory@PADH@@@@QAE@XZ DD 019930522H
	DD	00H
	DD	00H
	DD	2 DUP(00H)
	DD	2 DUP(00H)
	DD	00H
	DD	05H
xdata$x	ENDS
;	COMDAT xdata$x
xdata$x	SEGMENT
__unwindtable$??0?$CUtlArray@PADV?$CUtlMemory@PADH@@@@QAE@HH@Z DD 0ffffffffH
	DD	FLAT:__unwindfunclet$??0?$CUtlArray@PADV?$CUtlMemory@PADH@@@@QAE@HH@Z$0
__ehfuncinfo$??0?$CUtlArray@PADV?$CUtlMemory@PADH@@@@QAE@HH@Z DD 019930522H
	DD	01H
	DD	FLAT:__unwindtable$??0?$CUtlArray@PADV?$CUtlMemory@PADH@@@@QAE@HH@Z
	DD	2 DUP(00H)
	DD	2 DUP(00H)
	DD	00H
	DD	01H
xdata$x	ENDS
;	COMDAT xdata$x
xdata$x	SEGMENT
__ehfuncinfo$??1CDatadescGeneratedNameHolder@@QAE@XZ DD 019930522H
	DD	00H
	DD	00H
	DD	2 DUP(00H)
	DD	2 DUP(00H)
	DD	00H
	DD	05H
xdata$x	ENDS
CRT$XCU	SEGMENT
?game_score$initializer$@@3P6AXXZA DD FLAT:??__Egame_score@@YAXXZ ; game_score$initializer$
CRT$XCU	ENDS
CRT$XCU	SEGMENT
?game_end$initializer$@@3P6AXXZA DD FLAT:??__Egame_end@@YAXXZ ; game_end$initializer$
CRT$XCU	ENDS
CRT$XCU	SEGMENT
?game_text$initializer$@@3P6AXXZA DD FLAT:??__Egame_text@@YAXXZ ; game_text$initializer$
CRT$XCU	ENDS
CRT$XCU	SEGMENT
?g_DataMapHolder$initializer$@CGameText_DataDescInit@@3P6AXXZA DD FLAT:??__Eg_DataMapHolder@CGameText_DataDescInit@@YAXXZ ; CGameText_DataDescInit::g_DataMapHolder$initializer$
CRT$XCU	ENDS
CRT$XCU	SEGMENT
?game_team_master$initializer$@@3P6AXXZA DD FLAT:??__Egame_team_master@@YAXXZ ; game_team_master$initializer$
CRT$XCU	ENDS
CRT$XCU	SEGMENT
?game_team_set$initializer$@@3P6AXXZA DD FLAT:??__Egame_team_set@@YAXXZ ; game_team_set$initializer$
CRT$XCU	ENDS
CRT$XCU	SEGMENT
?game_zone_player$initializer$@@3P6AXXZA DD FLAT:??__Egame_zone_player@@YAXXZ ; game_zone_player$initializer$
CRT$XCU	ENDS
CRT$XCU	SEGMENT
?g_DataMapHolder$initializer$@CGamePlayerZone_DataDescInit@@3P6AXXZA DD FLAT:??__Eg_DataMapHolder@CGamePlayerZone_DataDescInit@@YAXXZ ; CGamePlayerZone_DataDescInit::g_DataMapHolder$initializer$
CRT$XCU	ENDS
CRT$XCU	SEGMENT
?game_player_hurt$initializer$@@3P6AXXZA DD FLAT:??__Egame_player_hurt@@YAXXZ ; game_player_hurt$initializer$
CRT$XCU	ENDS
CRT$XCU	SEGMENT
?game_counter$initializer$@@3P6AXXZA DD FLAT:??__Egame_counter@@YAXXZ ; game_counter$initializer$
CRT$XCU	ENDS
CRT$XCU	SEGMENT
?game_counter_set$initializer$@@3P6AXXZA DD FLAT:??__Egame_counter_set@@YAXXZ ; game_counter_set$initializer$
CRT$XCU	ENDS
CRT$XCU	SEGMENT
?game_player_equip$initializer$@@3P6AXXZA DD FLAT:??__Egame_player_equip@@YAXXZ ; game_player_equip$initializer$
CRT$XCU	ENDS
CRT$XCU	SEGMENT
?game_player_team$initializer$@@3P6AXXZA DD FLAT:??__Egame_player_team@@YAXXZ ; game_player_team$initializer$
CRT$XCU	ENDS
; Function compile flags: /Odtp
; File c:\users\user\downloads\xashxt_v0.81_rev.1_with_sources\xashxt_v0.81_rev.1_src\game_shared\utlmemory.h
;	COMDAT ??$Destruct@PAD@@YAXPAPAD@Z
_TEXT	SEGMENT
_pMemory$ = 8						; size = 4
??$Destruct@PAD@@YAXPAPAD@Z PROC			; Destruct<char *>, COMDAT

; 49   : {

	push	ebp
	mov	ebp, esp

; 50   : 	pMemory->~T();
; 51   : 
; 52   : #ifdef _DEBUG
; 53   : 	memset( pMemory, 0xDD, sizeof(T) );

	push	4
	push	221					; 000000ddH
	mov	eax, DWORD PTR _pMemory$[ebp]
	push	eax
	call	_memset
	add	esp, 12					; 0000000cH

; 54   : #endif
; 55   : }

	pop	ebp
	ret	0
??$Destruct@PAD@@YAXPAPAD@Z ENDP			; Destruct<char *>
_TEXT	ENDS
; Function compile flags: /Odtp
; File c:\users\user\downloads\xashxt_v0.81_rev.1_with_sources\xashxt_v0.81_rev.1_src\server\cbase.h
;	COMDAT ??$GetClassPtr@VCGameScore@@@@YAPAVCGameScore@@PAV0@PBD@Z
_TEXT	SEGMENT
$T2 = -28						; size = 4
tv85 = -24						; size = 4
$T3 = -20						; size = 4
_pev$ = -16						; size = 4
__$EHRec$ = -12						; size = 12
_newEnt$ = 8						; size = 4
_className$ = 12					; size = 4
??$GetClassPtr@VCGameScore@@@@YAPAVCGameScore@@PAV0@PBD@Z PROC ; GetClassPtr<CGameScore>, COMDAT

; 1076 : {

	push	ebp
	mov	ebp, esp
	push	-1
	push	__ehhandler$??$GetClassPtr@VCGameScore@@@@YAPAVCGameScore@@PAV0@PBD@Z
	mov	eax, DWORD PTR fs:0
	push	eax
	sub	esp, 16					; 00000010H
	mov	eax, DWORD PTR ___security_cookie
	xor	eax, ebp
	push	eax
	lea	eax, DWORD PTR __$EHRec$[ebp]
	mov	DWORD PTR fs:0, eax

; 1077 : 	entvars_t *pev = (entvars_t *)newEnt;

	mov	eax, DWORD PTR _newEnt$[ebp]
	mov	DWORD PTR _pev$[ebp], eax

; 1078 : 
; 1079 : 	// allocate entity if necessary
; 1080 : 	if (pev == NULL)

	cmp	DWORD PTR _pev$[ebp], 0
	jne	SHORT $LN2@GetClassPt

; 1081 : 		pev = VARS(CREATE_ENTITY());

	call	DWORD PTR ?g_engfuncs@@3Uenginefuncs_s@@A+84
	push	eax
	call	?VARS@@YAPAUentvars_s@@PAUedict_s@@@Z	; VARS
	add	esp, 4
	mov	DWORD PTR _pev$[ebp], eax
$LN2@GetClassPt:

; 1082 : 
; 1083 : 	// get the private data
; 1084 : 	newEnt = (T *)GET_PRIVATE(ENT(pev));

	mov	ecx, DWORD PTR _pev$[ebp]
	push	ecx
	call	?ENT@@YAPAUedict_s@@PBUentvars_s@@@Z	; ENT
	add	esp, 4
	push	eax
	call	?GET_PRIVATE@@YAPAXPAUedict_s@@@Z	; GET_PRIVATE
	add	esp, 4
	mov	DWORD PTR _newEnt$[ebp], eax

; 1085 : 
; 1086 : 	if (newEnt == NULL) 

	cmp	DWORD PTR _newEnt$[ebp], 0
	jne	SHORT $LN3@GetClassPt

; 1087 : 	{
; 1088 : 		// allocate private data 
; 1089 : 		newEnt = new(pev) T;

	mov	edx, DWORD PTR _pev$[ebp]
	push	edx
	push	1656					; 00000678H
	call	??2CBaseEntity@@SAPAXIPAUentvars_s@@@Z	; CBaseEntity::operator new
	add	esp, 8
	mov	DWORD PTR $T3[ebp], eax
	mov	DWORD PTR __$EHRec$[ebp+8], 0
	cmp	DWORD PTR $T3[ebp], 0
	je	SHORT $LN5@GetClassPt
	mov	ecx, DWORD PTR $T3[ebp]
	call	??0CGameScore@@QAE@XZ
	mov	DWORD PTR tv85[ebp], eax
	jmp	SHORT $LN6@GetClassPt
$LN5@GetClassPt:
	mov	DWORD PTR tv85[ebp], 0
$LN6@GetClassPt:
	mov	eax, DWORD PTR tv85[ebp]
	mov	DWORD PTR $T2[ebp], eax
	mov	DWORD PTR __$EHRec$[ebp+8], -1
	mov	ecx, DWORD PTR $T2[ebp]
	mov	DWORD PTR _newEnt$[ebp], ecx

; 1090 : 		newEnt->pev = pev;

	mov	edx, DWORD PTR _newEnt$[ebp]
	mov	eax, DWORD PTR _pev$[ebp]
	mov	DWORD PTR [edx+4], eax
$LN3@GetClassPt:

; 1091 : 	}
; 1092 : 	newEnt->SetClassname( className );

	mov	ecx, DWORD PTR _className$[ebp]
	push	ecx
	mov	ecx, DWORD PTR _newEnt$[ebp]
	call	?SetClassname@CBaseEntity@@QAEXPBD@Z	; CBaseEntity::SetClassname

; 1093 : 
; 1094 : 	return newEnt;

	mov	eax, DWORD PTR _newEnt$[ebp]

; 1095 : }

	mov	ecx, DWORD PTR __$EHRec$[ebp]
	mov	DWORD PTR fs:0, ecx
	pop	ecx
	mov	esp, ebp
	pop	ebp
	ret	0
_TEXT	ENDS
;	COMDAT text$x
text$x	SEGMENT
__unwindfunclet$??$GetClassPtr@VCGameScore@@@@YAPAVCGameScore@@PAV0@PBD@Z$0:
	mov	eax, DWORD PTR _pev$[ebp]
	push	eax
	mov	eax, DWORD PTR $T3[ebp]
	push	eax
	call	??3CBaseEntity@@SAXPAXPAUentvars_s@@@Z	; CBaseEntity::operator delete
	add	esp, 8
	ret	0
__ehhandler$??$GetClassPtr@VCGameScore@@@@YAPAVCGameScore@@PAV0@PBD@Z:
	mov	edx, DWORD PTR [esp+8]
	lea	eax, DWORD PTR [edx+12]
	mov	ecx, DWORD PTR [edx-20]
	xor	ecx, eax
	call	@__security_check_cookie@4
	mov	eax, OFFSET __ehfuncinfo$??$GetClassPtr@VCGameScore@@@@YAPAVCGameScore@@PAV0@PBD@Z
	jmp	___CxxFrameHandler3
text$x	ENDS
??$GetClassPtr@VCGameScore@@@@YAPAVCGameScore@@PAV0@PBD@Z ENDP ; GetClassPtr<CGameScore>
; Function compile flags: /Odtp
; File c:\users\user\downloads\xashxt_v0.81_rev.1_with_sources\xashxt_v0.81_rev.1_src\server\cbase.h
;	COMDAT ??$GetClassPtr@VCGameEnd@@@@YAPAVCGameEnd@@PAV0@PBD@Z
_TEXT	SEGMENT
$T2 = -28						; size = 4
tv85 = -24						; size = 4
$T3 = -20						; size = 4
_pev$ = -16						; size = 4
__$EHRec$ = -12						; size = 12
_newEnt$ = 8						; size = 4
_className$ = 12					; size = 4
??$GetClassPtr@VCGameEnd@@@@YAPAVCGameEnd@@PAV0@PBD@Z PROC ; GetClassPtr<CGameEnd>, COMDAT

; 1076 : {

	push	ebp
	mov	ebp, esp
	push	-1
	push	__ehhandler$??$GetClassPtr@VCGameEnd@@@@YAPAVCGameEnd@@PAV0@PBD@Z
	mov	eax, DWORD PTR fs:0
	push	eax
	sub	esp, 16					; 00000010H
	mov	eax, DWORD PTR ___security_cookie
	xor	eax, ebp
	push	eax
	lea	eax, DWORD PTR __$EHRec$[ebp]
	mov	DWORD PTR fs:0, eax

; 1077 : 	entvars_t *pev = (entvars_t *)newEnt;

	mov	eax, DWORD PTR _newEnt$[ebp]
	mov	DWORD PTR _pev$[ebp], eax

; 1078 : 
; 1079 : 	// allocate entity if necessary
; 1080 : 	if (pev == NULL)

	cmp	DWORD PTR _pev$[ebp], 0
	jne	SHORT $LN2@GetClassPt

; 1081 : 		pev = VARS(CREATE_ENTITY());

	call	DWORD PTR ?g_engfuncs@@3Uenginefuncs_s@@A+84
	push	eax
	call	?VARS@@YAPAUentvars_s@@PAUedict_s@@@Z	; VARS
	add	esp, 4
	mov	DWORD PTR _pev$[ebp], eax
$LN2@GetClassPt:

; 1082 : 
; 1083 : 	// get the private data
; 1084 : 	newEnt = (T *)GET_PRIVATE(ENT(pev));

	mov	ecx, DWORD PTR _pev$[ebp]
	push	ecx
	call	?ENT@@YAPAUedict_s@@PBUentvars_s@@@Z	; ENT
	add	esp, 4
	push	eax
	call	?GET_PRIVATE@@YAPAXPAUedict_s@@@Z	; GET_PRIVATE
	add	esp, 4
	mov	DWORD PTR _newEnt$[ebp], eax

; 1085 : 
; 1086 : 	if (newEnt == NULL) 

	cmp	DWORD PTR _newEnt$[ebp], 0
	jne	SHORT $LN3@GetClassPt

; 1087 : 	{
; 1088 : 		// allocate private data 
; 1089 : 		newEnt = new(pev) T;

	mov	edx, DWORD PTR _pev$[ebp]
	push	edx
	push	1656					; 00000678H
	call	??2CBaseEntity@@SAPAXIPAUentvars_s@@@Z	; CBaseEntity::operator new
	add	esp, 8
	mov	DWORD PTR $T3[ebp], eax
	mov	DWORD PTR __$EHRec$[ebp+8], 0
	cmp	DWORD PTR $T3[ebp], 0
	je	SHORT $LN5@GetClassPt
	mov	ecx, DWORD PTR $T3[ebp]
	call	??0CGameEnd@@QAE@XZ
	mov	DWORD PTR tv85[ebp], eax
	jmp	SHORT $LN6@GetClassPt
$LN5@GetClassPt:
	mov	DWORD PTR tv85[ebp], 0
$LN6@GetClassPt:
	mov	eax, DWORD PTR tv85[ebp]
	mov	DWORD PTR $T2[ebp], eax
	mov	DWORD PTR __$EHRec$[ebp+8], -1
	mov	ecx, DWORD PTR $T2[ebp]
	mov	DWORD PTR _newEnt$[ebp], ecx

; 1090 : 		newEnt->pev = pev;

	mov	edx, DWORD PTR _newEnt$[ebp]
	mov	eax, DWORD PTR _pev$[ebp]
	mov	DWORD PTR [edx+4], eax
$LN3@GetClassPt:

; 1091 : 	}
; 1092 : 	newEnt->SetClassname( className );

	mov	ecx, DWORD PTR _className$[ebp]
	push	ecx
	mov	ecx, DWORD PTR _newEnt$[ebp]
	call	?SetClassname@CBaseEntity@@QAEXPBD@Z	; CBaseEntity::SetClassname

; 1093 : 
; 1094 : 	return newEnt;

	mov	eax, DWORD PTR _newEnt$[ebp]

; 1095 : }

	mov	ecx, DWORD PTR __$EHRec$[ebp]
	mov	DWORD PTR fs:0, ecx
	pop	ecx
	mov	esp, ebp
	pop	ebp
	ret	0
_TEXT	ENDS
;	COMDAT text$x
text$x	SEGMENT
__unwindfunclet$??$GetClassPtr@VCGameEnd@@@@YAPAVCGameEnd@@PAV0@PBD@Z$0:
	mov	eax, DWORD PTR _pev$[ebp]
	push	eax
	mov	eax, DWORD PTR $T3[ebp]
	push	eax
	call	??3CBaseEntity@@SAXPAXPAUentvars_s@@@Z	; CBaseEntity::operator delete
	add	esp, 8
	ret	0
__ehhandler$??$GetClassPtr@VCGameEnd@@@@YAPAVCGameEnd@@PAV0@PBD@Z:
	mov	edx, DWORD PTR [esp+8]
	lea	eax, DWORD PTR [edx+12]
	mov	ecx, DWORD PTR [edx-20]
	xor	ecx, eax
	call	@__security_check_cookie@4
	mov	eax, OFFSET __ehfuncinfo$??$GetClassPtr@VCGameEnd@@@@YAPAVCGameEnd@@PAV0@PBD@Z
	jmp	___CxxFrameHandler3
text$x	ENDS
??$GetClassPtr@VCGameEnd@@@@YAPAVCGameEnd@@PAV0@PBD@Z ENDP ; GetClassPtr<CGameEnd>
; Function compile flags: /Odtp
; File c:\users\user\downloads\xashxt_v0.81_rev.1_with_sources\xashxt_v0.81_rev.1_src\server\cbase.h
;	COMDAT ??$GetClassPtr@VCGameText@@@@YAPAVCGameText@@PAV0@PBD@Z
_TEXT	SEGMENT
$T2 = -28						; size = 4
tv85 = -24						; size = 4
$T3 = -20						; size = 4
_pev$ = -16						; size = 4
__$EHRec$ = -12						; size = 12
_newEnt$ = 8						; size = 4
_className$ = 12					; size = 4
??$GetClassPtr@VCGameText@@@@YAPAVCGameText@@PAV0@PBD@Z PROC ; GetClassPtr<CGameText>, COMDAT

; 1076 : {

	push	ebp
	mov	ebp, esp
	push	-1
	push	__ehhandler$??$GetClassPtr@VCGameText@@@@YAPAVCGameText@@PAV0@PBD@Z
	mov	eax, DWORD PTR fs:0
	push	eax
	sub	esp, 16					; 00000010H
	mov	eax, DWORD PTR ___security_cookie
	xor	eax, ebp
	push	eax
	lea	eax, DWORD PTR __$EHRec$[ebp]
	mov	DWORD PTR fs:0, eax

; 1077 : 	entvars_t *pev = (entvars_t *)newEnt;

	mov	eax, DWORD PTR _newEnt$[ebp]
	mov	DWORD PTR _pev$[ebp], eax

; 1078 : 
; 1079 : 	// allocate entity if necessary
; 1080 : 	if (pev == NULL)

	cmp	DWORD PTR _pev$[ebp], 0
	jne	SHORT $LN2@GetClassPt

; 1081 : 		pev = VARS(CREATE_ENTITY());

	call	DWORD PTR ?g_engfuncs@@3Uenginefuncs_s@@A+84
	push	eax
	call	?VARS@@YAPAUentvars_s@@PAUedict_s@@@Z	; VARS
	add	esp, 4
	mov	DWORD PTR _pev$[ebp], eax
$LN2@GetClassPt:

; 1082 : 
; 1083 : 	// get the private data
; 1084 : 	newEnt = (T *)GET_PRIVATE(ENT(pev));

	mov	ecx, DWORD PTR _pev$[ebp]
	push	ecx
	call	?ENT@@YAPAUedict_s@@PBUentvars_s@@@Z	; ENT
	add	esp, 4
	push	eax
	call	?GET_PRIVATE@@YAPAXPAUedict_s@@@Z	; GET_PRIVATE
	add	esp, 4
	mov	DWORD PTR _newEnt$[ebp], eax

; 1085 : 
; 1086 : 	if (newEnt == NULL) 

	cmp	DWORD PTR _newEnt$[ebp], 0
	jne	SHORT $LN3@GetClassPt

; 1087 : 	{
; 1088 : 		// allocate private data 
; 1089 : 		newEnt = new(pev) T;

	mov	edx, DWORD PTR _pev$[ebp]
	push	edx
	push	1696					; 000006a0H
	call	??2CBaseEntity@@SAPAXIPAUentvars_s@@@Z	; CBaseEntity::operator new
	add	esp, 8
	mov	DWORD PTR $T3[ebp], eax
	mov	DWORD PTR __$EHRec$[ebp+8], 0
	cmp	DWORD PTR $T3[ebp], 0
	je	SHORT $LN5@GetClassPt
	mov	ecx, DWORD PTR $T3[ebp]
	call	??0CGameText@@QAE@XZ
	mov	DWORD PTR tv85[ebp], eax
	jmp	SHORT $LN6@GetClassPt
$LN5@GetClassPt:
	mov	DWORD PTR tv85[ebp], 0
$LN6@GetClassPt:
	mov	eax, DWORD PTR tv85[ebp]
	mov	DWORD PTR $T2[ebp], eax
	mov	DWORD PTR __$EHRec$[ebp+8], -1
	mov	ecx, DWORD PTR $T2[ebp]
	mov	DWORD PTR _newEnt$[ebp], ecx

; 1090 : 		newEnt->pev = pev;

	mov	edx, DWORD PTR _newEnt$[ebp]
	mov	eax, DWORD PTR _pev$[ebp]
	mov	DWORD PTR [edx+4], eax
$LN3@GetClassPt:

; 1091 : 	}
; 1092 : 	newEnt->SetClassname( className );

	mov	ecx, DWORD PTR _className$[ebp]
	push	ecx
	mov	ecx, DWORD PTR _newEnt$[ebp]
	call	?SetClassname@CBaseEntity@@QAEXPBD@Z	; CBaseEntity::SetClassname

; 1093 : 
; 1094 : 	return newEnt;

	mov	eax, DWORD PTR _newEnt$[ebp]

; 1095 : }

	mov	ecx, DWORD PTR __$EHRec$[ebp]
	mov	DWORD PTR fs:0, ecx
	pop	ecx
	mov	esp, ebp
	pop	ebp
	ret	0
_TEXT	ENDS
;	COMDAT text$x
text$x	SEGMENT
__unwindfunclet$??$GetClassPtr@VCGameText@@@@YAPAVCGameText@@PAV0@PBD@Z$0:
	mov	eax, DWORD PTR _pev$[ebp]
	push	eax
	mov	eax, DWORD PTR $T3[ebp]
	push	eax
	call	??3CBaseEntity@@SAXPAXPAUentvars_s@@@Z	; CBaseEntity::operator delete
	add	esp, 8
	ret	0
__ehhandler$??$GetClassPtr@VCGameText@@@@YAPAVCGameText@@PAV0@PBD@Z:
	mov	edx, DWORD PTR [esp+8]
	lea	eax, DWORD PTR [edx+12]
	mov	ecx, DWORD PTR [edx-20]
	xor	ecx, eax
	call	@__security_check_cookie@4
	mov	eax, OFFSET __ehfuncinfo$??$GetClassPtr@VCGameText@@@@YAPAVCGameText@@PAV0@PBD@Z
	jmp	___CxxFrameHandler3
text$x	ENDS
??$GetClassPtr@VCGameText@@@@YAPAVCGameText@@PAV0@PBD@Z ENDP ; GetClassPtr<CGameText>
; Function compile flags: /Odtp
; File c:\users\user\downloads\xashxt_v0.81_rev.1_with_sources\xashxt_v0.81_rev.1_src\server\cbase.h
;	COMDAT ??$GetClassPtr@VCGameTeamMaster@@@@YAPAVCGameTeamMaster@@PAV0@PBD@Z
_TEXT	SEGMENT
$T2 = -28						; size = 4
tv85 = -24						; size = 4
$T3 = -20						; size = 4
_pev$ = -16						; size = 4
__$EHRec$ = -12						; size = 12
_newEnt$ = 8						; size = 4
_className$ = 12					; size = 4
??$GetClassPtr@VCGameTeamMaster@@@@YAPAVCGameTeamMaster@@PAV0@PBD@Z PROC ; GetClassPtr<CGameTeamMaster>, COMDAT

; 1076 : {

	push	ebp
	mov	ebp, esp
	push	-1
	push	__ehhandler$??$GetClassPtr@VCGameTeamMaster@@@@YAPAVCGameTeamMaster@@PAV0@PBD@Z
	mov	eax, DWORD PTR fs:0
	push	eax
	sub	esp, 16					; 00000010H
	mov	eax, DWORD PTR ___security_cookie
	xor	eax, ebp
	push	eax
	lea	eax, DWORD PTR __$EHRec$[ebp]
	mov	DWORD PTR fs:0, eax

; 1077 : 	entvars_t *pev = (entvars_t *)newEnt;

	mov	eax, DWORD PTR _newEnt$[ebp]
	mov	DWORD PTR _pev$[ebp], eax

; 1078 : 
; 1079 : 	// allocate entity if necessary
; 1080 : 	if (pev == NULL)

	cmp	DWORD PTR _pev$[ebp], 0
	jne	SHORT $LN2@GetClassPt

; 1081 : 		pev = VARS(CREATE_ENTITY());

	call	DWORD PTR ?g_engfuncs@@3Uenginefuncs_s@@A+84
	push	eax
	call	?VARS@@YAPAUentvars_s@@PAUedict_s@@@Z	; VARS
	add	esp, 4
	mov	DWORD PTR _pev$[ebp], eax
$LN2@GetClassPt:

; 1082 : 
; 1083 : 	// get the private data
; 1084 : 	newEnt = (T *)GET_PRIVATE(ENT(pev));

	mov	ecx, DWORD PTR _pev$[ebp]
	push	ecx
	call	?ENT@@YAPAUedict_s@@PBUentvars_s@@@Z	; ENT
	add	esp, 4
	push	eax
	call	?GET_PRIVATE@@YAPAXPAUedict_s@@@Z	; GET_PRIVATE
	add	esp, 4
	mov	DWORD PTR _newEnt$[ebp], eax

; 1085 : 
; 1086 : 	if (newEnt == NULL) 

	cmp	DWORD PTR _newEnt$[ebp], 0
	jne	SHORT $LN3@GetClassPt

; 1087 : 	{
; 1088 : 		// allocate private data 
; 1089 : 		newEnt = new(pev) T;

	mov	edx, DWORD PTR _pev$[ebp]
	push	edx
	push	1664					; 00000680H
	call	??2CBaseEntity@@SAPAXIPAUentvars_s@@@Z	; CBaseEntity::operator new
	add	esp, 8
	mov	DWORD PTR $T3[ebp], eax
	mov	DWORD PTR __$EHRec$[ebp+8], 0
	cmp	DWORD PTR $T3[ebp], 0
	je	SHORT $LN5@GetClassPt
	mov	ecx, DWORD PTR $T3[ebp]
	call	??0CGameTeamMaster@@QAE@XZ
	mov	DWORD PTR tv85[ebp], eax
	jmp	SHORT $LN6@GetClassPt
$LN5@GetClassPt:
	mov	DWORD PTR tv85[ebp], 0
$LN6@GetClassPt:
	mov	eax, DWORD PTR tv85[ebp]
	mov	DWORD PTR $T2[ebp], eax
	mov	DWORD PTR __$EHRec$[ebp+8], -1
	mov	ecx, DWORD PTR $T2[ebp]
	mov	DWORD PTR _newEnt$[ebp], ecx

; 1090 : 		newEnt->pev = pev;

	mov	edx, DWORD PTR _newEnt$[ebp]
	mov	eax, DWORD PTR _pev$[ebp]
	mov	DWORD PTR [edx+4], eax
$LN3@GetClassPt:

; 1091 : 	}
; 1092 : 	newEnt->SetClassname( className );

	mov	ecx, DWORD PTR _className$[ebp]
	push	ecx
	mov	ecx, DWORD PTR _newEnt$[ebp]
	call	?SetClassname@CBaseEntity@@QAEXPBD@Z	; CBaseEntity::SetClassname

; 1093 : 
; 1094 : 	return newEnt;

	mov	eax, DWORD PTR _newEnt$[ebp]

; 1095 : }

	mov	ecx, DWORD PTR __$EHRec$[ebp]
	mov	DWORD PTR fs:0, ecx
	pop	ecx
	mov	esp, ebp
	pop	ebp
	ret	0
_TEXT	ENDS
;	COMDAT text$x
text$x	SEGMENT
__unwindfunclet$??$GetClassPtr@VCGameTeamMaster@@@@YAPAVCGameTeamMaster@@PAV0@PBD@Z$0:
	mov	eax, DWORD PTR _pev$[ebp]
	push	eax
	mov	eax, DWORD PTR $T3[ebp]
	push	eax
	call	??3CBaseEntity@@SAXPAXPAUentvars_s@@@Z	; CBaseEntity::operator delete
	add	esp, 8
	ret	0
__ehhandler$??$GetClassPtr@VCGameTeamMaster@@@@YAPAVCGameTeamMaster@@PAV0@PBD@Z:
	mov	edx, DWORD PTR [esp+8]
	lea	eax, DWORD PTR [edx+12]
	mov	ecx, DWORD PTR [edx-20]
	xor	ecx, eax
	call	@__security_check_cookie@4
	mov	eax, OFFSET __ehfuncinfo$??$GetClassPtr@VCGameTeamMaster@@@@YAPAVCGameTeamMaster@@PAV0@PBD@Z
	jmp	___CxxFrameHandler3
text$x	ENDS
??$GetClassPtr@VCGameTeamMaster@@@@YAPAVCGameTeamMaster@@PAV0@PBD@Z ENDP ; GetClassPtr<CGameTeamMaster>
; Function compile flags: /Odtp
; File c:\users\user\downloads\xashxt_v0.81_rev.1_with_sources\xashxt_v0.81_rev.1_src\server\cbase.h
;	COMDAT ??$GetClassPtr@VCGameTeamSet@@@@YAPAVCGameTeamSet@@PAV0@PBD@Z
_TEXT	SEGMENT
$T2 = -28						; size = 4
tv85 = -24						; size = 4
$T3 = -20						; size = 4
_pev$ = -16						; size = 4
__$EHRec$ = -12						; size = 12
_newEnt$ = 8						; size = 4
_className$ = 12					; size = 4
??$GetClassPtr@VCGameTeamSet@@@@YAPAVCGameTeamSet@@PAV0@PBD@Z PROC ; GetClassPtr<CGameTeamSet>, COMDAT

; 1076 : {

	push	ebp
	mov	ebp, esp
	push	-1
	push	__ehhandler$??$GetClassPtr@VCGameTeamSet@@@@YAPAVCGameTeamSet@@PAV0@PBD@Z
	mov	eax, DWORD PTR fs:0
	push	eax
	sub	esp, 16					; 00000010H
	mov	eax, DWORD PTR ___security_cookie
	xor	eax, ebp
	push	eax
	lea	eax, DWORD PTR __$EHRec$[ebp]
	mov	DWORD PTR fs:0, eax

; 1077 : 	entvars_t *pev = (entvars_t *)newEnt;

	mov	eax, DWORD PTR _newEnt$[ebp]
	mov	DWORD PTR _pev$[ebp], eax

; 1078 : 
; 1079 : 	// allocate entity if necessary
; 1080 : 	if (pev == NULL)

	cmp	DWORD PTR _pev$[ebp], 0
	jne	SHORT $LN2@GetClassPt

; 1081 : 		pev = VARS(CREATE_ENTITY());

	call	DWORD PTR ?g_engfuncs@@3Uenginefuncs_s@@A+84
	push	eax
	call	?VARS@@YAPAUentvars_s@@PAUedict_s@@@Z	; VARS
	add	esp, 4
	mov	DWORD PTR _pev$[ebp], eax
$LN2@GetClassPt:

; 1082 : 
; 1083 : 	// get the private data
; 1084 : 	newEnt = (T *)GET_PRIVATE(ENT(pev));

	mov	ecx, DWORD PTR _pev$[ebp]
	push	ecx
	call	?ENT@@YAPAUedict_s@@PBUentvars_s@@@Z	; ENT
	add	esp, 4
	push	eax
	call	?GET_PRIVATE@@YAPAXPAUedict_s@@@Z	; GET_PRIVATE
	add	esp, 4
	mov	DWORD PTR _newEnt$[ebp], eax

; 1085 : 
; 1086 : 	if (newEnt == NULL) 

	cmp	DWORD PTR _newEnt$[ebp], 0
	jne	SHORT $LN3@GetClassPt

; 1087 : 	{
; 1088 : 		// allocate private data 
; 1089 : 		newEnt = new(pev) T;

	mov	edx, DWORD PTR _pev$[ebp]
	push	edx
	push	1656					; 00000678H
	call	??2CBaseEntity@@SAPAXIPAUentvars_s@@@Z	; CBaseEntity::operator new
	add	esp, 8
	mov	DWORD PTR $T3[ebp], eax
	mov	DWORD PTR __$EHRec$[ebp+8], 0
	cmp	DWORD PTR $T3[ebp], 0
	je	SHORT $LN5@GetClassPt
	mov	ecx, DWORD PTR $T3[ebp]
	call	??0CGameTeamSet@@QAE@XZ
	mov	DWORD PTR tv85[ebp], eax
	jmp	SHORT $LN6@GetClassPt
$LN5@GetClassPt:
	mov	DWORD PTR tv85[ebp], 0
$LN6@GetClassPt:
	mov	eax, DWORD PTR tv85[ebp]
	mov	DWORD PTR $T2[ebp], eax
	mov	DWORD PTR __$EHRec$[ebp+8], -1
	mov	ecx, DWORD PTR $T2[ebp]
	mov	DWORD PTR _newEnt$[ebp], ecx

; 1090 : 		newEnt->pev = pev;

	mov	edx, DWORD PTR _newEnt$[ebp]
	mov	eax, DWORD PTR _pev$[ebp]
	mov	DWORD PTR [edx+4], eax
$LN3@GetClassPt:

; 1091 : 	}
; 1092 : 	newEnt->SetClassname( className );

	mov	ecx, DWORD PTR _className$[ebp]
	push	ecx
	mov	ecx, DWORD PTR _newEnt$[ebp]
	call	?SetClassname@CBaseEntity@@QAEXPBD@Z	; CBaseEntity::SetClassname

; 1093 : 
; 1094 : 	return newEnt;

	mov	eax, DWORD PTR _newEnt$[ebp]

; 1095 : }

	mov	ecx, DWORD PTR __$EHRec$[ebp]
	mov	DWORD PTR fs:0, ecx
	pop	ecx
	mov	esp, ebp
	pop	ebp
	ret	0
_TEXT	ENDS
;	COMDAT text$x
text$x	SEGMENT
__unwindfunclet$??$GetClassPtr@VCGameTeamSet@@@@YAPAVCGameTeamSet@@PAV0@PBD@Z$0:
	mov	eax, DWORD PTR _pev$[ebp]
	push	eax
	mov	eax, DWORD PTR $T3[ebp]
	push	eax
	call	??3CBaseEntity@@SAXPAXPAUentvars_s@@@Z	; CBaseEntity::operator delete
	add	esp, 8
	ret	0
__ehhandler$??$GetClassPtr@VCGameTeamSet@@@@YAPAVCGameTeamSet@@PAV0@PBD@Z:
	mov	edx, DWORD PTR [esp+8]
	lea	eax, DWORD PTR [edx+12]
	mov	ecx, DWORD PTR [edx-20]
	xor	ecx, eax
	call	@__security_check_cookie@4
	mov	eax, OFFSET __ehfuncinfo$??$GetClassPtr@VCGameTeamSet@@@@YAPAVCGameTeamSet@@PAV0@PBD@Z
	jmp	___CxxFrameHandler3
text$x	ENDS
??$GetClassPtr@VCGameTeamSet@@@@YAPAVCGameTeamSet@@PAV0@PBD@Z ENDP ; GetClassPtr<CGameTeamSet>
; Function compile flags: /Odtp
; File c:\users\user\downloads\xashxt_v0.81_rev.1_with_sources\xashxt_v0.81_rev.1_src\server\cbase.h
;	COMDAT ??$GetClassPtr@VCGamePlayerZone@@@@YAPAVCGamePlayerZone@@PAV0@PBD@Z
_TEXT	SEGMENT
$T2 = -28						; size = 4
tv85 = -24						; size = 4
$T3 = -20						; size = 4
_pev$ = -16						; size = 4
__$EHRec$ = -12						; size = 12
_newEnt$ = 8						; size = 4
_className$ = 12					; size = 4
??$GetClassPtr@VCGamePlayerZone@@@@YAPAVCGamePlayerZone@@PAV0@PBD@Z PROC ; GetClassPtr<CGamePlayerZone>, COMDAT

; 1076 : {

	push	ebp
	mov	ebp, esp
	push	-1
	push	__ehhandler$??$GetClassPtr@VCGamePlayerZone@@@@YAPAVCGamePlayerZone@@PAV0@PBD@Z
	mov	eax, DWORD PTR fs:0
	push	eax
	sub	esp, 16					; 00000010H
	mov	eax, DWORD PTR ___security_cookie
	xor	eax, ebp
	push	eax
	lea	eax, DWORD PTR __$EHRec$[ebp]
	mov	DWORD PTR fs:0, eax

; 1077 : 	entvars_t *pev = (entvars_t *)newEnt;

	mov	eax, DWORD PTR _newEnt$[ebp]
	mov	DWORD PTR _pev$[ebp], eax

; 1078 : 
; 1079 : 	// allocate entity if necessary
; 1080 : 	if (pev == NULL)

	cmp	DWORD PTR _pev$[ebp], 0
	jne	SHORT $LN2@GetClassPt

; 1081 : 		pev = VARS(CREATE_ENTITY());

	call	DWORD PTR ?g_engfuncs@@3Uenginefuncs_s@@A+84
	push	eax
	call	?VARS@@YAPAUentvars_s@@PAUedict_s@@@Z	; VARS
	add	esp, 4
	mov	DWORD PTR _pev$[ebp], eax
$LN2@GetClassPt:

; 1082 : 
; 1083 : 	// get the private data
; 1084 : 	newEnt = (T *)GET_PRIVATE(ENT(pev));

	mov	ecx, DWORD PTR _pev$[ebp]
	push	ecx
	call	?ENT@@YAPAUedict_s@@PBUentvars_s@@@Z	; ENT
	add	esp, 4
	push	eax
	call	?GET_PRIVATE@@YAPAXPAUedict_s@@@Z	; GET_PRIVATE
	add	esp, 4
	mov	DWORD PTR _newEnt$[ebp], eax

; 1085 : 
; 1086 : 	if (newEnt == NULL) 

	cmp	DWORD PTR _newEnt$[ebp], 0
	jne	SHORT $LN3@GetClassPt

; 1087 : 	{
; 1088 : 		// allocate private data 
; 1089 : 		newEnt = new(pev) T;

	mov	edx, DWORD PTR _pev$[ebp]
	push	edx
	push	1672					; 00000688H
	call	??2CBaseEntity@@SAPAXIPAUentvars_s@@@Z	; CBaseEntity::operator new
	add	esp, 8
	mov	DWORD PTR $T3[ebp], eax
	mov	DWORD PTR __$EHRec$[ebp+8], 0
	cmp	DWORD PTR $T3[ebp], 0
	je	SHORT $LN5@GetClassPt
	mov	ecx, DWORD PTR $T3[ebp]
	call	??0CGamePlayerZone@@QAE@XZ
	mov	DWORD PTR tv85[ebp], eax
	jmp	SHORT $LN6@GetClassPt
$LN5@GetClassPt:
	mov	DWORD PTR tv85[ebp], 0
$LN6@GetClassPt:
	mov	eax, DWORD PTR tv85[ebp]
	mov	DWORD PTR $T2[ebp], eax
	mov	DWORD PTR __$EHRec$[ebp+8], -1
	mov	ecx, DWORD PTR $T2[ebp]
	mov	DWORD PTR _newEnt$[ebp], ecx

; 1090 : 		newEnt->pev = pev;

	mov	edx, DWORD PTR _newEnt$[ebp]
	mov	eax, DWORD PTR _pev$[ebp]
	mov	DWORD PTR [edx+4], eax
$LN3@GetClassPt:

; 1091 : 	}
; 1092 : 	newEnt->SetClassname( className );

	mov	ecx, DWORD PTR _className$[ebp]
	push	ecx
	mov	ecx, DWORD PTR _newEnt$[ebp]
	call	?SetClassname@CBaseEntity@@QAEXPBD@Z	; CBaseEntity::SetClassname

; 1093 : 
; 1094 : 	return newEnt;

	mov	eax, DWORD PTR _newEnt$[ebp]

; 1095 : }

	mov	ecx, DWORD PTR __$EHRec$[ebp]
	mov	DWORD PTR fs:0, ecx
	pop	ecx
	mov	esp, ebp
	pop	ebp
	ret	0
_TEXT	ENDS
;	COMDAT text$x
text$x	SEGMENT
__unwindfunclet$??$GetClassPtr@VCGamePlayerZone@@@@YAPAVCGamePlayerZone@@PAV0@PBD@Z$0:
	mov	eax, DWORD PTR _pev$[ebp]
	push	eax
	mov	eax, DWORD PTR $T3[ebp]
	push	eax
	call	??3CBaseEntity@@SAXPAXPAUentvars_s@@@Z	; CBaseEntity::operator delete
	add	esp, 8
	ret	0
__ehhandler$??$GetClassPtr@VCGamePlayerZone@@@@YAPAVCGamePlayerZone@@PAV0@PBD@Z:
	mov	edx, DWORD PTR [esp+8]
	lea	eax, DWORD PTR [edx+12]
	mov	ecx, DWORD PTR [edx-20]
	xor	ecx, eax
	call	@__security_check_cookie@4
	mov	eax, OFFSET __ehfuncinfo$??$GetClassPtr@VCGamePlayerZone@@@@YAPAVCGamePlayerZone@@PAV0@PBD@Z
	jmp	___CxxFrameHandler3
text$x	ENDS
??$GetClassPtr@VCGamePlayerZone@@@@YAPAVCGamePlayerZone@@PAV0@PBD@Z ENDP ; GetClassPtr<CGamePlayerZone>
; Function compile flags: /Odtp
; File c:\users\user\downloads\xashxt_v0.81_rev.1_with_sources\xashxt_v0.81_rev.1_src\server\cbase.h
;	COMDAT ??$GetClassPtr@VCGamePlayerHurt@@@@YAPAVCGamePlayerHurt@@PAV0@PBD@Z
_TEXT	SEGMENT
$T2 = -28						; size = 4
tv85 = -24						; size = 4
$T3 = -20						; size = 4
_pev$ = -16						; size = 4
__$EHRec$ = -12						; size = 12
_newEnt$ = 8						; size = 4
_className$ = 12					; size = 4
??$GetClassPtr@VCGamePlayerHurt@@@@YAPAVCGamePlayerHurt@@PAV0@PBD@Z PROC ; GetClassPtr<CGamePlayerHurt>, COMDAT

; 1076 : {

	push	ebp
	mov	ebp, esp
	push	-1
	push	__ehhandler$??$GetClassPtr@VCGamePlayerHurt@@@@YAPAVCGamePlayerHurt@@PAV0@PBD@Z
	mov	eax, DWORD PTR fs:0
	push	eax
	sub	esp, 16					; 00000010H
	mov	eax, DWORD PTR ___security_cookie
	xor	eax, ebp
	push	eax
	lea	eax, DWORD PTR __$EHRec$[ebp]
	mov	DWORD PTR fs:0, eax

; 1077 : 	entvars_t *pev = (entvars_t *)newEnt;

	mov	eax, DWORD PTR _newEnt$[ebp]
	mov	DWORD PTR _pev$[ebp], eax

; 1078 : 
; 1079 : 	// allocate entity if necessary
; 1080 : 	if (pev == NULL)

	cmp	DWORD PTR _pev$[ebp], 0
	jne	SHORT $LN2@GetClassPt

; 1081 : 		pev = VARS(CREATE_ENTITY());

	call	DWORD PTR ?g_engfuncs@@3Uenginefuncs_s@@A+84
	push	eax
	call	?VARS@@YAPAUentvars_s@@PAUedict_s@@@Z	; VARS
	add	esp, 4
	mov	DWORD PTR _pev$[ebp], eax
$LN2@GetClassPt:

; 1082 : 
; 1083 : 	// get the private data
; 1084 : 	newEnt = (T *)GET_PRIVATE(ENT(pev));

	mov	ecx, DWORD PTR _pev$[ebp]
	push	ecx
	call	?ENT@@YAPAUedict_s@@PBUentvars_s@@@Z	; ENT
	add	esp, 4
	push	eax
	call	?GET_PRIVATE@@YAPAXPAUedict_s@@@Z	; GET_PRIVATE
	add	esp, 4
	mov	DWORD PTR _newEnt$[ebp], eax

; 1085 : 
; 1086 : 	if (newEnt == NULL) 

	cmp	DWORD PTR _newEnt$[ebp], 0
	jne	SHORT $LN3@GetClassPt

; 1087 : 	{
; 1088 : 		// allocate private data 
; 1089 : 		newEnt = new(pev) T;

	mov	edx, DWORD PTR _pev$[ebp]
	push	edx
	push	1656					; 00000678H
	call	??2CBaseEntity@@SAPAXIPAUentvars_s@@@Z	; CBaseEntity::operator new
	add	esp, 8
	mov	DWORD PTR $T3[ebp], eax
	mov	DWORD PTR __$EHRec$[ebp+8], 0
	cmp	DWORD PTR $T3[ebp], 0
	je	SHORT $LN5@GetClassPt
	mov	ecx, DWORD PTR $T3[ebp]
	call	??0CGamePlayerHurt@@QAE@XZ
	mov	DWORD PTR tv85[ebp], eax
	jmp	SHORT $LN6@GetClassPt
$LN5@GetClassPt:
	mov	DWORD PTR tv85[ebp], 0
$LN6@GetClassPt:
	mov	eax, DWORD PTR tv85[ebp]
	mov	DWORD PTR $T2[ebp], eax
	mov	DWORD PTR __$EHRec$[ebp+8], -1
	mov	ecx, DWORD PTR $T2[ebp]
	mov	DWORD PTR _newEnt$[ebp], ecx

; 1090 : 		newEnt->pev = pev;

	mov	edx, DWORD PTR _newEnt$[ebp]
	mov	eax, DWORD PTR _pev$[ebp]
	mov	DWORD PTR [edx+4], eax
$LN3@GetClassPt:

; 1091 : 	}
; 1092 : 	newEnt->SetClassname( className );

	mov	ecx, DWORD PTR _className$[ebp]
	push	ecx
	mov	ecx, DWORD PTR _newEnt$[ebp]
	call	?SetClassname@CBaseEntity@@QAEXPBD@Z	; CBaseEntity::SetClassname

; 1093 : 
; 1094 : 	return newEnt;

	mov	eax, DWORD PTR _newEnt$[ebp]

; 1095 : }

	mov	ecx, DWORD PTR __$EHRec$[ebp]
	mov	DWORD PTR fs:0, ecx
	pop	ecx
	mov	esp, ebp
	pop	ebp
	ret	0
_TEXT	ENDS
;	COMDAT text$x
text$x	SEGMENT
__unwindfunclet$??$GetClassPtr@VCGamePlayerHurt@@@@YAPAVCGamePlayerHurt@@PAV0@PBD@Z$0:
	mov	eax, DWORD PTR _pev$[ebp]
	push	eax
	mov	eax, DWORD PTR $T3[ebp]
	push	eax
	call	??3CBaseEntity@@SAXPAXPAUentvars_s@@@Z	; CBaseEntity::operator delete
	add	esp, 8
	ret	0
__ehhandler$??$GetClassPtr@VCGamePlayerHurt@@@@YAPAVCGamePlayerHurt@@PAV0@PBD@Z:
	mov	edx, DWORD PTR [esp+8]
	lea	eax, DWORD PTR [edx+12]
	mov	ecx, DWORD PTR [edx-20]
	xor	ecx, eax
	call	@__security_check_cookie@4
	mov	eax, OFFSET __ehfuncinfo$??$GetClassPtr@VCGamePlayerHurt@@@@YAPAVCGamePlayerHurt@@PAV0@PBD@Z
	jmp	___CxxFrameHandler3
text$x	ENDS
??$GetClassPtr@VCGamePlayerHurt@@@@YAPAVCGamePlayerHurt@@PAV0@PBD@Z ENDP ; GetClassPtr<CGamePlayerHurt>
; Function compile flags: /Odtp
; File c:\users\user\downloads\xashxt_v0.81_rev.1_with_sources\xashxt_v0.81_rev.1_src\server\cbase.h
;	COMDAT ??$GetClassPtr@VCGameCounter@@@@YAPAVCGameCounter@@PAV0@PBD@Z
_TEXT	SEGMENT
$T2 = -28						; size = 4
tv85 = -24						; size = 4
$T3 = -20						; size = 4
_pev$ = -16						; size = 4
__$EHRec$ = -12						; size = 12
_newEnt$ = 8						; size = 4
_className$ = 12					; size = 4
??$GetClassPtr@VCGameCounter@@@@YAPAVCGameCounter@@PAV0@PBD@Z PROC ; GetClassPtr<CGameCounter>, COMDAT

; 1076 : {

	push	ebp
	mov	ebp, esp
	push	-1
	push	__ehhandler$??$GetClassPtr@VCGameCounter@@@@YAPAVCGameCounter@@PAV0@PBD@Z
	mov	eax, DWORD PTR fs:0
	push	eax
	sub	esp, 16					; 00000010H
	mov	eax, DWORD PTR ___security_cookie
	xor	eax, ebp
	push	eax
	lea	eax, DWORD PTR __$EHRec$[ebp]
	mov	DWORD PTR fs:0, eax

; 1077 : 	entvars_t *pev = (entvars_t *)newEnt;

	mov	eax, DWORD PTR _newEnt$[ebp]
	mov	DWORD PTR _pev$[ebp], eax

; 1078 : 
; 1079 : 	// allocate entity if necessary
; 1080 : 	if (pev == NULL)

	cmp	DWORD PTR _pev$[ebp], 0
	jne	SHORT $LN2@GetClassPt

; 1081 : 		pev = VARS(CREATE_ENTITY());

	call	DWORD PTR ?g_engfuncs@@3Uenginefuncs_s@@A+84
	push	eax
	call	?VARS@@YAPAUentvars_s@@PAUedict_s@@@Z	; VARS
	add	esp, 4
	mov	DWORD PTR _pev$[ebp], eax
$LN2@GetClassPt:

; 1082 : 
; 1083 : 	// get the private data
; 1084 : 	newEnt = (T *)GET_PRIVATE(ENT(pev));

	mov	ecx, DWORD PTR _pev$[ebp]
	push	ecx
	call	?ENT@@YAPAUedict_s@@PBUentvars_s@@@Z	; ENT
	add	esp, 4
	push	eax
	call	?GET_PRIVATE@@YAPAXPAUedict_s@@@Z	; GET_PRIVATE
	add	esp, 4
	mov	DWORD PTR _newEnt$[ebp], eax

; 1085 : 
; 1086 : 	if (newEnt == NULL) 

	cmp	DWORD PTR _newEnt$[ebp], 0
	jne	SHORT $LN3@GetClassPt

; 1087 : 	{
; 1088 : 		// allocate private data 
; 1089 : 		newEnt = new(pev) T;

	mov	edx, DWORD PTR _pev$[ebp]
	push	edx
	push	1656					; 00000678H
	call	??2CBaseEntity@@SAPAXIPAUentvars_s@@@Z	; CBaseEntity::operator new
	add	esp, 8
	mov	DWORD PTR $T3[ebp], eax
	mov	DWORD PTR __$EHRec$[ebp+8], 0
	cmp	DWORD PTR $T3[ebp], 0
	je	SHORT $LN5@GetClassPt
	mov	ecx, DWORD PTR $T3[ebp]
	call	??0CGameCounter@@QAE@XZ
	mov	DWORD PTR tv85[ebp], eax
	jmp	SHORT $LN6@GetClassPt
$LN5@GetClassPt:
	mov	DWORD PTR tv85[ebp], 0
$LN6@GetClassPt:
	mov	eax, DWORD PTR tv85[ebp]
	mov	DWORD PTR $T2[ebp], eax
	mov	DWORD PTR __$EHRec$[ebp+8], -1
	mov	ecx, DWORD PTR $T2[ebp]
	mov	DWORD PTR _newEnt$[ebp], ecx

; 1090 : 		newEnt->pev = pev;

	mov	edx, DWORD PTR _newEnt$[ebp]
	mov	eax, DWORD PTR _pev$[ebp]
	mov	DWORD PTR [edx+4], eax
$LN3@GetClassPt:

; 1091 : 	}
; 1092 : 	newEnt->SetClassname( className );

	mov	ecx, DWORD PTR _className$[ebp]
	push	ecx
	mov	ecx, DWORD PTR _newEnt$[ebp]
	call	?SetClassname@CBaseEntity@@QAEXPBD@Z	; CBaseEntity::SetClassname

; 1093 : 
; 1094 : 	return newEnt;

	mov	eax, DWORD PTR _newEnt$[ebp]

; 1095 : }

	mov	ecx, DWORD PTR __$EHRec$[ebp]
	mov	DWORD PTR fs:0, ecx
	pop	ecx
	mov	esp, ebp
	pop	ebp
	ret	0
_TEXT	ENDS
;	COMDAT text$x
text$x	SEGMENT
__unwindfunclet$??$GetClassPtr@VCGameCounter@@@@YAPAVCGameCounter@@PAV0@PBD@Z$0:
	mov	eax, DWORD PTR _pev$[ebp]
	push	eax
	mov	eax, DWORD PTR $T3[ebp]
	push	eax
	call	??3CBaseEntity@@SAXPAXPAUentvars_s@@@Z	; CBaseEntity::operator delete
	add	esp, 8
	ret	0
__ehhandler$??$GetClassPtr@VCGameCounter@@@@YAPAVCGameCounter@@PAV0@PBD@Z:
	mov	edx, DWORD PTR [esp+8]
	lea	eax, DWORD PTR [edx+12]
	mov	ecx, DWORD PTR [edx-20]
	xor	ecx, eax
	call	@__security_check_cookie@4
	mov	eax, OFFSET __ehfuncinfo$??$GetClassPtr@VCGameCounter@@@@YAPAVCGameCounter@@PAV0@PBD@Z
	jmp	___CxxFrameHandler3
text$x	ENDS
??$GetClassPtr@VCGameCounter@@@@YAPAVCGameCounter@@PAV0@PBD@Z ENDP ; GetClassPtr<CGameCounter>
; Function compile flags: /Odtp
; File c:\users\user\downloads\xashxt_v0.81_rev.1_with_sources\xashxt_v0.81_rev.1_src\server\cbase.h
;	COMDAT ??$GetClassPtr@VCGameCounterSet@@@@YAPAVCGameCounterSet@@PAV0@PBD@Z
_TEXT	SEGMENT
$T2 = -28						; size = 4
tv85 = -24						; size = 4
$T3 = -20						; size = 4
_pev$ = -16						; size = 4
__$EHRec$ = -12						; size = 12
_newEnt$ = 8						; size = 4
_className$ = 12					; size = 4
??$GetClassPtr@VCGameCounterSet@@@@YAPAVCGameCounterSet@@PAV0@PBD@Z PROC ; GetClassPtr<CGameCounterSet>, COMDAT

; 1076 : {

	push	ebp
	mov	ebp, esp
	push	-1
	push	__ehhandler$??$GetClassPtr@VCGameCounterSet@@@@YAPAVCGameCounterSet@@PAV0@PBD@Z
	mov	eax, DWORD PTR fs:0
	push	eax
	sub	esp, 16					; 00000010H
	mov	eax, DWORD PTR ___security_cookie
	xor	eax, ebp
	push	eax
	lea	eax, DWORD PTR __$EHRec$[ebp]
	mov	DWORD PTR fs:0, eax

; 1077 : 	entvars_t *pev = (entvars_t *)newEnt;

	mov	eax, DWORD PTR _newEnt$[ebp]
	mov	DWORD PTR _pev$[ebp], eax

; 1078 : 
; 1079 : 	// allocate entity if necessary
; 1080 : 	if (pev == NULL)

	cmp	DWORD PTR _pev$[ebp], 0
	jne	SHORT $LN2@GetClassPt

; 1081 : 		pev = VARS(CREATE_ENTITY());

	call	DWORD PTR ?g_engfuncs@@3Uenginefuncs_s@@A+84
	push	eax
	call	?VARS@@YAPAUentvars_s@@PAUedict_s@@@Z	; VARS
	add	esp, 4
	mov	DWORD PTR _pev$[ebp], eax
$LN2@GetClassPt:

; 1082 : 
; 1083 : 	// get the private data
; 1084 : 	newEnt = (T *)GET_PRIVATE(ENT(pev));

	mov	ecx, DWORD PTR _pev$[ebp]
	push	ecx
	call	?ENT@@YAPAUedict_s@@PBUentvars_s@@@Z	; ENT
	add	esp, 4
	push	eax
	call	?GET_PRIVATE@@YAPAXPAUedict_s@@@Z	; GET_PRIVATE
	add	esp, 4
	mov	DWORD PTR _newEnt$[ebp], eax

; 1085 : 
; 1086 : 	if (newEnt == NULL) 

	cmp	DWORD PTR _newEnt$[ebp], 0
	jne	SHORT $LN3@GetClassPt

; 1087 : 	{
; 1088 : 		// allocate private data 
; 1089 : 		newEnt = new(pev) T;

	mov	edx, DWORD PTR _pev$[ebp]
	push	edx
	push	1656					; 00000678H
	call	??2CBaseEntity@@SAPAXIPAUentvars_s@@@Z	; CBaseEntity::operator new
	add	esp, 8
	mov	DWORD PTR $T3[ebp], eax
	mov	DWORD PTR __$EHRec$[ebp+8], 0
	cmp	DWORD PTR $T3[ebp], 0
	je	SHORT $LN5@GetClassPt
	mov	ecx, DWORD PTR $T3[ebp]
	call	??0CGameCounterSet@@QAE@XZ
	mov	DWORD PTR tv85[ebp], eax
	jmp	SHORT $LN6@GetClassPt
$LN5@GetClassPt:
	mov	DWORD PTR tv85[ebp], 0
$LN6@GetClassPt:
	mov	eax, DWORD PTR tv85[ebp]
	mov	DWORD PTR $T2[ebp], eax
	mov	DWORD PTR __$EHRec$[ebp+8], -1
	mov	ecx, DWORD PTR $T2[ebp]
	mov	DWORD PTR _newEnt$[ebp], ecx

; 1090 : 		newEnt->pev = pev;

	mov	edx, DWORD PTR _newEnt$[ebp]
	mov	eax, DWORD PTR _pev$[ebp]
	mov	DWORD PTR [edx+4], eax
$LN3@GetClassPt:

; 1091 : 	}
; 1092 : 	newEnt->SetClassname( className );

	mov	ecx, DWORD PTR _className$[ebp]
	push	ecx
	mov	ecx, DWORD PTR _newEnt$[ebp]
	call	?SetClassname@CBaseEntity@@QAEXPBD@Z	; CBaseEntity::SetClassname

; 1093 : 
; 1094 : 	return newEnt;

	mov	eax, DWORD PTR _newEnt$[ebp]

; 1095 : }

	mov	ecx, DWORD PTR __$EHRec$[ebp]
	mov	DWORD PTR fs:0, ecx
	pop	ecx
	mov	esp, ebp
	pop	ebp
	ret	0
_TEXT	ENDS
;	COMDAT text$x
text$x	SEGMENT
__unwindfunclet$??$GetClassPtr@VCGameCounterSet@@@@YAPAVCGameCounterSet@@PAV0@PBD@Z$0:
	mov	eax, DWORD PTR _pev$[ebp]
	push	eax
	mov	eax, DWORD PTR $T3[ebp]
	push	eax
	call	??3CBaseEntity@@SAXPAXPAUentvars_s@@@Z	; CBaseEntity::operator delete
	add	esp, 8
	ret	0
__ehhandler$??$GetClassPtr@VCGameCounterSet@@@@YAPAVCGameCounterSet@@PAV0@PBD@Z:
	mov	edx, DWORD PTR [esp+8]
	lea	eax, DWORD PTR [edx+12]
	mov	ecx, DWORD PTR [edx-20]
	xor	ecx, eax
	call	@__security_check_cookie@4
	mov	eax, OFFSET __ehfuncinfo$??$GetClassPtr@VCGameCounterSet@@@@YAPAVCGameCounterSet@@PAV0@PBD@Z
	jmp	___CxxFrameHandler3
text$x	ENDS
??$GetClassPtr@VCGameCounterSet@@@@YAPAVCGameCounterSet@@PAV0@PBD@Z ENDP ; GetClassPtr<CGameCounterSet>
; Function compile flags: /Odtp
; File c:\users\user\downloads\xashxt_v0.81_rev.1_with_sources\xashxt_v0.81_rev.1_src\server\cbase.h
;	COMDAT ??$GetClassPtr@VCGamePlayerEquip@@@@YAPAVCGamePlayerEquip@@PAV0@PBD@Z
_TEXT	SEGMENT
$T2 = -28						; size = 4
tv85 = -24						; size = 4
$T3 = -20						; size = 4
_pev$ = -16						; size = 4
__$EHRec$ = -12						; size = 12
_newEnt$ = 8						; size = 4
_className$ = 12					; size = 4
??$GetClassPtr@VCGamePlayerEquip@@@@YAPAVCGamePlayerEquip@@PAV0@PBD@Z PROC ; GetClassPtr<CGamePlayerEquip>, COMDAT

; 1076 : {

	push	ebp
	mov	ebp, esp
	push	-1
	push	__ehhandler$??$GetClassPtr@VCGamePlayerEquip@@@@YAPAVCGamePlayerEquip@@PAV0@PBD@Z
	mov	eax, DWORD PTR fs:0
	push	eax
	sub	esp, 16					; 00000010H
	mov	eax, DWORD PTR ___security_cookie
	xor	eax, ebp
	push	eax
	lea	eax, DWORD PTR __$EHRec$[ebp]
	mov	DWORD PTR fs:0, eax

; 1077 : 	entvars_t *pev = (entvars_t *)newEnt;

	mov	eax, DWORD PTR _newEnt$[ebp]
	mov	DWORD PTR _pev$[ebp], eax

; 1078 : 
; 1079 : 	// allocate entity if necessary
; 1080 : 	if (pev == NULL)

	cmp	DWORD PTR _pev$[ebp], 0
	jne	SHORT $LN2@GetClassPt

; 1081 : 		pev = VARS(CREATE_ENTITY());

	call	DWORD PTR ?g_engfuncs@@3Uenginefuncs_s@@A+84
	push	eax
	call	?VARS@@YAPAUentvars_s@@PAUedict_s@@@Z	; VARS
	add	esp, 4
	mov	DWORD PTR _pev$[ebp], eax
$LN2@GetClassPt:

; 1082 : 
; 1083 : 	// get the private data
; 1084 : 	newEnt = (T *)GET_PRIVATE(ENT(pev));

	mov	ecx, DWORD PTR _pev$[ebp]
	push	ecx
	call	?ENT@@YAPAUedict_s@@PBUentvars_s@@@Z	; ENT
	add	esp, 4
	push	eax
	call	?GET_PRIVATE@@YAPAXPAUedict_s@@@Z	; GET_PRIVATE
	add	esp, 4
	mov	DWORD PTR _newEnt$[ebp], eax

; 1085 : 
; 1086 : 	if (newEnt == NULL) 

	cmp	DWORD PTR _newEnt$[ebp], 0
	jne	SHORT $LN3@GetClassPt

; 1087 : 	{
; 1088 : 		// allocate private data 
; 1089 : 		newEnt = new(pev) T;

	mov	edx, DWORD PTR _pev$[ebp]
	push	edx
	push	1912					; 00000778H
	call	??2CBaseEntity@@SAPAXIPAUentvars_s@@@Z	; CBaseEntity::operator new
	add	esp, 8
	mov	DWORD PTR $T3[ebp], eax
	mov	DWORD PTR __$EHRec$[ebp+8], 0
	cmp	DWORD PTR $T3[ebp], 0
	je	SHORT $LN5@GetClassPt
	mov	ecx, DWORD PTR $T3[ebp]
	call	??0CGamePlayerEquip@@QAE@XZ
	mov	DWORD PTR tv85[ebp], eax
	jmp	SHORT $LN6@GetClassPt
$LN5@GetClassPt:
	mov	DWORD PTR tv85[ebp], 0
$LN6@GetClassPt:
	mov	eax, DWORD PTR tv85[ebp]
	mov	DWORD PTR $T2[ebp], eax
	mov	DWORD PTR __$EHRec$[ebp+8], -1
	mov	ecx, DWORD PTR $T2[ebp]
	mov	DWORD PTR _newEnt$[ebp], ecx

; 1090 : 		newEnt->pev = pev;

	mov	edx, DWORD PTR _newEnt$[ebp]
	mov	eax, DWORD PTR _pev$[ebp]
	mov	DWORD PTR [edx+4], eax
$LN3@GetClassPt:

; 1091 : 	}
; 1092 : 	newEnt->SetClassname( className );

	mov	ecx, DWORD PTR _className$[ebp]
	push	ecx
	mov	ecx, DWORD PTR _newEnt$[ebp]
	call	?SetClassname@CBaseEntity@@QAEXPBD@Z	; CBaseEntity::SetClassname

; 1093 : 
; 1094 : 	return newEnt;

	mov	eax, DWORD PTR _newEnt$[ebp]

; 1095 : }

	mov	ecx, DWORD PTR __$EHRec$[ebp]
	mov	DWORD PTR fs:0, ecx
	pop	ecx
	mov	esp, ebp
	pop	ebp
	ret	0
_TEXT	ENDS
;	COMDAT text$x
text$x	SEGMENT
__unwindfunclet$??$GetClassPtr@VCGamePlayerEquip@@@@YAPAVCGamePlayerEquip@@PAV0@PBD@Z$0:
	mov	eax, DWORD PTR _pev$[ebp]
	push	eax
	mov	eax, DWORD PTR $T3[ebp]
	push	eax
	call	??3CBaseEntity@@SAXPAXPAUentvars_s@@@Z	; CBaseEntity::operator delete
	add	esp, 8
	ret	0
__ehhandler$??$GetClassPtr@VCGamePlayerEquip@@@@YAPAVCGamePlayerEquip@@PAV0@PBD@Z:
	mov	edx, DWORD PTR [esp+8]
	lea	eax, DWORD PTR [edx+12]
	mov	ecx, DWORD PTR [edx-20]
	xor	ecx, eax
	call	@__security_check_cookie@4
	mov	eax, OFFSET __ehfuncinfo$??$GetClassPtr@VCGamePlayerEquip@@@@YAPAVCGamePlayerEquip@@PAV0@PBD@Z
	jmp	___CxxFrameHandler3
text$x	ENDS
??$GetClassPtr@VCGamePlayerEquip@@@@YAPAVCGamePlayerEquip@@PAV0@PBD@Z ENDP ; GetClassPtr<CGamePlayerEquip>
; Function compile flags: /Odtp
; File c:\users\user\downloads\xashxt_v0.81_rev.1_with_sources\xashxt_v0.81_rev.1_src\server\cbase.h
;	COMDAT ??$GetClassPtr@VCGamePlayerTeam@@@@YAPAVCGamePlayerTeam@@PAV0@PBD@Z
_TEXT	SEGMENT
$T2 = -28						; size = 4
tv85 = -24						; size = 4
$T3 = -20						; size = 4
_pev$ = -16						; size = 4
__$EHRec$ = -12						; size = 12
_newEnt$ = 8						; size = 4
_className$ = 12					; size = 4
??$GetClassPtr@VCGamePlayerTeam@@@@YAPAVCGamePlayerTeam@@PAV0@PBD@Z PROC ; GetClassPtr<CGamePlayerTeam>, COMDAT

; 1076 : {

	push	ebp
	mov	ebp, esp
	push	-1
	push	__ehhandler$??$GetClassPtr@VCGamePlayerTeam@@@@YAPAVCGamePlayerTeam@@PAV0@PBD@Z
	mov	eax, DWORD PTR fs:0
	push	eax
	sub	esp, 16					; 00000010H
	mov	eax, DWORD PTR ___security_cookie
	xor	eax, ebp
	push	eax
	lea	eax, DWORD PTR __$EHRec$[ebp]
	mov	DWORD PTR fs:0, eax

; 1077 : 	entvars_t *pev = (entvars_t *)newEnt;

	mov	eax, DWORD PTR _newEnt$[ebp]
	mov	DWORD PTR _pev$[ebp], eax

; 1078 : 
; 1079 : 	// allocate entity if necessary
; 1080 : 	if (pev == NULL)

	cmp	DWORD PTR _pev$[ebp], 0
	jne	SHORT $LN2@GetClassPt

; 1081 : 		pev = VARS(CREATE_ENTITY());

	call	DWORD PTR ?g_engfuncs@@3Uenginefuncs_s@@A+84
	push	eax
	call	?VARS@@YAPAUentvars_s@@PAUedict_s@@@Z	; VARS
	add	esp, 4
	mov	DWORD PTR _pev$[ebp], eax
$LN2@GetClassPt:

; 1082 : 
; 1083 : 	// get the private data
; 1084 : 	newEnt = (T *)GET_PRIVATE(ENT(pev));

	mov	ecx, DWORD PTR _pev$[ebp]
	push	ecx
	call	?ENT@@YAPAUedict_s@@PBUentvars_s@@@Z	; ENT
	add	esp, 4
	push	eax
	call	?GET_PRIVATE@@YAPAXPAUedict_s@@@Z	; GET_PRIVATE
	add	esp, 4
	mov	DWORD PTR _newEnt$[ebp], eax

; 1085 : 
; 1086 : 	if (newEnt == NULL) 

	cmp	DWORD PTR _newEnt$[ebp], 0
	jne	SHORT $LN3@GetClassPt

; 1087 : 	{
; 1088 : 		// allocate private data 
; 1089 : 		newEnt = new(pev) T;

	mov	edx, DWORD PTR _pev$[ebp]
	push	edx
	push	1656					; 00000678H
	call	??2CBaseEntity@@SAPAXIPAUentvars_s@@@Z	; CBaseEntity::operator new
	add	esp, 8
	mov	DWORD PTR $T3[ebp], eax
	mov	DWORD PTR __$EHRec$[ebp+8], 0
	cmp	DWORD PTR $T3[ebp], 0
	je	SHORT $LN5@GetClassPt
	mov	ecx, DWORD PTR $T3[ebp]
	call	??0CGamePlayerTeam@@QAE@XZ
	mov	DWORD PTR tv85[ebp], eax
	jmp	SHORT $LN6@GetClassPt
$LN5@GetClassPt:
	mov	DWORD PTR tv85[ebp], 0
$LN6@GetClassPt:
	mov	eax, DWORD PTR tv85[ebp]
	mov	DWORD PTR $T2[ebp], eax
	mov	DWORD PTR __$EHRec$[ebp+8], -1
	mov	ecx, DWORD PTR $T2[ebp]
	mov	DWORD PTR _newEnt$[ebp], ecx

; 1090 : 		newEnt->pev = pev;

	mov	edx, DWORD PTR _newEnt$[ebp]
	mov	eax, DWORD PTR _pev$[ebp]
	mov	DWORD PTR [edx+4], eax
$LN3@GetClassPt:

; 1091 : 	}
; 1092 : 	newEnt->SetClassname( className );

	mov	ecx, DWORD PTR _className$[ebp]
	push	ecx
	mov	ecx, DWORD PTR _newEnt$[ebp]
	call	?SetClassname@CBaseEntity@@QAEXPBD@Z	; CBaseEntity::SetClassname

; 1093 : 
; 1094 : 	return newEnt;

	mov	eax, DWORD PTR _newEnt$[ebp]

; 1095 : }

	mov	ecx, DWORD PTR __$EHRec$[ebp]
	mov	DWORD PTR fs:0, ecx
	pop	ecx
	mov	esp, ebp
	pop	ebp
	ret	0
_TEXT	ENDS
;	COMDAT text$x
text$x	SEGMENT
__unwindfunclet$??$GetClassPtr@VCGamePlayerTeam@@@@YAPAVCGamePlayerTeam@@PAV0@PBD@Z$0:
	mov	eax, DWORD PTR _pev$[ebp]
	push	eax
	mov	eax, DWORD PTR $T3[ebp]
	push	eax
	call	??3CBaseEntity@@SAXPAXPAUentvars_s@@@Z	; CBaseEntity::operator delete
	add	esp, 8
	ret	0
__ehhandler$??$GetClassPtr@VCGamePlayerTeam@@@@YAPAVCGamePlayerTeam@@PAV0@PBD@Z:
	mov	edx, DWORD PTR [esp+8]
	lea	eax, DWORD PTR [edx+12]
	mov	ecx, DWORD PTR [edx-20]
	xor	ecx, eax
	call	@__security_check_cookie@4
	mov	eax, OFFSET __ehfuncinfo$??$GetClassPtr@VCGamePlayerTeam@@@@YAPAVCGamePlayerTeam@@PAV0@PBD@Z
	jmp	___CxxFrameHandler3
text$x	ENDS
??$GetClassPtr@VCGamePlayerTeam@@@@YAPAVCGamePlayerTeam@@PAV0@PBD@Z ENDP ; GetClassPtr<CGamePlayerTeam>
; Function compile flags: /Odtp
; File c:\users\user\downloads\xashxt_v0.81_rev.1_with_sources\xashxt_v0.81_rev.1_src\server\maprules.cpp
;	COMDAT ??__Egame_player_team@@YAXXZ
text$di	SEGMENT
??__Egame_player_team@@YAXXZ PROC			; `dynamic initializer for 'game_player_team'', COMDAT

; 849  : LINK_ENTITY_TO_CLASS( game_player_team, CGamePlayerTeam );

	push	ebp
	mov	ebp, esp
	push	OFFSET $SG76603
	mov	ecx, OFFSET ?game_player_team@@3V?$CEntityFactory@VCGamePlayerTeam@@@@A
	call	??0?$CEntityFactory@VCGamePlayerTeam@@@@QAE@PBD@Z ; CEntityFactory<CGamePlayerTeam>::CEntityFactory<CGamePlayerTeam>
	pop	ebp
	ret	0
??__Egame_player_team@@YAXXZ ENDP			; `dynamic initializer for 'game_player_team''
text$di	ENDS
; Function compile flags: /Odtp
; File c:\users\user\downloads\xashxt_v0.81_rev.1_with_sources\xashxt_v0.81_rev.1_src\server\util.h
;	COMDAT ?GetEntitySize@?$CEntityFactory@VCGamePlayerTeam@@@@UAEIXZ
_TEXT	SEGMENT
_this$ = -4						; size = 4
?GetEntitySize@?$CEntityFactory@VCGamePlayerTeam@@@@UAEIXZ PROC ; CEntityFactory<CGamePlayerTeam>::GetEntitySize, COMDAT
; _this$ = ecx

; 103  : 	{

	push	ebp
	mov	ebp, esp
	push	ecx
	mov	DWORD PTR _this$[ebp], ecx

; 104  : 		return sizeof(T);

	mov	eax, 1656				; 00000678H

; 105  : 	}

	mov	esp, ebp
	pop	ebp
	ret	0
?GetEntitySize@?$CEntityFactory@VCGamePlayerTeam@@@@UAEIXZ ENDP ; CEntityFactory<CGamePlayerTeam>::GetEntitySize
_TEXT	ENDS
; Function compile flags: /Odtp
; File c:\users\user\downloads\xashxt_v0.81_rev.1_with_sources\xashxt_v0.81_rev.1_src\server\util.h
;	COMDAT ?Destroy@?$CEntityFactory@VCGamePlayerTeam@@@@UAEXPAVCBaseEntity@@@Z
_TEXT	SEGMENT
_this$ = -4						; size = 4
_pEntity$ = 8						; size = 4
?Destroy@?$CEntityFactory@VCGamePlayerTeam@@@@UAEXPAVCBaseEntity@@@Z PROC ; CEntityFactory<CGamePlayerTeam>::Destroy, COMDAT
; _this$ = ecx

; 98   : 	{

	push	ebp
	mov	ebp, esp
	push	ecx
	mov	DWORD PTR _this$[ebp], ecx

; 99   : 		UTIL_Remove( pEntity );

	mov	eax, DWORD PTR _pEntity$[ebp]
	push	eax
	call	?UTIL_Remove@@YAXPAVCBaseEntity@@@Z	; UTIL_Remove
	add	esp, 4

; 100  : 	}

	mov	esp, ebp
	pop	ebp
	ret	4
?Destroy@?$CEntityFactory@VCGamePlayerTeam@@@@UAEXPAVCBaseEntity@@@Z ENDP ; CEntityFactory<CGamePlayerTeam>::Destroy
_TEXT	ENDS
; Function compile flags: /Odtp
; File c:\users\user\downloads\xashxt_v0.81_rev.1_with_sources\xashxt_v0.81_rev.1_src\server\util.h
;	COMDAT ?Create@?$CEntityFactory@VCGamePlayerTeam@@@@UAEPAVCBaseEntity@@PBDPAUentvars_s@@@Z
_TEXT	SEGMENT
_this$ = -8						; size = 4
_pEnt$ = -4						; size = 4
_pClassName$ = 8					; size = 4
_pev$ = 12						; size = 4
?Create@?$CEntityFactory@VCGamePlayerTeam@@@@UAEPAVCBaseEntity@@PBDPAUentvars_s@@@Z PROC ; CEntityFactory<CGamePlayerTeam>::Create, COMDAT
; _this$ = ecx

; 92   : 	{

	push	ebp
	mov	ebp, esp
	sub	esp, 8
	mov	DWORD PTR _this$[ebp], ecx

; 93   : 		T* pEnt = GetClassPtr((T*)pev, pClassName);

	mov	eax, DWORD PTR _pClassName$[ebp]
	push	eax
	mov	ecx, DWORD PTR _pev$[ebp]
	push	ecx
	call	??$GetClassPtr@VCGamePlayerTeam@@@@YAPAVCGamePlayerTeam@@PAV0@PBD@Z ; GetClassPtr<CGamePlayerTeam>
	add	esp, 8
	mov	DWORD PTR _pEnt$[ebp], eax

; 94   : 		return pEnt;

	mov	eax, DWORD PTR _pEnt$[ebp]

; 95   : 	}

	mov	esp, ebp
	pop	ebp
	ret	8
?Create@?$CEntityFactory@VCGamePlayerTeam@@@@UAEPAVCBaseEntity@@PBDPAUentvars_s@@@Z ENDP ; CEntityFactory<CGamePlayerTeam>::Create
_TEXT	ENDS
; Function compile flags: /Odtp
; File c:\users\user\downloads\xashxt_v0.81_rev.1_with_sources\xashxt_v0.81_rev.1_src\server\util.h
;	COMDAT ??0?$CEntityFactory@VCGamePlayerTeam@@@@QAE@PBD@Z
_TEXT	SEGMENT
tv76 = -8						; size = 4
_this$ = -4						; size = 4
_pClassName$ = 8					; size = 4
??0?$CEntityFactory@VCGamePlayerTeam@@@@QAE@PBD@Z PROC	; CEntityFactory<CGamePlayerTeam>::CEntityFactory<CGamePlayerTeam>, COMDAT
; _this$ = ecx

; 86   : 	CEntityFactory( const char *pClassName )

	push	ebp
	mov	ebp, esp
	sub	esp, 8
	mov	DWORD PTR _this$[ebp], ecx

; 87   : 	{

	mov	ecx, DWORD PTR _this$[ebp]
	call	??0IEntityFactory@@QAE@XZ
	mov	eax, DWORD PTR _this$[ebp]
	mov	DWORD PTR [eax], OFFSET ??_7?$CEntityFactory@VCGamePlayerTeam@@@@6B@

; 88   : 		EntityFactoryDictionary()->InstallFactory( this, pClassName );

	call	?EntityFactoryDictionary@@YAPAVIEntityFactoryDictionary@@XZ ; EntityFactoryDictionary
	mov	DWORD PTR tv76[ebp], eax
	mov	ecx, DWORD PTR _pClassName$[ebp]
	push	ecx
	mov	edx, DWORD PTR _this$[ebp]
	push	edx
	mov	eax, DWORD PTR tv76[ebp]
	mov	edx, DWORD PTR [eax]
	mov	ecx, DWORD PTR tv76[ebp]
	mov	eax, DWORD PTR [edx]
	call	eax

; 89   : 	}

	mov	eax, DWORD PTR _this$[ebp]
	mov	esp, ebp
	pop	ebp
	ret	4
??0?$CEntityFactory@VCGamePlayerTeam@@@@QAE@PBD@Z ENDP	; CEntityFactory<CGamePlayerTeam>::CEntityFactory<CGamePlayerTeam>
_TEXT	ENDS
; Function compile flags: /Odtp
;	COMDAT ??0CGamePlayerTeam@@QAE@XZ
_TEXT	SEGMENT
_this$ = -4						; size = 4
??0CGamePlayerTeam@@QAE@XZ PROC				; CGamePlayerTeam::CGamePlayerTeam, COMDAT
; _this$ = ecx
	push	ebp
	mov	ebp, esp
	push	ecx
	mov	DWORD PTR _this$[ebp], ecx
	mov	ecx, DWORD PTR _this$[ebp]
	call	??0CRulePointEntity@@QAE@XZ
	mov	eax, DWORD PTR _this$[ebp]
	mov	DWORD PTR [eax], OFFSET ??_7CGamePlayerTeam@@6B@
	mov	eax, DWORD PTR _this$[ebp]
	mov	esp, ebp
	pop	ebp
	ret	0
??0CGamePlayerTeam@@QAE@XZ ENDP				; CGamePlayerTeam::CGamePlayerTeam
_TEXT	ENDS
; Function compile flags: /Odtp
; File c:\users\user\downloads\xashxt_v0.81_rev.1_with_sources\xashxt_v0.81_rev.1_src\server\maprules.cpp
_TEXT	SEGMENT
_this$ = -8						; size = 4
_pTeamEntity$ = -4					; size = 4
_pszTargetName$ = 8					; size = 4
?TargetTeamName@CGamePlayerTeam@@AAEPBDPBD@Z PROC	; CGamePlayerTeam::TargetTeamName
; _this$ = ecx

; 852  : {

	push	ebp
	mov	ebp, esp
	sub	esp, 8
	mov	DWORD PTR _this$[ebp], ecx

; 853  : 	CBaseEntity *pTeamEntity = NULL;

	mov	DWORD PTR _pTeamEntity$[ebp], 0
$LN2@TargetTeam:

; 854  : 
; 855  : 	while ((pTeamEntity = UTIL_FindEntityByTargetname( pTeamEntity, pszTargetName )) != NULL)

	mov	eax, DWORD PTR _pszTargetName$[ebp]
	push	eax
	mov	ecx, DWORD PTR _pTeamEntity$[ebp]
	push	ecx
	call	?UTIL_FindEntityByTargetname@@YAPAVCBaseEntity@@PAV1@PBD@Z ; UTIL_FindEntityByTargetname
	add	esp, 8
	mov	DWORD PTR _pTeamEntity$[ebp], eax
	cmp	DWORD PTR _pTeamEntity$[ebp], 0
	je	SHORT $LN3@TargetTeam

; 856  : 	{
; 857  : 		if ( FClassnameIs( pTeamEntity->pev, "game_team_master" ) )

	push	OFFSET $SG76613
	mov	edx, DWORD PTR _pTeamEntity$[ebp]
	mov	eax, DWORD PTR [edx+4]
	push	eax
	call	?FClassnameIs@@YAHPAUentvars_s@@PBD@Z	; FClassnameIs
	add	esp, 8
	test	eax, eax
	je	SHORT $LN4@TargetTeam

; 858  : 			return pTeamEntity->TeamID();

	mov	ecx, DWORD PTR _pTeamEntity$[ebp]
	mov	edx, DWORD PTR [ecx]
	mov	ecx, DWORD PTR _pTeamEntity$[ebp]
	mov	eax, DWORD PTR [edx+260]
	call	eax
	jmp	SHORT $LN1@TargetTeam
$LN4@TargetTeam:

; 859  : 	}

	jmp	SHORT $LN2@TargetTeam
$LN3@TargetTeam:

; 860  : 
; 861  : 	return NULL;

	xor	eax, eax
$LN1@TargetTeam:

; 862  : }

	mov	esp, ebp
	pop	ebp
	ret	4
?TargetTeamName@CGamePlayerTeam@@AAEPBDPBD@Z ENDP	; CGamePlayerTeam::TargetTeamName
_TEXT	ENDS
; Function compile flags: /Odtp
; File c:\users\user\downloads\xashxt_v0.81_rev.1_with_sources\xashxt_v0.81_rev.1_src\server\maprules.cpp
;	COMDAT ?ShouldGibPlayer@CGamePlayerTeam@@AAEHXZ
_TEXT	SEGMENT
_this$ = -8						; size = 4
tv72 = -4						; size = 4
?ShouldGibPlayer@CGamePlayerTeam@@AAEHXZ PROC		; CGamePlayerTeam::ShouldGibPlayer, COMDAT
; _this$ = ecx

; 844  : 	inline BOOL ShouldGibPlayer( void ) { return (pev->spawnflags & SF_PTEAM_GIB) ? TRUE : FALSE; }

	push	ebp
	mov	ebp, esp
	sub	esp, 8
	mov	DWORD PTR _this$[ebp], ecx
	mov	eax, DWORD PTR _this$[ebp]
	mov	ecx, DWORD PTR [eax+4]
	mov	edx, DWORD PTR [ecx+416]
	and	edx, 4
	je	SHORT $LN3@ShouldGibP
	mov	DWORD PTR tv72[ebp], 1
	jmp	SHORT $LN4@ShouldGibP
$LN3@ShouldGibP:
	mov	DWORD PTR tv72[ebp], 0
$LN4@ShouldGibP:
	mov	eax, DWORD PTR tv72[ebp]
	mov	esp, ebp
	pop	ebp
	ret	0
?ShouldGibPlayer@CGamePlayerTeam@@AAEHXZ ENDP		; CGamePlayerTeam::ShouldGibPlayer
_TEXT	ENDS
; Function compile flags: /Odtp
; File c:\users\user\downloads\xashxt_v0.81_rev.1_with_sources\xashxt_v0.81_rev.1_src\server\maprules.cpp
;	COMDAT ?ShouldKillPlayer@CGamePlayerTeam@@AAEHXZ
_TEXT	SEGMENT
_this$ = -8						; size = 4
tv72 = -4						; size = 4
?ShouldKillPlayer@CGamePlayerTeam@@AAEHXZ PROC		; CGamePlayerTeam::ShouldKillPlayer, COMDAT
; _this$ = ecx

; 843  : 	inline BOOL ShouldKillPlayer( void ) { return (pev->spawnflags & SF_PTEAM_KILL) ? TRUE : FALSE; }

	push	ebp
	mov	ebp, esp
	sub	esp, 8
	mov	DWORD PTR _this$[ebp], ecx
	mov	eax, DWORD PTR _this$[ebp]
	mov	ecx, DWORD PTR [eax+4]
	mov	edx, DWORD PTR [ecx+416]
	and	edx, 2
	je	SHORT $LN3@ShouldKill
	mov	DWORD PTR tv72[ebp], 1
	jmp	SHORT $LN4@ShouldKill
$LN3@ShouldKill:
	mov	DWORD PTR tv72[ebp], 0
$LN4@ShouldKill:
	mov	eax, DWORD PTR tv72[ebp]
	mov	esp, ebp
	pop	ebp
	ret	0
?ShouldKillPlayer@CGamePlayerTeam@@AAEHXZ ENDP		; CGamePlayerTeam::ShouldKillPlayer
_TEXT	ENDS
; Function compile flags: /Odtp
; File c:\users\user\downloads\xashxt_v0.81_rev.1_with_sources\xashxt_v0.81_rev.1_src\server\maprules.cpp
;	COMDAT ?RemoveOnFire@CGamePlayerTeam@@AAEHXZ
_TEXT	SEGMENT
_this$ = -8						; size = 4
tv72 = -4						; size = 4
?RemoveOnFire@CGamePlayerTeam@@AAEHXZ PROC		; CGamePlayerTeam::RemoveOnFire, COMDAT
; _this$ = ecx

; 842  : 	inline BOOL RemoveOnFire( void ) { return (pev->spawnflags & SF_PTEAM_FIREONCE) ? TRUE : FALSE; }

	push	ebp
	mov	ebp, esp
	sub	esp, 8
	mov	DWORD PTR _this$[ebp], ecx
	mov	eax, DWORD PTR _this$[ebp]
	mov	ecx, DWORD PTR [eax+4]
	mov	edx, DWORD PTR [ecx+416]
	and	edx, 1
	je	SHORT $LN3@RemoveOnFi
	mov	DWORD PTR tv72[ebp], 1
	jmp	SHORT $LN4@RemoveOnFi
$LN3@RemoveOnFi:
	mov	DWORD PTR tv72[ebp], 0
$LN4@RemoveOnFi:
	mov	eax, DWORD PTR tv72[ebp]
	mov	esp, ebp
	pop	ebp
	ret	0
?RemoveOnFire@CGamePlayerTeam@@AAEHXZ ENDP		; CGamePlayerTeam::RemoveOnFire
_TEXT	ENDS
; Function compile flags: /Odtp
; File c:\users\user\downloads\xashxt_v0.81_rev.1_with_sources\xashxt_v0.81_rev.1_src\server\maprules.cpp
_TEXT	SEGMENT
_pPlayer$1 = -12					; size = 4
_pszTargetTeam$2 = -8					; size = 4
_this$ = -4						; size = 4
_pActivator$ = 8					; size = 4
_pCaller$ = 12						; size = 4
_useType$ = 16						; size = 4
_value$ = 20						; size = 4
?Use@CGamePlayerTeam@@UAEXPAVCBaseEntity@@0W4USE_TYPE@@M@Z PROC ; CGamePlayerTeam::Use
; _this$ = ecx

; 865  : {

	push	ebp
	mov	ebp, esp
	sub	esp, 12					; 0000000cH
	mov	DWORD PTR _this$[ebp], ecx

; 866  : 	if ( !CanFireForActivator( pActivator ) )

	mov	eax, DWORD PTR _pActivator$[ebp]
	push	eax
	mov	ecx, DWORD PTR _this$[ebp]
	call	?CanFireForActivator@CRuleEntity@@IAEHPAVCBaseEntity@@@Z ; CRuleEntity::CanFireForActivator
	test	eax, eax
	jne	SHORT $LN2@Use

; 867  : 		return;

	jmp	$LN1@Use
$LN2@Use:

; 868  : 
; 869  : 	if ( pActivator->IsPlayer() )

	mov	ecx, DWORD PTR _pActivator$[ebp]
	mov	edx, DWORD PTR [ecx]
	mov	ecx, DWORD PTR _pActivator$[ebp]
	mov	eax, DWORD PTR [edx+220]
	call	eax
	test	eax, eax
	je	SHORT $LN3@Use

; 870  : 	{
; 871  : 		const char *pszTargetTeam = TargetTeamName( STRING(pev->target) );

	mov	ecx, DWORD PTR _this$[ebp]
	mov	edx, DWORD PTR [ecx+4]
	mov	eax, DWORD PTR [edx+456]
	push	eax
	call	DWORD PTR ?g_engfuncs@@3Uenginefuncs_s@@A+264
	add	esp, 4
	push	eax
	mov	ecx, DWORD PTR _this$[ebp]
	call	?TargetTeamName@CGamePlayerTeam@@AAEPBDPBD@Z ; CGamePlayerTeam::TargetTeamName
	mov	DWORD PTR _pszTargetTeam$2[ebp], eax

; 872  : 		if ( pszTargetTeam )

	cmp	DWORD PTR _pszTargetTeam$2[ebp], 0
	je	SHORT $LN3@Use

; 873  : 		{
; 874  : 			CBasePlayer *pPlayer = (CBasePlayer *)pActivator;

	mov	ecx, DWORD PTR _pActivator$[ebp]
	mov	DWORD PTR _pPlayer$1[ebp], ecx

; 875  : 			g_pGameRules->ChangePlayerTeam( pPlayer, pszTargetTeam, ShouldKillPlayer(), ShouldGibPlayer() );

	mov	ecx, DWORD PTR _this$[ebp]
	call	?ShouldGibPlayer@CGamePlayerTeam@@AAEHXZ ; CGamePlayerTeam::ShouldGibPlayer
	push	eax
	mov	ecx, DWORD PTR _this$[ebp]
	call	?ShouldKillPlayer@CGamePlayerTeam@@AAEHXZ ; CGamePlayerTeam::ShouldKillPlayer
	push	eax
	mov	edx, DWORD PTR _pszTargetTeam$2[ebp]
	push	edx
	mov	eax, DWORD PTR _pPlayer$1[ebp]
	push	eax
	mov	ecx, DWORD PTR ?g_pGameRules@@3PAVCGameRules@@A ; g_pGameRules
	mov	edx, DWORD PTR [ecx]
	mov	ecx, DWORD PTR ?g_pGameRules@@3PAVCGameRules@@A ; g_pGameRules
	mov	eax, DWORD PTR [edx+216]
	call	eax
$LN3@Use:

; 876  : 		}
; 877  : 	}
; 878  : 	
; 879  : 	if ( RemoveOnFire() )

	mov	ecx, DWORD PTR _this$[ebp]
	call	?RemoveOnFire@CGamePlayerTeam@@AAEHXZ	; CGamePlayerTeam::RemoveOnFire
	test	eax, eax
	je	SHORT $LN1@Use

; 880  : 	{
; 881  : 		UTIL_Remove( this );

	mov	ecx, DWORD PTR _this$[ebp]
	push	ecx
	call	?UTIL_Remove@@YAXPAVCBaseEntity@@@Z	; UTIL_Remove
	add	esp, 4
$LN1@Use:

; 882  : 	}
; 883  : }

	mov	esp, ebp
	pop	ebp
	ret	16					; 00000010H
?Use@CGamePlayerTeam@@UAEXPAVCBaseEntity@@0W4USE_TYPE@@M@Z ENDP ; CGamePlayerTeam::Use
_TEXT	ENDS
; Function compile flags: /Odtp
; File c:\users\user\downloads\xashxt_v0.81_rev.1_with_sources\xashxt_v0.81_rev.1_src\server\maprules.cpp
;	COMDAT ??__Egame_player_equip@@YAXXZ
text$di	SEGMENT
??__Egame_player_equip@@YAXXZ PROC			; `dynamic initializer for 'game_player_equip'', COMDAT

; 759  : LINK_ENTITY_TO_CLASS( game_player_equip, CGamePlayerEquip );

	push	ebp
	mov	ebp, esp
	push	OFFSET $SG76494
	mov	ecx, OFFSET ?game_player_equip@@3V?$CEntityFactory@VCGamePlayerEquip@@@@A
	call	??0?$CEntityFactory@VCGamePlayerEquip@@@@QAE@PBD@Z ; CEntityFactory<CGamePlayerEquip>::CEntityFactory<CGamePlayerEquip>
	pop	ebp
	ret	0
??__Egame_player_equip@@YAXXZ ENDP			; `dynamic initializer for 'game_player_equip''
text$di	ENDS
; Function compile flags: /Odtp
; File c:\users\user\downloads\xashxt_v0.81_rev.1_with_sources\xashxt_v0.81_rev.1_src\server\util.h
;	COMDAT ?GetEntitySize@?$CEntityFactory@VCGamePlayerEquip@@@@UAEIXZ
_TEXT	SEGMENT
_this$ = -4						; size = 4
?GetEntitySize@?$CEntityFactory@VCGamePlayerEquip@@@@UAEIXZ PROC ; CEntityFactory<CGamePlayerEquip>::GetEntitySize, COMDAT
; _this$ = ecx

; 103  : 	{

	push	ebp
	mov	ebp, esp
	push	ecx
	mov	DWORD PTR _this$[ebp], ecx

; 104  : 		return sizeof(T);

	mov	eax, 1912				; 00000778H

; 105  : 	}

	mov	esp, ebp
	pop	ebp
	ret	0
?GetEntitySize@?$CEntityFactory@VCGamePlayerEquip@@@@UAEIXZ ENDP ; CEntityFactory<CGamePlayerEquip>::GetEntitySize
_TEXT	ENDS
; Function compile flags: /Odtp
; File c:\users\user\downloads\xashxt_v0.81_rev.1_with_sources\xashxt_v0.81_rev.1_src\server\util.h
;	COMDAT ?Destroy@?$CEntityFactory@VCGamePlayerEquip@@@@UAEXPAVCBaseEntity@@@Z
_TEXT	SEGMENT
_this$ = -4						; size = 4
_pEntity$ = 8						; size = 4
?Destroy@?$CEntityFactory@VCGamePlayerEquip@@@@UAEXPAVCBaseEntity@@@Z PROC ; CEntityFactory<CGamePlayerEquip>::Destroy, COMDAT
; _this$ = ecx

; 98   : 	{

	push	ebp
	mov	ebp, esp
	push	ecx
	mov	DWORD PTR _this$[ebp], ecx

; 99   : 		UTIL_Remove( pEntity );

	mov	eax, DWORD PTR _pEntity$[ebp]
	push	eax
	call	?UTIL_Remove@@YAXPAVCBaseEntity@@@Z	; UTIL_Remove
	add	esp, 4

; 100  : 	}

	mov	esp, ebp
	pop	ebp
	ret	4
?Destroy@?$CEntityFactory@VCGamePlayerEquip@@@@UAEXPAVCBaseEntity@@@Z ENDP ; CEntityFactory<CGamePlayerEquip>::Destroy
_TEXT	ENDS
; Function compile flags: /Odtp
; File c:\users\user\downloads\xashxt_v0.81_rev.1_with_sources\xashxt_v0.81_rev.1_src\server\util.h
;	COMDAT ?Create@?$CEntityFactory@VCGamePlayerEquip@@@@UAEPAVCBaseEntity@@PBDPAUentvars_s@@@Z
_TEXT	SEGMENT
_this$ = -8						; size = 4
_pEnt$ = -4						; size = 4
_pClassName$ = 8					; size = 4
_pev$ = 12						; size = 4
?Create@?$CEntityFactory@VCGamePlayerEquip@@@@UAEPAVCBaseEntity@@PBDPAUentvars_s@@@Z PROC ; CEntityFactory<CGamePlayerEquip>::Create, COMDAT
; _this$ = ecx

; 92   : 	{

	push	ebp
	mov	ebp, esp
	sub	esp, 8
	mov	DWORD PTR _this$[ebp], ecx

; 93   : 		T* pEnt = GetClassPtr((T*)pev, pClassName);

	mov	eax, DWORD PTR _pClassName$[ebp]
	push	eax
	mov	ecx, DWORD PTR _pev$[ebp]
	push	ecx
	call	??$GetClassPtr@VCGamePlayerEquip@@@@YAPAVCGamePlayerEquip@@PAV0@PBD@Z ; GetClassPtr<CGamePlayerEquip>
	add	esp, 8
	mov	DWORD PTR _pEnt$[ebp], eax

; 94   : 		return pEnt;

	mov	eax, DWORD PTR _pEnt$[ebp]

; 95   : 	}

	mov	esp, ebp
	pop	ebp
	ret	8
?Create@?$CEntityFactory@VCGamePlayerEquip@@@@UAEPAVCBaseEntity@@PBDPAUentvars_s@@@Z ENDP ; CEntityFactory<CGamePlayerEquip>::Create
_TEXT	ENDS
; Function compile flags: /Odtp
; File c:\users\user\downloads\xashxt_v0.81_rev.1_with_sources\xashxt_v0.81_rev.1_src\server\util.h
;	COMDAT ??0?$CEntityFactory@VCGamePlayerEquip@@@@QAE@PBD@Z
_TEXT	SEGMENT
tv76 = -8						; size = 4
_this$ = -4						; size = 4
_pClassName$ = 8					; size = 4
??0?$CEntityFactory@VCGamePlayerEquip@@@@QAE@PBD@Z PROC	; CEntityFactory<CGamePlayerEquip>::CEntityFactory<CGamePlayerEquip>, COMDAT
; _this$ = ecx

; 86   : 	CEntityFactory( const char *pClassName )

	push	ebp
	mov	ebp, esp
	sub	esp, 8
	mov	DWORD PTR _this$[ebp], ecx

; 87   : 	{

	mov	ecx, DWORD PTR _this$[ebp]
	call	??0IEntityFactory@@QAE@XZ
	mov	eax, DWORD PTR _this$[ebp]
	mov	DWORD PTR [eax], OFFSET ??_7?$CEntityFactory@VCGamePlayerEquip@@@@6B@

; 88   : 		EntityFactoryDictionary()->InstallFactory( this, pClassName );

	call	?EntityFactoryDictionary@@YAPAVIEntityFactoryDictionary@@XZ ; EntityFactoryDictionary
	mov	DWORD PTR tv76[ebp], eax
	mov	ecx, DWORD PTR _pClassName$[ebp]
	push	ecx
	mov	edx, DWORD PTR _this$[ebp]
	push	edx
	mov	eax, DWORD PTR tv76[ebp]
	mov	edx, DWORD PTR [eax]
	mov	ecx, DWORD PTR tv76[ebp]
	mov	eax, DWORD PTR [edx]
	call	eax

; 89   : 	}

	mov	eax, DWORD PTR _this$[ebp]
	mov	esp, ebp
	pop	ebp
	ret	4
??0?$CEntityFactory@VCGamePlayerEquip@@@@QAE@PBD@Z ENDP	; CEntityFactory<CGamePlayerEquip>::CEntityFactory<CGamePlayerEquip>
_TEXT	ENDS
; Function compile flags: /Odtp
;	COMDAT ??0CGamePlayerEquip@@QAE@XZ
_TEXT	SEGMENT
_this$ = -4						; size = 4
??0CGamePlayerEquip@@QAE@XZ PROC			; CGamePlayerEquip::CGamePlayerEquip, COMDAT
; _this$ = ecx
	push	ebp
	mov	ebp, esp
	push	ecx
	mov	DWORD PTR _this$[ebp], ecx
	mov	ecx, DWORD PTR _this$[ebp]
	call	??0CRulePointEntity@@QAE@XZ
	mov	eax, DWORD PTR _this$[ebp]
	mov	DWORD PTR [eax], OFFSET ??_7CGamePlayerEquip@@6B@
	mov	eax, DWORD PTR _this$[ebp]
	mov	esp, ebp
	pop	ebp
	ret	0
??0CGamePlayerEquip@@QAE@XZ ENDP			; CGamePlayerEquip::CGamePlayerEquip
_TEXT	ENDS
; Function compile flags: /Odtp
; File c:\users\user\downloads\xashxt_v0.81_rev.1_with_sources\xashxt_v0.81_rev.1_src\server\maprules.cpp
_TEXT	SEGMENT
_pPlayer$ = -16						; size = 4
_this$ = -12						; size = 4
_j$1 = -8						; size = 4
_i$2 = -4						; size = 4
_pEntity$ = 8						; size = 4
?EquipPlayer@CGamePlayerEquip@@AAEXPAVCBaseEntity@@@Z PROC ; CGamePlayerEquip::EquipPlayer
; _this$ = ecx

; 797  : {

	push	ebp
	mov	ebp, esp
	sub	esp, 16					; 00000010H
	mov	DWORD PTR _this$[ebp], ecx

; 798  : 	CBasePlayer *pPlayer = NULL;

	mov	DWORD PTR _pPlayer$[ebp], 0

; 799  : 
; 800  : 	if ( pEntity->IsPlayer() )

	mov	eax, DWORD PTR _pEntity$[ebp]
	mov	edx, DWORD PTR [eax]
	mov	ecx, DWORD PTR _pEntity$[ebp]
	mov	eax, DWORD PTR [edx+220]
	call	eax
	test	eax, eax
	je	SHORT $LN8@EquipPlaye

; 801  : 	{
; 802  : 		pPlayer = (CBasePlayer *)pEntity;

	mov	ecx, DWORD PTR _pEntity$[ebp]
	mov	DWORD PTR _pPlayer$[ebp], ecx
$LN8@EquipPlaye:

; 803  : 	}
; 804  : 
; 805  : 	if ( !pPlayer )

	cmp	DWORD PTR _pPlayer$[ebp], 0
	jne	SHORT $LN9@EquipPlaye

; 806  : 		return;

	jmp	SHORT $LN1@EquipPlaye
$LN9@EquipPlaye:

; 807  : 
; 808  : 	for ( int i = 0; i < MAX_EQUIP; i++ )

	mov	DWORD PTR _i$2[ebp], 0
	jmp	SHORT $LN4@EquipPlaye
$LN2@EquipPlaye:
	mov	edx, DWORD PTR _i$2[ebp]
	add	edx, 1
	mov	DWORD PTR _i$2[ebp], edx
$LN4@EquipPlaye:
	cmp	DWORD PTR _i$2[ebp], 32			; 00000020H
	jge	SHORT $LN1@EquipPlaye

; 809  : 	{
; 810  : 		if ( !m_weaponNames[i] )

	mov	eax, DWORD PTR _i$2[ebp]
	mov	ecx, DWORD PTR _this$[ebp]
	cmp	DWORD PTR [ecx+eax*4+1656], 0
	jne	SHORT $LN10@EquipPlaye

; 811  : 			break;

	jmp	SHORT $LN1@EquipPlaye
$LN10@EquipPlaye:

; 812  : 		for ( int j = 0; j < m_weaponCount[i]; j++ )

	mov	DWORD PTR _j$1[ebp], 0
	jmp	SHORT $LN7@EquipPlaye
$LN5@EquipPlaye:
	mov	edx, DWORD PTR _j$1[ebp]
	add	edx, 1
	mov	DWORD PTR _j$1[ebp], edx
$LN7@EquipPlaye:
	mov	eax, DWORD PTR _i$2[ebp]
	mov	ecx, DWORD PTR _this$[ebp]
	mov	edx, DWORD PTR _j$1[ebp]
	cmp	edx, DWORD PTR [ecx+eax*4+1784]
	jge	SHORT $LN6@EquipPlaye

; 813  : 		{
; 814  :  			pPlayer->GiveNamedItem( STRING(m_weaponNames[i]) );

	mov	eax, DWORD PTR _i$2[ebp]
	mov	ecx, DWORD PTR _this$[ebp]
	mov	edx, DWORD PTR [ecx+eax*4+1656]
	push	edx
	call	DWORD PTR ?g_engfuncs@@3Uenginefuncs_s@@A+264
	add	esp, 4
	push	eax
	mov	ecx, DWORD PTR _pPlayer$[ebp]
	call	?GiveNamedItem@CBasePlayer@@QAEXPBD@Z	; CBasePlayer::GiveNamedItem

; 815  : 		}

	jmp	SHORT $LN5@EquipPlaye
$LN6@EquipPlaye:

; 816  : 	}

	jmp	SHORT $LN2@EquipPlaye
$LN1@EquipPlaye:

; 817  : }

	mov	esp, ebp
	pop	ebp
	ret	4
?EquipPlayer@CGamePlayerEquip@@AAEXPAVCBaseEntity@@@Z ENDP ; CGamePlayerEquip::EquipPlayer
_TEXT	ENDS
; Function compile flags: /Odtp
; File c:\users\user\downloads\xashxt_v0.81_rev.1_with_sources\xashxt_v0.81_rev.1_src\server\maprules.cpp
;	COMDAT ?UseOnly@CGamePlayerEquip@@QAEHXZ
_TEXT	SEGMENT
_this$ = -8						; size = 4
tv72 = -4						; size = 4
?UseOnly@CGamePlayerEquip@@QAEHXZ PROC			; CGamePlayerEquip::UseOnly, COMDAT
; _this$ = ecx

; 750  : 	inline BOOL UseOnly( void ) { return (pev->spawnflags & SF_PLAYEREQUIP_USEONLY) ? TRUE : FALSE; }

	push	ebp
	mov	ebp, esp
	sub	esp, 8
	mov	DWORD PTR _this$[ebp], ecx
	mov	eax, DWORD PTR _this$[ebp]
	mov	ecx, DWORD PTR [eax+4]
	mov	edx, DWORD PTR [ecx+416]
	and	edx, 1
	je	SHORT $LN3@UseOnly
	mov	DWORD PTR tv72[ebp], 1
	jmp	SHORT $LN4@UseOnly
$LN3@UseOnly:
	mov	DWORD PTR tv72[ebp], 0
$LN4@UseOnly:
	mov	eax, DWORD PTR tv72[ebp]
	mov	esp, ebp
	pop	ebp
	ret	0
?UseOnly@CGamePlayerEquip@@QAEHXZ ENDP			; CGamePlayerEquip::UseOnly
_TEXT	ENDS
; Function compile flags: /Odtp
; File c:\users\user\downloads\xashxt_v0.81_rev.1_with_sources\xashxt_v0.81_rev.1_src\server\maprules.cpp
_TEXT	SEGMENT
_this$ = -4						; size = 4
_pActivator$ = 8					; size = 4
_pCaller$ = 12						; size = 4
_useType$ = 16						; size = 4
_value$ = 20						; size = 4
?Use@CGamePlayerEquip@@UAEXPAVCBaseEntity@@0W4USE_TYPE@@M@Z PROC ; CGamePlayerEquip::Use
; _this$ = ecx

; 821  : {

	push	ebp
	mov	ebp, esp
	push	ecx
	mov	DWORD PTR _this$[ebp], ecx

; 822  : 	EquipPlayer( pActivator );

	mov	eax, DWORD PTR _pActivator$[ebp]
	push	eax
	mov	ecx, DWORD PTR _this$[ebp]
	call	?EquipPlayer@CGamePlayerEquip@@AAEXPAVCBaseEntity@@@Z ; CGamePlayerEquip::EquipPlayer

; 823  : }

	mov	esp, ebp
	pop	ebp
	ret	16					; 00000010H
?Use@CGamePlayerEquip@@UAEXPAVCBaseEntity@@0W4USE_TYPE@@M@Z ENDP ; CGamePlayerEquip::Use
_TEXT	ENDS
; Function compile flags: /Odtp
; File c:\users\user\downloads\xashxt_v0.81_rev.1_with_sources\xashxt_v0.81_rev.1_src\server\maprules.cpp
_TEXT	SEGMENT
_this$ = -4						; size = 4
_pOther$ = 8						; size = 4
?Touch@CGamePlayerEquip@@UAEXPAVCBaseEntity@@@Z PROC	; CGamePlayerEquip::Touch
; _this$ = ecx

; 786  : {

	push	ebp
	mov	ebp, esp
	push	ecx
	mov	DWORD PTR _this$[ebp], ecx

; 787  : 	if ( !CanFireForActivator( pOther ) )

	mov	eax, DWORD PTR _pOther$[ebp]
	push	eax
	mov	ecx, DWORD PTR _this$[ebp]
	call	?CanFireForActivator@CRuleEntity@@IAEHPAVCBaseEntity@@@Z ; CRuleEntity::CanFireForActivator
	test	eax, eax
	jne	SHORT $LN2@Touch

; 788  : 		return;

	jmp	SHORT $LN1@Touch
$LN2@Touch:

; 789  : 
; 790  : 	if ( UseOnly() )

	mov	ecx, DWORD PTR _this$[ebp]
	call	?UseOnly@CGamePlayerEquip@@QAEHXZ	; CGamePlayerEquip::UseOnly
	test	eax, eax
	je	SHORT $LN3@Touch

; 791  : 		return;

	jmp	SHORT $LN1@Touch
$LN3@Touch:

; 792  : 
; 793  : 	EquipPlayer( pOther );

	mov	ecx, DWORD PTR _pOther$[ebp]
	push	ecx
	mov	ecx, DWORD PTR _this$[ebp]
	call	?EquipPlayer@CGamePlayerEquip@@AAEXPAVCBaseEntity@@@Z ; CGamePlayerEquip::EquipPlayer
$LN1@Touch:

; 794  : }

	mov	esp, ebp
	pop	ebp
	ret	4
?Touch@CGamePlayerEquip@@UAEXPAVCBaseEntity@@@Z ENDP	; CGamePlayerEquip::Touch
_TEXT	ENDS
; Function compile flags: /Odtp
; File c:\users\user\downloads\xashxt_v0.81_rev.1_with_sources\xashxt_v0.81_rev.1_src\server\maprules.cpp
_TEXT	SEGMENT
tv134 = -144						; size = 4
_this$ = -140						; size = 4
_i$1 = -136						; size = 4
_tmp$2 = -132						; size = 128
__$ArrayPad$ = -4					; size = 4
_pkvd$ = 8						; size = 4
?KeyValue@CGamePlayerEquip@@UAEXPAUKeyValueData_s@@@Z PROC ; CGamePlayerEquip::KeyValue
; _this$ = ecx

; 762  : {

	push	ebp
	mov	ebp, esp
	sub	esp, 144				; 00000090H
	mov	eax, DWORD PTR ___security_cookie
	xor	eax, ebp
	mov	DWORD PTR __$ArrayPad$[ebp], eax
	mov	DWORD PTR _this$[ebp], ecx

; 763  : 	BaseClass::KeyValue( pkvd );

	mov	eax, DWORD PTR _pkvd$[ebp]
	push	eax
	mov	ecx, DWORD PTR _this$[ebp]
	call	?KeyValue@CRuleEntity@@UAEXPAUKeyValueData_s@@@Z ; CRuleEntity::KeyValue

; 764  : 
; 765  : 	if ( !pkvd->fHandled )

	mov	ecx, DWORD PTR _pkvd$[ebp]
	cmp	DWORD PTR [ecx+12], 0
	jne	$LN1@KeyValue

; 766  : 	{
; 767  : 		for ( int i = 0; i < MAX_EQUIP; i++ )

	mov	DWORD PTR _i$1[ebp], 0
	jmp	SHORT $LN4@KeyValue
$LN2@KeyValue:
	mov	edx, DWORD PTR _i$1[ebp]
	add	edx, 1
	mov	DWORD PTR _i$1[ebp], edx
$LN4@KeyValue:
	cmp	DWORD PTR _i$1[ebp], 32			; 00000020H
	jge	$LN1@KeyValue

; 768  : 		{
; 769  : 			if ( !m_weaponNames[i] )

	mov	eax, DWORD PTR _i$1[ebp]
	mov	ecx, DWORD PTR _this$[ebp]
	cmp	DWORD PTR [ecx+eax*4+1656], 0
	jne	$LN6@KeyValue

; 770  : 			{
; 771  : 				char tmp[128];
; 772  : 
; 773  : 				UTIL_StripToken( pkvd->szKeyName, tmp );

	lea	edx, DWORD PTR _tmp$2[ebp]
	push	edx
	mov	eax, DWORD PTR _pkvd$[ebp]
	mov	ecx, DWORD PTR [eax+4]
	push	ecx
	call	?UTIL_StripToken@@YAXPBDPAD@Z		; UTIL_StripToken
	add	esp, 8

; 774  : 
; 775  : 				m_weaponNames[i] = ALLOC_STRING(tmp);

	lea	edx, DWORD PTR _tmp$2[ebp]
	push	edx
	call	DWORD PTR ?g_engfuncs@@3Uenginefuncs_s@@A+268
	add	esp, 4
	mov	ecx, DWORD PTR _i$1[ebp]
	mov	edx, DWORD PTR _this$[ebp]
	mov	DWORD PTR [edx+ecx*4+1656], eax

; 776  : 				m_weaponCount[i] = atoi(pkvd->szValue);

	mov	eax, DWORD PTR _pkvd$[ebp]
	mov	ecx, DWORD PTR [eax+8]
	push	ecx
	call	_atoi
	add	esp, 4
	mov	edx, DWORD PTR _i$1[ebp]
	mov	ecx, DWORD PTR _this$[ebp]
	mov	DWORD PTR [ecx+edx*4+1784], eax

; 777  : 				m_weaponCount[i] = Q_max(1,m_weaponCount[i]);

	mov	edx, DWORD PTR _i$1[ebp]
	mov	eax, DWORD PTR _this$[ebp]
	cmp	DWORD PTR [eax+edx*4+1784], 1
	jge	SHORT $LN8@KeyValue
	mov	DWORD PTR tv134[ebp], 1
	jmp	SHORT $LN9@KeyValue
$LN8@KeyValue:
	mov	ecx, DWORD PTR _i$1[ebp]
	mov	edx, DWORD PTR _this$[ebp]
	mov	eax, DWORD PTR [edx+ecx*4+1784]
	mov	DWORD PTR tv134[ebp], eax
$LN9@KeyValue:
	mov	ecx, DWORD PTR _i$1[ebp]
	mov	edx, DWORD PTR _this$[ebp]
	mov	eax, DWORD PTR tv134[ebp]
	mov	DWORD PTR [edx+ecx*4+1784], eax

; 778  : 				pkvd->fHandled = TRUE;

	mov	ecx, DWORD PTR _pkvd$[ebp]
	mov	DWORD PTR [ecx+12], 1

; 779  : 				break;

	jmp	SHORT $LN1@KeyValue
$LN6@KeyValue:

; 780  : 			}
; 781  : 		}

	jmp	$LN2@KeyValue
$LN1@KeyValue:

; 782  : 	}
; 783  : }

	mov	ecx, DWORD PTR __$ArrayPad$[ebp]
	xor	ecx, ebp
	call	@__security_check_cookie@4
	mov	esp, ebp
	pop	ebp
	ret	4
?KeyValue@CGamePlayerEquip@@UAEXPAUKeyValueData_s@@@Z ENDP ; CGamePlayerEquip::KeyValue
_TEXT	ENDS
; Function compile flags: /Odtp
; File c:\users\user\downloads\xashxt_v0.81_rev.1_with_sources\xashxt_v0.81_rev.1_src\server\maprules.cpp
;	COMDAT ??__Egame_counter_set@@YAXXZ
text$di	SEGMENT
??__Egame_counter_set@@YAXXZ PROC			; `dynamic initializer for 'game_counter_set'', COMDAT

; 720  : LINK_ENTITY_TO_CLASS( game_counter_set, CGameCounterSet );

	push	ebp
	mov	ebp, esp
	push	OFFSET $SG76420
	mov	ecx, OFFSET ?game_counter_set@@3V?$CEntityFactory@VCGameCounterSet@@@@A
	call	??0?$CEntityFactory@VCGameCounterSet@@@@QAE@PBD@Z ; CEntityFactory<CGameCounterSet>::CEntityFactory<CGameCounterSet>
	pop	ebp
	ret	0
??__Egame_counter_set@@YAXXZ ENDP			; `dynamic initializer for 'game_counter_set''
text$di	ENDS
; Function compile flags: /Odtp
; File c:\users\user\downloads\xashxt_v0.81_rev.1_with_sources\xashxt_v0.81_rev.1_src\server\util.h
;	COMDAT ?GetEntitySize@?$CEntityFactory@VCGameCounterSet@@@@UAEIXZ
_TEXT	SEGMENT
_this$ = -4						; size = 4
?GetEntitySize@?$CEntityFactory@VCGameCounterSet@@@@UAEIXZ PROC ; CEntityFactory<CGameCounterSet>::GetEntitySize, COMDAT
; _this$ = ecx

; 103  : 	{

	push	ebp
	mov	ebp, esp
	push	ecx
	mov	DWORD PTR _this$[ebp], ecx

; 104  : 		return sizeof(T);

	mov	eax, 1656				; 00000678H

; 105  : 	}

	mov	esp, ebp
	pop	ebp
	ret	0
?GetEntitySize@?$CEntityFactory@VCGameCounterSet@@@@UAEIXZ ENDP ; CEntityFactory<CGameCounterSet>::GetEntitySize
_TEXT	ENDS
; Function compile flags: /Odtp
; File c:\users\user\downloads\xashxt_v0.81_rev.1_with_sources\xashxt_v0.81_rev.1_src\server\util.h
;	COMDAT ?Destroy@?$CEntityFactory@VCGameCounterSet@@@@UAEXPAVCBaseEntity@@@Z
_TEXT	SEGMENT
_this$ = -4						; size = 4
_pEntity$ = 8						; size = 4
?Destroy@?$CEntityFactory@VCGameCounterSet@@@@UAEXPAVCBaseEntity@@@Z PROC ; CEntityFactory<CGameCounterSet>::Destroy, COMDAT
; _this$ = ecx

; 98   : 	{

	push	ebp
	mov	ebp, esp
	push	ecx
	mov	DWORD PTR _this$[ebp], ecx

; 99   : 		UTIL_Remove( pEntity );

	mov	eax, DWORD PTR _pEntity$[ebp]
	push	eax
	call	?UTIL_Remove@@YAXPAVCBaseEntity@@@Z	; UTIL_Remove
	add	esp, 4

; 100  : 	}

	mov	esp, ebp
	pop	ebp
	ret	4
?Destroy@?$CEntityFactory@VCGameCounterSet@@@@UAEXPAVCBaseEntity@@@Z ENDP ; CEntityFactory<CGameCounterSet>::Destroy
_TEXT	ENDS
; Function compile flags: /Odtp
; File c:\users\user\downloads\xashxt_v0.81_rev.1_with_sources\xashxt_v0.81_rev.1_src\server\util.h
;	COMDAT ?Create@?$CEntityFactory@VCGameCounterSet@@@@UAEPAVCBaseEntity@@PBDPAUentvars_s@@@Z
_TEXT	SEGMENT
_this$ = -8						; size = 4
_pEnt$ = -4						; size = 4
_pClassName$ = 8					; size = 4
_pev$ = 12						; size = 4
?Create@?$CEntityFactory@VCGameCounterSet@@@@UAEPAVCBaseEntity@@PBDPAUentvars_s@@@Z PROC ; CEntityFactory<CGameCounterSet>::Create, COMDAT
; _this$ = ecx

; 92   : 	{

	push	ebp
	mov	ebp, esp
	sub	esp, 8
	mov	DWORD PTR _this$[ebp], ecx

; 93   : 		T* pEnt = GetClassPtr((T*)pev, pClassName);

	mov	eax, DWORD PTR _pClassName$[ebp]
	push	eax
	mov	ecx, DWORD PTR _pev$[ebp]
	push	ecx
	call	??$GetClassPtr@VCGameCounterSet@@@@YAPAVCGameCounterSet@@PAV0@PBD@Z ; GetClassPtr<CGameCounterSet>
	add	esp, 8
	mov	DWORD PTR _pEnt$[ebp], eax

; 94   : 		return pEnt;

	mov	eax, DWORD PTR _pEnt$[ebp]

; 95   : 	}

	mov	esp, ebp
	pop	ebp
	ret	8
?Create@?$CEntityFactory@VCGameCounterSet@@@@UAEPAVCBaseEntity@@PBDPAUentvars_s@@@Z ENDP ; CEntityFactory<CGameCounterSet>::Create
_TEXT	ENDS
; Function compile flags: /Odtp
; File c:\users\user\downloads\xashxt_v0.81_rev.1_with_sources\xashxt_v0.81_rev.1_src\server\util.h
;	COMDAT ??0?$CEntityFactory@VCGameCounterSet@@@@QAE@PBD@Z
_TEXT	SEGMENT
tv76 = -8						; size = 4
_this$ = -4						; size = 4
_pClassName$ = 8					; size = 4
??0?$CEntityFactory@VCGameCounterSet@@@@QAE@PBD@Z PROC	; CEntityFactory<CGameCounterSet>::CEntityFactory<CGameCounterSet>, COMDAT
; _this$ = ecx

; 86   : 	CEntityFactory( const char *pClassName )

	push	ebp
	mov	ebp, esp
	sub	esp, 8
	mov	DWORD PTR _this$[ebp], ecx

; 87   : 	{

	mov	ecx, DWORD PTR _this$[ebp]
	call	??0IEntityFactory@@QAE@XZ
	mov	eax, DWORD PTR _this$[ebp]
	mov	DWORD PTR [eax], OFFSET ??_7?$CEntityFactory@VCGameCounterSet@@@@6B@

; 88   : 		EntityFactoryDictionary()->InstallFactory( this, pClassName );

	call	?EntityFactoryDictionary@@YAPAVIEntityFactoryDictionary@@XZ ; EntityFactoryDictionary
	mov	DWORD PTR tv76[ebp], eax
	mov	ecx, DWORD PTR _pClassName$[ebp]
	push	ecx
	mov	edx, DWORD PTR _this$[ebp]
	push	edx
	mov	eax, DWORD PTR tv76[ebp]
	mov	edx, DWORD PTR [eax]
	mov	ecx, DWORD PTR tv76[ebp]
	mov	eax, DWORD PTR [edx]
	call	eax

; 89   : 	}

	mov	eax, DWORD PTR _this$[ebp]
	mov	esp, ebp
	pop	ebp
	ret	4
??0?$CEntityFactory@VCGameCounterSet@@@@QAE@PBD@Z ENDP	; CEntityFactory<CGameCounterSet>::CEntityFactory<CGameCounterSet>
_TEXT	ENDS
; Function compile flags: /Odtp
;	COMDAT ??0CGameCounterSet@@QAE@XZ
_TEXT	SEGMENT
_this$ = -4						; size = 4
??0CGameCounterSet@@QAE@XZ PROC				; CGameCounterSet::CGameCounterSet, COMDAT
; _this$ = ecx
	push	ebp
	mov	ebp, esp
	push	ecx
	mov	DWORD PTR _this$[ebp], ecx
	mov	ecx, DWORD PTR _this$[ebp]
	call	??0CRulePointEntity@@QAE@XZ
	mov	eax, DWORD PTR _this$[ebp]
	mov	DWORD PTR [eax], OFFSET ??_7CGameCounterSet@@6B@
	mov	eax, DWORD PTR _this$[ebp]
	mov	esp, ebp
	pop	ebp
	ret	0
??0CGameCounterSet@@QAE@XZ ENDP				; CGameCounterSet::CGameCounterSet
_TEXT	ENDS
; Function compile flags: /Odtp
; File c:\users\user\downloads\xashxt_v0.81_rev.1_with_sources\xashxt_v0.81_rev.1_src\server\maprules.cpp
;	COMDAT ?RemoveOnFire@CGameCounterSet@@QAEHXZ
_TEXT	SEGMENT
_this$ = -8						; size = 4
tv72 = -4						; size = 4
?RemoveOnFire@CGameCounterSet@@QAEHXZ PROC		; CGameCounterSet::RemoveOnFire, COMDAT
; _this$ = ecx

; 717  : 	inline BOOL RemoveOnFire( void ) { return (pev->spawnflags & SF_GAMECOUNTSET_FIREONCE) ? TRUE : FALSE; }

	push	ebp
	mov	ebp, esp
	sub	esp, 8
	mov	DWORD PTR _this$[ebp], ecx
	mov	eax, DWORD PTR _this$[ebp]
	mov	ecx, DWORD PTR [eax+4]
	mov	edx, DWORD PTR [ecx+416]
	and	edx, 1
	je	SHORT $LN3@RemoveOnFi
	mov	DWORD PTR tv72[ebp], 1
	jmp	SHORT $LN4@RemoveOnFi
$LN3@RemoveOnFi:
	mov	DWORD PTR tv72[ebp], 0
$LN4@RemoveOnFi:
	mov	eax, DWORD PTR tv72[ebp]
	mov	esp, ebp
	pop	ebp
	ret	0
?RemoveOnFire@CGameCounterSet@@QAEHXZ ENDP		; CGameCounterSet::RemoveOnFire
_TEXT	ENDS
; Function compile flags: /Odtp
; File c:\users\user\downloads\xashxt_v0.81_rev.1_with_sources\xashxt_v0.81_rev.1_src\server\maprules.cpp
_TEXT	SEGMENT
_this$ = -4						; size = 4
_pActivator$ = 8					; size = 4
_pCaller$ = 12						; size = 4
_useType$ = 16						; size = 4
_value$ = 20						; size = 4
?Use@CGameCounterSet@@UAEXPAVCBaseEntity@@0W4USE_TYPE@@M@Z PROC ; CGameCounterSet::Use
; _this$ = ecx

; 723  : {

	push	ebp
	mov	ebp, esp
	push	ecx
	mov	DWORD PTR _this$[ebp], ecx

; 724  : 	if ( !CanFireForActivator( pActivator ) )

	mov	eax, DWORD PTR _pActivator$[ebp]
	push	eax
	mov	ecx, DWORD PTR _this$[ebp]
	call	?CanFireForActivator@CRuleEntity@@IAEHPAVCBaseEntity@@@Z ; CRuleEntity::CanFireForActivator
	test	eax, eax
	jne	SHORT $LN2@Use

; 725  : 		return;

	jmp	SHORT $LN1@Use
$LN2@Use:

; 726  : 
; 727  : 	SUB_UseTargets( pActivator, USE_SET, pev->frags );

	push	0
	mov	ecx, DWORD PTR _this$[ebp]
	mov	edx, DWORD PTR [ecx+4]
	push	ecx
	movss	xmm0, DWORD PTR [edx+356]
	movss	DWORD PTR [esp], xmm0
	push	2
	mov	eax, DWORD PTR _pActivator$[ebp]
	push	eax
	mov	ecx, DWORD PTR _this$[ebp]
	call	?SUB_UseTargets@CBaseEntity@@QAEXPAV1@W4USE_TYPE@@MH@Z ; CBaseEntity::SUB_UseTargets

; 728  : 
; 729  : 	if ( RemoveOnFire() )

	mov	ecx, DWORD PTR _this$[ebp]
	call	?RemoveOnFire@CGameCounterSet@@QAEHXZ	; CGameCounterSet::RemoveOnFire
	test	eax, eax
	je	SHORT $LN3@Use

; 730  : 	{
; 731  : 		UTIL_Remove( this );

	mov	ecx, DWORD PTR _this$[ebp]
	push	ecx
