; Listing generated by Microsoft (R) Optimizing Compiler Version 19.16.27045.0 

	TITLE	C:\Users\USER\Downloads\XashXT_v0.81_rev.1_with_sources\XashXT_v0.81_rev.1_src\server\spectator.cpp
	.686P
	.XMM
	include listing.inc
	.model	flat

INCLUDELIB LIBCMT
INCLUDELIB OLDNAMES

CONST	SEGMENT
$SG74638 DB	'info_player_deathmatch', 00H
	ORG $+1
$SG74640 DB	'Could not find a spawn spot.', 0aH, 00H
	ORG $+2
$SG74644 DB	'Unknown spectator impulse', 0aH, 00H
	ORG $+1
$SG74869 DB	'n', 00H, 'u', 00H, 'm', 00H, ' ', 00H, '>', 00H, ' ', 00H
	DB	'0', 00H, 00H, 00H
$SG74872 DB	'0', 00H, 00H, 00H
$SG74702 DB	'c', 00H, ':', 00H, '\', 00H, 'u', 00H, 's', 00H, 'e', 00H
	DB	'r', 00H, 's', 00H, '\', 00H, 'u', 00H, 's', 00H, 'e', 00H, 'r'
	DB	00H, '\', 00H, 'd', 00H, 'o', 00H, 'w', 00H, 'n', 00H, 'l', 00H
	DB	'o', 00H, 'a', 00H, 'd', 00H, 's', 00H, '\', 00H, 'x', 00H, 'a'
	DB	00H, 's', 00H, 'h', 00H, 'x', 00H, 't', 00H, '_', 00H, 'v', 00H
	DB	'0', 00H, '.', 00H, '8', 00H, '1', 00H, '_', 00H, 'r', 00H, 'e'
	DB	00H, 'v', 00H, '.', 00H, '1', 00H, '_', 00H, 'w', 00H, 'i', 00H
	DB	't', 00H, 'h', 00H, '_', 00H, 's', 00H, 'o', 00H, 'u', 00H, 'r'
	DB	00H, 'c', 00H, 'e', 00H, 's', 00H, '\', 00H, 'x', 00H, 'a', 00H
	DB	's', 00H, 'h', 00H, 'x', 00H, 't', 00H, '_', 00H, 'v', 00H, '0'
	DB	00H, '.', 00H, '8', 00H, '1', 00H, '_', 00H, 'r', 00H, 'e', 00H
	DB	'v', 00H, '.', 00H, '1', 00H, '_', 00H, 's', 00H, 'r', 00H, 'c'
	DB	00H, '\', 00H, 'g', 00H, 'a', 00H, 'm', 00H, 'e', 00H, '_', 00H
	DB	's', 00H, 'h', 00H, 'a', 00H, 'r', 00H, 'e', 00H, 'd', 00H, '\'
	DB	00H, 'u', 00H, 't', 00H, 'l', 00H, 'm', 00H, 'e', 00H, 'm', 00H
	DB	'o', 00H, 'r', 00H, 'y', 00H, '.', 00H, 'h', 00H, 00H, 00H
	ORG $+2
$SG74703 DB	'n', 00H, 'G', 00H, 'r', 00H, 'o', 00H, 'w', 00H, 'S', 00H
	DB	'i', 00H, 'z', 00H, 'e', 00H, ' ', 00H, '>', 00H, '=', 00H, ' '
	DB	00H, '0', 00H, 00H, 00H
	ORG $+2
$SG74746 DB	'c', 00H, ':', 00H, '\', 00H, 'u', 00H, 's', 00H, 'e', 00H
	DB	'r', 00H, 's', 00H, '\', 00H, 'u', 00H, 's', 00H, 'e', 00H, 'r'
	DB	00H, '\', 00H, 'd', 00H, 'o', 00H, 'w', 00H, 'n', 00H, 'l', 00H
	DB	'o', 00H, 'a', 00H, 'd', 00H, 's', 00H, '\', 00H, 'x', 00H, 'a'
	DB	00H, 's', 00H, 'h', 00H, 'x', 00H, 't', 00H, '_', 00H, 'v', 00H
	DB	'0', 00H, '.', 00H, '8', 00H, '1', 00H, '_', 00H, 'r', 00H, 'e'
	DB	00H, 'v', 00H, '.', 00H, '1', 00H, '_', 00H, 'w', 00H, 'i', 00H
	DB	't', 00H, 'h', 00H, '_', 00H, 's', 00H, 'o', 00H, 'u', 00H, 'r'
	DB	00H, 'c', 00H, 'e', 00H, 's', 00H, '\', 00H, 'x', 00H, 'a', 00H
	DB	's', 00H, 'h', 00H, 'x', 00H, 't', 00H, '_', 00H, 'v', 00H, '0'
	DB	00H, '.', 00H, '8', 00H, '1', 00H, '_', 00H, 'r', 00H, 'e', 00H
	DB	'v', 00H, '.', 00H, '1', 00H, '_', 00H, 's', 00H, 'r', 00H, 'c'
	DB	00H, '\', 00H, 'g', 00H, 'a', 00H, 'm', 00H, 'e', 00H, '_', 00H
	DB	's', 00H, 'h', 00H, 'a', 00H, 'r', 00H, 'e', 00H, 'd', 00H, '\'
	DB	00H, 'u', 00H, 't', 00H, 'l', 00H, 'a', 00H, 'r', 00H, 'r', 00H
	DB	'a', 00H, 'y', 00H, '.', 00H, 'h', 00H, 00H, 00H
$SG74878 DB	'0', 00H, 00H, 00H
$SG74747 DB	'(', 00H, 'B', 00H, 'a', 00H, 's', 00H, 'e', 00H, '(', 00H
	DB	')', 00H, ' ', 00H, '=', 00H, '=', 00H, ' ', 00H, 'N', 00H, 'U'
	DB	00H, 'L', 00H, 'L', 00H, ')', 00H, ' ', 00H, '|', 00H, '|', 00H
	DB	' ', 00H, '(', 00H, '&', 00H, 's', 00H, 'r', 00H, 'c', 00H, ' '
	DB	00H, '<', 00H, ' ', 00H, 'B', 00H, 'a', 00H, 's', 00H, 'e', 00H
	DB	'(', 00H, ')', 00H, ')', 00H, ' ', 00H, '|', 00H, '|', 00H, ' '
	DB	00H, '(', 00H, '&', 00H, 's', 00H, 'r', 00H, 'c', 00H, ' ', 00H
	DB	'>', 00H, '=', 00H, ' ', 00H, '(', 00H, 'B', 00H, 'a', 00H, 's'
	DB	00H, 'e', 00H, '(', 00H, ')', 00H, ' ', 00H, '+', 00H, ' ', 00H
	DB	'C', 00H, 'o', 00H, 'u', 00H, 'n', 00H, 't', 00H, '(', 00H, ')'
	DB	00H, ')', 00H, ' ', 00H, ')', 00H, 00H, 00H
	ORG $+2
$SG74882 DB	'm', 00H, '_', 00H, 'p', 00H, 'M', 00H, 'e', 00H, 'm', 00H
	DB	'o', 00H, 'r', 00H, 'y', 00H, 00H, 00H
$SG74748 DB	'c', 00H, ':', 00H, '\', 00H, 'u', 00H, 's', 00H, 'e', 00H
	DB	'r', 00H, 's', 00H, '\', 00H, 'u', 00H, 's', 00H, 'e', 00H, 'r'
	DB	00H, '\', 00H, 'd', 00H, 'o', 00H, 'w', 00H, 'n', 00H, 'l', 00H
	DB	'o', 00H, 'a', 00H, 'd', 00H, 's', 00H, '\', 00H, 'x', 00H, 'a'
	DB	00H, 's', 00H, 'h', 00H, 'x', 00H, 't', 00H, '_', 00H, 'v', 00H
	DB	'0', 00H, '.', 00H, '8', 00H, '1', 00H, '_', 00H, 'r', 00H, 'e'
	DB	00H, 'v', 00H, '.', 00H, '1', 00H, '_', 00H, 'w', 00H, 'i', 00H
	DB	't', 00H, 'h', 00H, '_', 00H, 's', 00H, 'o', 00H, 'u', 00H, 'r'
	DB	00H, 'c', 00H, 'e', 00H, 's', 00H, '\', 00H, 'x', 00H, 'a', 00H
	DB	's', 00H, 'h', 00H, 'x', 00H, 't', 00H, '_', 00H, 'v', 00H, '0'
	DB	00H, '.', 00H, '8', 00H, '1', 00H, '_', 00H, 'r', 00H, 'e', 00H
	DB	'v', 00H, '.', 00H, '1', 00H, '_', 00H, 's', 00H, 'r', 00H, 'c'
	DB	00H, '\', 00H, 'g', 00H, 'a', 00H, 'm', 00H, 'e', 00H, '_', 00H
	DB	's', 00H, 'h', 00H, 'a', 00H, 'r', 00H, 'e', 00H, 'd', 00H, '\'
	DB	00H, 'u', 00H, 't', 00H, 'l', 00H, 'a', 00H, 'r', 00H, 'r', 00H
	DB	'a', 00H, 'y', 00H, '.', 00H, 'h', 00H, 00H, 00H
$SG74884 DB	'm', 00H, '_', 00H, 'p', 00H, 'M', 00H, 'e', 00H, 'm', 00H
	DB	'o', 00H, 'r', 00H, 'y', 00H, 00H, 00H
$SG74749 DB	'(', 00H, 'e', 00H, 'l', 00H, 'e', 00H, 'm', 00H, ' ', 00H
	DB	'=', 00H, '=', 00H, ' ', 00H, 'C', 00H, 'o', 00H, 'u', 00H, 'n'
	DB	00H, 't', 00H, '(', 00H, ')', 00H, ')', 00H, ' ', 00H, '|', 00H
	DB	'|', 00H, ' ', 00H, 'I', 00H, 's', 00H, 'V', 00H, 'a', 00H, 'l'
	DB	00H, 'i', 00H, 'd', 00H, 'I', 00H, 'n', 00H, 'd', 00H, 'e', 00H
	DB	'x', 00H, '(', 00H, 'e', 00H, 'l', 00H, 'e', 00H, 'm', 00H, ')'
	DB	00H, 00H, 00H
$SG74821 DB	'c', 00H, ':', 00H, '\', 00H, 'u', 00H, 's', 00H, 'e', 00H
	DB	'r', 00H, 's', 00H, '\', 00H, 'u', 00H, 's', 00H, 'e', 00H, 'r'
	DB	00H, '\', 00H, 'd', 00H, 'o', 00H, 'w', 00H, 'n', 00H, 'l', 00H
	DB	'o', 00H, 'a', 00H, 'd', 00H, 's', 00H, '\', 00H, 'x', 00H, 'a'
	DB	00H, 's', 00H, 'h', 00H, 'x', 00H, 't', 00H, '_', 00H, 'v', 00H
	DB	'0', 00H, '.', 00H, '8', 00H, '1', 00H, '_', 00H, 'r', 00H, 'e'
	DB	00H, 'v', 00H, '.', 00H, '1', 00H, '_', 00H, 'w', 00H, 'i', 00H
	DB	't', 00H, 'h', 00H, '_', 00H, 's', 00H, 'o', 00H, 'u', 00H, 'r'
	DB	00H, 'c', 00H, 'e', 00H, 's', 00H, '\', 00H, 'x', 00H, 'a', 00H
	DB	's', 00H, 'h', 00H, 'x', 00H, 't', 00H, '_', 00H, 'v', 00H, '0'
	DB	00H, '.', 00H, '8', 00H, '1', 00H, '_', 00H, 'r', 00H, 'e', 00H
	DB	'v', 00H, '.', 00H, '1', 00H, '_', 00H, 's', 00H, 'r', 00H, 'c'
	DB	00H, '\', 00H, 'g', 00H, 'a', 00H, 'm', 00H, 'e', 00H, '_', 00H
	DB	's', 00H, 'h', 00H, 'a', 00H, 'r', 00H, 'e', 00H, 'd', 00H, '\'
	DB	00H, 'u', 00H, 't', 00H, 'l', 00H, 'a', 00H, 'r', 00H, 'r', 00H
	DB	'a', 00H, 'y', 00H, '.', 00H, 'h', 00H, 00H, 00H
	ORG $+4
$SG74822 DB	'I', 00H, 's', 00H, 'V', 00H, 'a', 00H, 'l', 00H, 'i', 00H
	DB	'd', 00H, 'I', 00H, 'n', 00H, 'd', 00H, 'e', 00H, 'x', 00H, '('
	DB	00H, 'e', 00H, 'l', 00H, 'e', 00H, 'm', 00H, ')', 00H, ' ', 00H
	DB	'|', 00H, '|', 00H, ' ', 00H, '(', 00H, ' ', 00H, 'm', 00H, '_'
	DB	00H, 'S', 00H, 'i', 00H, 'z', 00H, 'e', 00H, ' ', 00H, '=', 00H
	DB	'=', 00H, ' ', 00H, '0', 00H, ' ', 00H, ')', 00H, ' ', 00H, '|'
	DB	00H, '|', 00H, ' ', 00H, '(', 00H, ' ', 00H, 'n', 00H, 'u', 00H
	DB	'm', 00H, ' ', 00H, '=', 00H, '=', 00H, ' ', 00H, '0', 00H, ' '
	DB	00H, ')', 00H, 00H, 00H
	ORG $+4
$SG74868 DB	'c', 00H, ':', 00H, '\', 00H, 'u', 00H, 's', 00H, 'e', 00H
	DB	'r', 00H, 's', 00H, '\', 00H, 'u', 00H, 's', 00H, 'e', 00H, 'r'
	DB	00H, '\', 00H, 'd', 00H, 'o', 00H, 'w', 00H, 'n', 00H, 'l', 00H
	DB	'o', 00H, 'a', 00H, 'd', 00H, 's', 00H, '\', 00H, 'x', 00H, 'a'
	DB	00H, 's', 00H, 'h', 00H, 'x', 00H, 't', 00H, '_', 00H, 'v', 00H
	DB	'0', 00H, '.', 00H, '8', 00H, '1', 00H, '_', 00H, 'r', 00H, 'e'
	DB	00H, 'v', 00H, '.', 00H, '1', 00H, '_', 00H, 'w', 00H, 'i', 00H
	DB	't', 00H, 'h', 00H, '_', 00H, 's', 00H, 'o', 00H, 'u', 00H, 'r'
	DB	00H, 'c', 00H, 'e', 00H, 's', 00H, '\', 00H, 'x', 00H, 'a', 00H
	DB	's', 00H, 'h', 00H, 'x', 00H, 't', 00H, '_', 00H, 'v', 00H, '0'
	DB	00H, '.', 00H, '8', 00H, '1', 00H, '_', 00H, 'r', 00H, 'e', 00H
	DB	'v', 00H, '.', 00H, '1', 00H, '_', 00H, 's', 00H, 'r', 00H, 'c'
	DB	00H, '\', 00H, 'g', 00H, 'a', 00H, 'm', 00H, 'e', 00H, '_', 00H
	DB	's', 00H, 'h', 00H, 'a', 00H, 'r', 00H, 'e', 00H, 'd', 00H, '\'
	DB	00H, 'u', 00H, 't', 00H, 'l', 00H, 'm', 00H, 'e', 00H, 'm', 00H
	DB	'o', 00H, 'r', 00H, 'y', 00H, '.', 00H, 'h', 00H, 00H, 00H
	ORG $+2
$SG74871 DB	'c', 00H, ':', 00H, '\', 00H, 'u', 00H, 's', 00H, 'e', 00H
	DB	'r', 00H, 's', 00H, '\', 00H, 'u', 00H, 's', 00H, 'e', 00H, 'r'
	DB	00H, '\', 00H, 'd', 00H, 'o', 00H, 'w', 00H, 'n', 00H, 'l', 00H
	DB	'o', 00H, 'a', 00H, 'd', 00H, 's', 00H, '\', 00H, 'x', 00H, 'a'
	DB	00H, 's', 00H, 'h', 00H, 'x', 00H, 't', 00H, '_', 00H, 'v', 00H
	DB	'0', 00H, '.', 00H, '8', 00H, '1', 00H, '_', 00H, 'r', 00H, 'e'
	DB	00H, 'v', 00H, '.', 00H, '1', 00H, '_', 00H, 'w', 00H, 'i', 00H
	DB	't', 00H, 'h', 00H, '_', 00H, 's', 00H, 'o', 00H, 'u', 00H, 'r'
	DB	00H, 'c', 00H, 'e', 00H, 's', 00H, '\', 00H, 'x', 00H, 'a', 00H
	DB	's', 00H, 'h', 00H, 'x', 00H, 't', 00H, '_', 00H, 'v', 00H, '0'
	DB	00H, '.', 00H, '8', 00H, '1', 00H, '_', 00H, 'r', 00H, 'e', 00H
	DB	'v', 00H, '.', 00H, '1', 00H, '_', 00H, 's', 00H, 'r', 00H, 'c'
	DB	00H, '\', 00H, 'g', 00H, 'a', 00H, 'm', 00H, 'e', 00H, '_', 00H
	DB	's', 00H, 'h', 00H, 'a', 00H, 'r', 00H, 'e', 00H, 'd', 00H, '\'
	DB	00H, 'u', 00H, 't', 00H, 'l', 00H, 'm', 00H, 'e', 00H, 'm', 00H
	DB	'o', 00H, 'r', 00H, 'y', 00H, '.', 00H, 'h', 00H, 00H, 00H
	ORG $+2
$SG74877 DB	'c', 00H, ':', 00H, '\', 00H, 'u', 00H, 's', 00H, 'e', 00H
	DB	'r', 00H, 's', 00H, '\', 00H, 'u', 00H, 's', 00H, 'e', 00H, 'r'
	DB	00H, '\', 00H, 'd', 00H, 'o', 00H, 'w', 00H, 'n', 00H, 'l', 00H
	DB	'o', 00H, 'a', 00H, 'd', 00H, 's', 00H, '\', 00H, 'x', 00H, 'a'
	DB	00H, 's', 00H, 'h', 00H, 'x', 00H, 't', 00H, '_', 00H, 'v', 00H
	DB	'0', 00H, '.', 00H, '8', 00H, '1', 00H, '_', 00H, 'r', 00H, 'e'
	DB	00H, 'v', 00H, '.', 00H, '1', 00H, '_', 00H, 'w', 00H, 'i', 00H
	DB	't', 00H, 'h', 00H, '_', 00H, 's', 00H, 'o', 00H, 'u', 00H, 'r'
	DB	00H, 'c', 00H, 'e', 00H, 's', 00H, '\', 00H, 'x', 00H, 'a', 00H
	DB	's', 00H, 'h', 00H, 'x', 00H, 't', 00H, '_', 00H, 'v', 00H, '0'
	DB	00H, '.', 00H, '8', 00H, '1', 00H, '_', 00H, 'r', 00H, 'e', 00H
	DB	'v', 00H, '.', 00H, '1', 00H, '_', 00H, 's', 00H, 'r', 00H, 'c'
	DB	00H, '\', 00H, 'g', 00H, 'a', 00H, 'm', 00H, 'e', 00H, '_', 00H
	DB	's', 00H, 'h', 00H, 'a', 00H, 'r', 00H, 'e', 00H, 'd', 00H, '\'
	DB	00H, 'u', 00H, 't', 00H, 'l', 00H, 'm', 00H, 'e', 00H, 'm', 00H
	DB	'o', 00H, 'r', 00H, 'y', 00H, '.', 00H, 'h', 00H, 00H, 00H
	ORG $+2
$SG74881 DB	'c', 00H, ':', 00H, '\', 00H, 'u', 00H, 's', 00H, 'e', 00H
	DB	'r', 00H, 's', 00H, '\', 00H, 'u', 00H, 's', 00H, 'e', 00H, 'r'
	DB	00H, '\', 00H, 'd', 00H, 'o', 00H, 'w', 00H, 'n', 00H, 'l', 00H
	DB	'o', 00H, 'a', 00H, 'd', 00H, 's', 00H, '\', 00H, 'x', 00H, 'a'
	DB	00H, 's', 00H, 'h', 00H, 'x', 00H, 't', 00H, '_', 00H, 'v', 00H
	DB	'0', 00H, '.', 00H, '8', 00H, '1', 00H, '_', 00H, 'r', 00H, 'e'
	DB	00H, 'v', 00H, '.', 00H, '1', 00H, '_', 00H, 'w', 00H, 'i', 00H
	DB	't', 00H, 'h', 00H, '_', 00H, 's', 00H, 'o', 00H, 'u', 00H, 'r'
	DB	00H, 'c', 00H, 'e', 00H, 's', 00H, '\', 00H, 'x', 00H, 'a', 00H
	DB	's', 00H, 'h', 00H, 'x', 00H, 't', 00H, '_', 00H, 'v', 00H, '0'
	DB	00H, '.', 00H, '8', 00H, '1', 00H, '_', 00H, 'r', 00H, 'e', 00H
	DB	'v', 00H, '.', 00H, '1', 00H, '_', 00H, 's', 00H, 'r', 00H, 'c'
	DB	00H, '\', 00H, 'g', 00H, 'a', 00H, 'm', 00H, 'e', 00H, '_', 00H
	DB	's', 00H, 'h', 00H, 'a', 00H, 'r', 00H, 'e', 00H, 'd', 00H, '\'
	DB	00H, 'u', 00H, 't', 00H, 'l', 00H, 'm', 00H, 'e', 00H, 'm', 00H
	DB	'o', 00H, 'r', 00H, 'y', 00H, '.', 00H, 'h', 00H, 00H, 00H
	ORG $+2
$SG74883 DB	'c', 00H, ':', 00H, '\', 00H, 'u', 00H, 's', 00H, 'e', 00H
	DB	'r', 00H, 's', 00H, '\', 00H, 'u', 00H, 's', 00H, 'e', 00H, 'r'
	DB	00H, '\', 00H, 'd', 00H, 'o', 00H, 'w', 00H, 'n', 00H, 'l', 00H
	DB	'o', 00H, 'a', 00H, 'd', 00H, 's', 00H, '\', 00H, 'x', 00H, 'a'
	DB	00H, 's', 00H, 'h', 00H, 'x', 00H, 't', 00H, '_', 00H, 'v', 00H
	DB	'0', 00H, '.', 00H, '8', 00H, '1', 00H, '_', 00H, 'r', 00H, 'e'
	DB	00H, 'v', 00H, '.', 00H, '1', 00H, '_', 00H, 'w', 00H, 'i', 00H
	DB	't', 00H, 'h', 00H, '_', 00H, 's', 00H, 'o', 00H, 'u', 00H, 'r'
	DB	00H, 'c', 00H, 'e', 00H, 's', 00H, '\', 00H, 'x', 00H, 'a', 00H
	DB	's', 00H, 'h', 00H, 'x', 00H, 't', 00H, '_', 00H, 'v', 00H, '0'
	DB	00H, '.', 00H, '8', 00H, '1', 00H, '_', 00H, 'r', 00H, 'e', 00H
	DB	'v', 00H, '.', 00H, '1', 00H, '_', 00H, 's', 00H, 'r', 00H, 'c'
	DB	00H, '\', 00H, 'g', 00H, 'a', 00H, 'm', 00H, 'e', 00H, '_', 00H
	DB	's', 00H, 'h', 00H, 'a', 00H, 'r', 00H, 'e', 00H, 'd', 00H, '\'
	DB	00H, 'u', 00H, 't', 00H, 'l', 00H, 'm', 00H, 'e', 00H, 'm', 00H
	DB	'o', 00H, 'r', 00H, 'y', 00H, '.', 00H, 'h', 00H, 00H, 00H
CONST	ENDS
PUBLIC	??_H@YGXPAXIIP6EPAX0@Z@Z			; `vector constructor iterator'
PUBLIC	??__G@YGXPAX0IIP6EPAX00@Z@Z			; `vector copy constructor iterator'
PUBLIC	?FIND_ENTITY_BY_CLASSNAME@@YAPAUedict_s@@PAU1@PBD@Z ; FIND_ENTITY_BY_CLASSNAME
PUBLIC	?OFFSET@@YAHPBUedict_s@@@Z			; OFFSET
PUBLIC	?FNullEnt@@YAHH@Z				; FNullEnt
PUBLIC	?FNullEnt@@YAHPBUedict_s@@@Z			; FNullEnt
PUBLIC	?Spawn@CBaseSpectator@@UAEXXZ			; CBaseSpectator::Spawn
PUBLIC	?SpectatorConnect@CBaseSpectator@@QAEXXZ	; CBaseSpectator::SpectatorConnect
PUBLIC	?SpectatorDisconnect@CBaseSpectator@@QAEXXZ	; CBaseSpectator::SpectatorDisconnect
PUBLIC	?SpectatorThink@CBaseSpectator@@QAEXXZ		; CBaseSpectator::SpectatorThink
PUBLIC	?SpectatorImpulseCommand@CBaseSpectator@@AAEXXZ	; CBaseSpectator::SpectatorImpulseCommand
PUBLIC	??_C@_09CNJINBGN@classname@			; `string'
PUBLIC	??_C@_0BF@CPEPILID@Bad?5ent?5in?5OFFSET?$CI?$CJ?6@ ; `string'
EXTRN	?UTIL_SetOrigin@@YAXPAVCBaseEntity@@ABVVector@@@Z:PROC ; UTIL_SetOrigin
EXTRN	?SetAbsAngles@CBaseEntity@@QAEXABVVector@@@Z:PROC ; CBaseEntity::SetAbsAngles
EXTRN	?g_engfuncs@@3Uenginefuncs_s@@A:BYTE		; g_engfuncs
;	COMDAT ?pGoal@?1??SpectatorImpulseCommand@CBaseSpectator@@AAEXXZ@4PAUedict_s@@A
_BSS	SEGMENT
?pGoal@?1??SpectatorImpulseCommand@CBaseSpectator@@AAEXXZ@4PAUedict_s@@A DD 01H DUP (?) ; `CBaseSpectator::SpectatorImpulseCommand'::`2'::pGoal
_BSS	ENDS
;	COMDAT ??_C@_0BF@CPEPILID@Bad?5ent?5in?5OFFSET?$CI?$CJ?6@
CONST	SEGMENT
??_C@_0BF@CPEPILID@Bad?5ent?5in?5OFFSET?$CI?$CJ?6@ DB 'Bad ent in OFFSET('
	DB	')', 0aH, 00H				; `string'
CONST	ENDS
;	COMDAT ??_C@_09CNJINBGN@classname@
CONST	SEGMENT
??_C@_09CNJINBGN@classname@ DB 'classname', 00H		; `string'
CONST	ENDS
; Function compile flags: /Odtp
; File c:\users\user\downloads\xashxt_v0.81_rev.1_with_sources\xashxt_v0.81_rev.1_src\server\spectator.cpp
_TEXT	SEGMENT
_pPreviousGoal$ = -20					; size = 4
tv70 = -16						; size = 4
_bFound$ = -12						; size = 4
_this$ = -8						; size = 4
_pCurrentGoal$ = -4					; size = 4
?SpectatorImpulseCommand@CBaseSpectator@@AAEXXZ PROC	; CBaseSpectator::SpectatorImpulseCommand
; _this$ = ecx

; 62   : {

	push	ebp
	mov	ebp, esp
	sub	esp, 20					; 00000014H
	mov	DWORD PTR _this$[ebp], ecx

; 63   : 	static edict_t	*pGoal		= NULL;
; 64   : 	edict_t         *pPreviousGoal;
; 65   : 	edict_t         *pCurrentGoal;
; 66   : 	BOOL			bFound;
; 67   : 	
; 68   : 	switch (pev->impulse)

	mov	eax, DWORD PTR _this$[ebp]
	mov	ecx, DWORD PTR [eax+4]
	mov	edx, DWORD PTR [ecx+388]
	mov	DWORD PTR tv70[ebp], edx
	cmp	DWORD PTR tv70[ebp], 1
	je	SHORT $LN6@SpectatorI
	jmp	$LN10@SpectatorI
$LN6@SpectatorI:

; 69   : 	{
; 70   : 	case 1:
; 71   : 		// teleport the spectator to the next spawn point
; 72   : 		// note that if the spectator is tracking, this doesn't do
; 73   : 		// much
; 74   : 		pPreviousGoal = pGoal;

	mov	eax, DWORD PTR ?pGoal@?1??SpectatorImpulseCommand@CBaseSpectator@@AAEXXZ@4PAUedict_s@@A
	mov	DWORD PTR _pPreviousGoal$[ebp], eax

; 75   : 		pCurrentGoal  = pGoal;

	mov	ecx, DWORD PTR ?pGoal@?1??SpectatorImpulseCommand@CBaseSpectator@@AAEXXZ@4PAUedict_s@@A
	mov	DWORD PTR _pCurrentGoal$[ebp], ecx

; 76   : 		// Start at the current goal, skip the world, and stop if we looped
; 77   : 		//  back around
; 78   : 
; 79   : 		bFound = FALSE;

	mov	DWORD PTR _bFound$[ebp], 0
$LN4@SpectatorI:

; 80   : 		while (1)

	mov	edx, 1
	test	edx, edx
	je	SHORT $LN5@SpectatorI

; 81   : 		{
; 82   : 			pCurrentGoal = FIND_ENTITY_BY_CLASSNAME(pCurrentGoal, "info_player_deathmatch");

	push	OFFSET $SG74638
	mov	eax, DWORD PTR _pCurrentGoal$[ebp]
	push	eax
	call	?FIND_ENTITY_BY_CLASSNAME@@YAPAUedict_s@@PAU1@PBD@Z ; FIND_ENTITY_BY_CLASSNAME
	add	esp, 8
	mov	DWORD PTR _pCurrentGoal$[ebp], eax

; 83   : 			// Looped around, failure
; 84   : 			if (pCurrentGoal == pPreviousGoal)

	mov	ecx, DWORD PTR _pCurrentGoal$[ebp]
	cmp	ecx, DWORD PTR _pPreviousGoal$[ebp]
	jne	SHORT $LN7@SpectatorI

; 85   : 			{
; 86   : 				ALERT(at_console, "Could not find a spawn spot.\n");

	push	OFFSET $SG74640
	push	1
	call	DWORD PTR ?g_engfuncs@@3Uenginefuncs_s@@A+244
	add	esp, 8

; 87   : 				break;

	jmp	SHORT $LN5@SpectatorI
$LN7@SpectatorI:

; 88   : 			}
; 89   : 			// Found a non-world entity, set success, otherwise, look for the next one.
; 90   : 			if (!FNullEnt(pCurrentGoal))

	mov	edx, DWORD PTR _pCurrentGoal$[ebp]
	push	edx
	call	?FNullEnt@@YAHPBUedict_s@@@Z		; FNullEnt
	add	esp, 4
	test	eax, eax
	jne	SHORT $LN8@SpectatorI

; 91   : 			{
; 92   : 				bFound = TRUE;

	mov	DWORD PTR _bFound$[ebp], 1

; 93   : 				break;

	jmp	SHORT $LN5@SpectatorI
$LN8@SpectatorI:

; 94   : 			}
; 95   : 		}

	jmp	SHORT $LN4@SpectatorI
$LN5@SpectatorI:

; 96   : 
; 97   : 		if (!bFound)  // Didn't find a good spot.

	cmp	DWORD PTR _bFound$[ebp], 0
	jne	SHORT $LN9@SpectatorI

; 98   : 			break;

	jmp	SHORT $LN2@SpectatorI
$LN9@SpectatorI:

; 99   : 		
; 100  : 		pGoal = pCurrentGoal;

	mov	eax, DWORD PTR _pCurrentGoal$[ebp]
	mov	DWORD PTR ?pGoal@?1??SpectatorImpulseCommand@CBaseSpectator@@AAEXXZ@4PAUedict_s@@A, eax

; 101  : 		UTIL_SetOrigin( this, pGoal->v.origin );

	mov	ecx, DWORD PTR ?pGoal@?1??SpectatorImpulseCommand@CBaseSpectator@@AAEXXZ@4PAUedict_s@@A
	add	ecx, 136				; 00000088H
	push	ecx
	mov	edx, DWORD PTR _this$[ebp]
	push	edx
	call	?UTIL_SetOrigin@@YAXPAVCBaseEntity@@ABVVector@@@Z ; UTIL_SetOrigin
	add	esp, 8

; 102  : 		SetAbsAngles( pGoal->v.angles );

	mov	eax, DWORD PTR ?pGoal@?1??SpectatorImpulseCommand@CBaseSpectator@@AAEXXZ@4PAUedict_s@@A
	add	eax, 208				; 000000d0H
	push	eax
	mov	ecx, DWORD PTR _this$[ebp]
	call	?SetAbsAngles@CBaseEntity@@QAEXABVVector@@@Z ; CBaseEntity::SetAbsAngles

; 103  : 		pev->fixangle = FALSE;

	mov	ecx, DWORD PTR _this$[ebp]
	mov	edx, DWORD PTR [ecx+4]
	mov	DWORD PTR [edx+160], 0

; 104  : 		break;

	jmp	SHORT $LN2@SpectatorI
$LN10@SpectatorI:

; 105  : 	default:
; 106  : 		ALERT(at_console, "Unknown spectator impulse\n");

	push	OFFSET $SG74644
	push	1
	call	DWORD PTR ?g_engfuncs@@3Uenginefuncs_s@@A+244
	add	esp, 8
$LN2@SpectatorI:

; 107  : 		break;
; 108  : 	}
; 109  : 
; 110  : 	pev->impulse = 0;

	mov	eax, DWORD PTR _this$[ebp]
	mov	ecx, DWORD PTR [eax+4]
	mov	DWORD PTR [ecx+388], 0

; 111  : }

	mov	esp, ebp
	pop	ebp
	ret	0
?SpectatorImpulseCommand@CBaseSpectator@@AAEXXZ ENDP	; CBaseSpectator::SpectatorImpulseCommand
_TEXT	ENDS
; Function compile flags: /Odtp
; File c:\users\user\downloads\xashxt_v0.81_rev.1_with_sources\xashxt_v0.81_rev.1_src\server\spectator.cpp
_TEXT	SEGMENT
_this$ = -4						; size = 4
?SpectatorThink@CBaseSpectator@@QAEXXZ PROC		; CBaseSpectator::SpectatorThink
; _this$ = ecx

; 121  : {

	push	ebp
	mov	ebp, esp
	push	ecx
	mov	DWORD PTR _this$[ebp], ecx

; 122  : 	if (!(pev->flags & FL_SPECTATOR))

	mov	eax, DWORD PTR _this$[ebp]
	mov	ecx, DWORD PTR [eax+4]
	mov	edx, DWORD PTR [ecx+420]
	and	edx, 67108864				; 04000000H
	jne	SHORT $LN2@SpectatorT

; 123  : 	{
; 124  : 		pev->flags = FL_SPECTATOR;

	mov	eax, DWORD PTR _this$[ebp]
	mov	ecx, DWORD PTR [eax+4]
	mov	DWORD PTR [ecx+420], 67108864		; 04000000H
$LN2@SpectatorT:

; 125  : 	}
; 126  : 
; 127  : 	pev->solid	   = SOLID_NOT;

	mov	edx, DWORD PTR _this$[ebp]
	mov	eax, DWORD PTR [edx+4]
	mov	DWORD PTR [eax+268], 0

; 128  : 	pev->movetype  = MOVETYPE_NOCLIP;

	mov	ecx, DWORD PTR _this$[ebp]
	mov	edx, DWORD PTR [ecx+4]
	mov	DWORD PTR [edx+264], 8

; 129  : 
; 130  : 	if (pev->impulse)

	mov	eax, DWORD PTR _this$[ebp]
	mov	ecx, DWORD PTR [eax+4]
	cmp	DWORD PTR [ecx+388], 0
	je	SHORT $LN1@SpectatorT

; 131  : 		SpectatorImpulseCommand();

	mov	ecx, DWORD PTR _this$[ebp]
	call	?SpectatorImpulseCommand@CBaseSpectator@@AAEXXZ ; CBaseSpectator::SpectatorImpulseCommand
$LN1@SpectatorT:

; 132  : }

	mov	esp, ebp
	pop	ebp
	ret	0
?SpectatorThink@CBaseSpectator@@QAEXXZ ENDP		; CBaseSpectator::SpectatorThink
_TEXT	ENDS
; Function compile flags: /Odtp
; File c:\users\user\downloads\xashxt_v0.81_rev.1_with_sources\xashxt_v0.81_rev.1_src\server\spectator.cpp
_TEXT	SEGMENT
_this$ = -4						; size = 4
?SpectatorDisconnect@CBaseSpectator@@QAEXXZ PROC	; CBaseSpectator::SpectatorDisconnect
; _this$ = ecx

; 51   : {

	push	ebp
	mov	ebp, esp
	push	ecx
	mov	DWORD PTR _this$[ebp], ecx

; 52   : }

	mov	esp, ebp
	pop	ebp
	ret	0
?SpectatorDisconnect@CBaseSpectator@@QAEXXZ ENDP	; CBaseSpectator::SpectatorDisconnect
_TEXT	ENDS
; Function compile flags: /Odtp
; File c:\users\user\downloads\xashxt_v0.81_rev.1_with_sources\xashxt_v0.81_rev.1_src\server\spectator.cpp
_TEXT	SEGMENT
_this$ = -4						; size = 4
?SpectatorConnect@CBaseSpectator@@QAEXXZ PROC		; CBaseSpectator::SpectatorConnect
; _this$ = ecx

; 35   : {

	push	ebp
	mov	ebp, esp
	push	ecx
	mov	DWORD PTR _this$[ebp], ecx

; 36   : 	pev->flags = FL_SPECTATOR;

	mov	eax, DWORD PTR _this$[ebp]
	mov	ecx, DWORD PTR [eax+4]
	mov	DWORD PTR [ecx+420], 67108864		; 04000000H

; 37   : 	pev->solid = SOLID_NOT;

	mov	edx, DWORD PTR _this$[ebp]
	mov	eax, DWORD PTR [edx+4]
	mov	DWORD PTR [eax+268], 0

; 38   : 	pev->movetype = MOVETYPE_NOCLIP;

	mov	ecx, DWORD PTR _this$[ebp]
	mov	edx, DWORD PTR [ecx+4]
	mov	DWORD PTR [edx+264], 8

; 39   : 	
; 40   : 	m_pGoalEnt = NULL;

	mov	eax, DWORD PTR _this$[ebp]
	mov	DWORD PTR [eax+8], 0

; 41   : }

	mov	esp, ebp
	pop	ebp
	ret	0
?SpectatorConnect@CBaseSpectator@@QAEXXZ ENDP		; CBaseSpectator::SpectatorConnect
_TEXT	ENDS
; Function compile flags: /Odtp
; File c:\users\user\downloads\xashxt_v0.81_rev.1_with_sources\xashxt_v0.81_rev.1_src\server\spectator.cpp
_TEXT	SEGMENT
_this$ = -4						; size = 4
?Spawn@CBaseSpectator@@UAEXXZ PROC			; CBaseSpectator::Spawn
; _this$ = ecx

; 143  : {

	push	ebp
	mov	ebp, esp
	push	ecx
	mov	DWORD PTR _this$[ebp], ecx

; 144  : 	pev->flags = FL_SPECTATOR;

	mov	eax, DWORD PTR _this$[ebp]
	mov	ecx, DWORD PTR [eax+4]
	mov	DWORD PTR [ecx+420], 67108864		; 04000000H

; 145  : 	pev->solid = SOLID_NOT;

	mov	edx, DWORD PTR _this$[ebp]
	mov	eax, DWORD PTR [edx+4]
	mov	DWORD PTR [eax+268], 0

; 146  : 	pev->movetype = MOVETYPE_NOCLIP;

	mov	ecx, DWORD PTR _this$[ebp]
	mov	edx, DWORD PTR [ecx+4]
	mov	DWORD PTR [edx+264], 8

; 147  : 	
; 148  : 	m_pGoalEnt = NULL;

	mov	eax, DWORD PTR _this$[ebp]
	mov	DWORD PTR [eax+8], 0

; 149  : }

	mov	esp, ebp
	pop	ebp
	ret	0
?Spawn@CBaseSpectator@@UAEXXZ ENDP			; CBaseSpectator::Spawn
_TEXT	ENDS
; Function compile flags: /Odtp
; File c:\users\user\downloads\xashxt_v0.81_rev.1_with_sources\xashxt_v0.81_rev.1_src\server\util.h
;	COMDAT ?FNullEnt@@YAHPBUedict_s@@@Z
_TEXT	SEGMENT
tv70 = -4						; size = 4
_pent$ = 8						; size = 4
?FNullEnt@@YAHPBUedict_s@@@Z PROC			; FNullEnt, COMDAT

; 195  : inline BOOL FNullEnt(const edict_t* pent)	{ return pent == NULL || FNullEnt(OFFSET(pent)); }

	push	ebp
	mov	ebp, esp
	push	ecx
	cmp	DWORD PTR _pent$[ebp], 0
	je	SHORT $LN3@FNullEnt
	mov	eax, DWORD PTR _pent$[ebp]
	push	eax
	call	?OFFSET@@YAHPBUedict_s@@@Z		; OFFSET
	add	esp, 4
	push	eax
	call	?FNullEnt@@YAHH@Z			; FNullEnt
	add	esp, 4
	test	eax, eax
	jne	SHORT $LN3@FNullEnt
	mov	DWORD PTR tv70[ebp], 0
	jmp	SHORT $LN4@FNullEnt
$LN3@FNullEnt:
	mov	DWORD PTR tv70[ebp], 1
$LN4@FNullEnt:
	mov	eax, DWORD PTR tv70[ebp]
	mov	esp, ebp
	pop	ebp
	ret	0
?FNullEnt@@YAHPBUedict_s@@@Z ENDP			; FNullEnt
_TEXT	ENDS
; Function compile flags: /Odtp
; File c:\users\user\downloads\xashxt_v0.81_rev.1_with_sources\xashxt_v0.81_rev.1_src\server\util.h
;	COMDAT ?FNullEnt@@YAHH@Z
_TEXT	SEGMENT
tv65 = -4						; size = 4
_eoffset$ = 8						; size = 4
?FNullEnt@@YAHH@Z PROC					; FNullEnt, COMDAT

; 194  : inline BOOL FNullEnt(EOFFSET eoffset)			{ return eoffset == 0; }

	push	ebp
	mov	ebp, esp
	push	ecx
	cmp	DWORD PTR _eoffset$[ebp], 0
	jne	SHORT $LN3@FNullEnt
	mov	DWORD PTR tv65[ebp], 1
	jmp	SHORT $LN4@FNullEnt
$LN3@FNullEnt:
	mov	DWORD PTR tv65[ebp], 0
$LN4@FNullEnt:
	mov	eax, DWORD PTR tv65[ebp]
	mov	esp, ebp
	pop	ebp
	ret	0
?FNullEnt@@YAHH@Z ENDP					; FNullEnt
_TEXT	ENDS
; Function compile flags: /Odtp
; File c:\users\user\downloads\xashxt_v0.81_rev.1_with_sources\xashxt_v0.81_rev.1_src\server\util.h
;	COMDAT ?OFFSET@@YAHPBUedict_s@@@Z
_TEXT	SEGMENT
_pent$ = 8						; size = 4
?OFFSET@@YAHPBUedict_s@@@Z PROC				; OFFSET, COMDAT

; 160  : { 

	push	ebp
	mov	ebp, esp

; 161  : #if _DEBUG
; 162  : 	if ( !pent )

	cmp	DWORD PTR _pent$[ebp], 0
	jne	SHORT $LN2@OFFSET

; 163  : 		ALERT( at_error, "Bad ent in OFFSET()\n" );

	push	OFFSET ??_C@_0BF@CPEPILID@Bad?5ent?5in?5OFFSET?$CI?$CJ?6@
	push	4
	call	DWORD PTR ?g_engfuncs@@3Uenginefuncs_s@@A+244
	add	esp, 8
$LN2@OFFSET:

; 164  : #endif
; 165  : 	return (*g_engfuncs.pfnEntOffsetOfPEntity)(pent); 

	mov	eax, DWORD PTR _pent$[ebp]
	push	eax
	call	DWORD PTR ?g_engfuncs@@3Uenginefuncs_s@@A+280
	add	esp, 4

; 166  : }

	pop	ebp
	ret	0
?OFFSET@@YAHPBUedict_s@@@Z ENDP				; OFFSET
_TEXT	ENDS
; Function compile flags: /Odtp
; File c:\users\user\downloads\xashxt_v0.81_rev.1_with_sources\xashxt_v0.81_rev.1_src\server\util.h
;	COMDAT ?FIND_ENTITY_BY_CLASSNAME@@YAPAUedict_s@@PAU1@PBD@Z
_TEXT	SEGMENT
_entStart$ = 8						; size = 4
_pszName$ = 12						; size = 4
?FIND_ENTITY_BY_CLASSNAME@@YAPAUedict_s@@PAU1@PBD@Z PROC ; FIND_ENTITY_BY_CLASSNAME, COMDAT

; 109  : {

	push	ebp
	mov	ebp, esp

; 110  : 	return FIND_ENTITY_BY_STRING(entStart, "classname", pszName);

	mov	eax, DWORD PTR _pszName$[ebp]
	push	eax
	push	OFFSET ??_C@_09CNJINBGN@classname@
	mov	ecx, DWORD PTR _entStart$[ebp]
	push	ecx
	call	DWORD PTR ?g_engfuncs@@3Uenginefuncs_s@@A+56
	add	esp, 12					; 0000000cH

; 111  : }	

	pop	ebp
	ret	0
?FIND_ENTITY_BY_CLASSNAME@@YAPAUedict_s@@PAU1@PBD@Z ENDP ; FIND_ENTITY_BY_CLASSNAME
_TEXT	ENDS
; Function compile flags: /Odtp
;	COMDAT ??__G@YGXPAX0IIP6EPAX00@Z@Z
_TEXT	SEGMENT
tv66 = -4						; size = 4
___t$ = 8						; size = 4
___u$ = 12						; size = 4
___s$ = 16						; size = 4
___n$ = 20						; size = 4
___f$ = 24						; size = 4
??__G@YGXPAX0IIP6EPAX00@Z@Z PROC			; `vector copy constructor iterator', COMDAT
	push	ebp
	mov	ebp, esp
	push	ecx
$LN2@vector:
	mov	eax, DWORD PTR ___n$[ebp]
	mov	DWORD PTR tv66[ebp], eax
	mov	ecx, DWORD PTR ___n$[ebp]
	sub	ecx, 1
	mov	DWORD PTR ___n$[ebp], ecx
	cmp	DWORD PTR tv66[ebp], 0
	jbe	SHORT $LN1@vector
	mov	edx, DWORD PTR ___u$[ebp]
	push	edx
	mov	ecx, DWORD PTR ___t$[ebp]
	call	DWORD PTR ___f$[ebp]
	mov	eax, DWORD PTR ___t$[ebp]
	add	eax, DWORD PTR ___s$[ebp]
	mov	DWORD PTR ___t$[ebp], eax
	mov	ecx, DWORD PTR ___u$[ebp]
	add	ecx, DWORD PTR ___s$[ebp]
	mov	DWORD PTR ___u$[ebp], ecx
	jmp	SHORT $LN2@vector
$LN1@vector:
	mov	esp, ebp
	pop	ebp
	ret	20					; 00000014H
??__G@YGXPAX0IIP6EPAX00@Z@Z ENDP			; `vector copy constructor iterator'
_TEXT	ENDS
; Function compile flags: /Odtp
;	COMDAT ??_H@YGXPAXIIP6EPAX0@Z@Z
_TEXT	SEGMENT
tv66 = -4						; size = 4
___t$ = 8						; size = 4
___s$ = 12						; size = 4
___n$ = 16						; size = 4
___f$ = 20						; size = 4
??_H@YGXPAXIIP6EPAX0@Z@Z PROC				; `vector constructor iterator', COMDAT
	push	ebp
	mov	ebp, esp
	push	ecx
$LN2@vector:
	mov	eax, DWORD PTR ___n$[ebp]
	mov	DWORD PTR tv66[ebp], eax
	mov	ecx, DWORD PTR ___n$[ebp]
	sub	ecx, 1
	mov	DWORD PTR ___n$[ebp], ecx
	cmp	DWORD PTR tv66[ebp], 0
	jbe	SHORT $LN1@vector
	mov	ecx, DWORD PTR ___t$[ebp]
	call	DWORD PTR ___f$[ebp]
	mov	edx, DWORD PTR ___t$[ebp]
	add	edx, DWORD PTR ___s$[ebp]
	mov	DWORD PTR ___t$[ebp], edx
	jmp	SHORT $LN2@vector
$LN1@vector:
	mov	esp, ebp
	pop	ebp
	ret	16					; 00000010H
??_H@YGXPAXIIP6EPAX0@Z@Z ENDP				; `vector constructor iterator'
_TEXT	ENDS
END
